TN:
SF:/home/brunnels/Research/alamo/ext/amrex/2d-coverage-g++-23.08/include/AMReX.H
FNF:0
FNH:0
DA:107,16998333
DA:142,0
DA:144,0
DA:159,0
DA:161,0
DA:187,0
DA:189,0
LF:7
LH:1
end_of_record
TN:
SF:/home/brunnels/Research/alamo/ext/amrex/2d-coverage-g++-23.08/include/AMReX_Algorithm.H
FNF:0
FNH:0
DA:23,508451
DA:97,0
DA:99,0
LF:3
LH:1
end_of_record
TN:
SF:/home/brunnels/Research/alamo/ext/amrex/2d-coverage-g++-23.08/include/AMReX_AmrMesh.H
FN:81,_ZNK5amrex7AmrMesh7VerboseEv
FN:84,_ZNK5amrex7AmrMesh8maxLevelEv
FN:90,_ZNK5amrex7AmrMesh8refRatioEi
FN:96,_ZNK5amrex7AmrMesh8refRatioEv
FN:98,_ZNK5amrex7AmrMesh4GeomEv
FN:104,_ZNK5amrex7AmrMesh8boxArrayEi
FN:106,_ZNK5amrex7AmrMesh4GeomEii
FN:122,_ZNK5amrex7AmrMesh15DistributionMapEii
FN:242,_ZN5amrex7AmrMesh19ManualTagsPlacementEiRNS_11TagBoxArrayERKNS_6VectorINS_7IntVectESaIS4_EEE
FN:250,_ZNK5amrex7AmrMesh20PostProcessBaseGridsERNS_8BoxArrayE
FN:252,_ZN5amrex7AmrMesh15GetAreaNotToTagEi
FNDA:239,_ZNK5amrex7AmrMesh8maxLevelEv
FNDA:0,_ZN5amrex7AmrMesh15GetAreaNotToTagEi
FNDA:0,_ZN5amrex7AmrMesh19ManualTagsPlacementEiRNS_11TagBoxArrayERKNS_6VectorINS_7IntVectESaIS4_EEE
FNDA:19165,_ZNK5amrex7AmrMesh8refRatioEi
FNDA:130,_ZNK5amrex7AmrMesh15DistributionMapEii
FNDA:9850,_ZNK5amrex7AmrMesh7VerboseEv
FNDA:130,_ZNK5amrex7AmrMesh4GeomEii
FNDA:248,_ZNK5amrex7AmrMesh8boxArrayEi
FNDA:135,_ZNK5amrex7AmrMesh8refRatioEv
FNDA:82,_ZNK5amrex7AmrMesh4GeomEv
FNDA:0,_ZNK5amrex7AmrMesh20PostProcessBaseGridsERNS_8BoxArrayE
FNF:11
FNH:8
DA:81,9850
DA:84,239
DA:90,19165
DA:96,135
DA:98,82
DA:104,248
DA:106,130
DA:107,130
DA:108,130
DA:109,316
DA:110,186
DA:112,130
DA:122,130
DA:123,130
DA:124,130
DA:125,316
DA:126,186
DA:128,130
DA:242,0
DA:250,0
DA:252,0
LF:21
LH:18
end_of_record
TN:
SF:/home/brunnels/Research/alamo/ext/amrex/2d-coverage-g++-23.08/include/AMReX_Arena.H
FN:18,_ZN5amrex12aligned_sizeEmm
FNDA:0,_ZN5amrex12aligned_sizeEmm
FNF:1
FNH:0
DA:18,0
DA:20,0
LF:2
LH:0
end_of_record
TN:
SF:/home/brunnels/Research/alamo/ext/amrex/2d-coverage-g++-23.08/include/AMReX_Array.H
FNF:0
FNH:0
DA:61,29376
LF:1
LH:1
end_of_record
TN:
SF:/home/brunnels/Research/alamo/ext/amrex/2d-coverage-g++-23.08/include/AMReX_Array4.H
FN:74,_ZN5amrex6Array4IKN5Model5Solid7Elastic17PseudoLinearCubicEEC2IS5_Li0EEERKNS0_IS4_EE
FN:74,_ZN5amrex6Array4IKN5Eigen6MatrixIdLi2ELi1ELi0ELi2ELi1EEEEC2IS4_Li0EEERKNS0_IS3_EE
FN:74,_ZN5amrex6Array4IKN5Model5Solid6Linear9LaplacianEEC2IS5_Li0EEERKNS0_IS4_EE
FN:74,_ZN5amrex6Array4IKiEC2IS1_Li0EEERKNS0_IiEE
FN:74,_ZN5amrex6Array4IKN5Model5Solid6Linear5CubicEEC2IS5_Li0EEERKNS0_IS4_EE
FN:74,_ZN5amrex6Array4IKN3Set7Matrix4ILi2ELi3EEEEC2IS4_Li0EEERKNS0_IS3_EE
FN:74,_ZN5amrex6Array4IKN3Set7Matrix4ILi2ELi1EEEEC2IS4_Li0EEERKNS0_IS3_EE
FN:74,_ZN5amrex6Array4IKN5Model5Solid6Affine5CubicEEC2IS5_Li0EEERKNS0_IS4_EE
FN:74,_ZN5amrex6Array4IKN5Model5Solid6Linear9IsotropicEEC2IS5_Li0EEERKNS0_IS4_EE
FN:74,_ZN5amrex6Array4IKN3Set7Matrix4ILi2ELi4EEEEC2IS4_Li0EEERKNS0_IS3_EE
FN:74,_ZN5amrex6Array4IKN5Model5Solid6Affine2J2EEC2IS5_Li0EEERKNS0_IS4_EE
FN:74,_ZN5amrex6Array4IKN5Model5Solid6Affine9HexagonalEEC2IS5_Li0EEERKNS0_IS4_EE
FN:74,_ZN5amrex6Array4IKN5Model5Solid7Elastic10NeoHookeanEEC2IS5_Li0EEERKNS0_IS4_EE
FN:74,_ZN5amrex6Array4IKN3Set7Matrix4ILi2ELi6EEEEC2IS4_Li0EEERKNS0_IS3_EE
FN:74,_ZN5amrex6Array4IKdEC2IS1_Li0EEERKNS0_IdEE
FN:74,_ZN5amrex6Array4IKN5Eigen6MatrixIdLi2ELi2ELi0ELi2ELi2EEEEC2IS4_Li0EEERKNS0_IS3_EE
FN:74,_ZN5amrex6Array4IKN5Model5Solid7Elastic28PseudoLinearCubicPredeformedEEC2IS5_Li0EEERKNS0_IS4_EE
FN:74,_ZN5amrex6Array4IKN5Model5Solid6Linear19IsotropicDegradableEEC2IS5_Li0EEERKNS0_IS4_EE
FN:74,_ZN5amrex6Array4IKN5Model5Solid6Affine9IsotropicEEC2IS5_Li0EEERKNS0_IS4_EE
FN:85,_ZN5amrex6Array4IN3Set7Matrix4ILi2ELi6EEEEC2EPS3_RKNS_4Dim3ES8_i
FN:85,_ZN5amrex6Array4IN5Model5Solid7Elastic28PseudoLinearCubicPredeformedEEC2EPS4_RKNS_4Dim3ES9_i
FN:85,_ZN5amrex6Array4IN5Model5Solid6Affine5CubicEEC2EPS4_RKNS_4Dim3ES9_i
FN:85,_ZN5amrex6Array4IN5Model5Solid7Elastic17PseudoLinearCubicEEC2EPS4_RKNS_4Dim3ES9_i
FN:85,_ZN5amrex6Array4IN3Set7Matrix4ILi2ELi3EEEEC2EPS3_RKNS_4Dim3ES8_i
FN:85,_ZN5amrex6Array4IcEC2EPcRKNS_4Dim3ES5_i
FN:85,_ZN5amrex6Array4IiEC2EPiRKNS_4Dim3ES5_i
FN:85,_ZN5amrex6Array4IKN5Eigen6MatrixIdLi2ELi1ELi0ELi2ELi1EEEEC2EPS4_RKNS_4Dim3ES9_i
FN:85,_ZN5amrex6Array4IKN5Model5Solid6Affine9HexagonalEEC2EPS5_RKNS_4Dim3ESA_i
FN:85,_ZN5amrex6Array4IN5Model5Solid6Linear9LaplacianEEC2EPS4_RKNS_4Dim3ES9_i
FN:85,_ZN5amrex6Array4IN5Eigen6MatrixIdLi2ELi2ELi0ELi2ELi2EEEEC2EPS3_RKNS_4Dim3ES8_i
FN:85,_ZN5amrex6Array4IKN5Model5Solid6Affine2J2EEC2EPS5_RKNS_4Dim3ESA_i
FN:85,_ZN5amrex6Array4IdEC2EPdRKNS_4Dim3ES5_i
FN:85,_ZN5amrex6Array4IN5Eigen6MatrixIdLi2ELi1ELi0ELi2ELi1EEEEC2EPS3_RKNS_4Dim3ES8_i
FN:85,_ZN5amrex6Array4IKN5Model5Solid7Elastic10NeoHookeanEEC2EPS5_RKNS_4Dim3ESA_i
FN:85,_ZN5amrex6Array4IKN5Eigen6MatrixIdLi2ELi2ELi0ELi2ELi2EEEEC2EPS4_RKNS_4Dim3ES9_i
FN:85,_ZN5amrex6Array4IN5Model5Solid6Affine2J2EEC2EPS4_RKNS_4Dim3ES9_i
FN:85,_ZN5amrex6Array4IN5Model5Solid6Linear9IsotropicEEC2EPS4_RKNS_4Dim3ES9_i
FN:85,_ZN5amrex6Array4IN5Model5Solid6Affine9IsotropicEEC2EPS4_RKNS_4Dim3ES9_i
FN:85,_ZN5amrex6Array4IKiEC2EPS1_RKNS_4Dim3ES6_i
FN:85,_ZN5amrex6Array4IKN5Model5Solid6Linear19IsotropicDegradableEEC2EPS5_RKNS_4Dim3ESA_i
FN:85,_ZN5amrex6Array4IN3Set7Matrix4ILi2ELi4EEEEC2EPS3_RKNS_4Dim3ES8_i
FN:85,_ZN5amrex6Array4IKdEC2EPS1_RKNS_4Dim3ES6_i
FN:85,_ZN5amrex6Array4IKN5Model5Solid6Linear9IsotropicEEC2EPS5_RKNS_4Dim3ESA_i
FN:85,_ZN5amrex6Array4IKN5Model5Solid6Linear5CubicEEC2EPS5_RKNS_4Dim3ESA_i
FN:85,_ZN5amrex6Array4IKN3Set7Matrix4ILi2ELi3EEEEC2EPS4_RKNS_4Dim3ES9_i
FN:85,_ZN5amrex6Array4IN5Model5Solid6Affine9HexagonalEEC2EPS4_RKNS_4Dim3ES9_i
FN:85,_ZN5amrex6Array4IKN5Model5Solid6Affine9IsotropicEEC2EPS5_RKNS_4Dim3ESA_i
FN:85,_ZN5amrex6Array4IKN3Set7Matrix4ILi2ELi4EEEEC2EPS4_RKNS_4Dim3ES9_i
FN:85,_ZN5amrex6Array4IN5Model5Solid6Linear19IsotropicDegradableEEC2EPS4_RKNS_4Dim3ES9_i
FN:85,_ZN5amrex6Array4IKN5Model5Solid6Linear9LaplacianEEC2EPS5_RKNS_4Dim3ESA_i
FN:85,_ZN5amrex6Array4IKN5Model5Solid7Elastic28PseudoLinearCubicPredeformedEEC2EPS5_RKNS_4Dim3ESA_i
FN:85,_ZN5amrex6Array4IN5Model5Solid7Elastic10NeoHookeanEEC2EPS4_RKNS_4Dim3ES9_i
FN:85,_ZN5amrex6Array4IKN3Set7Matrix4ILi2ELi1EEEEC2EPS4_RKNS_4Dim3ES9_i
FN:85,_ZN5amrex6Array4IKN5Model5Solid7Elastic17PseudoLinearCubicEEC2EPS5_RKNS_4Dim3ESA_i
FN:85,_ZN5amrex6Array4IN3Set7Matrix4ILi2ELi1EEEEC2EPS3_RKNS_4Dim3ES8_i
FN:85,_ZN5amrex6Array4IKN5Model5Solid6Affine5CubicEEC2EPS5_RKNS_4Dim3ESA_i
FN:85,_ZN5amrex6Array4IN5Model5Solid6Linear5CubicEEC2EPS4_RKNS_4Dim3ES9_i
FN:85,_ZN5amrex6Array4IKN3Set7Matrix4ILi2ELi6EEEEC2EPS4_RKNS_4Dim3ES9_i
FNDA:0,_ZN5amrex6Array4IN5Model5Solid6Linear5CubicEEC2EPS4_RKNS_4Dim3ES9_i
FNDA:36044,_ZN5amrex6Array4IKN5Model5Solid6Affine5CubicEEC2EPS5_RKNS_4Dim3ESA_i
FNDA:4552,_ZN5amrex6Array4IKN5Model5Solid6Affine9IsotropicEEC2IS5_Li0EEERKNS0_IS4_EE
FNDA:18567,_ZN5amrex6Array4IKN3Set7Matrix4ILi2ELi6EEEEC2EPS4_RKNS_4Dim3ES9_i
FNDA:5699820,_ZN5amrex6Array4IKdEC2IS1_Li0EEERKNS0_IdEE
FNDA:0,_ZN5amrex6Array4IKN5Model5Solid7Elastic17PseudoLinearCubicEEC2EPS5_RKNS_4Dim3ESA_i
FNDA:6204220,_ZN5amrex6Array4IKN3Set7Matrix4ILi2ELi6EEEEC2IS4_Li0EEERKNS0_IS3_EE
FNDA:0,_ZN5amrex6Array4IKN5Model5Solid6Linear19IsotropicDegradableEEC2IS5_Li0EEERKNS0_IS4_EE
FNDA:672923,_ZN5amrex6Array4IN3Set7Matrix4ILi2ELi1EEEEC2EPS3_RKNS_4Dim3ES8_i
FNDA:0,_ZN5amrex6Array4IKN5Model5Solid7Elastic28PseudoLinearCubicPredeformedEEC2IS5_Li0EEERKNS0_IS4_EE
FNDA:629685,_ZN5amrex6Array4IKN5Eigen6MatrixIdLi2ELi2ELi0ELi2ELi2EEEEC2IS4_Li0EEERKNS0_IS3_EE
FNDA:0,_ZN5amrex6Array4IKN5Model5Solid7Elastic28PseudoLinearCubicPredeformedEEC2EPS5_RKNS_4Dim3ESA_i
FNDA:0,_ZN5amrex6Array4IKN5Model5Solid6Linear9LaplacianEEC2EPS5_RKNS_4Dim3ESA_i
FNDA:0,_ZN5amrex6Array4IN5Model5Solid6Linear19IsotropicDegradableEEC2EPS4_RKNS_4Dim3ES9_i
FNDA:1685,_ZN5amrex6Array4IKN5Model5Solid7Elastic10NeoHookeanEEC2IS5_Li0EEERKNS0_IS4_EE
FNDA:0,_ZN5amrex6Array4IKN5Model5Solid6Affine9HexagonalEEC2IS5_Li0EEERKNS0_IS4_EE
FNDA:13190,_ZN5amrex6Array4IKN3Set7Matrix4ILi2ELi1EEEEC2EPS4_RKNS_4Dim3ES9_i
FNDA:36,_ZN5amrex6Array4IKN5Model5Solid6Affine2J2EEC2IS5_Li0EEERKNS0_IS4_EE
FNDA:2565,_ZN5amrex6Array4IN5Model5Solid7Elastic10NeoHookeanEEC2EPS4_RKNS_4Dim3ES9_i
FNDA:147166,_ZN5amrex6Array4IKN3Set7Matrix4ILi2ELi4EEEEC2IS4_Li0EEERKNS0_IS3_EE
FNDA:30726,_ZN5amrex6Array4IKN5Model5Solid6Affine9IsotropicEEC2EPS5_RKNS_4Dim3ESA_i
FNDA:0,_ZN5amrex6Array4IN5Model5Solid6Affine9HexagonalEEC2EPS4_RKNS_4Dim3ES9_i
FNDA:41,_ZN5amrex6Array4IKN3Set7Matrix4ILi2ELi4EEEEC2EPS4_RKNS_4Dim3ES9_i
FNDA:69,_ZN5amrex6Array4IKN5Model5Solid6Linear9IsotropicEEC2IS5_Li0EEERKNS0_IS4_EE
FNDA:3194,_ZN5amrex6Array4IKN5Model5Solid6Affine5CubicEEC2IS5_Li0EEERKNS0_IS4_EE
FNDA:19057200,_ZN5amrex6Array4IKdEC2EPS1_RKNS_4Dim3ES6_i
FNDA:517,_ZN5amrex6Array4IN3Set7Matrix4ILi2ELi4EEEEC2EPS3_RKNS_4Dim3ES8_i
FNDA:0,_ZN5amrex6Array4IKN5Model5Solid6Linear19IsotropicDegradableEEC2EPS5_RKNS_4Dim3ESA_i
FNDA:63073,_ZN5amrex6Array4IKN3Set7Matrix4ILi2ELi3EEEEC2EPS4_RKNS_4Dim3ES9_i
FNDA:699,_ZN5amrex6Array4IKN5Model5Solid6Linear9IsotropicEEC2EPS5_RKNS_4Dim3ESA_i
FNDA:0,_ZN5amrex6Array4IKN5Model5Solid6Linear5CubicEEC2EPS5_RKNS_4Dim3ESA_i
FNDA:1816,_ZN5amrex6Array4IN5Model5Solid6Linear9IsotropicEEC2EPS4_RKNS_4Dim3ES9_i
FNDA:117,_ZN5amrex6Array4IN5Model5Solid6Affine2J2EEC2EPS4_RKNS_4Dim3ES9_i
FNDA:114228,_ZN5amrex6Array4IKiEC2EPS1_RKNS_4Dim3ES6_i
FNDA:188732000,_ZN5amrex6Array4IKN3Set7Matrix4ILi2ELi1EEEEC2IS4_Li0EEERKNS0_IS3_EE
FNDA:245060,_ZN5amrex6Array4IN5Model5Solid6Affine9IsotropicEEC2EPS4_RKNS_4Dim3ES9_i
FNDA:28455,_ZN5amrex6Array4IKiEC2IS1_Li0EEERKNS0_IiEE
FNDA:22626000,_ZN5amrex6Array4IdEC2EPdRKNS_4Dim3ES5_i
FNDA:43,_ZN5amrex6Array4IKN5Model5Solid6Affine2J2EEC2EPS5_RKNS_4Dim3ESA_i
FNDA:667656,_ZN5amrex6Array4IN5Eigen6MatrixIdLi2ELi2ELi0ELi2ELi2EEEEC2EPS3_RKNS_4Dim3ES8_i
FNDA:5,_ZN5amrex6Array4IN5Model5Solid6Linear9LaplacianEEC2EPS4_RKNS_4Dim3ES9_i
FNDA:150417,_ZN5amrex6Array4IKN5Eigen6MatrixIdLi2ELi2ELi0ELi2ELi2EEEEC2EPS4_RKNS_4Dim3ES9_i
FNDA:24355300,_ZN5amrex6Array4IKN3Set7Matrix4ILi2ELi3EEEEC2IS4_Li0EEERKNS0_IS3_EE
FNDA:201,_ZN5amrex6Array4IKN5Model5Solid7Elastic10NeoHookeanEEC2EPS5_RKNS_4Dim3ESA_i
FNDA:234553,_ZN5amrex6Array4IN5Eigen6MatrixIdLi2ELi1ELi0ELi2ELi1EEEEC2EPS3_RKNS_4Dim3ES8_i
FNDA:0,_ZN5amrex6Array4IKN5Model5Solid6Linear5CubicEEC2IS5_Li0EEERKNS0_IS4_EE
FNDA:169352,_ZN5amrex6Array4IN3Set7Matrix4ILi2ELi3EEEEC2EPS3_RKNS_4Dim3ES8_i
FNDA:0,_ZN5amrex6Array4IKN5Model5Solid7Elastic17PseudoLinearCubicEEC2IS5_Li0EEERKNS0_IS4_EE
FNDA:12179,_ZN5amrex6Array4IcEC2EPcRKNS_4Dim3ES5_i
FNDA:0,_ZN5amrex6Array4IN5Model5Solid7Elastic17PseudoLinearCubicEEC2EPS4_RKNS_4Dim3ES9_i
FNDA:0,_ZN5amrex6Array4IN5Model5Solid7Elastic28PseudoLinearCubicPredeformedEEC2EPS4_RKNS_4Dim3ES9_i
FNDA:33482,_ZN5amrex6Array4IN3Set7Matrix4ILi2ELi6EEEEC2EPS3_RKNS_4Dim3ES8_i
FNDA:48380,_ZN5amrex6Array4IN5Model5Solid6Affine5CubicEEC2EPS4_RKNS_4Dim3ES9_i
FNDA:0,_ZN5amrex6Array4IKN5Model5Solid6Affine9HexagonalEEC2EPS5_RKNS_4Dim3ESA_i
FNDA:1,_ZN5amrex6Array4IKN5Model5Solid6Linear9LaplacianEEC2IS5_Li0EEERKNS0_IS4_EE
FNDA:133910,_ZN5amrex6Array4IKN5Eigen6MatrixIdLi2ELi1ELi0ELi2ELi1EEEEC2EPS4_RKNS_4Dim3ES9_i
FNDA:154352,_ZN5amrex6Array4IiEC2EPiRKNS_4Dim3ES5_i
FNDA:84035,_ZN5amrex6Array4IKN5Eigen6MatrixIdLi2ELi1ELi0ELi2ELi1EEEEC2IS4_Li0EEERKNS0_IS3_EE
FNF:58
FNH:42
DA:74,225890218
DA:75,225890218
DA:76,225890218
DA:77,225890218
DA:78,225890218
DA:81,225890218
DA:82,225890218
DA:85,44487296
DA:87,44487296
DA:88,44487296
DA:89,44487296
DA:92,44487296
DA:93,44487296
DA:134,692144500
DA:143,6894899810
DA:219,0
DA:223,447175
DA:279,19363
LF:18
LH:17
end_of_record
TN:
SF:/home/brunnels/Research/alamo/ext/amrex/2d-coverage-g++-23.08/include/AMReX_BCRec.H
FN:24,_ZN5amrex5BCRecC2Ev
FN:40,_ZN5amrex5BCRecC2EPKiS2_
FNDA:9108,_ZN5amrex5BCRecC2EPKiS2_
FNDA:19968,_ZN5amrex5BCRecC2Ev
FNF:2
FNH:2
DA:24,19968
DA:40,9108
DA:41,9108
DA:42,9108
DA:43,9108
LF:5
LH:5
end_of_record
TN:
SF:/home/brunnels/Research/alamo/ext/amrex/2d-coverage-g++-23.08/include/AMReX_BaseFab.H
FN:69,_ZN5amrex7SrcCompC2Ei
FN:75,_ZN5amrex8DestCompC2Ei
FN:81,_ZN5amrex8NumCompsC2Ei
FN:158,_ZN5amrex12placementNewIN5Model5Solid7Elastic17PseudoLinearCubicEEENSt9enable_ifIXntsrSt34is_trivially_default_constructibleIT_E5valueEvE4typeEPS7_l
FN:158,_ZN5amrex12placementNewIN5Model5Solid6Affine5CubicEEENSt9enable_ifIXntsrSt34is_trivially_default_constructibleIT_E5valueEvE4typeEPS7_l
FN:158,_ZN5amrex12placementNewIN5Model5Solid6Linear9IsotropicEEENSt9enable_ifIXntsrSt34is_trivially_default_constructibleIT_E5valueEvE4typeEPS7_l
FN:158,_ZN5amrex12placementNewIN5Eigen6MatrixIdLi2ELi1ELi0ELi2ELi1EEEEENSt9enable_ifIXntsrSt34is_trivially_default_constructibleIT_E5valueEvE4typeEPS6_l
FN:158,_ZN5amrex12placementNewIN3Set7Matrix4ILi2ELi3EEEEENSt9enable_ifIXntsrSt34is_trivially_default_constructibleIT_E5valueEvE4typeEPS6_l
FN:158,_ZN5amrex12placementNewIN5Model5Solid6Affine9HexagonalEEENSt9enable_ifIXntsrSt34is_trivially_default_constructibleIT_E5valueEvE4typeEPS7_l
FN:158,_ZN5amrex12placementNewIN5Model5Solid6Linear5CubicEEENSt9enable_ifIXntsrSt34is_trivially_default_constructibleIT_E5valueEvE4typeEPS7_l
FN:158,_ZN5amrex12placementNewIN5Model5Solid7Elastic28PseudoLinearCubicPredeformedEEENSt9enable_ifIXntsrSt34is_trivially_default_constructibleIT_E5valueEvE4typeEPS7_l
FN:158,_ZN5amrex12placementNewIN3Set7Matrix4ILi2ELi1EEEEENSt9enable_ifIXntsrSt34is_trivially_default_constructibleIT_E5valueEvE4typeEPS6_l
FN:158,_ZN5amrex12placementNewIN5Model5Solid6Linear9LaplacianEEENSt9enable_ifIXntsrSt34is_trivially_default_constructibleIT_E5valueEvE4typeEPS7_l
FN:158,_ZN5amrex12placementNewIN5Model5Solid7Elastic10NeoHookeanEEENSt9enable_ifIXntsrSt34is_trivially_default_constructibleIT_E5valueEvE4typeEPS7_l
FN:158,_ZN5amrex12placementNewIN3Set7Matrix4ILi2ELi6EEEEENSt9enable_ifIXntsrSt34is_trivially_default_constructibleIT_E5valueEvE4typeEPS6_l
FN:158,_ZN5amrex12placementNewIN5Model5Solid6Affine9IsotropicEEENSt9enable_ifIXntsrSt34is_trivially_default_constructibleIT_E5valueEvE4typeEPS7_l
FN:158,_ZN5amrex12placementNewIN5Eigen6MatrixIdLi2ELi2ELi0ELi2ELi2EEEEENSt9enable_ifIXntsrSt34is_trivially_default_constructibleIT_E5valueEvE4typeEPS6_l
FN:158,_ZN5amrex12placementNewIN5Model5Solid6Linear19IsotropicDegradableEEENSt9enable_ifIXntsrSt34is_trivially_default_constructibleIT_E5valueEvE4typeEPS7_l
FN:158,_ZN5amrex12placementNewIN3Set7Matrix4ILi2ELi4EEEEENSt9enable_ifIXntsrSt34is_trivially_default_constructibleIT_E5valueEvE4typeEPS6_l
FN:158,_ZN5amrex12placementNewIN5Model5Solid6Affine2J2EEENSt9enable_ifIXntsrSt34is_trivially_default_constructibleIT_E5valueEvE4typeEPS7_l
FN:168,_ZN5amrex15placementDeleteIN3Set7Matrix4ILi2ELi4EEEEENSt9enable_ifIXsrSt25is_trivially_destructibleIT_E5valueEvE4typeEPS6_l
FN:168,_ZN5amrex15placementDeleteIN5Eigen6MatrixIdLi2ELi2ELi0ELi2ELi2EEEEENSt9enable_ifIXsrSt25is_trivially_destructibleIT_E5valueEvE4typeEPS6_l
FN:168,_ZN5amrex15placementDeleteIdEENSt9enable_ifIXsrSt25is_trivially_destructibleIT_E5valueEvE4typeEPS3_l
FN:168,_ZN5amrex15placementDeleteIN3Set7Matrix4ILi2ELi1EEEEENSt9enable_ifIXsrSt25is_trivially_destructibleIT_E5valueEvE4typeEPS6_l
FN:168,_ZN5amrex15placementDeleteIN3Set7Matrix4ILi2ELi6EEEEENSt9enable_ifIXsrSt25is_trivially_destructibleIT_E5valueEvE4typeEPS6_l
FN:168,_ZN5amrex15placementDeleteIN5Eigen6MatrixIdLi2ELi1ELi0ELi2ELi1EEEEENSt9enable_ifIXsrSt25is_trivially_destructibleIT_E5valueEvE4typeEPS6_l
FN:168,_ZN5amrex15placementDeleteIN3Set7Matrix4ILi2ELi3EEEEENSt9enable_ifIXsrSt25is_trivially_destructibleIT_E5valueEvE4typeEPS6_l
FN:173,_ZN5amrex15placementDeleteIN5Model5Solid6Affine9IsotropicEEENSt9enable_ifIXntsrSt25is_trivially_destructibleIT_E5valueEvE4typeEPS7_l
FN:173,_ZN5amrex15placementDeleteIN5Model5Solid7Elastic28PseudoLinearCubicPredeformedEEENSt9enable_ifIXntsrSt25is_trivially_destructibleIT_E5valueEvE4typeEPS7_l
FN:173,_ZN5amrex15placementDeleteIN5Model5Solid6Linear9LaplacianEEENSt9enable_ifIXntsrSt25is_trivially_destructibleIT_E5valueEvE4typeEPS7_l
FN:173,_ZN5amrex15placementDeleteIN5Model5Solid6Linear9IsotropicEEENSt9enable_ifIXntsrSt25is_trivially_destructibleIT_E5valueEvE4typeEPS7_l
FN:173,_ZN5amrex15placementDeleteIN5Model5Solid6Linear5CubicEEENSt9enable_ifIXntsrSt25is_trivially_destructibleIT_E5valueEvE4typeEPS7_l
FN:173,_ZN5amrex15placementDeleteIN5Model5Solid7Elastic10NeoHookeanEEENSt9enable_ifIXntsrSt25is_trivially_destructibleIT_E5valueEvE4typeEPS7_l
FN:173,_ZN5amrex15placementDeleteIN5Model5Solid6Affine5CubicEEENSt9enable_ifIXntsrSt25is_trivially_destructibleIT_E5valueEvE4typeEPS7_l
FN:173,_ZN5amrex15placementDeleteIN5Model5Solid6Linear19IsotropicDegradableEEENSt9enable_ifIXntsrSt25is_trivially_destructibleIT_E5valueEvE4typeEPS7_l
FN:173,_ZN5amrex15placementDeleteIN5Model5Solid6Affine2J2EEENSt9enable_ifIXntsrSt25is_trivially_destructibleIT_E5valueEvE4typeEPS7_l
FN:173,_ZN5amrex15placementDeleteIN5Model5Solid6Affine9HexagonalEEENSt9enable_ifIXntsrSt25is_trivially_destructibleIT_E5valueEvE4typeEPS7_l
FN:173,_ZN5amrex15placementDeleteIN5Model5Solid7Elastic17PseudoLinearCubicEEENSt9enable_ifIXntsrSt25is_trivially_destructibleIT_E5valueEvE4typeEPS7_l
FN:267,_ZNK5amrex7BaseFabIN5Model5Solid6Affine2J2EE6nBytesEv
FN:267,_ZNK5amrex7BaseFabIN5Model5Solid6Linear9IsotropicEE6nBytesEv
FN:267,_ZNK5amrex7BaseFabIN5Model5Solid6Affine5CubicEE6nBytesEv
FN:267,_ZNK5amrex7BaseFabIN5Model5Solid6Linear9LaplacianEE6nBytesEv
FN:267,_ZNK5amrex7BaseFabIN5Eigen6MatrixIdLi2ELi2ELi0ELi2ELi2EEEE6nBytesEv
FN:267,_ZNK5amrex7BaseFabIN5Model5Solid6Affine9HexagonalEE6nBytesEv
FN:267,_ZNK5amrex7BaseFabIN5Model5Solid7Elastic10NeoHookeanEE6nBytesEv
FN:267,_ZNK5amrex7BaseFabIN3Set7Matrix4ILi2ELi4EEEE6nBytesEv
FN:267,_ZNK5amrex7BaseFabIiE6nBytesEv
FN:267,_ZNK5amrex7BaseFabIN5Model5Solid7Elastic17PseudoLinearCubicEE6nBytesEv
FN:267,_ZNK5amrex7BaseFabIN5Eigen6MatrixIdLi2ELi1ELi0ELi2ELi1EEEE6nBytesEv
FN:267,_ZNK5amrex7BaseFabIN3Set7Matrix4ILi2ELi6EEEE6nBytesEv
FN:267,_ZNK5amrex7BaseFabIN5Model5Solid6Linear5CubicEE6nBytesEv
FN:267,_ZNK5amrex7BaseFabIN3Set7Matrix4ILi2ELi1EEEE6nBytesEv
FN:267,_ZNK5amrex7BaseFabIN5Model5Solid6Affine9IsotropicEE6nBytesEv
FN:267,_ZNK5amrex7BaseFabIdE6nBytesEv
FN:267,_ZNK5amrex7BaseFabIN3Set7Matrix4ILi2ELi3EEEE6nBytesEv
FN:267,_ZNK5amrex7BaseFabIN5Model5Solid6Linear19IsotropicDegradableEE6nBytesEv
FN:267,_ZNK5amrex7BaseFabIN5Model5Solid7Elastic28PseudoLinearCubicPredeformedEE6nBytesEv
FN:269,_ZNK5amrex7BaseFabIN5Model5Solid6Affine9HexagonalEE11nBytesOwnedEv
FN:269,_ZNK5amrex7BaseFabIN5Model5Solid6Affine5CubicEE11nBytesOwnedEv
FN:269,_ZNK5amrex7BaseFabIN3Set7Matrix4ILi2ELi4EEEE11nBytesOwnedEv
FN:269,_ZNK5amrex7BaseFabIiE11nBytesOwnedEv
FN:269,_ZNK5amrex7BaseFabIN3Set7Matrix4ILi2ELi3EEEE11nBytesOwnedEv
FN:269,_ZNK5amrex7BaseFabIN5Eigen6MatrixIdLi2ELi2ELi0ELi2ELi2EEEE11nBytesOwnedEv
FN:269,_ZNK5amrex7BaseFabIN5Model5Solid7Elastic28PseudoLinearCubicPredeformedEE11nBytesOwnedEv
FN:269,_ZNK5amrex7BaseFabIN3Set7Matrix4ILi2ELi6EEEE11nBytesOwnedEv
FN:269,_ZNK5amrex7BaseFabIN5Model5Solid6Linear9IsotropicEE11nBytesOwnedEv
FN:269,_ZNK5amrex7BaseFabIN5Model5Solid7Elastic17PseudoLinearCubicEE11nBytesOwnedEv
FN:269,_ZNK5amrex7BaseFabIN5Model5Solid6Linear9LaplacianEE11nBytesOwnedEv
FN:269,_ZNK5amrex7BaseFabIdE11nBytesOwnedEv
FN:269,_ZNK5amrex7BaseFabIN5Model5Solid6Linear5CubicEE11nBytesOwnedEv
FN:269,_ZNK5amrex7BaseFabIN5Eigen6MatrixIdLi2ELi1ELi0ELi2ELi1EEEE11nBytesOwnedEv
FN:269,_ZNK5amrex7BaseFabIN5Model5Solid6Linear19IsotropicDegradableEE11nBytesOwnedEv
FN:269,_ZNK5amrex7BaseFabIN5Model5Solid6Affine2J2EE11nBytesOwnedEv
FN:269,_ZNK5amrex7BaseFabIN3Set7Matrix4ILi2ELi1EEEE11nBytesOwnedEv
FN:269,_ZNK5amrex7BaseFabIN5Model5Solid7Elastic10NeoHookeanEE11nBytesOwnedEv
FN:269,_ZNK5amrex7BaseFabIN5Model5Solid6Affine9IsotropicEE11nBytesOwnedEv
FN:278,_ZNK5amrex7BaseFabIdE5nCompEv
FN:286,_ZNK5amrex7BaseFabIdE6numPtsEv
FN:292,_ZNK5amrex7BaseFabIN5Model5Solid6Affine2J2EE3boxEv
FN:292,_ZNK5amrex7BaseFabIN5Model5Solid6Linear9IsotropicEE3boxEv
FN:292,_ZNK5amrex7BaseFabIN5Model5Solid6Affine5CubicEE3boxEv
FN:292,_ZNK5amrex7BaseFabIN5Eigen6MatrixIdLi2ELi1ELi0ELi2ELi1EEEE3boxEv
FN:292,_ZNK5amrex7BaseFabIN5Eigen6MatrixIdLi2ELi2ELi0ELi2ELi2EEEE3boxEv
FN:292,_ZNK5amrex7BaseFabIN5Model5Solid6Linear5CubicEE3boxEv
FN:292,_ZNK5amrex7BaseFabIdE3boxEv
FN:292,_ZNK5amrex7BaseFabIN5Model5Solid6Affine9HexagonalEE3boxEv
FN:292,_ZNK5amrex7BaseFabIN5Model5Solid6Linear9LaplacianEE3boxEv
FN:292,_ZNK5amrex7BaseFabIN5Model5Solid6Affine9IsotropicEE3boxEv
FN:292,_ZNK5amrex7BaseFabIN5Model5Solid6Linear19IsotropicDegradableEE3boxEv
FN:292,_ZNK5amrex7BaseFabIN5Model5Solid7Elastic28PseudoLinearCubicPredeformedEE3boxEv
FN:292,_ZNK5amrex7BaseFabIN5Model5Solid7Elastic10NeoHookeanEE3boxEv
FN:292,_ZNK5amrex7BaseFabIN5Model5Solid7Elastic17PseudoLinearCubicEE3boxEv
FN:362,_ZNK5amrex7BaseFabIN3Set7Matrix4ILi2ELi4EEEE7dataPtrEi
FN:362,_ZNK5amrex7BaseFabIN5Model5Solid6Linear5CubicEE7dataPtrEi
FN:362,_ZNK5amrex7BaseFabIN5Model5Solid6Affine5CubicEE7dataPtrEi
FN:362,_ZNK5amrex7BaseFabIN5Model5Solid7Elastic10NeoHookeanEE7dataPtrEi
FN:362,_ZNK5amrex7BaseFabIN5Model5Solid6Affine9IsotropicEE7dataPtrEi
FN:362,_ZNK5amrex7BaseFabIN5Eigen6MatrixIdLi2ELi2ELi0ELi2ELi2EEEE7dataPtrEi
FN:362,_ZNK5amrex7BaseFabIN5Model5Solid6Linear9LaplacianEE7dataPtrEi
FN:362,_ZNK5amrex7BaseFabIN5Model5Solid6Affine9HexagonalEE7dataPtrEi
FN:362,_ZNK5amrex7BaseFabIN3Set7Matrix4ILi2ELi6EEEE7dataPtrEi
FN:362,_ZNK5amrex7BaseFabIN5Eigen6MatrixIdLi2ELi1ELi0ELi2ELi1EEEE7dataPtrEi
FN:362,_ZNK5amrex7BaseFabIN5Model5Solid6Linear9IsotropicEE7dataPtrEi
FN:362,_ZNK5amrex7BaseFabIN5Model5Solid7Elastic28PseudoLinearCubicPredeformedEE7dataPtrEi
FN:362,_ZNK5amrex7BaseFabIN3Set7Matrix4ILi2ELi3EEEE7dataPtrEi
FN:362,_ZNK5amrex7BaseFabIN5Model5Solid6Affine2J2EE7dataPtrEi
FN:362,_ZNK5amrex7BaseFabIN5Model5Solid7Elastic17PseudoLinearCubicEE7dataPtrEi
FN:362,_ZNK5amrex7BaseFabIN3Set7Matrix4ILi2ELi1EEEE7dataPtrEi
FN:362,_ZNK5amrex7BaseFabIN5Model5Solid6Linear19IsotropicDegradableEE7dataPtrEi
FN:1835,_ZN5amrex7BaseFabIiE6setValILNS_5RunOnE1EEEvRKiRKNS_3BoxEii
FN:1851,_ZN5amrex7BaseFabIN5Model5Solid6Affine9IsotropicEE4copyILNS_5RunOnE1EEERS5_RKS5_RKNS_3BoxEiSD_ii
FN:1851,_ZN5amrex7BaseFabIN3Set7Matrix4ILi2ELi4EEEE4copyILNS_5RunOnE0EEERS4_RKS4_RKNS_3BoxEiSC_ii
FN:1851,_ZN5amrex7BaseFabIN5Model5Solid7Elastic10NeoHookeanEE4copyILNS_5RunOnE1EEERS5_RKS5_RKNS_3BoxEiSD_ii
FN:1851,_ZN5amrex7BaseFabIN5Model5Solid7Elastic28PseudoLinearCubicPredeformedEE4copyILNS_5RunOnE1EEERS5_RKS5_RKNS_3BoxEiSD_ii
FN:1851,_ZN5amrex7BaseFabIN3Set7Matrix4ILi2ELi1EEEE4copyILNS_5RunOnE1EEERS4_RKS4_RKNS_3BoxEiSC_ii
FN:1851,_ZN5amrex7BaseFabIN5Model5Solid7Elastic28PseudoLinearCubicPredeformedEE4copyILNS_5RunOnE0EEERS5_RKS5_RKNS_3BoxEiSD_ii
FN:1851,_ZN5amrex7BaseFabIN5Model5Solid7Elastic10NeoHookeanEE4copyILNS_5RunOnE0EEERS5_RKS5_RKNS_3BoxEiSD_ii
FN:1851,_ZN5amrex7BaseFabIN5Eigen6MatrixIdLi2ELi2ELi0ELi2ELi2EEEE4copyILNS_5RunOnE0EEERS4_RKS4_RKNS_3BoxEiSC_ii
FN:1851,_ZN5amrex7BaseFabIN5Eigen6MatrixIdLi2ELi2ELi0ELi2ELi2EEEE4copyILNS_5RunOnE1EEERS4_RKS4_RKNS_3BoxEiSC_ii
FN:1851,_ZN5amrex7BaseFabIN5Model5Solid7Elastic17PseudoLinearCubicEE4copyILNS_5RunOnE1EEERS5_RKS5_RKNS_3BoxEiSD_ii
FN:1851,_ZN5amrex7BaseFabIN3Set7Matrix4ILi2ELi6EEEE4copyILNS_5RunOnE1EEERS4_RKS4_RKNS_3BoxEiSC_ii
FN:1851,_ZN5amrex7BaseFabIN5Model5Solid6Affine2J2EE4copyILNS_5RunOnE1EEERS5_RKS5_RKNS_3BoxEiSD_ii
FN:1851,_ZN5amrex7BaseFabIN5Model5Solid6Affine9IsotropicEE4copyILNS_5RunOnE0EEERS5_RKS5_RKNS_3BoxEiSD_ii
FN:1851,_ZN5amrex7BaseFabIN3Set7Matrix4ILi2ELi6EEEE4copyILNS_5RunOnE0EEERS4_RKS4_RKNS_3BoxEiSC_ii
FN:1851,_ZN5amrex7BaseFabIN3Set7Matrix4ILi2ELi3EEEE4copyILNS_5RunOnE0EEERS4_RKS4_RKNS_3BoxEiSC_ii
FN:1851,_ZN5amrex7BaseFabIN5Model5Solid6Linear9IsotropicEE4copyILNS_5RunOnE0EEERS5_RKS5_RKNS_3BoxEiSD_ii
FN:1851,_ZN5amrex7BaseFabIN5Model5Solid6Affine2J2EE4copyILNS_5RunOnE0EEERS5_RKS5_RKNS_3BoxEiSD_ii
FN:1851,_ZN5amrex7BaseFabIN5Model5Solid7Elastic17PseudoLinearCubicEE4copyILNS_5RunOnE0EEERS5_RKS5_RKNS_3BoxEiSD_ii
FN:1851,_ZN5amrex7BaseFabIN5Model5Solid6Affine5CubicEE4copyILNS_5RunOnE0EEERS5_RKS5_RKNS_3BoxEiSD_ii
FN:1851,_ZN5amrex7BaseFabIdE4copyILNS_5RunOnE1EEERS1_RKS1_RKNS_3BoxEiS9_ii
FN:1851,_ZN5amrex7BaseFabIN5Model5Solid6Affine5CubicEE4copyILNS_5RunOnE1EEERS5_RKS5_RKNS_3BoxEiSD_ii
FN:1851,_ZN5amrex7BaseFabIN5Eigen6MatrixIdLi2ELi1ELi0ELi2ELi1EEEE4copyILNS_5RunOnE0EEERS4_RKS4_RKNS_3BoxEiSC_ii
FN:1851,_ZN5amrex7BaseFabIN5Model5Solid6Linear5CubicEE4copyILNS_5RunOnE1EEERS5_RKS5_RKNS_3BoxEiSD_ii
FN:1851,_ZN5amrex7BaseFabIN5Model5Solid6Linear5CubicEE4copyILNS_5RunOnE0EEERS5_RKS5_RKNS_3BoxEiSD_ii
FN:1851,_ZN5amrex7BaseFabIiE4copyILNS_5RunOnE1EEERS1_RKS1_RKNS_3BoxEiS9_ii
FN:1851,_ZN5amrex7BaseFabIN5Model5Solid6Linear19IsotropicDegradableEE4copyILNS_5RunOnE1EEERS5_RKS5_RKNS_3BoxEiSD_ii
FN:1851,_ZN5amrex7BaseFabIN5Model5Solid6Linear9LaplacianEE4copyILNS_5RunOnE1EEERS5_RKS5_RKNS_3BoxEiSD_ii
FN:1851,_ZN5amrex7BaseFabIN5Model5Solid6Affine9HexagonalEE4copyILNS_5RunOnE1EEERS5_RKS5_RKNS_3BoxEiSD_ii
FN:1851,_ZN5amrex7BaseFabIN5Model5Solid6Linear9IsotropicEE4copyILNS_5RunOnE1EEERS5_RKS5_RKNS_3BoxEiSD_ii
FN:1851,_ZN5amrex7BaseFabIN5Model5Solid6Affine9HexagonalEE4copyILNS_5RunOnE0EEERS5_RKS5_RKNS_3BoxEiSD_ii
FN:1851,_ZN5amrex7BaseFabIN5Model5Solid6Linear9LaplacianEE4copyILNS_5RunOnE0EEERS5_RKS5_RKNS_3BoxEiSD_ii
FN:1851,_ZN5amrex7BaseFabIN5Eigen6MatrixIdLi2ELi1ELi0ELi2ELi1EEEE4copyILNS_5RunOnE1EEERS4_RKS4_RKNS_3BoxEiSC_ii
FN:1851,_ZN5amrex7BaseFabIN5Model5Solid6Linear19IsotropicDegradableEE4copyILNS_5RunOnE0EEERS5_RKS5_RKNS_3BoxEiSD_ii
FN:1851,_ZN5amrex7BaseFabIN3Set7Matrix4ILi2ELi3EEEE4copyILNS_5RunOnE1EEERS4_RKS4_RKNS_3BoxEiSC_ii
FN:1851,_ZN5amrex7BaseFabIN3Set7Matrix4ILi2ELi4EEEE4copyILNS_5RunOnE1EEERS4_RKS4_RKNS_3BoxEiSC_ii
FN:1851,_ZN5amrex7BaseFabIN3Set7Matrix4ILi2ELi1EEEE4copyILNS_5RunOnE0EEERS4_RKS4_RKNS_3BoxEiSC_ii
FN:1867,_ZZN5amrex7BaseFabIN5Model5Solid7Elastic28PseudoLinearCubicPredeformedEE4copyILNS_5RunOnE1EEERS5_RKS5_RKNS_3BoxEiSD_iiENKUliiiiE_clEiiii
FN:1867,_ZZN5amrex7BaseFabIN3Set7Matrix4ILi2ELi6EEEE4copyILNS_5RunOnE0EEERS4_RKS4_RKNS_3BoxEiSC_iiENKUliiiiE_clEiiii
FN:1867,_ZZN5amrex7BaseFabIN3Set7Matrix4ILi2ELi1EEEE4copyILNS_5RunOnE0EEERS4_RKS4_RKNS_3BoxEiSC_iiENKUliiiiE_clEiiii
FN:1867,_ZZN5amrex7BaseFabIN5Eigen6MatrixIdLi2ELi1ELi0ELi2ELi1EEEE4copyILNS_5RunOnE1EEERS4_RKS4_RKNS_3BoxEiSC_iiENKUliiiiE_clEiiii
FN:1867,_ZZN5amrex7BaseFabIN5Model5Solid6Linear9IsotropicEE4copyILNS_5RunOnE1EEERS5_RKS5_RKNS_3BoxEiSD_iiENKUliiiiE_clEiiii
FN:1867,_ZZN5amrex7BaseFabIiE4copyILNS_5RunOnE1EEERS1_RKS1_RKNS_3BoxEiS9_iiENKUliiiiE_clEiiii
FN:1867,_ZZN5amrex7BaseFabIN5Model5Solid6Affine5CubicEE4copyILNS_5RunOnE1EEERS5_RKS5_RKNS_3BoxEiSD_iiENKUliiiiE_clEiiii
FN:1867,_ZZN5amrex7BaseFabIN5Model5Solid6Affine5CubicEE4copyILNS_5RunOnE0EEERS5_RKS5_RKNS_3BoxEiSD_iiENKUliiiiE_clEiiii
FN:1867,_ZZN5amrex7BaseFabIN5Model5Solid6Affine9HexagonalEE4copyILNS_5RunOnE1EEERS5_RKS5_RKNS_3BoxEiSD_iiENKUliiiiE_clEiiii
FN:1867,_ZZN5amrex7BaseFabIN5Model5Solid6Affine9IsotropicEE4copyILNS_5RunOnE0EEERS5_RKS5_RKNS_3BoxEiSD_iiENKUliiiiE_clEiiii
FN:1867,_ZZN5amrex7BaseFabIN5Model5Solid7Elastic28PseudoLinearCubicPredeformedEE4copyILNS_5RunOnE0EEERS5_RKS5_RKNS_3BoxEiSD_iiENKUliiiiE_clEiiii
FN:1867,_ZZN5amrex7BaseFabIN5Model5Solid6Linear19IsotropicDegradableEE4copyILNS_5RunOnE1EEERS5_RKS5_RKNS_3BoxEiSD_iiENKUliiiiE_clEiiii
FN:1867,_ZZN5amrex7BaseFabIN3Set7Matrix4ILi2ELi3EEEE4copyILNS_5RunOnE0EEERS4_RKS4_RKNS_3BoxEiSC_iiENKUliiiiE_clEiiii
FN:1867,_ZZN5amrex7BaseFabIN3Set7Matrix4ILi2ELi6EEEE4copyILNS_5RunOnE1EEERS4_RKS4_RKNS_3BoxEiSC_iiENKUliiiiE_clEiiii
FN:1867,_ZZN5amrex7BaseFabIN5Eigen6MatrixIdLi2ELi1ELi0ELi2ELi1EEEE4copyILNS_5RunOnE0EEERS4_RKS4_RKNS_3BoxEiSC_iiENKUliiiiE_clEiiii
FN:1867,_ZZN5amrex7BaseFabIN5Model5Solid7Elastic10NeoHookeanEE4copyILNS_5RunOnE0EEERS5_RKS5_RKNS_3BoxEiSD_iiENKUliiiiE_clEiiii
FN:1867,_ZZN5amrex7BaseFabIN5Model5Solid6Linear9IsotropicEE4copyILNS_5RunOnE0EEERS5_RKS5_RKNS_3BoxEiSD_iiENKUliiiiE_clEiiii
FN:1867,_ZZN5amrex7BaseFabIN5Model5Solid6Affine9IsotropicEE4copyILNS_5RunOnE1EEERS5_RKS5_RKNS_3BoxEiSD_iiENKUliiiiE_clEiiii
FN:1867,_ZZN5amrex7BaseFabIN5Eigen6MatrixIdLi2ELi2ELi0ELi2ELi2EEEE4copyILNS_5RunOnE1EEERS4_RKS4_RKNS_3BoxEiSC_iiENKUliiiiE_clEiiii
FN:1867,_ZZN5amrex7BaseFabIN5Model5Solid7Elastic17PseudoLinearCubicEE4copyILNS_5RunOnE1EEERS5_RKS5_RKNS_3BoxEiSD_iiENKUliiiiE_clEiiii
FN:1867,_ZZN5amrex7BaseFabIN3Set7Matrix4ILi2ELi4EEEE4copyILNS_5RunOnE1EEERS4_RKS4_RKNS_3BoxEiSC_iiENKUliiiiE_clEiiii
FN:1867,_ZZN5amrex7BaseFabIN3Set7Matrix4ILi2ELi3EEEE4copyILNS_5RunOnE1EEERS4_RKS4_RKNS_3BoxEiSC_iiENKUliiiiE_clEiiii
FN:1867,_ZZN5amrex7BaseFabIdE4copyILNS_5RunOnE1EEERS1_RKS1_RKNS_3BoxEiS9_iiENKUliiiiE_clEiiii
FN:1867,_ZZN5amrex7BaseFabIN5Model5Solid7Elastic17PseudoLinearCubicEE4copyILNS_5RunOnE0EEERS5_RKS5_RKNS_3BoxEiSD_iiENKUliiiiE_clEiiii
FN:1867,_ZZN5amrex7BaseFabIN5Model5Solid6Linear5CubicEE4copyILNS_5RunOnE1EEERS5_RKS5_RKNS_3BoxEiSD_iiENKUliiiiE_clEiiii
FN:1867,_ZZN5amrex7BaseFabIN5Model5Solid6Linear9LaplacianEE4copyILNS_5RunOnE0EEERS5_RKS5_RKNS_3BoxEiSD_iiENKUliiiiE_clEiiii
FN:1867,_ZZN5amrex7BaseFabIN3Set7Matrix4ILi2ELi1EEEE4copyILNS_5RunOnE1EEERS4_RKS4_RKNS_3BoxEiSC_iiENKUliiiiE_clEiiii
FN:1867,_ZZN5amrex7BaseFabIN5Model5Solid7Elastic10NeoHookeanEE4copyILNS_5RunOnE1EEERS5_RKS5_RKNS_3BoxEiSD_iiENKUliiiiE_clEiiii
FN:1867,_ZZN5amrex7BaseFabIN5Eigen6MatrixIdLi2ELi2ELi0ELi2ELi2EEEE4copyILNS_5RunOnE0EEERS4_RKS4_RKNS_3BoxEiSC_iiENKUliiiiE_clEiiii
FN:1867,_ZZN5amrex7BaseFabIN5Model5Solid6Linear9LaplacianEE4copyILNS_5RunOnE1EEERS5_RKS5_RKNS_3BoxEiSD_iiENKUliiiiE_clEiiii
FN:1867,_ZZN5amrex7BaseFabIN5Model5Solid6Affine2J2EE4copyILNS_5RunOnE1EEERS5_RKS5_RKNS_3BoxEiSD_iiENKUliiiiE_clEiiii
FN:1867,_ZZN5amrex7BaseFabIN3Set7Matrix4ILi2ELi4EEEE4copyILNS_5RunOnE0EEERS4_RKS4_RKNS_3BoxEiSC_iiENKUliiiiE_clEiiii
FN:1867,_ZZN5amrex7BaseFabIN5Model5Solid6Affine9HexagonalEE4copyILNS_5RunOnE0EEERS5_RKS5_RKNS_3BoxEiSD_iiENKUliiiiE_clEiiii
FN:1867,_ZZN5amrex7BaseFabIN5Model5Solid6Affine2J2EE4copyILNS_5RunOnE0EEERS5_RKS5_RKNS_3BoxEiSD_iiENKUliiiiE_clEiiii
FN:1867,_ZZN5amrex7BaseFabIN5Model5Solid6Linear19IsotropicDegradableEE4copyILNS_5RunOnE0EEERS5_RKS5_RKNS_3BoxEiSD_iiENKUliiiiE_clEiiii
FN:1867,_ZZN5amrex7BaseFabIN5Model5Solid6Linear5CubicEE4copyILNS_5RunOnE0EEERS5_RKS5_RKNS_3BoxEiSD_iiENKUliiiiE_clEiiii
FN:1893,_ZN5amrex7BaseFabIN5Model5Solid6Linear19IsotropicDegradableEE6defineEv
FN:1893,_ZN5amrex7BaseFabIN5Model5Solid7Elastic28PseudoLinearCubicPredeformedEE6defineEv
FN:1893,_ZN5amrex7BaseFabIN3Set7Matrix4ILi2ELi4EEEE6defineEv
FN:1893,_ZN5amrex7BaseFabIN5Model5Solid6Linear9LaplacianEE6defineEv
FN:1893,_ZN5amrex7BaseFabIN5Model5Solid7Elastic17PseudoLinearCubicEE6defineEv
FN:1893,_ZN5amrex7BaseFabIN5Eigen6MatrixIdLi2ELi2ELi0ELi2ELi2EEEE6defineEv
FN:1893,_ZN5amrex7BaseFabIN5Model5Solid6Affine5CubicEE6defineEv
FN:1893,_ZN5amrex7BaseFabIN5Model5Solid6Affine2J2EE6defineEv
FN:1893,_ZN5amrex7BaseFabIN5Model5Solid6Affine9IsotropicEE6defineEv
FN:1893,_ZN5amrex7BaseFabIN5Model5Solid6Linear5CubicEE6defineEv
FN:1893,_ZN5amrex7BaseFabIN3Set7Matrix4ILi2ELi1EEEE6defineEv
FN:1893,_ZN5amrex7BaseFabIN5Model5Solid6Affine9HexagonalEE6defineEv
FN:1893,_ZN5amrex7BaseFabIN3Set7Matrix4ILi2ELi3EEEE6defineEv
FN:1893,_ZN5amrex7BaseFabIN3Set7Matrix4ILi2ELi6EEEE6defineEv
FN:1893,_ZN5amrex7BaseFabIN5Model5Solid7Elastic10NeoHookeanEE6defineEv
FN:1893,_ZN5amrex7BaseFabIN5Model5Solid6Linear9IsotropicEE6defineEv
FN:1893,_ZN5amrex7BaseFabIN5Eigen6MatrixIdLi2ELi1ELi0ELi2ELi1EEEE6defineEv
FN:1923,_ZN5amrex7BaseFabIN5Model5Solid7Elastic10NeoHookeanEEC2ERKNS_3BoxEibbPNS_5ArenaE
FN:1923,_ZN5amrex7BaseFabIN3Set7Matrix4ILi2ELi4EEEEC2ERKNS_3BoxEibbPNS_5ArenaE
FN:1923,_ZN5amrex7BaseFabIN5Model5Solid6Linear5CubicEEC2ERKNS_3BoxEibbPNS_5ArenaE
FN:1923,_ZN5amrex7BaseFabIN5Model5Solid6Linear9IsotropicEEC2ERKNS_3BoxEibbPNS_5ArenaE
FN:1923,_ZN5amrex7BaseFabIN5Eigen6MatrixIdLi2ELi2ELi0ELi2ELi2EEEEC2ERKNS_3BoxEibbPNS_5ArenaE
FN:1923,_ZN5amrex7BaseFabIN5Model5Solid6Affine5CubicEEC2ERKNS_3BoxEibbPNS_5ArenaE
FN:1923,_ZN5amrex7BaseFabIN3Set7Matrix4ILi2ELi1EEEEC2ERKNS_3BoxEibbPNS_5ArenaE
FN:1923,_ZN5amrex7BaseFabIN5Model5Solid6Linear19IsotropicDegradableEEC2ERKNS_3BoxEibbPNS_5ArenaE
FN:1923,_ZN5amrex7BaseFabIN5Model5Solid6Affine9IsotropicEEC2ERKNS_3BoxEibbPNS_5ArenaE
FN:1923,_ZN5amrex7BaseFabIN5Model5Solid7Elastic28PseudoLinearCubicPredeformedEEC2ERKNS_3BoxEibbPNS_5ArenaE
FN:1923,_ZN5amrex7BaseFabIN5Model5Solid6Affine9HexagonalEEC2ERKNS_3BoxEibbPNS_5ArenaE
FN:1923,_ZN5amrex7BaseFabIN5Model5Solid6Affine2J2EEC2ERKNS_3BoxEibbPNS_5ArenaE
FN:1923,_ZN5amrex7BaseFabIN3Set7Matrix4ILi2ELi6EEEEC2ERKNS_3BoxEibbPNS_5ArenaE
FN:1923,_ZN5amrex7BaseFabIN5Model5Solid6Linear9LaplacianEEC2ERKNS_3BoxEibbPNS_5ArenaE
FN:1923,_ZN5amrex7BaseFabIN5Model5Solid7Elastic17PseudoLinearCubicEEC2ERKNS_3BoxEibbPNS_5ArenaE
FN:1923,_ZN5amrex7BaseFabIN5Eigen6MatrixIdLi2ELi1ELi0ELi2ELi1EEEEC2ERKNS_3BoxEibbPNS_5ArenaE
FN:1923,_ZN5amrex7BaseFabIN3Set7Matrix4ILi2ELi3EEEEC2ERKNS_3BoxEibbPNS_5ArenaE
FN:1930,_ZN5amrex7BaseFabIN5Eigen6MatrixIdLi2ELi1ELi0ELi2ELi1EEEEC2ERKS4_NS_8MakeTypeEii
FN:1930,_ZN5amrex7BaseFabIN5Model5Solid6Linear9IsotropicEEC2ERKS5_NS_8MakeTypeEii
FN:1930,_ZN5amrex7BaseFabIN5Model5Solid6Affine2J2EEC2ERKS5_NS_8MakeTypeEii
FN:1930,_ZN5amrex7BaseFabIN3Set7Matrix4ILi2ELi3EEEEC2ERKS4_NS_8MakeTypeEii
FN:1930,_ZN5amrex7BaseFabIN5Model5Solid6Affine9IsotropicEEC2ERKS5_NS_8MakeTypeEii
FN:1930,_ZN5amrex7BaseFabIN3Set7Matrix4ILi2ELi1EEEEC2ERKS4_NS_8MakeTypeEii
FN:1930,_ZN5amrex7BaseFabIN3Set7Matrix4ILi2ELi6EEEEC2ERKS4_NS_8MakeTypeEii
FN:1930,_ZN5amrex7BaseFabIN3Set7Matrix4ILi2ELi4EEEEC2ERKS4_NS_8MakeTypeEii
FN:1930,_ZN5amrex7BaseFabIN5Model5Solid6Linear19IsotropicDegradableEEC2ERKS5_NS_8MakeTypeEii
FN:1930,_ZN5amrex7BaseFabIN5Model5Solid6Linear9LaplacianEEC2ERKS5_NS_8MakeTypeEii
FN:1930,_ZN5amrex7BaseFabIN5Model5Solid7Elastic10NeoHookeanEEC2ERKS5_NS_8MakeTypeEii
FN:1930,_ZN5amrex7BaseFabIN5Model5Solid6Linear5CubicEEC2ERKS5_NS_8MakeTypeEii
FN:1930,_ZN5amrex7BaseFabIN5Model5Solid6Affine5CubicEEC2ERKS5_NS_8MakeTypeEii
FN:1930,_ZN5amrex7BaseFabIN5Eigen6MatrixIdLi2ELi2ELi0ELi2ELi2EEEEC2ERKS4_NS_8MakeTypeEii
FN:1930,_ZN5amrex7BaseFabIN5Model5Solid7Elastic28PseudoLinearCubicPredeformedEEC2ERKS5_NS_8MakeTypeEii
FN:1930,_ZN5amrex7BaseFabIN5Model5Solid6Affine9HexagonalEEC2ERKS5_NS_8MakeTypeEii
FN:1930,_ZN5amrex7BaseFabIN5Model5Solid7Elastic17PseudoLinearCubicEEC2ERKS5_NS_8MakeTypeEii
FN:1994,_ZN5amrex7BaseFabIN5Model5Solid6Affine5CubicEED2Ev
FN:1994,_ZN5amrex7BaseFabIN3Set7Matrix4ILi2ELi1EEEED2Ev
FN:1994,_ZN5amrex7BaseFabIN5Model5Solid6Linear9LaplacianEED2Ev
FN:1994,_ZN5amrex7BaseFabIN3Set7Matrix4ILi2ELi6EEEED2Ev
FN:1994,_ZN5amrex7BaseFabIN5Model5Solid6Affine9HexagonalEED0Ev
FN:1994,_ZN5amrex7BaseFabIN5Model5Solid7Elastic10NeoHookeanEED0Ev
FN:1994,_ZN5amrex7BaseFabIN3Set7Matrix4ILi2ELi3EEEED2Ev
FN:1994,_ZN5amrex7BaseFabIN5Model5Solid7Elastic10NeoHookeanEED2Ev
FN:1994,_ZN5amrex7BaseFabIdED2Ev
FN:1994,_ZN5amrex7BaseFabIN5Model5Solid7Elastic28PseudoLinearCubicPredeformedEED2Ev
FN:1994,_ZN5amrex7BaseFabIN5Model5Solid6Affine9IsotropicEED2Ev
FN:1994,_ZN5amrex7BaseFabIN5Model5Solid6Affine9HexagonalEED2Ev
FN:1994,_ZN5amrex7BaseFabIN5Model5Solid6Affine5CubicEED0Ev
FN:1994,_ZN5amrex7BaseFabIN5Model5Solid7Elastic17PseudoLinearCubicEED2Ev
FN:1994,_ZN5amrex7BaseFabIN3Set7Matrix4ILi2ELi1EEEED0Ev
FN:1994,_ZN5amrex7BaseFabIN5Model5Solid7Elastic17PseudoLinearCubicEED0Ev
FN:1994,_ZN5amrex7BaseFabIN3Set7Matrix4ILi2ELi4EEEED2Ev
FN:1994,_ZN5amrex7BaseFabIN5Model5Solid7Elastic28PseudoLinearCubicPredeformedEED0Ev
FN:1994,_ZN5amrex7BaseFabIN5Model5Solid6Linear9IsotropicEED0Ev
FN:1994,_ZN5amrex7BaseFabIN5Eigen6MatrixIdLi2ELi1ELi0ELi2ELi1EEEED0Ev
FN:1994,_ZN5amrex7BaseFabIN5Model5Solid6Affine2J2EED2Ev
FN:1994,_ZN5amrex7BaseFabIN3Set7Matrix4ILi2ELi6EEEED0Ev
FN:1994,_ZN5amrex7BaseFabIN5Model5Solid6Linear9IsotropicEED2Ev
FN:1994,_ZN5amrex7BaseFabIN5Eigen6MatrixIdLi2ELi2ELi0ELi2ELi2EEEED0Ev
FN:1994,_ZN5amrex7BaseFabIN5Model5Solid6Linear5CubicEED2Ev
FN:1994,_ZN5amrex7BaseFabIdED0Ev
FN:1994,_ZN5amrex7BaseFabIN5Eigen6MatrixIdLi2ELi2ELi0ELi2ELi2EEEED2Ev
FN:1994,_ZN5amrex7BaseFabIN5Model5Solid6Linear19IsotropicDegradableEED2Ev
FN:1994,_ZN5amrex7BaseFabIN5Model5Solid6Linear19IsotropicDegradableEED0Ev
FN:1994,_ZN5amrex7BaseFabIN3Set7Matrix4ILi2ELi3EEEED0Ev
FN:1994,_ZN5amrex7BaseFabIN3Set7Matrix4ILi2ELi4EEEED0Ev
FN:1994,_ZN5amrex7BaseFabIN5Eigen6MatrixIdLi2ELi1ELi0ELi2ELi1EEEED2Ev
FN:1994,_ZN5amrex7BaseFabIN5Model5Solid6Linear9LaplacianEED0Ev
FN:1994,_ZN5amrex7BaseFabIN5Model5Solid6Affine9IsotropicEED0Ev
FN:1994,_ZN5amrex7BaseFabIN5Model5Solid6Linear5CubicEED0Ev
FN:1994,_ZN5amrex7BaseFabIN5Model5Solid6Affine2J2EED0Ev
FN:2098,_ZN5amrex7BaseFabIN5Model5Solid6Linear19IsotropicDegradableEE5clearEv
FN:2098,_ZN5amrex7BaseFabIN5Model5Solid7Elastic28PseudoLinearCubicPredeformedEE5clearEv
FN:2098,_ZN5amrex7BaseFabIN5Eigen6MatrixIdLi2ELi2ELi0ELi2ELi2EEEE5clearEv
FN:2098,_ZN5amrex7BaseFabIN5Model5Solid7Elastic17PseudoLinearCubicEE5clearEv
FN:2098,_ZN5amrex7BaseFabIN5Model5Solid6Linear5CubicEE5clearEv
FN:2098,_ZN5amrex7BaseFabIdE5clearEv
FN:2098,_ZN5amrex7BaseFabIN5Eigen6MatrixIdLi2ELi1ELi0ELi2ELi1EEEE5clearEv
FN:2098,_ZN5amrex7BaseFabIN5Model5Solid6Affine9HexagonalEE5clearEv
FN:2098,_ZN5amrex7BaseFabIN5Model5Solid6Linear9IsotropicEE5clearEv
FN:2098,_ZN5amrex7BaseFabIN5Model5Solid6Affine2J2EE5clearEv
FN:2098,_ZN5amrex7BaseFabIN5Model5Solid6Affine5CubicEE5clearEv
FN:2098,_ZN5amrex7BaseFabIN5Model5Solid7Elastic10NeoHookeanEE5clearEv
FN:2098,_ZN5amrex7BaseFabIN5Model5Solid6Linear9LaplacianEE5clearEv
FN:2098,_ZN5amrex7BaseFabIN5Model5Solid6Affine9IsotropicEE5clearEv
FN:2098,_ZN5amrex7BaseFabIN3Set7Matrix4ILi2ELi3EEEE5clearEv
FN:2098,_ZN5amrex7BaseFabIN3Set7Matrix4ILi2ELi1EEEE5clearEv
FN:2098,_ZN5amrex7BaseFabIN3Set7Matrix4ILi2ELi4EEEE5clearEv
FN:2098,_ZN5amrex7BaseFabIN3Set7Matrix4ILi2ELi6EEEE5clearEv
FN:2175,_ZN5amrex7BaseFabIN3Set7Matrix4ILi2ELi4EEEE11copyFromMemILNS_5RunOnE1ES3_EEmRKNS_3BoxEiiPKv
FN:2175,_ZN5amrex7BaseFabIN3Set7Matrix4ILi2ELi1EEEE11copyFromMemILNS_5RunOnE1ES3_EEmRKNS_3BoxEiiPKv
FN:2175,_ZN5amrex7BaseFabIN5Model5Solid6Affine9IsotropicEE11copyFromMemILNS_5RunOnE1ES4_EEmRKNS_3BoxEiiPKv
FN:2175,_ZN5amrex7BaseFabIN3Set7Matrix4ILi2ELi3EEEE11copyFromMemILNS_5RunOnE1ES3_EEmRKNS_3BoxEiiPKv
FN:2175,_ZN5amrex7BaseFabIN5Model5Solid7Elastic17PseudoLinearCubicEE11copyFromMemILNS_5RunOnE1ES4_EEmRKNS_3BoxEiiPKv
FN:2175,_ZN5amrex7BaseFabIN5Model5Solid6Affine2J2EE11copyFromMemILNS_5RunOnE1ES4_EEmRKNS_3BoxEiiPKv
FN:2175,_ZN5amrex7BaseFabIN5Model5Solid6Affine5CubicEE11copyFromMemILNS_5RunOnE1ES4_EEmRKNS_3BoxEiiPKv
FN:2175,_ZN5amrex7BaseFabIN3Set7Matrix4ILi2ELi6EEEE11copyFromMemILNS_5RunOnE1ES3_EEmRKNS_3BoxEiiPKv
FN:2175,_ZN5amrex7BaseFabIN5Model5Solid7Elastic28PseudoLinearCubicPredeformedEE11copyFromMemILNS_5RunOnE1ES4_EEmRKNS_3BoxEiiPKv
FN:2175,_ZN5amrex7BaseFabIdE11copyFromMemILNS_5RunOnE1EdEEmRKNS_3BoxEiiPKv
FN:2175,_ZN5amrex7BaseFabIN5Model5Solid7Elastic10NeoHookeanEE11copyFromMemILNS_5RunOnE1ES4_EEmRKNS_3BoxEiiPKv
FN:2175,_ZN5amrex7BaseFabIN5Eigen6MatrixIdLi2ELi1ELi0ELi2ELi1EEEE11copyFromMemILNS_5RunOnE1ES3_EEmRKNS_3BoxEiiPKv
FN:2175,_ZN5amrex7BaseFabIN5Model5Solid6Linear19IsotropicDegradableEE11copyFromMemILNS_5RunOnE1ES4_EEmRKNS_3BoxEiiPKv
FN:2175,_ZN5amrex7BaseFabIN5Eigen6MatrixIdLi2ELi2ELi0ELi2ELi2EEEE11copyFromMemILNS_5RunOnE1ES3_EEmRKNS_3BoxEiiPKv
FN:2175,_ZN5amrex7BaseFabIN5Model5Solid6Affine9HexagonalEE11copyFromMemILNS_5RunOnE1ES4_EEmRKNS_3BoxEiiPKv
FN:2175,_ZN5amrex7BaseFabIN5Model5Solid6Linear9IsotropicEE11copyFromMemILNS_5RunOnE1ES4_EEmRKNS_3BoxEiiPKv
FN:2175,_ZN5amrex7BaseFabIiE11copyFromMemILNS_5RunOnE1EiEEmRKNS_3BoxEiiPKv
FN:2175,_ZN5amrex7BaseFabIN5Model5Solid6Linear9LaplacianEE11copyFromMemILNS_5RunOnE1ES4_EEmRKNS_3BoxEiiPKv
FN:2175,_ZN5amrex7BaseFabIN5Model5Solid6Linear5CubicEE11copyFromMemILNS_5RunOnE1ES4_EEmRKNS_3BoxEiiPKv
FN:2188,_ZZN5amrex7BaseFabIN5Model5Solid6Affine5CubicEE11copyFromMemILNS_5RunOnE1ES4_EEmRKNS_3BoxEiiPKvENKUliiiiE_clEiiii
FN:2188,_ZZN5amrex7BaseFabIN3Set7Matrix4ILi2ELi3EEEE11copyFromMemILNS_5RunOnE1ES3_EEmRKNS_3BoxEiiPKvENKUliiiiE_clEiiii
FN:2188,_ZZN5amrex7BaseFabIN5Model5Solid7Elastic17PseudoLinearCubicEE11copyFromMemILNS_5RunOnE1ES4_EEmRKNS_3BoxEiiPKvENKUliiiiE_clEiiii
FN:2188,_ZZN5amrex7BaseFabIN5Model5Solid7Elastic28PseudoLinearCubicPredeformedEE11copyFromMemILNS_5RunOnE1ES4_EEmRKNS_3BoxEiiPKvENKUliiiiE_clEiiii
FN:2188,_ZZN5amrex7BaseFabIN5Model5Solid6Linear9LaplacianEE11copyFromMemILNS_5RunOnE1ES4_EEmRKNS_3BoxEiiPKvENKUliiiiE_clEiiii
FN:2188,_ZZN5amrex7BaseFabIN3Set7Matrix4ILi2ELi4EEEE11copyFromMemILNS_5RunOnE1ES3_EEmRKNS_3BoxEiiPKvENKUliiiiE_clEiiii
FN:2188,_ZZN5amrex7BaseFabIN5Model5Solid6Affine2J2EE11copyFromMemILNS_5RunOnE1ES4_EEmRKNS_3BoxEiiPKvENKUliiiiE_clEiiii
FN:2188,_ZZN5amrex7BaseFabIN5Model5Solid6Linear5CubicEE11copyFromMemILNS_5RunOnE1ES4_EEmRKNS_3BoxEiiPKvENKUliiiiE_clEiiii
FN:2188,_ZZN5amrex7BaseFabIN5Model5Solid6Affine9IsotropicEE11copyFromMemILNS_5RunOnE1ES4_EEmRKNS_3BoxEiiPKvENKUliiiiE_clEiiii
FN:2188,_ZZN5amrex7BaseFabIN5Model5Solid6Affine9HexagonalEE11copyFromMemILNS_5RunOnE1ES4_EEmRKNS_3BoxEiiPKvENKUliiiiE_clEiiii
FN:2188,_ZZN5amrex7BaseFabIN5Eigen6MatrixIdLi2ELi2ELi0ELi2ELi2EEEE11copyFromMemILNS_5RunOnE1ES3_EEmRKNS_3BoxEiiPKvENKUliiiiE_clEiiii
FN:2188,_ZZN5amrex7BaseFabIN5Eigen6MatrixIdLi2ELi1ELi0ELi2ELi1EEEE11copyFromMemILNS_5RunOnE1ES3_EEmRKNS_3BoxEiiPKvENKUliiiiE_clEiiii
FN:2188,_ZZN5amrex7BaseFabIN5Model5Solid6Linear9IsotropicEE11copyFromMemILNS_5RunOnE1ES4_EEmRKNS_3BoxEiiPKvENKUliiiiE_clEiiii
FN:2188,_ZZN5amrex7BaseFabIdE11copyFromMemILNS_5RunOnE1EdEEmRKNS_3BoxEiiPKvENKUliiiiE_clEiiii
FN:2188,_ZZN5amrex7BaseFabIN3Set7Matrix4ILi2ELi6EEEE11copyFromMemILNS_5RunOnE1ES3_EEmRKNS_3BoxEiiPKvENKUliiiiE_clEiiii
FN:2188,_ZZN5amrex7BaseFabIN3Set7Matrix4ILi2ELi1EEEE11copyFromMemILNS_5RunOnE1ES3_EEmRKNS_3BoxEiiPKvENKUliiiiE_clEiiii
FN:2188,_ZZN5amrex7BaseFabIN5Model5Solid7Elastic10NeoHookeanEE11copyFromMemILNS_5RunOnE1ES4_EEmRKNS_3BoxEiiPKvENKUliiiiE_clEiiii
FN:2188,_ZZN5amrex7BaseFabIiE11copyFromMemILNS_5RunOnE1EiEEmRKNS_3BoxEiiPKvENKUliiiiE_clEiiii
FN:2188,_ZZN5amrex7BaseFabIN5Model5Solid6Linear19IsotropicDegradableEE11copyFromMemILNS_5RunOnE1ES4_EEmRKNS_3BoxEiiPKvENKUliiiiE_clEiiii
FN:2203,_ZN5amrex7BaseFabIN5Model5Solid7Elastic17PseudoLinearCubicEE10addFromMemILNS_5RunOnE1ES4_EEmRKNS_3BoxEiiPKv
FN:2203,_ZN5amrex7BaseFabIN3Set7Matrix4ILi2ELi6EEEE10addFromMemILNS_5RunOnE1ES3_EEmRKNS_3BoxEiiPKv
FN:2203,_ZN5amrex7BaseFabIN3Set7Matrix4ILi2ELi1EEEE10addFromMemILNS_5RunOnE1ES3_EEmRKNS_3BoxEiiPKv
FN:2203,_ZN5amrex7BaseFabIiE10addFromMemILNS_5RunOnE1EiEEmRKNS_3BoxEiiPKv
FN:2203,_ZN5amrex7BaseFabIN5Model5Solid6Linear5CubicEE10addFromMemILNS_5RunOnE1ES4_EEmRKNS_3BoxEiiPKv
FN:2203,_ZN5amrex7BaseFabIN5Eigen6MatrixIdLi2ELi2ELi0ELi2ELi2EEEE10addFromMemILNS_5RunOnE1ES3_EEmRKNS_3BoxEiiPKv
FN:2203,_ZN5amrex7BaseFabIN5Model5Solid6Affine2J2EE10addFromMemILNS_5RunOnE1ES4_EEmRKNS_3BoxEiiPKv
FN:2203,_ZN5amrex7BaseFabIN3Set7Matrix4ILi2ELi4EEEE10addFromMemILNS_5RunOnE1ES3_EEmRKNS_3BoxEiiPKv
FN:2203,_ZN5amrex7BaseFabIN5Model5Solid7Elastic10NeoHookeanEE10addFromMemILNS_5RunOnE1ES4_EEmRKNS_3BoxEiiPKv
FN:2203,_ZN5amrex7BaseFabIN3Set7Matrix4ILi2ELi3EEEE10addFromMemILNS_5RunOnE1ES3_EEmRKNS_3BoxEiiPKv
FN:2203,_ZN5amrex7BaseFabIN5Eigen6MatrixIdLi2ELi1ELi0ELi2ELi1EEEE10addFromMemILNS_5RunOnE1ES3_EEmRKNS_3BoxEiiPKv
FN:2203,_ZN5amrex7BaseFabIN5Model5Solid6Linear9LaplacianEE10addFromMemILNS_5RunOnE1ES4_EEmRKNS_3BoxEiiPKv
FN:2203,_ZN5amrex7BaseFabIN5Model5Solid6Linear19IsotropicDegradableEE10addFromMemILNS_5RunOnE1ES4_EEmRKNS_3BoxEiiPKv
FN:2203,_ZN5amrex7BaseFabIdE10addFromMemILNS_5RunOnE1EdEEmRKNS_3BoxEiiPKv
FN:2203,_ZN5amrex7BaseFabIN5Model5Solid7Elastic28PseudoLinearCubicPredeformedEE10addFromMemILNS_5RunOnE1ES4_EEmRKNS_3BoxEiiPKv
FN:2203,_ZN5amrex7BaseFabIN5Model5Solid6Affine9IsotropicEE10addFromMemILNS_5RunOnE1ES4_EEmRKNS_3BoxEiiPKv
FN:2203,_ZN5amrex7BaseFabIN5Model5Solid6Affine5CubicEE10addFromMemILNS_5RunOnE1ES4_EEmRKNS_3BoxEiiPKv
FN:2203,_ZN5amrex7BaseFabIN5Model5Solid6Affine9HexagonalEE10addFromMemILNS_5RunOnE1ES4_EEmRKNS_3BoxEiiPKv
FN:2203,_ZN5amrex7BaseFabIN5Model5Solid6Linear9IsotropicEE10addFromMemILNS_5RunOnE1ES4_EEmRKNS_3BoxEiiPKv
FN:2216,_ZZN5amrex7BaseFabIN5Eigen6MatrixIdLi2ELi2ELi0ELi2ELi2EEEE10addFromMemILNS_5RunOnE1ES3_EEmRKNS_3BoxEiiPKvENKUliiiiE_clEiiii
FN:2216,_ZZN5amrex7BaseFabIN3Set7Matrix4ILi2ELi3EEEE10addFromMemILNS_5RunOnE1ES3_EEmRKNS_3BoxEiiPKvENKUliiiiE_clEiiii
FN:2216,_ZZN5amrex7BaseFabIN5Model5Solid7Elastic28PseudoLinearCubicPredeformedEE10addFromMemILNS_5RunOnE1ES4_EEmRKNS_3BoxEiiPKvENKUliiiiE_clEiiii
FN:2216,_ZZN5amrex7BaseFabIN5Model5Solid6Linear5CubicEE10addFromMemILNS_5RunOnE1ES4_EEmRKNS_3BoxEiiPKvENKUliiiiE_clEiiii
FN:2216,_ZZN5amrex7BaseFabIN3Set7Matrix4ILi2ELi1EEEE10addFromMemILNS_5RunOnE1ES3_EEmRKNS_3BoxEiiPKvENKUliiiiE_clEiiii
FN:2216,_ZZN5amrex7BaseFabIN5Eigen6MatrixIdLi2ELi1ELi0ELi2ELi1EEEE10addFromMemILNS_5RunOnE1ES3_EEmRKNS_3BoxEiiPKvENKUliiiiE_clEiiii
FN:2216,_ZZN5amrex7BaseFabIN3Set7Matrix4ILi2ELi6EEEE10addFromMemILNS_5RunOnE1ES3_EEmRKNS_3BoxEiiPKvENKUliiiiE_clEiiii
FN:2216,_ZZN5amrex7BaseFabIdE10addFromMemILNS_5RunOnE1EdEEmRKNS_3BoxEiiPKvENKUliiiiE_clEiiii
FN:2216,_ZZN5amrex7BaseFabIN5Model5Solid6Affine9HexagonalEE10addFromMemILNS_5RunOnE1ES4_EEmRKNS_3BoxEiiPKvENKUliiiiE_clEiiii
FN:2216,_ZZN5amrex7BaseFabIN5Model5Solid6Linear9IsotropicEE10addFromMemILNS_5RunOnE1ES4_EEmRKNS_3BoxEiiPKvENKUliiiiE_clEiiii
FN:2216,_ZZN5amrex7BaseFabIN3Set7Matrix4ILi2ELi4EEEE10addFromMemILNS_5RunOnE1ES3_EEmRKNS_3BoxEiiPKvENKUliiiiE_clEiiii
FN:2216,_ZZN5amrex7BaseFabIiE10addFromMemILNS_5RunOnE1EiEEmRKNS_3BoxEiiPKvENKUliiiiE_clEiiii
FN:2216,_ZZN5amrex7BaseFabIN5Model5Solid6Affine5CubicEE10addFromMemILNS_5RunOnE1ES4_EEmRKNS_3BoxEiiPKvENKUliiiiE_clEiiii
FN:2216,_ZZN5amrex7BaseFabIN5Model5Solid6Linear9LaplacianEE10addFromMemILNS_5RunOnE1ES4_EEmRKNS_3BoxEiiPKvENKUliiiiE_clEiiii
FN:2216,_ZZN5amrex7BaseFabIN5Model5Solid7Elastic17PseudoLinearCubicEE10addFromMemILNS_5RunOnE1ES4_EEmRKNS_3BoxEiiPKvENKUliiiiE_clEiiii
FN:2216,_ZZN5amrex7BaseFabIN5Model5Solid6Linear19IsotropicDegradableEE10addFromMemILNS_5RunOnE1ES4_EEmRKNS_3BoxEiiPKvENKUliiiiE_clEiiii
FN:2216,_ZZN5amrex7BaseFabIN5Model5Solid7Elastic10NeoHookeanEE10addFromMemILNS_5RunOnE1ES4_EEmRKNS_3BoxEiiPKvENKUliiiiE_clEiiii
FN:2216,_ZZN5amrex7BaseFabIN5Model5Solid6Affine9IsotropicEE10addFromMemILNS_5RunOnE1ES4_EEmRKNS_3BoxEiiPKvENKUliiiiE_clEiiii
FN:2216,_ZZN5amrex7BaseFabIN5Model5Solid6Affine2J2EE10addFromMemILNS_5RunOnE1ES4_EEmRKNS_3BoxEiiPKvENKUliiiiE_clEiiii
FN:2231,_ZN5amrex7BaseFabIdE13setComplementILNS_5RunOnE0EEEvRKdRKNS_3BoxEii
FN:2231,_ZN5amrex7BaseFabIdE13setComplementILNS_5RunOnE1EEEvRKdRKNS_3BoxEii
FN:3188,_ZN5amrex7BaseFabIdE4plusILNS_5RunOnE1EEERS1_RKS1_iii
FN:3227,_ZN5amrex7BaseFabIN5Model5Solid6Linear9IsotropicEE4plusILNS_5RunOnE1EEERS5_RKS5_RKNS_3BoxESD_iii
FN:3227,_ZN5amrex7BaseFabIN5Model5Solid7Elastic28PseudoLinearCubicPredeformedEE4plusILNS_5RunOnE1EEERS5_RKS5_RKNS_3BoxESD_iii
FN:3227,_ZN5amrex7BaseFabIN5Eigen6MatrixIdLi2ELi2ELi0ELi2ELi2EEEE4plusILNS_5RunOnE1EEERS4_RKS4_RKNS_3BoxESC_iii
FN:3227,_ZN5amrex7BaseFabIN5Model5Solid6Affine9HexagonalEE4plusILNS_5RunOnE1EEERS5_RKS5_RKNS_3BoxESD_iii
FN:3227,_ZN5amrex7BaseFabIN5Model5Solid7Elastic17PseudoLinearCubicEE4plusILNS_5RunOnE1EEERS5_RKS5_RKNS_3BoxESD_iii
FN:3227,_ZN5amrex7BaseFabIN3Set7Matrix4ILi2ELi3EEEE4plusILNS_5RunOnE1EEERS4_RKS4_RKNS_3BoxESC_iii
FN:3227,_ZN5amrex7BaseFabIdE4plusILNS_5RunOnE1EEERS1_RKS1_RKNS_3BoxES9_iii
FN:3227,_ZN5amrex7BaseFabIN5Model5Solid6Affine9IsotropicEE4plusILNS_5RunOnE1EEERS5_RKS5_RKNS_3BoxESD_iii
FN:3227,_ZN5amrex7BaseFabIiE4plusILNS_5RunOnE1EEERS1_RKS1_RKNS_3BoxES9_iii
FN:3227,_ZN5amrex7BaseFabIN5Model5Solid6Linear19IsotropicDegradableEE4plusILNS_5RunOnE1EEERS5_RKS5_RKNS_3BoxESD_iii
FN:3227,_ZN5amrex7BaseFabIN3Set7Matrix4ILi2ELi4EEEE4plusILNS_5RunOnE1EEERS4_RKS4_RKNS_3BoxESC_iii
FN:3227,_ZN5amrex7BaseFabIN5Model5Solid6Affine5CubicEE4plusILNS_5RunOnE1EEERS5_RKS5_RKNS_3BoxESD_iii
FN:3227,_ZN5amrex7BaseFabIN3Set7Matrix4ILi2ELi1EEEE4plusILNS_5RunOnE1EEERS4_RKS4_RKNS_3BoxESC_iii
FN:3227,_ZN5amrex7BaseFabIN5Model5Solid6Affine2J2EE4plusILNS_5RunOnE1EEERS5_RKS5_RKNS_3BoxESD_iii
FN:3227,_ZN5amrex7BaseFabIN5Eigen6MatrixIdLi2ELi1ELi0ELi2ELi1EEEE4plusILNS_5RunOnE1EEERS4_RKS4_RKNS_3BoxESC_iii
FN:3227,_ZN5amrex7BaseFabIN5Model5Solid6Linear5CubicEE4plusILNS_5RunOnE1EEERS5_RKS5_RKNS_3BoxESD_iii
FN:3227,_ZN5amrex7BaseFabIN5Model5Solid6Linear9LaplacianEE4plusILNS_5RunOnE1EEERS5_RKS5_RKNS_3BoxESD_iii
FN:3227,_ZN5amrex7BaseFabIN5Model5Solid7Elastic10NeoHookeanEE4plusILNS_5RunOnE1EEERS5_RKS5_RKNS_3BoxESD_iii
FN:3227,_ZN5amrex7BaseFabIN3Set7Matrix4ILi2ELi6EEEE4plusILNS_5RunOnE1EEERS4_RKS4_RKNS_3BoxESC_iii
FN:3242,_ZZN5amrex7BaseFabIN5Model5Solid6Affine2J2EE4plusILNS_5RunOnE1EEERS5_RKS5_RKNS_3BoxESD_iiiENKUliiiiE_clEiiii
FN:3242,_ZZN5amrex7BaseFabIN5Model5Solid7Elastic17PseudoLinearCubicEE4plusILNS_5RunOnE1EEERS5_RKS5_RKNS_3BoxESD_iiiENKUliiiiE_clEiiii
FN:3242,_ZZN5amrex7BaseFabIN5Eigen6MatrixIdLi2ELi1ELi0ELi2ELi1EEEE4plusILNS_5RunOnE1EEERS4_RKS4_RKNS_3BoxESC_iiiENKUliiiiE_clEiiii
FN:3242,_ZZN5amrex7BaseFabIN5Eigen6MatrixIdLi2ELi2ELi0ELi2ELi2EEEE4plusILNS_5RunOnE1EEERS4_RKS4_RKNS_3BoxESC_iiiENKUliiiiE_clEiiii
FN:3242,_ZZN5amrex7BaseFabIN3Set7Matrix4ILi2ELi3EEEE4plusILNS_5RunOnE1EEERS4_RKS4_RKNS_3BoxESC_iiiENKUliiiiE_clEiiii
FN:3242,_ZZN5amrex7BaseFabIN5Model5Solid6Linear5CubicEE4plusILNS_5RunOnE1EEERS5_RKS5_RKNS_3BoxESD_iiiENKUliiiiE_clEiiii
FN:3242,_ZZN5amrex7BaseFabIN5Model5Solid6Affine9HexagonalEE4plusILNS_5RunOnE1EEERS5_RKS5_RKNS_3BoxESD_iiiENKUliiiiE_clEiiii
FN:3242,_ZZN5amrex7BaseFabIN3Set7Matrix4ILi2ELi1EEEE4plusILNS_5RunOnE1EEERS4_RKS4_RKNS_3BoxESC_iiiENKUliiiiE_clEiiii
FN:3242,_ZZN5amrex7BaseFabIN5Model5Solid6Affine9IsotropicEE4plusILNS_5RunOnE1EEERS5_RKS5_RKNS_3BoxESD_iiiENKUliiiiE_clEiiii
FN:3242,_ZZN5amrex7BaseFabIN5Model5Solid6Linear19IsotropicDegradableEE4plusILNS_5RunOnE1EEERS5_RKS5_RKNS_3BoxESD_iiiENKUliiiiE_clEiiii
FN:3242,_ZZN5amrex7BaseFabIN3Set7Matrix4ILi2ELi4EEEE4plusILNS_5RunOnE1EEERS4_RKS4_RKNS_3BoxESC_iiiENKUliiiiE_clEiiii
FN:3242,_ZZN5amrex7BaseFabIiE4plusILNS_5RunOnE1EEERS1_RKS1_RKNS_3BoxES9_iiiENKUliiiiE_clEiiii
FN:3242,_ZZN5amrex7BaseFabIN5Model5Solid7Elastic28PseudoLinearCubicPredeformedEE4plusILNS_5RunOnE1EEERS5_RKS5_RKNS_3BoxESD_iiiENKUliiiiE_clEiiii
FN:3242,_ZZN5amrex7BaseFabIN5Model5Solid6Affine5CubicEE4plusILNS_5RunOnE1EEERS5_RKS5_RKNS_3BoxESD_iiiENKUliiiiE_clEiiii
FN:3242,_ZZN5amrex7BaseFabIN5Model5Solid6Linear9IsotropicEE4plusILNS_5RunOnE1EEERS5_RKS5_RKNS_3BoxESD_iiiENKUliiiiE_clEiiii
FN:3242,_ZZN5amrex7BaseFabIdE4plusILNS_5RunOnE1EEERS1_RKS1_RKNS_3BoxES9_iiiENKUliiiiE_clEiiii
FN:3242,_ZZN5amrex7BaseFabIN5Model5Solid6Linear9LaplacianEE4plusILNS_5RunOnE1EEERS5_RKS5_RKNS_3BoxESD_iiiENKUliiiiE_clEiiii
FN:3242,_ZZN5amrex7BaseFabIN5Model5Solid7Elastic10NeoHookeanEE4plusILNS_5RunOnE1EEERS5_RKS5_RKNS_3BoxESD_iiiENKUliiiiE_clEiiii
FN:3242,_ZZN5amrex7BaseFabIN3Set7Matrix4ILi2ELi6EEEE4plusILNS_5RunOnE1EEERS4_RKS4_RKNS_3BoxESC_iiiENKUliiiiE_clEiiii
FN:3338,_ZN5amrex7BaseFabIdE4multILNS_5RunOnE1EEERS1_RKS1_iii
FN:3551,_ZN5amrex7BaseFabIdE6setValILNS_5RunOnE1EEEvRKd
FN:3559,_ZN5amrex7BaseFabIdE6setValILNS_5RunOnE1EEEvRKdRKNS_3BoxENS_8DestCompENS_8NumCompsE
FN:3559,_ZN5amrex7BaseFabIiE6setValILNS_5RunOnE1EEEvRKiRKNS_3BoxENS_8DestCompENS_8NumCompsE
FN:3563,_ZZN5amrex7BaseFabIiE6setValILNS_5RunOnE1EEEvRKiRKNS_3BoxENS_8DestCompENS_8NumCompsEENKUliiiiE_clEiiii
FN:3563,_ZZN5amrex7BaseFabIdE6setValILNS_5RunOnE1EEEvRKdRKNS_3BoxENS_8DestCompENS_8NumCompsEENKUliiiiE_clEiiii
FN:3616,_ZN5amrex7BaseFabIdE13setComplementILNS_5RunOnE0EEEvRKdRKNS_3BoxENS_8DestCompENS_8NumCompsE
FN:3616,_ZN5amrex7BaseFabIdE13setComplementILNS_5RunOnE1EEEvRKdRKNS_3BoxENS_8DestCompENS_8NumCompsE
FN:3721,_ZN5amrex7BaseFabIdE4plusILNS_5RunOnE1EEERS1_RKS1_NS_3BoxENS_7SrcCompENS_8DestCompENS_8NumCompsE
FN:3732,_ZZN5amrex7BaseFabIdE4plusILNS_5RunOnE1EEERS1_RKS1_NS_3BoxENS_7SrcCompENS_8DestCompENS_8NumCompsEENKUliiiiE_clEiiii
FN:3861,_ZN5amrex7BaseFabIdE4multILNS_5RunOnE1EEERS1_RKS1_NS_3BoxENS_7SrcCompENS_8DestCompENS_8NumCompsE
FN:3872,_ZZN5amrex7BaseFabIdE4multILNS_5RunOnE1EEERS1_RKS1_NS_3BoxENS_7SrcCompENS_8DestCompENS_8NumCompsEENKUliiiiE_clEiiii
FNDA:63,_ZN5amrex7BaseFabIN5Model5Solid7Elastic10NeoHookeanEE5clearEv
FNDA:1672,_ZN5amrex7BaseFabIN3Set7Matrix4ILi2ELi6EEEEC2ERKNS_3BoxEibbPNS_5ArenaE
FNDA:58442,_ZN5amrex8NumCompsC2Ei
FNDA:0,_ZNK5amrex7BaseFabIN5Model5Solid7Elastic28PseudoLinearCubicPredeformedEE7dataPtrEi
FNDA:0,_ZZN5amrex7BaseFabIN5Model5Solid6Linear9IsotropicEE11copyFromMemILNS_5RunOnE1ES4_EEmRKNS_3BoxEiiPKvENKUliiiiE_clEiiii
FNDA:0,_ZZN5amrex7BaseFabIN5Eigen6MatrixIdLi2ELi1ELi0ELi2ELi1EEEE11copyFromMemILNS_5RunOnE1ES3_EEmRKNS_3BoxEiiPKvENKUliiiiE_clEiiii
FNDA:0,_ZN5amrex7BaseFabIN5Model5Solid6Linear5CubicEED2Ev
FNDA:0,_ZNK5amrex7BaseFabIN5Model5Solid6Linear19IsotropicDegradableEE3boxEv
FNDA:11682,_ZN5amrex12placementNewIN5Model5Solid6Affine9IsotropicEEENSt9enable_ifIXntsrSt34is_trivially_default_constructibleIT_E5valueEvE4typeEPS7_l
FNDA:0,_ZN5amrex7BaseFabIN5Eigen6MatrixIdLi2ELi2ELi0ELi2ELi2EEEE11copyFromMemILNS_5RunOnE1ES3_EEmRKNS_3BoxEiiPKv
FNDA:0,_ZNK5amrex7BaseFabIN3Set7Matrix4ILi2ELi3EEEE7dataPtrEi
FNDA:1,_ZN5amrex7BaseFabIN5Model5Solid6Linear9LaplacianEE5clearEv
FNDA:1672,_ZN5amrex12placementNewIN3Set7Matrix4ILi2ELi6EEEEENSt9enable_ifIXntsrSt34is_trivially_default_constructibleIT_E5valueEvE4typeEPS6_l
FNDA:9588,_ZNK5amrex7BaseFabIN5Model5Solid6Affine9IsotropicEE3boxEv
FNDA:0,_ZZN5amrex7BaseFabIN5Model5Solid6Linear9LaplacianEE4copyILNS_5RunOnE0EEERS5_RKS5_RKNS_3BoxEiSD_iiENKUliiiiE_clEiiii
FNDA:503640,_ZZN5amrex7BaseFabIN3Set7Matrix4ILi2ELi1EEEE4copyILNS_5RunOnE1EEERS4_RKS4_RKNS_3BoxEiSC_iiENKUliiiiE_clEiiii
FNDA:0,_ZZN5amrex7BaseFabIdE11copyFromMemILNS_5RunOnE1EdEEmRKNS_3BoxEiiPKvENKUliiiiE_clEiiii
FNDA:49,_ZN5amrex15placementDeleteIN5Model5Solid6Affine2J2EEENSt9enable_ifIXntsrSt25is_trivially_destructibleIT_E5valueEvE4typeEPS7_l
FNDA:0,_ZN5amrex7BaseFabIdED0Ev
FNDA:1,_ZN5amrex7BaseFabIN5Model5Solid6Linear9LaplacianEEC2ERKNS_3BoxEibbPNS_5ArenaE
FNDA:4536,_ZZN5amrex7BaseFabIN5Model5Solid7Elastic10NeoHookeanEE4copyILNS_5RunOnE1EEERS5_RKS5_RKNS_3BoxEiSD_iiENKUliiiiE_clEiiii
FNDA:0,_ZZN5amrex7BaseFabIN5Model5Solid6Linear9IsotropicEE4plusILNS_5RunOnE1EEERS5_RKS5_RKNS_3BoxESD_iiiENKUliiiiE_clEiiii
FNDA:33196,_ZN5amrex7BaseFabIN5Eigen6MatrixIdLi2ELi2ELi0ELi2ELi2EEEED2Ev
FNDA:0,_ZN5amrex7BaseFabIN5Model5Solid6Linear19IsotropicDegradableEED2Ev
FNDA:0,_ZZN5amrex7BaseFabIdE4multILNS_5RunOnE1EEERS1_RKS1_NS_3BoxENS_7SrcCompENS_8DestCompENS_8NumCompsEENKUliiiiE_clEiiii
FNDA:0,_ZN5amrex7BaseFabIdE10addFromMemILNS_5RunOnE1EdEEmRKNS_3BoxEiiPKv
FNDA:113730,_ZN5amrex7BaseFabIiE4copyILNS_5RunOnE1EEERS1_RKS1_RKNS_3BoxEiS9_ii
FNDA:0,_ZZN5amrex7BaseFabIiE10addFromMemILNS_5RunOnE1EiEEmRKNS_3BoxEiiPKvENKUliiiiE_clEiiii
FNDA:0,_ZZN5amrex7BaseFabIN5Model5Solid7Elastic17PseudoLinearCubicEE4copyILNS_5RunOnE0EEERS5_RKS5_RKNS_3BoxEiSD_iiENKUliiiiE_clEiiii
FNDA:0,_ZN5amrex7BaseFabIN5Model5Solid7Elastic10NeoHookeanEE11copyFromMemILNS_5RunOnE1ES4_EEmRKNS_3BoxEiiPKv
FNDA:0,_ZZN5amrex7BaseFabIN5Model5Solid6Affine9IsotropicEE11copyFromMemILNS_5RunOnE1ES4_EEmRKNS_3BoxEiiPKvENKUliiiiE_clEiiii
FNDA:0,_ZN5amrex7BaseFabIN5Model5Solid6Linear5CubicEE4copyILNS_5RunOnE0EEERS5_RKS5_RKNS_3BoxEiSD_ii
FNDA:49,_ZN5amrex7BaseFabIN5Model5Solid6Affine2J2EE6defineEv
FNDA:0,_ZZN5amrex7BaseFabIN5Model5Solid6Linear9IsotropicEE10addFromMemILNS_5RunOnE1ES4_EEmRKNS_3BoxEiiPKvENKUliiiiE_clEiiii
FNDA:0,_ZN5amrex7BaseFabIN5Model5Solid6Linear19IsotropicDegradableEE11copyFromMemILNS_5RunOnE1ES4_EEmRKNS_3BoxEiiPKv
FNDA:132,_ZN5amrex7BaseFabIN5Model5Solid6Linear9IsotropicEED2Ev
FNDA:0,_ZN5amrex7BaseFabIN3Set7Matrix4ILi2ELi3EEEE10addFromMemILNS_5RunOnE1ES3_EEmRKNS_3BoxEiiPKv
FNDA:0,_ZN5amrex7BaseFabIN5Eigen6MatrixIdLi2ELi1ELi0ELi2ELi1EEEE11copyFromMemILNS_5RunOnE1ES3_EEmRKNS_3BoxEiiPKv
FNDA:0,_ZZN5amrex7BaseFabIN5Model5Solid7Elastic28PseudoLinearCubicPredeformedEE4plusILNS_5RunOnE1EEERS5_RKS5_RKNS_3BoxESD_iiiENKUliiiiE_clEiiii
FNDA:0,_ZZN5amrex7BaseFabIN5Model5Solid6Affine9HexagonalEE11copyFromMemILNS_5RunOnE1ES4_EEmRKNS_3BoxEiiPKvENKUliiiiE_clEiiii
FNDA:25666,_ZN5amrex7BaseFabIN5Eigen6MatrixIdLi2ELi2ELi0ELi2ELi2EEEED0Ev
FNDA:0,_ZN5amrex7BaseFabIN5Eigen6MatrixIdLi2ELi1ELi0ELi2ELi1EEEE10addFromMemILNS_5RunOnE1ES3_EEmRKNS_3BoxEiiPKv
FNDA:0,_ZN5amrex7BaseFabIN5Model5Solid6Linear9LaplacianEE10addFromMemILNS_5RunOnE1ES4_EEmRKNS_3BoxEiiPKv
FNDA:0,_ZZN5amrex7BaseFabIN3Set7Matrix4ILi2ELi4EEEE10addFromMemILNS_5RunOnE1ES3_EEmRKNS_3BoxEiiPKvENKUliiiiE_clEiiii
FNDA:0,_ZN5amrex7BaseFabIN5Model5Solid6Affine5CubicEE4plusILNS_5RunOnE1EEERS5_RKS5_RKNS_3BoxESD_iii
FNDA:3932,_ZN5amrex7BaseFabIN5Model5Solid6Affine5CubicEE5clearEv
FNDA:0,_ZZN5amrex7BaseFabIN5Model5Solid6Affine5CubicEE4plusILNS_5RunOnE1EEERS5_RKS5_RKNS_3BoxESD_iiiENKUliiiiE_clEiiii
FNDA:0,_ZZN5amrex7BaseFabIN5Eigen6MatrixIdLi2ELi2ELi0ELi2ELi2EEEE11copyFromMemILNS_5RunOnE1ES3_EEmRKNS_3BoxEiiPKvENKUliiiiE_clEiiii
FNDA:0,_ZN5amrex7BaseFabIN5Model5Solid6Linear19IsotropicDegradableEE10addFromMemILNS_5RunOnE1ES4_EEmRKNS_3BoxEiiPKv
FNDA:55428,_ZNK5amrex7BaseFabIN5Eigen6MatrixIdLi2ELi1ELi0ELi2ELi1EEEE11nBytesOwnedEv
FNDA:0,_ZN5amrex7BaseFabIN5Model5Solid6Affine5CubicEEC2ERKS5_NS_8MakeTypeEii
FNDA:0,_ZZN5amrex7BaseFabIN5Model5Solid6Linear5CubicEE4copyILNS_5RunOnE1EEERS5_RKS5_RKNS_3BoxEiSD_iiENKUliiiiE_clEiiii
FNDA:0,_ZN5amrex7BaseFabIN5Eigen6MatrixIdLi2ELi2ELi0ELi2ELi2EEEEC2ERKS4_NS_8MakeTypeEii
FNDA:0,_ZN5amrex7BaseFabIN5Model5Solid6Linear5CubicEEC2ERKS5_NS_8MakeTypeEii
FNDA:49,_ZN5amrex7BaseFabIN5Model5Solid6Affine2J2EE5clearEv
FNDA:0,_ZZN5amrex7BaseFabIdE10addFromMemILNS_5RunOnE1EdEEmRKNS_3BoxEiiPKvENKUliiiiE_clEiiii
FNDA:0,_ZN5amrex7BaseFabIN5Eigen6MatrixIdLi2ELi1ELi0ELi2ELi1EEEE4copyILNS_5RunOnE0EEERS4_RKS4_RKNS_3BoxEiSC_ii
FNDA:28,_ZN5amrex7BaseFabIN3Set7Matrix4ILi2ELi4EEEED2Ev
FNDA:8999090,_ZNK5amrex7BaseFabIdE11nBytesOwnedEv
FNDA:2,_ZNK5amrex7BaseFabIN5Model5Solid6Linear9LaplacianEE11nBytesOwnedEv
FNDA:0,_ZNK5amrex7BaseFabIN5Model5Solid6Linear5CubicEE6nBytesEv
FNDA:0,_ZN5amrex15placementDeleteIN5Model5Solid6Linear5CubicEEENSt9enable_ifIXntsrSt25is_trivially_destructibleIT_E5valueEvE4typeEPS7_l
FNDA:63,_ZN5amrex15placementDeleteIN5Model5Solid7Elastic10NeoHookeanEEENSt9enable_ifIXntsrSt25is_trivially_destructibleIT_E5valueEvE4typeEPS7_l
FNDA:0,_ZN5amrex7BaseFabIN5Model5Solid7Elastic17PseudoLinearCubicEE6defineEv
FNDA:0,_ZNK5amrex7BaseFabIN5Model5Solid6Affine9HexagonalEE3boxEv
FNDA:63,_ZN5amrex12placementNewIN5Model5Solid7Elastic10NeoHookeanEEENSt9enable_ifIXntsrSt34is_trivially_default_constructibleIT_E5valueEvE4typeEPS7_l
FNDA:0,_ZN5amrex7BaseFabIN5Model5Solid7Elastic28PseudoLinearCubicPredeformedEED0Ev
FNDA:49,_ZN5amrex7BaseFabIN5Model5Solid6Affine2J2EED2Ev
FNDA:27714,_ZN5amrex7BaseFabIN5Eigen6MatrixIdLi2ELi1ELi0ELi2ELi1EEEED0Ev
FNDA:106,_ZN5amrex7BaseFabIN5Model5Solid6Linear9IsotropicEED0Ev
FNDA:0,_ZZN5amrex7BaseFabIN5Model5Solid6Affine2J2EE11copyFromMemILNS_5RunOnE1ES4_EEmRKNS_3BoxEiiPKvENKUliiiiE_clEiiii
FNDA:445042000,_ZZN5amrex7BaseFabIdE4copyILNS_5RunOnE1EEERS1_RKS1_RKNS_3BoxEiS9_iiENKUliiiiE_clEiiii
FNDA:1457400,_ZZN5amrex7BaseFabIN3Set7Matrix4ILi2ELi3EEEE4copyILNS_5RunOnE1EEERS4_RKS4_RKNS_3BoxEiSC_iiENKUliiiiE_clEiiii
FNDA:3932,_ZN5amrex7BaseFabIN5Model5Solid6Affine5CubicEE6defineEv
FNDA:0,_ZZN5amrex7BaseFabIN5Model5Solid6Affine9HexagonalEE10addFromMemILNS_5RunOnE1ES4_EEmRKNS_3BoxEiiPKvENKUliiiiE_clEiiii
FNDA:3932,_ZN5amrex15placementDeleteIN5Model5Solid6Affine5CubicEEENSt9enable_ifIXntsrSt25is_trivially_destructibleIT_E5valueEvE4typeEPS7_l
FNDA:33196,_ZN5amrex7BaseFabIN5Eigen6MatrixIdLi2ELi2ELi0ELi2ELi2EEEE6defineEv
FNDA:0,_ZN5amrex7BaseFabIN5Model5Solid6Affine9HexagonalEEC2ERKNS_3BoxEibbPNS_5ArenaE
FNDA:0,_ZN5amrex7BaseFabIN5Model5Solid6Linear5CubicEE4copyILNS_5RunOnE1EEERS5_RKS5_RKNS_3BoxEiSD_ii
FNDA:1672,_ZN5amrex7BaseFabIN3Set7Matrix4ILi2ELi6EEEED0Ev
FNDA:49,_ZN5amrex7BaseFabIN5Model5Solid6Affine2J2EEC2ERKNS_3BoxEibbPNS_5ArenaE
FNDA:0,_ZN5amrex7BaseFabIN3Set7Matrix4ILi2ELi4EEEE4plusILNS_5RunOnE1EEERS4_RKS4_RKNS_3BoxESC_iii
FNDA:0,_ZZN5amrex7BaseFabIN5Model5Solid6Linear5CubicEE11copyFromMemILNS_5RunOnE1ES4_EEmRKNS_3BoxEiiPKvENKUliiiiE_clEiiii
FNDA:0,_ZNK5amrex7BaseFabIN5Model5Solid6Linear5CubicEE11nBytesOwnedEv
FNDA:0,_ZNK5amrex7BaseFabIN5Model5Solid6Linear9LaplacianEE3boxEv
FNDA:0,_ZN5amrex15placementDeleteIN5Model5Solid6Linear19IsotropicDegradableEEENSt9enable_ifIXntsrSt25is_trivially_destructibleIT_E5valueEvE4typeEPS7_l
FNDA:0,_ZNK5amrex7BaseFabIN5Model5Solid6Linear9IsotropicEE7dataPtrEi
FNDA:35532,_ZN5amrex7BaseFabIN5Model5Solid6Affine5CubicEE4copyILNS_5RunOnE1EEERS5_RKS5_RKNS_3BoxEiSD_ii
FNDA:0,_ZNK5amrex7BaseFabIdE6numPtsEv
FNDA:0,_ZN5amrex7BaseFabIN5Model5Solid6Affine9HexagonalEE5clearEv
FNDA:0,_ZN5amrex7BaseFabIN3Set7Matrix4ILi2ELi6EEEE11copyFromMemILNS_5RunOnE1ES3_EEmRKNS_3BoxEiiPKv
FNDA:0,_ZZN5amrex7BaseFabIN5Eigen6MatrixIdLi2ELi1ELi0ELi2ELi1EEEE10addFromMemILNS_5RunOnE1ES3_EEmRKNS_3BoxEiiPKvENKUliiiiE_clEiiii
FNDA:0,_ZN5amrex7BaseFabIN3Set7Matrix4ILi2ELi4EEEE10addFromMemILNS_5RunOnE1ES3_EEmRKNS_3BoxEiiPKv
FNDA:0,_ZN5amrex7BaseFabIN5Model5Solid7Elastic17PseudoLinearCubicEED0Ev
FNDA:11682,_ZN5amrex7BaseFabIN5Model5Solid6Affine9IsotropicEEC2ERKNS_3BoxEibbPNS_5ArenaE
FNDA:3196770,_ZZN5amrex7BaseFabIdE6setValILNS_5RunOnE1EEEvRKdRKNS_3BoxENS_8DestCompENS_8NumCompsEENKUliiiiE_clEiiii
FNDA:0,_ZN5amrex7BaseFabIN5Model5Solid7Elastic10NeoHookeanEE10addFromMemILNS_5RunOnE1ES4_EEmRKNS_3BoxEiiPKv
FNDA:0,_ZN5amrex7BaseFabIN5Model5Solid6Linear19IsotropicDegradableEEC2ERKS5_NS_8MakeTypeEii
FNDA:212,_ZNK5amrex7BaseFabIN5Model5Solid6Linear9IsotropicEE11nBytesOwnedEv
FNDA:55428,_ZNK5amrex7BaseFabIN5Eigen6MatrixIdLi2ELi1ELi0ELi2ELi1EEEE6nBytesEv
FNDA:0,_ZN5amrex7BaseFabIN3Set7Matrix4ILi2ELi4EEEEC2ERKS4_NS_8MakeTypeEii
FNDA:0,_ZN5amrex7BaseFabIN5Model5Solid7Elastic28PseudoLinearCubicPredeformedEE11copyFromMemILNS_5RunOnE1ES4_EEmRKNS_3BoxEiiPKv
FNDA:3344,_ZNK5amrex7BaseFabIN3Set7Matrix4ILi2ELi6EEEE6nBytesEv
FNDA:2476310,_ZZN5amrex7BaseFabIN5Eigen6MatrixIdLi2ELi2ELi0ELi2ELi2EEEE4copyILNS_5RunOnE1EEERS4_RKS4_RKNS_3BoxEiSC_iiENKUliiiiE_clEiiii
FNDA:0,_ZN5amrex7BaseFabIN5Model5Solid6Linear9LaplacianEEC2ERKS5_NS_8MakeTypeEii
FNDA:0,_ZN5amrex7BaseFabIN5Model5Solid7Elastic10NeoHookeanEEC2ERKS5_NS_8MakeTypeEii
FNDA:0,_ZN5amrex7BaseFabIN5Model5Solid7Elastic28PseudoLinearCubicPredeformedEEC2ERKNS_3BoxEibbPNS_5ArenaE
FNDA:11408,_ZZN5amrex7BaseFabIN3Set7Matrix4ILi2ELi4EEEE4copyILNS_5RunOnE1EEERS4_RKS4_RKNS_3BoxEiSC_iiENKUliiiiE_clEiiii
FNDA:3737230,_ZNK5amrex7BaseFabIdE3boxEv
FNDA:132,_ZN5amrex7BaseFabIN5Model5Solid6Linear9IsotropicEE5clearEv
FNDA:0,_ZN5amrex7BaseFabIdE11copyFromMemILNS_5RunOnE1EdEEmRKNS_3BoxEiiPKv
FNDA:0,_ZNK5amrex7BaseFabIN5Model5Solid7Elastic17PseudoLinearCubicEE11nBytesOwnedEv
FNDA:0,_ZZN5amrex7BaseFabIN3Set7Matrix4ILi2ELi6EEEE10addFromMemILNS_5RunOnE1ES3_EEmRKNS_3BoxEiiPKvENKUliiiiE_clEiiii
FNDA:0,_ZZN5amrex7BaseFabIN5Model5Solid7Elastic17PseudoLinearCubicEE4copyILNS_5RunOnE1EEERS5_RKS5_RKNS_3BoxEiSD_iiENKUliiiiE_clEiiii
FNDA:50781,_ZN5amrex7BaseFabIdE6setValILNS_5RunOnE1EEEvRKdRKNS_3BoxENS_8DestCompENS_8NumCompsE
FNDA:0,_ZN5amrex15placementDeleteIN5Model5Solid7Elastic17PseudoLinearCubicEEENSt9enable_ifIXntsrSt25is_trivially_destructibleIT_E5valueEvE4typeEPS7_l
FNDA:0,_ZNK5amrex7BaseFabIN5Model5Solid6Linear19IsotropicDegradableEE7dataPtrEi
FNDA:0,_ZN5amrex7BaseFabIN5Model5Solid6Affine9HexagonalEE10addFromMemILNS_5RunOnE1ES4_EEmRKNS_3BoxEiiPKv
FNDA:1672,_ZN5amrex7BaseFabIN3Set7Matrix4ILi2ELi6EEEE6defineEv
FNDA:0,_ZN5amrex7BaseFabIN3Set7Matrix4ILi2ELi1EEEE4copyILNS_5RunOnE0EEERS4_RKS4_RKNS_3BoxEiSC_ii
FNDA:0,_ZZN5amrex7BaseFabIN5Model5Solid6Linear19IsotropicDegradableEE4copyILNS_5RunOnE0EEERS5_RKS5_RKNS_3BoxEiSD_iiENKUliiiiE_clEiiii
FNDA:0,_ZN5amrex7BaseFabIN3Set7Matrix4ILi2ELi6EEEE4plusILNS_5RunOnE1EEERS4_RKS4_RKNS_3BoxESC_iii
FNDA:0,_ZZN5amrex7BaseFabIN3Set7Matrix4ILi2ELi6EEEE4plusILNS_5RunOnE1EEERS4_RKS4_RKNS_3BoxESC_iiiENKUliiiiE_clEiiii
FNDA:0,_ZN5amrex7BaseFabIN5Model5Solid6Linear5CubicEED0Ev
FNDA:0,_ZNK5amrex7BaseFabIN5Model5Solid7Elastic17PseudoLinearCubicEE3boxEv
FNDA:16972,_ZNK5amrex7BaseFabIN5Model5Solid6Affine9IsotropicEE11nBytesOwnedEv
FNDA:33,_ZN5amrex7BaseFabIN5Model5Solid6Affine2J2EED0Ev
FNDA:132,_ZN5amrex7BaseFabIN5Model5Solid6Linear9IsotropicEE6defineEv
FNDA:0,_ZNK5amrex7BaseFabIN5Model5Solid6Linear19IsotropicDegradableEE6nBytesEv
FNDA:63,_ZN5amrex7BaseFabIN5Model5Solid7Elastic10NeoHookeanEE6defineEv
FNDA:0,_ZN5amrex7BaseFabIN5Model5Solid6Linear9IsotropicEE10addFromMemILNS_5RunOnE1ES4_EEmRKNS_3BoxEiiPKv
FNDA:3624,_ZN5amrex15placementDeleteIN3Set7Matrix4ILi2ELi3EEEEENSt9enable_ifIXsrSt25is_trivially_destructibleIT_E5valueEvE4typeEPS6_l
FNDA:3624,_ZN5amrex7BaseFabIN3Set7Matrix4ILi2ELi3EEEEC2ERKNS_3BoxEibbPNS_5ArenaE
FNDA:1672,_ZN5amrex7BaseFabIN3Set7Matrix4ILi2ELi6EEEE5clearEv
FNDA:35782,_ZN5amrex7BaseFabIN5Eigen6MatrixIdLi2ELi1ELi0ELi2ELi1EEEE6defineEv
FNDA:0,_ZZN5amrex7BaseFabIN5Model5Solid6Linear5CubicEE4copyILNS_5RunOnE0EEERS5_RKS5_RKNS_3BoxEiSD_iiENKUliiiiE_clEiiii
FNDA:35782,_ZN5amrex7BaseFabIN5Eigen6MatrixIdLi2ELi1ELi0ELi2ELi1EEEEC2ERKNS_3BoxEibbPNS_5ArenaE
FNDA:0,_ZNK5amrex7BaseFabIN5Model5Solid7Elastic28PseudoLinearCubicPredeformedEE6nBytesEv
FNDA:8995210,_ZNK5amrex7BaseFabIdE6nBytesEv
FNDA:125842,_ZN5amrex7BaseFabIN5Eigen6MatrixIdLi2ELi1ELi0ELi2ELi1EEEE4copyILNS_5RunOnE1EEERS4_RKS4_RKNS_3BoxEiSC_ii
FNDA:0,_ZN5amrex7BaseFabIN5Model5Solid6Linear19IsotropicDegradableEE4copyILNS_5RunOnE0EEERS5_RKS5_RKNS_3BoxEiSD_ii
FNDA:96,_ZNK5amrex7BaseFabIN5Model5Solid7Elastic10NeoHookeanEE11nBytesOwnedEv
FNDA:28,_ZN5amrex7BaseFabIN3Set7Matrix4ILi2ELi4EEEED0Ev
FNDA:0,_ZN5amrex7BaseFabIN5Model5Solid6Affine9HexagonalEEC2ERKS5_NS_8MakeTypeEii
FNDA:0,_ZZN5amrex7BaseFabIN5Model5Solid6Affine9IsotropicEE10addFromMemILNS_5RunOnE1ES4_EEmRKNS_3BoxEiiPKvENKUliiiiE_clEiiii
FNDA:28,_ZN5amrex7BaseFabIN3Set7Matrix4ILi2ELi4EEEE5clearEv
FNDA:0,_ZN5amrex7BaseFabIdE13setComplementILNS_5RunOnE1EEEvRKdRKNS_3BoxENS_8DestCompENS_8NumCompsE
FNDA:0,_ZZN5amrex7BaseFabIN5Model5Solid6Linear9LaplacianEE4plusILNS_5RunOnE1EEERS5_RKS5_RKNS_3BoxESD_iiiENKUliiiiE_clEiiii
FNDA:0,_ZN5amrex7BaseFabIN5Model5Solid7Elastic17PseudoLinearCubicEEC2ERKNS_3BoxEibbPNS_5ArenaE
FNDA:35782,_ZN5amrex7BaseFabIN5Eigen6MatrixIdLi2ELi1ELi0ELi2ELi1EEEED2Ev
FNDA:0,_ZZN5amrex7BaseFabIN5Model5Solid6Affine2J2EE4copyILNS_5RunOnE0EEERS5_RKS5_RKNS_3BoxEiSD_iiENKUliiiiE_clEiiii
FNDA:0,_ZN5amrex7BaseFabIN5Model5Solid6Affine9HexagonalEE6defineEv
FNDA:0,_ZZN5amrex7BaseFabIN5Model5Solid6Affine2J2EE10addFromMemILNS_5RunOnE1ES4_EEmRKNS_3BoxEiiPKvENKUliiiiE_clEiiii
FNDA:0,_ZN5amrex7BaseFabIN5Model5Solid6Linear9LaplacianEE11copyFromMemILNS_5RunOnE1ES4_EEmRKNS_3BoxEiiPKv
FNDA:62179,_ZN5amrex7BaseFabIN3Set7Matrix4ILi2ELi3EEEE4copyILNS_5RunOnE1EEERS4_RKS4_RKNS_3BoxEiSC_ii
FNDA:0,_ZZN5amrex7BaseFabIN5Model5Solid6Affine9HexagonalEE4copyILNS_5RunOnE0EEERS5_RKS5_RKNS_3BoxEiSD_iiENKUliiiiE_clEiiii
FNDA:0,_ZN5amrex7BaseFabIiE11copyFromMemILNS_5RunOnE1EiEEmRKNS_3BoxEiiPKv
FNDA:0,_ZN5amrex7BaseFabIN5Model5Solid6Linear9LaplacianEE4plusILNS_5RunOnE1EEERS5_RKS5_RKNS_3BoxESD_iii
FNDA:0,_ZZN5amrex7BaseFabIN5Model5Solid6Linear19IsotropicDegradableEE11copyFromMemILNS_5RunOnE1ES4_EEmRKNS_3BoxEiiPKvENKUliiiiE_clEiiii
FNDA:0,_ZN5amrex7BaseFabIdE4multILNS_5RunOnE1EEERS1_RKS1_NS_3BoxENS_7SrcCompENS_8DestCompENS_8NumCompsE
FNDA:0,_ZN5amrex7BaseFabIN5Model5Solid6Linear5CubicEE11copyFromMemILNS_5RunOnE1ES4_EEmRKNS_3BoxEiiPKv
FNDA:0,_ZZN5amrex7BaseFabIN5Model5Solid7Elastic10NeoHookeanEE4plusILNS_5RunOnE1EEERS5_RKS5_RKNS_3BoxESD_iiiENKUliiiiE_clEiiii
FNDA:1,_ZN5amrex7BaseFabIN5Model5Solid6Linear9LaplacianEED0Ev
FNDA:7248,_ZNK5amrex7BaseFabIN3Set7Matrix4ILi2ELi3EEEE6nBytesEv
FNDA:3624,_ZN5amrex7BaseFabIN3Set7Matrix4ILi2ELi3EEEE6defineEv
FNDA:0,_ZN5amrex7BaseFabIN5Model5Solid6Affine5CubicEE10addFromMemILNS_5RunOnE1ES4_EEmRKNS_3BoxEiiPKv
FNDA:0,_ZN5amrex7BaseFabIN5Model5Solid7Elastic17PseudoLinearCubicEEC2ERKS5_NS_8MakeTypeEii
FNDA:49,_ZN5amrex12placementNewIN5Model5Solid6Affine2J2EEENSt9enable_ifIXntsrSt34is_trivially_default_constructibleIT_E5valueEvE4typeEPS7_l
FNDA:0,_ZN5amrex7BaseFabIN5Model5Solid7Elastic10NeoHookeanEE4plusILNS_5RunOnE1EEERS5_RKS5_RKNS_3BoxESD_iii
FNDA:40,_ZN5amrex7BaseFabIN3Set7Matrix4ILi2ELi4EEEE4copyILNS_5RunOnE1EEERS4_RKS4_RKNS_3BoxEiSC_ii
FNDA:8486,_ZN5amrex7BaseFabIN5Model5Solid6Affine9IsotropicEED0Ev
FNDA:11171,_ZN5amrex7BaseFabIiE6setValILNS_5RunOnE1EEEvRKiRKNS_3BoxEii
FNDA:11682,_ZN5amrex7BaseFabIN5Model5Solid6Affine9IsotropicEE5clearEv
FNDA:0,_ZNK5amrex7BaseFabIN3Set7Matrix4ILi2ELi1EEEE7dataPtrEi
FNDA:66,_ZNK5amrex7BaseFabIN5Model5Solid6Affine2J2EE11nBytesOwnedEv
FNDA:0,_ZZN5amrex7BaseFabIiE11copyFromMemILNS_5RunOnE1EiEEmRKNS_3BoxEiiPKvENKUliiiiE_clEiiii
FNDA:0,_ZN5amrex7BaseFabIN5Model5Solid6Affine9HexagonalEE11copyFromMemILNS_5RunOnE1ES4_EEmRKNS_3BoxEiiPKv
FNDA:3600,_ZNK5amrex7BaseFabIN3Set7Matrix4ILi2ELi1EEEE6nBytesEv
FNDA:0,_ZZN5amrex7BaseFabIN5Model5Solid6Linear19IsotropicDegradableEE10addFromMemILNS_5RunOnE1ES4_EEmRKNS_3BoxEiiPKvENKUliiiiE_clEiiii
FNDA:0,_ZNK5amrex7BaseFabIN5Model5Solid6Affine2J2EE7dataPtrEi
FNDA:0,_ZNK5amrex7BaseFabIN5Model5Solid7Elastic17PseudoLinearCubicEE7dataPtrEi
FNDA:0,_ZN5amrex7BaseFabIN5Model5Solid7Elastic28PseudoLinearCubicPredeformedEEC2ERKS5_NS_8MakeTypeEii
FNDA:0,_ZN5amrex7BaseFabIN5Model5Solid6Affine9HexagonalEE4copyILNS_5RunOnE0EEERS5_RKS5_RKNS_3BoxEiSD_ii
FNDA:0,_ZN5amrex7BaseFabIN5Model5Solid6Affine2J2EE4plusILNS_5RunOnE1EEERS5_RKS5_RKNS_3BoxESD_iii
FNDA:0,_ZZN5amrex7BaseFabIN5Model5Solid7Elastic10NeoHookeanEE10addFromMemILNS_5RunOnE1ES4_EEmRKNS_3BoxEiiPKvENKUliiiiE_clEiiii
FNDA:0,_ZN5amrex7BaseFabIN5Model5Solid6Linear19IsotropicDegradableEED0Ev
FNDA:0,_ZN5amrex15placementDeleteIN5Model5Solid6Affine9HexagonalEEENSt9enable_ifIXntsrSt25is_trivially_destructibleIT_E5valueEvE4typeEPS7_l
FNDA:0,_ZN5amrex7BaseFabIN5Model5Solid6Linear9IsotropicEE11copyFromMemILNS_5RunOnE1ES4_EEmRKNS_3BoxEiiPKv
FNDA:673,_ZN5amrex7BaseFabIN5Model5Solid6Linear9IsotropicEE4copyILNS_5RunOnE1EEERS5_RKS5_RKNS_3BoxEiSD_ii
FNDA:3624,_ZN5amrex7BaseFabIN3Set7Matrix4ILi2ELi3EEEED0Ev
FNDA:0,_ZN5amrex7BaseFabIN5Model5Solid6Linear9LaplacianEE4copyILNS_5RunOnE0EEERS5_RKS5_RKNS_3BoxEiSD_ii
FNDA:11171,_ZN5amrex7BaseFabIiE6setValILNS_5RunOnE1EEEvRKiRKNS_3BoxENS_8DestCompENS_8NumCompsE
FNDA:0,_ZN5amrex7BaseFabIN5Eigen6MatrixIdLi2ELi1ELi0ELi2ELi1EEEE4plusILNS_5RunOnE1EEERS4_RKS4_RKNS_3BoxESC_iii
FNDA:3624,_ZN5amrex7BaseFabIN3Set7Matrix4ILi2ELi3EEEE5clearEv
FNDA:1800,_ZN5amrex7BaseFabIN3Set7Matrix4ILi2ELi1EEEE5clearEv
FNDA:3600,_ZNK5amrex7BaseFabIN3Set7Matrix4ILi2ELi1EEEE11nBytesOwnedEv
FNDA:28,_ZN5amrex12placementNewIN3Set7Matrix4ILi2ELi4EEEEENSt9enable_ifIXntsrSt34is_trivially_default_constructibleIT_E5valueEvE4typeEPS6_l
FNDA:0,_ZN5amrex7BaseFabIN5Model5Solid6Linear5CubicEE4plusILNS_5RunOnE1EEERS5_RKS5_RKNS_3BoxESD_iii
FNDA:0,_ZN5amrex7BaseFabIdE4plusILNS_5RunOnE1EEERS1_RKS1_NS_3BoxENS_7SrcCompENS_8DestCompENS_8NumCompsE
FNDA:58442,_ZN5amrex8DestCompC2Ei
FNDA:16972,_ZNK5amrex7BaseFabIN5Model5Solid6Affine9IsotropicEE6nBytesEv
FNDA:0,_ZN5amrex7BaseFabIN3Set7Matrix4ILi2ELi1EEEE4plusILNS_5RunOnE1EEERS4_RKS4_RKNS_3BoxESC_iii
FNDA:0,_ZZN5amrex7BaseFabIN5Eigen6MatrixIdLi2ELi2ELi0ELi2ELi2EEEE4copyILNS_5RunOnE0EEERS4_RKS4_RKNS_3BoxEiSC_iiENKUliiiiE_clEiiii
FNDA:0,_ZN5amrex7BaseFabIN5Model5Solid6Affine9HexagonalEE4copyILNS_5RunOnE1EEERS5_RKS5_RKNS_3BoxEiSD_ii
FNDA:0,_ZN5amrex7BaseFabIN5Model5Solid6Linear9LaplacianEE4copyILNS_5RunOnE1EEERS5_RKS5_RKNS_3BoxEiSD_ii
FNDA:0,_ZN5amrex7BaseFabIN5Model5Solid6Affine9IsotropicEE10addFromMemILNS_5RunOnE1ES4_EEmRKNS_3BoxEiiPKv
FNDA:0,_ZZN5amrex7BaseFabIN3Set7Matrix4ILi2ELi1EEEE11copyFromMemILNS_5RunOnE1ES3_EEmRKNS_3BoxEiiPKvENKUliiiiE_clEiiii
FNDA:918,_ZZN5amrex7BaseFabIN5Model5Solid6Affine2J2EE4copyILNS_5RunOnE1EEERS5_RKS5_RKNS_3BoxEiSD_iiENKUliiiiE_clEiiii
FNDA:0,_ZN5amrex7BaseFabIN5Model5Solid6Linear5CubicEE6defineEv
FNDA:33196,_ZN5amrex12placementNewIN5Eigen6MatrixIdLi2ELi2ELi0ELi2ELi2EEEEENSt9enable_ifIXntsrSt34is_trivially_default_constructibleIT_E5valueEvE4typeEPS6_l
FNDA:0,_ZZN5amrex7BaseFabIN3Set7Matrix4ILi2ELi6EEEE11copyFromMemILNS_5RunOnE1ES3_EEmRKNS_3BoxEiiPKvENKUliiiiE_clEiiii
FNDA:11682,_ZN5amrex7BaseFabIN5Model5Solid6Affine9IsotropicEE6defineEv
FNDA:0,_ZZN5amrex7BaseFabIN5Model5Solid6Linear9LaplacianEE4copyILNS_5RunOnE1EEERS5_RKS5_RKNS_3BoxEiSD_iiENKUliiiiE_clEiiii
FNDA:0,_ZNK5amrex7BaseFabIN5Model5Solid7Elastic28PseudoLinearCubicPredeformedEE3boxEv
FNDA:0,_ZN5amrex7BaseFabIN5Model5Solid7Elastic28PseudoLinearCubicPredeformedEE10addFromMemILNS_5RunOnE1ES4_EEmRKNS_3BoxEiiPKv
FNDA:0,_ZN5amrex7BaseFabIN5Model5Solid6Linear19IsotropicDegradableEE4copyILNS_5RunOnE1EEERS5_RKS5_RKNS_3BoxEiSD_ii
FNDA:1800,_ZN5amrex7BaseFabIN3Set7Matrix4ILi2ELi1EEEE6defineEv
FNDA:0,_ZZN5amrex7BaseFabIN5Model5Solid7Elastic10NeoHookeanEE11copyFromMemILNS_5RunOnE1ES4_EEmRKNS_3BoxEiiPKvENKUliiiiE_clEiiii
FNDA:3045840,_ZZN5amrex7BaseFabIdE4plusILNS_5RunOnE1EEERS1_RKS1_RKNS_3BoxES9_iiiENKUliiiiE_clEiiii
FNDA:0,_ZZN5amrex7BaseFabIN5Model5Solid7Elastic17PseudoLinearCubicEE10addFromMemILNS_5RunOnE1ES4_EEmRKNS_3BoxEiiPKvENKUliiiiE_clEiiii
FNDA:0,_ZNK5amrex7BaseFabIN5Model5Solid6Linear19IsotropicDegradableEE11nBytesOwnedEv
FNDA:45,_ZNK5amrex7BaseFabIN5Model5Solid7Elastic10NeoHookeanEE3boxEv
FNDA:0,_ZZN5amrex7BaseFabIN3Set7Matrix4ILi2ELi4EEEE4copyILNS_5RunOnE0EEERS4_RKS4_RKNS_3BoxEiSC_iiENKUliiiiE_clEiiii
FNDA:0,_ZZN5amrex7BaseFabIN5Model5Solid6Affine5CubicEE10addFromMemILNS_5RunOnE1ES4_EEmRKNS_3BoxEiiPKvENKUliiiiE_clEiiii
FNDA:0,_ZZN5amrex7BaseFabIN5Model5Solid6Linear9LaplacianEE10addFromMemILNS_5RunOnE1ES4_EEmRKNS_3BoxEiiPKvENKUliiiiE_clEiiii
FNDA:0,_ZN5amrex12placementNewIN5Model5Solid6Linear19IsotropicDegradableEEENSt9enable_ifIXntsrSt34is_trivially_default_constructibleIT_E5valueEvE4typeEPS7_l
FNDA:2,_ZNK5amrex7BaseFabIN5Model5Solid6Linear9LaplacianEE6nBytesEv
FNDA:0,_ZN5amrex7BaseFabIN3Set7Matrix4ILi2ELi1EEEE10addFromMemILNS_5RunOnE1ES3_EEmRKNS_3BoxEiiPKv
FNDA:0,_ZN5amrex7BaseFabIN5Model5Solid6Linear5CubicEE5clearEv
FNDA:63,_ZN5amrex7BaseFabIN5Model5Solid7Elastic10NeoHookeanEED2Ev
FNDA:0,_ZN5amrex7BaseFabIiE10addFromMemILNS_5RunOnE1EiEEmRKNS_3BoxEiiPKv
FNDA:0,_ZN5amrex7BaseFabIdE4multILNS_5RunOnE1EEERS1_RKS1_iii
FNDA:0,_ZN5amrex7BaseFabIN3Set7Matrix4ILi2ELi6EEEE10addFromMemILNS_5RunOnE1ES3_EEmRKNS_3BoxEiiPKv
FNDA:0,_ZN5amrex7BaseFabIN5Model5Solid6Affine9IsotropicEE11copyFromMemILNS_5RunOnE1ES4_EEmRKNS_3BoxEiiPKv
FNDA:0,_ZZN5amrex7BaseFabIN5Model5Solid6Linear5CubicEE4plusILNS_5RunOnE1EEERS5_RKS5_RKNS_3BoxESD_iiiENKUliiiiE_clEiiii
FNDA:0,_ZN5amrex7BaseFabIN3Set7Matrix4ILi2ELi3EEEE11copyFromMemILNS_5RunOnE1ES3_EEmRKNS_3BoxEiiPKv
FNDA:132,_ZN5amrex7BaseFabIN5Model5Solid6Linear9IsotropicEEC2ERKNS_3BoxEibbPNS_5ArenaE
FNDA:3624,_ZN5amrex7BaseFabIN3Set7Matrix4ILi2ELi3EEEED2Ev
FNDA:0,_ZN5amrex7BaseFabIN5Model5Solid7Elastic17PseudoLinearCubicEE11copyFromMemILNS_5RunOnE1ES4_EEmRKNS_3BoxEiiPKv
FNDA:388359,_ZZN5amrex7BaseFabIN5Model5Solid6Affine5CubicEE4copyILNS_5RunOnE1EEERS5_RKS5_RKNS_3BoxEiSD_iiENKUliiiiE_clEiiii
FNDA:0,_ZN5amrex7SrcCompC2Ei
FNDA:0,_ZN5amrex7BaseFabIN5Eigen6MatrixIdLi2ELi2ELi0ELi2ELi2EEEE4copyILNS_5RunOnE0EEERS4_RKS4_RKNS_3BoxEiSC_ii
FNDA:69645,_ZNK5amrex7BaseFabIiE11nBytesOwnedEv
FNDA:0,_ZNK5amrex7BaseFabIN5Eigen6MatrixIdLi2ELi2ELi0ELi2ELi2EEEE7dataPtrEi
FNDA:51332,_ZNK5amrex7BaseFabIN5Eigen6MatrixIdLi2ELi2ELi0ELi2ELi2EEEE6nBytesEv
FNDA:0,_ZZN5amrex7BaseFabIN5Model5Solid6Affine5CubicEE4copyILNS_5RunOnE0EEERS5_RKS5_RKNS_3BoxEiSD_iiENKUliiiiE_clEiiii
FNDA:7248,_ZNK5amrex7BaseFabIN3Set7Matrix4ILi2ELi3EEEE11nBytesOwnedEv
FNDA:33196,_ZN5amrex7BaseFabIN5Eigen6MatrixIdLi2ELi2ELi0ELi2ELi2EEEEC2ERKNS_3BoxEibbPNS_5ArenaE
FNDA:28,_ZN5amrex7BaseFabIN3Set7Matrix4ILi2ELi4EEEE6defineEv
FNDA:0,_ZN5amrex7BaseFabIN5Model5Solid7Elastic17PseudoLinearCubicEE5clearEv
FNDA:132,_ZN5amrex12placementNewIN5Model5Solid6Linear9IsotropicEEENSt9enable_ifIXntsrSt34is_trivially_default_constructibleIT_E5valueEvE4typeEPS7_l
FNDA:6840,_ZNK5amrex7BaseFabIN5Model5Solid6Affine5CubicEE11nBytesOwnedEv
FNDA:0,_ZZN5amrex7BaseFabIN5Eigen6MatrixIdLi2ELi2ELi0ELi2ELi2EEEE4plusILNS_5RunOnE1EEERS4_RKS4_RKNS_3BoxESC_iiiENKUliiiiE_clEiiii
FNDA:0,_ZZN5amrex7BaseFabIN3Set7Matrix4ILi2ELi3EEEE4plusILNS_5RunOnE1EEERS4_RKS4_RKNS_3BoxESC_iiiENKUliiiiE_clEiiii
FNDA:0,_ZNK5amrex7BaseFabIN5Model5Solid6Affine9IsotropicEE7dataPtrEi
FNDA:1672,_ZN5amrex7BaseFabIN3Set7Matrix4ILi2ELi6EEEED2Ev
FNDA:11520,_ZN5amrex7BaseFabIN3Set7Matrix4ILi2ELi1EEEE4copyILNS_5RunOnE1EEERS4_RKS4_RKNS_3BoxEiSC_ii
FNDA:0,_ZN5amrex7BaseFabIN5Model5Solid6Affine9HexagonalEED0Ev
FNDA:0,_ZN5amrex7BaseFabIN5Model5Solid7Elastic28PseudoLinearCubicPredeformedEE4copyILNS_5RunOnE0EEERS5_RKS5_RKNS_3BoxEiSD_ii
FNDA:28,_ZN5amrex7BaseFabIN3Set7Matrix4ILi2ELi4EEEEC2ERKNS_3BoxEibbPNS_5ArenaE
FNDA:10683,_ZZN5amrex7BaseFabIN5Model5Solid6Linear9IsotropicEE4copyILNS_5RunOnE1EEERS5_RKS5_RKNS_3BoxEiSD_iiENKUliiiiE_clEiiii
FNDA:0,_ZN5amrex7BaseFabIN5Model5Solid6Linear5CubicEEC2ERKNS_3BoxEibbPNS_5ArenaE
FNDA:0,_ZN5amrex7BaseFabIN5Model5Solid7Elastic28PseudoLinearCubicPredeformedEE4copyILNS_5RunOnE1EEERS5_RKS5_RKNS_3BoxEiSD_ii
FNDA:78,_ZNK5amrex7BaseFabIN5Model5Solid6Linear9IsotropicEE3boxEv
FNDA:56,_ZNK5amrex7BaseFabIN3Set7Matrix4ILi2ELi4EEEE11nBytesOwnedEv
FNDA:5263870,_ZZN5amrex7BaseFabIiE4copyILNS_5RunOnE1EEERS1_RKS1_RKNS_3BoxEiS9_iiENKUliiiiE_clEiiii
FNDA:0,_ZN5amrex7BaseFabIdE4plusILNS_5RunOnE1EEERS1_RKS1_iii
FNDA:48,_ZN5amrex7BaseFabIN5Model5Solid7Elastic10NeoHookeanEED0Ev
FNDA:0,_ZN5amrex7BaseFabIN5Model5Solid6Linear9IsotropicEEC2ERKS5_NS_8MakeTypeEii
FNDA:0,_ZN5amrex7BaseFabIN5Model5Solid7Elastic10NeoHookeanEE4copyILNS_5RunOnE0EEERS5_RKS5_RKNS_3BoxEiSD_ii
FNDA:0,_ZZN5amrex7BaseFabIN5Model5Solid7Elastic17PseudoLinearCubicEE4plusILNS_5RunOnE1EEERS5_RKS5_RKNS_3BoxESD_iiiENKUliiiiE_clEiiii
FNDA:3932,_ZN5amrex7BaseFabIN5Model5Solid6Affine5CubicEED2Ev
FNDA:63,_ZN5amrex7BaseFabIN5Model5Solid7Elastic10NeoHookeanEEC2ERKNS_3BoxEibbPNS_5ArenaE
FNDA:0,_ZN5amrex7BaseFabIN5Model5Solid6Linear9IsotropicEE4plusILNS_5RunOnE1EEERS5_RKS5_RKNS_3BoxESD_iii
FNDA:0,_ZN5amrex7BaseFabIN3Set7Matrix4ILi2ELi4EEEE11copyFromMemILNS_5RunOnE1ES3_EEmRKNS_3BoxEiiPKv
FNDA:0,_ZNK5amrex7BaseFabIN5Model5Solid6Linear5CubicEE7dataPtrEi
FNDA:3932,_ZN5amrex12placementNewIN5Model5Solid6Affine5CubicEEENSt9enable_ifIXntsrSt34is_trivially_default_constructibleIT_E5valueEvE4typeEPS7_l
FNDA:95992,_ZZN5amrex7BaseFabIiE6setValILNS_5RunOnE1EEEvRKiRKNS_3BoxENS_8DestCompENS_8NumCompsEENKUliiiiE_clEiiii
FNDA:1800,_ZN5amrex7BaseFabIN3Set7Matrix4ILi2ELi1EEEED2Ev
FNDA:0,_ZZN5amrex7BaseFabIN3Set7Matrix4ILi2ELi3EEEE11copyFromMemILNS_5RunOnE1ES3_EEmRKNS_3BoxEiiPKvENKUliiiiE_clEiiii
FNDA:1,_ZN5amrex7BaseFabIN5Model5Solid6Linear9LaplacianEED2Ev
FNDA:4897520,_ZNK5amrex7BaseFabIdE5nCompEv
FNDA:33196,_ZN5amrex7BaseFabIN5Eigen6MatrixIdLi2ELi2ELi0ELi2ELi2EEEE5clearEv
FNDA:0,_ZN5amrex7BaseFabIN5Eigen6MatrixIdLi2ELi2ELi0ELi2ELi2EEEE4plusILNS_5RunOnE1EEERS4_RKS4_RKNS_3BoxESC_iii
FNDA:0,_ZNK5amrex7BaseFabIN5Model5Solid6Affine5CubicEE7dataPtrEi
FNDA:11682,_ZN5amrex15placementDeleteIN5Model5Solid6Affine9IsotropicEEENSt9enable_ifIXntsrSt25is_trivially_destructibleIT_E5valueEvE4typeEPS7_l
FNDA:28856,_ZN5amrex7BaseFabIdE13setComplementILNS_5RunOnE0EEEvRKdRKNS_3BoxEii
FNDA:0,_ZN5amrex7BaseFabIN5Model5Solid7Elastic28PseudoLinearCubicPredeformedEE4plusILNS_5RunOnE1EEERS5_RKS5_RKNS_3BoxESD_iii
FNDA:0,_ZN5amrex7BaseFabIN5Model5Solid7Elastic17PseudoLinearCubicEE10addFromMemILNS_5RunOnE1ES4_EEmRKNS_3BoxEiiPKv
FNDA:5346060,_ZN5amrex15placementDeleteIdEENSt9enable_ifIXsrSt25is_trivially_destructibleIT_E5valueEvE4typeEPS3_l
FNDA:0,_ZNK5amrex7BaseFabIN5Model5Solid6Affine9HexagonalEE11nBytesOwnedEv
FNDA:6840,_ZNK5amrex7BaseFabIN5Model5Solid6Affine5CubicEE6nBytesEv
FNDA:0,_ZN5amrex7BaseFabIN5Eigen6MatrixIdLi2ELi1ELi0ELi2ELi1EEEEC2ERKS4_NS_8MakeTypeEii
FNDA:2429910,_ZZN5amrex7BaseFabIN5Eigen6MatrixIdLi2ELi1ELi0ELi2ELi1EEEE4copyILNS_5RunOnE1EEERS4_RKS4_RKNS_3BoxEiSC_iiENKUliiiiE_clEiiii
FNDA:48,_ZNK5amrex7BaseFabIN5Model5Solid6Affine2J2EE3boxEv
FNDA:0,_ZN5amrex7BaseFabIN3Set7Matrix4ILi2ELi1EEEE11copyFromMemILNS_5RunOnE1ES3_EEmRKNS_3BoxEiiPKv
FNDA:0,_ZN5amrex7BaseFabIN5Model5Solid7Elastic28PseudoLinearCubicPredeformedEE6defineEv
FNDA:212,_ZNK5amrex7BaseFabIN5Model5Solid6Linear9IsotropicEE6nBytesEv
FNDA:0,_ZZN5amrex7BaseFabIN5Eigen6MatrixIdLi2ELi1ELi0ELi2ELi1EEEE4plusILNS_5RunOnE1EEERS4_RKS4_RKNS_3BoxESC_iiiENKUliiiiE_clEiiii
FNDA:0,_ZZN5amrex7BaseFabIN5Eigen6MatrixIdLi2ELi2ELi0ELi2ELi2EEEE10addFromMemILNS_5RunOnE1ES3_EEmRKNS_3BoxEiiPKvENKUliiiiE_clEiiii
FNDA:186,_ZN5amrex7BaseFabIN5Model5Solid7Elastic10NeoHookeanEE4copyILNS_5RunOnE1EEERS5_RKS5_RKNS_3BoxEiSD_ii
FNDA:0,_ZNK5amrex7BaseFabIN5Model5Solid7Elastic10NeoHookeanEE7dataPtrEi
FNDA:0,_ZN5amrex7BaseFabIN5Model5Solid6Affine9HexagonalEE4plusILNS_5RunOnE1EEERS5_RKS5_RKNS_3BoxESD_iii
FNDA:0,_ZN5amrex7BaseFabIN5Model5Solid6Linear19IsotropicDegradableEE6defineEv
FNDA:0,_ZN5amrex7BaseFabIN5Model5Solid6Linear19IsotropicDegradableEE5clearEv
FNDA:0,_ZN5amrex12placementNewIN5Model5Solid7Elastic17PseudoLinearCubicEEENSt9enable_ifIXntsrSt34is_trivially_default_constructibleIT_E5valueEvE4typeEPS7_l
FNDA:28,_ZN5amrex15placementDeleteIN3Set7Matrix4ILi2ELi4EEEEENSt9enable_ifIXsrSt25is_trivially_destructibleIT_E5valueEvE4typeEPS6_l
FNDA:0,_ZZN5amrex7BaseFabIN5Model5Solid7Elastic28PseudoLinearCubicPredeformedEE4copyILNS_5RunOnE1EEERS5_RKS5_RKNS_3BoxEiSD_iiENKUliiiiE_clEiiii
FNDA:0,_ZZN5amrex7BaseFabIN3Set7Matrix4ILi2ELi6EEEE4copyILNS_5RunOnE0EEERS4_RKS4_RKNS_3BoxEiSC_iiENKUliiiiE_clEiiii
FNDA:0,_ZNK5amrex7BaseFabIN3Set7Matrix4ILi2ELi4EEEE7dataPtrEi
FNDA:0,_ZZN5amrex7BaseFabIN5Model5Solid6Affine2J2EE4plusILNS_5RunOnE1EEERS5_RKS5_RKNS_3BoxESD_iiiENKUliiiiE_clEiiii
FNDA:0,_ZZN5amrex7BaseFabIN3Set7Matrix4ILi2ELi1EEEE4copyILNS_5RunOnE0EEERS4_RKS4_RKNS_3BoxEiSC_iiENKUliiiiE_clEiiii
FNDA:0,_ZN5amrex7BaseFabIN3Set7Matrix4ILi2ELi4EEEE4copyILNS_5RunOnE0EEERS4_RKS4_RKNS_3BoxEiSC_ii
FNDA:33196,_ZN5amrex15placementDeleteIN5Eigen6MatrixIdLi2ELi2ELi0ELi2ELi2EEEEENSt9enable_ifIXsrSt25is_trivially_destructibleIT_E5valueEvE4typeEPS6_l
FNDA:0,_ZN5amrex7BaseFabIN5Model5Solid7Elastic28PseudoLinearCubicPredeformedEE5clearEv
FNDA:0,_ZZN5amrex7BaseFabIN5Model5Solid6Affine5CubicEE11copyFromMemILNS_5RunOnE1ES4_EEmRKNS_3BoxEiiPKvENKUliiiiE_clEiiii
FNDA:66,_ZNK5amrex7BaseFabIN5Model5Solid6Affine2J2EE6nBytesEv
FNDA:27530,_ZN5amrex7BaseFabIN5Model5Solid6Affine9IsotropicEE4copyILNS_5RunOnE1EEERS5_RKS5_RKNS_3BoxEiSD_ii
FNDA:0,_ZZN5amrex7BaseFabIdE4plusILNS_5RunOnE1EEERS1_RKS1_NS_3BoxENS_7SrcCompENS_8DestCompENS_8NumCompsEENKUliiiiE_clEiiii
FNDA:0,_ZNK5amrex7BaseFabIN5Model5Solid6Linear5CubicEE3boxEv
FNDA:0,_ZN5amrex7BaseFabIN5Model5Solid6Affine9IsotropicEE4plusILNS_5RunOnE1EEERS5_RKS5_RKNS_3BoxESD_iii
FNDA:0,_ZZN5amrex7BaseFabIN5Model5Solid7Elastic10NeoHookeanEE4copyILNS_5RunOnE0EEERS5_RKS5_RKNS_3BoxEiSD_iiENKUliiiiE_clEiiii
FNDA:0,_ZN5amrex7BaseFabIN3Set7Matrix4ILi2ELi1EEEEC2ERKS4_NS_8MakeTypeEii
FNDA:0,_ZN5amrex7BaseFabIN5Model5Solid7Elastic17PseudoLinearCubicEE4copyILNS_5RunOnE0EEERS5_RKS5_RKNS_3BoxEiSD_ii
FNDA:0,_ZN5amrex7BaseFabIiE4plusILNS_5RunOnE1EEERS1_RKS1_RKNS_3BoxES9_iii
FNDA:0,_ZN5amrex7BaseFabIN5Model5Solid6Affine5CubicEE4copyILNS_5RunOnE0EEERS5_RKS5_RKNS_3BoxEiSD_ii
FNDA:0,_ZN5amrex7BaseFabIN5Model5Solid6Linear19IsotropicDegradableEEC2ERKNS_3BoxEibbPNS_5ArenaE
FNDA:16340900,_ZN5amrex7BaseFabIdE4copyILNS_5RunOnE1EEERS1_RKS1_RKNS_3BoxEiS9_ii
FNDA:0,_ZZN5amrex7BaseFabIN5Model5Solid6Linear9IsotropicEE4copyILNS_5RunOnE0EEERS5_RKS5_RKNS_3BoxEiSD_iiENKUliiiiE_clEiiii
FNDA:0,_ZN5amrex7BaseFabIN3Set7Matrix4ILi2ELi6EEEEC2ERKS4_NS_8MakeTypeEii
FNDA:0,_ZN5amrex7BaseFabIN5Model5Solid6Affine2J2EE10addFromMemILNS_5RunOnE1ES4_EEmRKNS_3BoxEiiPKv
FNDA:772437,_ZZN5amrex7BaseFabIN5Model5Solid6Affine9IsotropicEE4copyILNS_5RunOnE1EEERS5_RKS5_RKNS_3BoxEiSD_iiENKUliiiiE_clEiiii
FNDA:0,_ZN5amrex7BaseFabIN5Model5Solid6Linear19IsotropicDegradableEE4plusILNS_5RunOnE1EEERS5_RKS5_RKNS_3BoxESD_iii
FNDA:0,_ZNK5amrex7BaseFabIN5Eigen6MatrixIdLi2ELi1ELi0ELi2ELi1EEEE7dataPtrEi
FNDA:0,_ZZN5amrex7BaseFabIiE4plusILNS_5RunOnE1EEERS1_RKS1_RKNS_3BoxES9_iiiENKUliiiiE_clEiiii
FNDA:35782,_ZN5amrex15placementDeleteIN5Eigen6MatrixIdLi2ELi1ELi0ELi2ELi1EEEEENSt9enable_ifIXsrSt25is_trivially_destructibleIT_E5valueEvE4typeEPS6_l
FNDA:1,_ZN5amrex12placementNewIN5Model5Solid6Linear9LaplacianEEENSt9enable_ifIXntsrSt34is_trivially_default_constructibleIT_E5valueEvE4typeEPS7_l
FNDA:3344,_ZNK5amrex7BaseFabIN3Set7Matrix4ILi2ELi6EEEE11nBytesOwnedEv
FNDA:0,_ZN5amrex7BaseFabIN5Model5Solid6Affine5CubicEE11copyFromMemILNS_5RunOnE1ES4_EEmRKNS_3BoxEiiPKv
FNDA:0,_ZZN5amrex7BaseFabIN3Set7Matrix4ILi2ELi4EEEE4plusILNS_5RunOnE1EEERS4_RKS4_RKNS_3BoxESC_iiiENKUliiiiE_clEiiii
FNDA:0,_ZZN5amrex7BaseFabIN5Model5Solid6Linear19IsotropicDegradableEE4plusILNS_5RunOnE1EEERS5_RKS5_RKNS_3BoxESD_iiiENKUliiiiE_clEiiii
FNDA:0,_ZZN5amrex7BaseFabIN5Model5Solid7Elastic28PseudoLinearCubicPredeformedEE4copyILNS_5RunOnE0EEERS5_RKS5_RKNS_3BoxEiSD_iiENKUliiiiE_clEiiii
FNDA:27,_ZN5amrex7BaseFabIN5Model5Solid6Affine2J2EE4copyILNS_5RunOnE1EEERS5_RKS5_RKNS_3BoxEiSD_ii
FNDA:35782,_ZN5amrex7BaseFabIN5Eigen6MatrixIdLi2ELi1ELi0ELi2ELi1EEEE5clearEv
FNDA:69645,_ZNK5amrex7BaseFabIiE6nBytesEv
FNDA:916646,_ZZN5amrex7BaseFabIN3Set7Matrix4ILi2ELi6EEEE4copyILNS_5RunOnE1EEERS4_RKS4_RKNS_3BoxEiSC_iiENKUliiiiE_clEiiii
FNDA:0,_ZN5amrex7BaseFabIN5Model5Solid7Elastic17PseudoLinearCubicEED2Ev
FNDA:0,_ZZN5amrex7BaseFabIN5Model5Solid6Linear19IsotropicDegradableEE4copyILNS_5RunOnE1EEERS5_RKS5_RKNS_3BoxEiSD_iiENKUliiiiE_clEiiii
FNDA:0,_ZZN5amrex7BaseFabIN3Set7Matrix4ILi2ELi3EEEE4copyILNS_5RunOnE0EEERS4_RKS4_RKNS_3BoxEiSC_iiENKUliiiiE_clEiiii
FNDA:0,_ZZN5amrex7BaseFabIN3Set7Matrix4ILi2ELi1EEEE10addFromMemILNS_5RunOnE1ES3_EEmRKNS_3BoxEiiPKvENKUliiiiE_clEiiii
FNDA:0,_ZZN5amrex7BaseFabIN5Model5Solid6Linear9LaplacianEE11copyFromMemILNS_5RunOnE1ES4_EEmRKNS_3BoxEiiPKvENKUliiiiE_clEiiii
FNDA:0,_ZZN5amrex7BaseFabIN3Set7Matrix4ILi2ELi4EEEE11copyFromMemILNS_5RunOnE1ES3_EEmRKNS_3BoxEiiPKvENKUliiiiE_clEiiii
FNDA:132,_ZN5amrex15placementDeleteIN5Model5Solid6Linear9IsotropicEEENSt9enable_ifIXntsrSt25is_trivially_destructibleIT_E5valueEvE4typeEPS7_l
FNDA:0,_ZN5amrex7BaseFabIN5Model5Solid6Affine9IsotropicEE4copyILNS_5RunOnE0EEERS5_RKS5_RKNS_3BoxEiSD_ii
FNDA:51332,_ZNK5amrex7BaseFabIN5Eigen6MatrixIdLi2ELi2ELi0ELi2ELi2EEEE11nBytesOwnedEv
FNDA:0,_ZNK5amrex7BaseFabIN5Model5Solid7Elastic17PseudoLinearCubicEE6nBytesEv
FNDA:1800,_ZN5amrex7BaseFabIN3Set7Matrix4ILi2ELi1EEEED0Ev
FNDA:1800,_ZN5amrex7BaseFabIN3Set7Matrix4ILi2ELi1EEEEC2ERKNS_3BoxEibbPNS_5ArenaE
FNDA:0,_ZN5amrex7BaseFabIN5Model5Solid6Affine2J2EE4copyILNS_5RunOnE0EEERS5_RKS5_RKNS_3BoxEiSD_ii
FNDA:0,_ZN5amrex7BaseFabIN5Model5Solid6Linear9IsotropicEE4copyILNS_5RunOnE0EEERS5_RKS5_RKNS_3BoxEiSD_ii
FNDA:0,_ZN5amrex7BaseFabIN3Set7Matrix4ILi2ELi6EEEE4copyILNS_5RunOnE0EEERS4_RKS4_RKNS_3BoxEiSC_ii
FNDA:0,_ZN5amrex7BaseFabIN3Set7Matrix4ILi2ELi3EEEE4copyILNS_5RunOnE0EEERS4_RKS4_RKNS_3BoxEiSC_ii
FNDA:0,_ZNK5amrex7BaseFabIN5Model5Solid7Elastic28PseudoLinearCubicPredeformedEE11nBytesOwnedEv
FNDA:0,_ZZN5amrex7BaseFabIN5Eigen6MatrixIdLi2ELi1ELi0ELi2ELi1EEEE4copyILNS_5RunOnE0EEERS4_RKS4_RKNS_3BoxEiSC_iiENKUliiiiE_clEiiii
FNDA:0,_ZZN5amrex7BaseFabIN5Model5Solid7Elastic28PseudoLinearCubicPredeformedEE10addFromMemILNS_5RunOnE1ES4_EEmRKNS_3BoxEiiPKvENKUliiiiE_clEiiii
FNDA:1672,_ZN5amrex15placementDeleteIN3Set7Matrix4ILi2ELi6EEEEENSt9enable_ifIXsrSt25is_trivially_destructibleIT_E5valueEvE4typeEPS6_l
FNDA:0,_ZN5amrex7BaseFabIN5Model5Solid7Elastic17PseudoLinearCubicEE4copyILNS_5RunOnE1EEERS5_RKS5_RKNS_3BoxEiSD_ii
FNDA:0,_ZN5amrex7BaseFabIN5Model5Solid6Affine9HexagonalEED2Ev
FNDA:0,_ZZN5amrex7BaseFabIN5Model5Solid6Affine9IsotropicEE4copyILNS_5RunOnE0EEERS5_RKS5_RKNS_3BoxEiSD_iiENKUliiiiE_clEiiii
FNDA:18415,_ZN5amrex7BaseFabIdE4plusILNS_5RunOnE1EEERS1_RKS1_RKNS_3BoxES9_iii
FNDA:1,_ZN5amrex7BaseFabIN5Model5Solid6Linear9LaplacianEE6defineEv
FNDA:96,_ZNK5amrex7BaseFabIN5Model5Solid7Elastic10NeoHookeanEE6nBytesEv
FNDA:24204,_ZNK5amrex7BaseFabIN5Eigen6MatrixIdLi2ELi1ELi0ELi2ELi1EEEE3boxEv
FNDA:5354450,_ZN5amrex7BaseFabIdE5clearEv
FNDA:0,_ZZN5amrex7BaseFabIN3Set7Matrix4ILi2ELi3EEEE10addFromMemILNS_5RunOnE1ES3_EEmRKNS_3BoxEiiPKvENKUliiiiE_clEiiii
FNDA:18194,_ZN5amrex7BaseFabIN3Set7Matrix4ILi2ELi6EEEE4copyILNS_5RunOnE1EEERS4_RKS4_RKNS_3BoxEiSC_ii
FNDA:3420,_ZN5amrex7BaseFabIN5Model5Solid6Affine5CubicEED0Ev
FNDA:0,_ZNK5amrex7BaseFabIN5Model5Solid6Linear9LaplacianEE7dataPtrEi
FNDA:28856,_ZN5amrex7BaseFabIdE13setComplementILNS_5RunOnE0EEEvRKdRKNS_3BoxENS_8DestCompENS_8NumCompsE
FNDA:1800,_ZN5amrex12placementNewIN3Set7Matrix4ILi2ELi1EEEEENSt9enable_ifIXntsrSt34is_trivially_default_constructibleIT_E5valueEvE4typeEPS6_l
FNDA:56,_ZNK5amrex7BaseFabIN3Set7Matrix4ILi2ELi4EEEE6nBytesEv
FNDA:0,_ZN5amrex7BaseFabIN5Model5Solid6Affine9IsotropicEEC2ERKS5_NS_8MakeTypeEii
FNDA:18415,_ZN5amrex7BaseFabIdE6setValILNS_5RunOnE1EEEvRKd
FNDA:0,_ZNK5amrex7BaseFabIN3Set7Matrix4ILi2ELi6EEEE7dataPtrEi
FNDA:0,_ZZN5amrex7BaseFabIN5Model5Solid7Elastic28PseudoLinearCubicPredeformedEE11copyFromMemILNS_5RunOnE1ES4_EEmRKNS_3BoxEiiPKvENKUliiiiE_clEiiii
FNDA:0,_ZZN5amrex7BaseFabIN3Set7Matrix4ILi2ELi1EEEE4plusILNS_5RunOnE1EEERS4_RKS4_RKNS_3BoxESC_iiiENKUliiiiE_clEiiii
FNDA:0,_ZNK5amrex7BaseFabIN5Model5Solid6Affine9HexagonalEE7dataPtrEi
FNDA:0,_ZN5amrex7BaseFabIN5Model5Solid6Affine2J2EE11copyFromMemILNS_5RunOnE1ES4_EEmRKNS_3BoxEiiPKv
FNDA:1,_ZN5amrex15placementDeleteIN5Model5Solid6Linear9LaplacianEEENSt9enable_ifIXntsrSt25is_trivially_destructibleIT_E5valueEvE4typeEPS7_l
FNDA:0,_ZZN5amrex7BaseFabIN5Model5Solid6Affine9IsotropicEE4plusILNS_5RunOnE1EEERS5_RKS5_RKNS_3BoxESD_iiiENKUliiiiE_clEiiii
FNDA:0,_ZZN5amrex7BaseFabIN5Model5Solid6Linear5CubicEE10addFromMemILNS_5RunOnE1ES4_EEmRKNS_3BoxEiiPKvENKUliiiiE_clEiiii
FNDA:22590,_ZNK5amrex7BaseFabIN5Eigen6MatrixIdLi2ELi2ELi0ELi2ELi2EEEE3boxEv
FNDA:0,_ZN5amrex7BaseFabIdE13setComplementILNS_5RunOnE1EEEvRKdRKNS_3BoxEii
FNDA:0,_ZN5amrex7BaseFabIN5Model5Solid6Affine2J2EEC2ERKS5_NS_8MakeTypeEii
FNDA:0,_ZZN5amrex7BaseFabIN5Model5Solid6Affine9HexagonalEE4plusILNS_5RunOnE1EEERS5_RKS5_RKNS_3BoxESD_iiiENKUliiiiE_clEiiii
FNDA:0,_ZN5amrex7BaseFabIN5Model5Solid7Elastic17PseudoLinearCubicEE4plusILNS_5RunOnE1EEERS5_RKS5_RKNS_3BoxESD_iii
FNDA:0,_ZZN5amrex7BaseFabIN5Model5Solid6Affine9HexagonalEE4copyILNS_5RunOnE1EEERS5_RKS5_RKNS_3BoxEiSD_iiENKUliiiiE_clEiiii
FNDA:35782,_ZN5amrex12placementNewIN5Eigen6MatrixIdLi2ELi1ELi0ELi2ELi1EEEEENSt9enable_ifIXntsrSt34is_trivially_default_constructibleIT_E5valueEvE4typeEPS6_l
FNDA:4519900,_ZN5amrex7BaseFabIdED2Ev
FNDA:0,_ZN5amrex7BaseFabIN5Model5Solid6Linear5CubicEE10addFromMemILNS_5RunOnE1ES4_EEmRKNS_3BoxEiiPKv
FNDA:0,_ZN5amrex7BaseFabIN3Set7Matrix4ILi2ELi3EEEE4plusILNS_5RunOnE1EEERS4_RKS4_RKNS_3BoxESC_iii
FNDA:0,_ZN5amrex7BaseFabIN3Set7Matrix4ILi2ELi3EEEEC2ERKS4_NS_8MakeTypeEii
FNDA:0,_ZZN5amrex7BaseFabIN5Model5Solid7Elastic17PseudoLinearCubicEE11copyFromMemILNS_5RunOnE1ES4_EEmRKNS_3BoxEiiPKvENKUliiiiE_clEiiii
FNDA:0,_ZN5amrex12placementNewIN5Model5Solid6Linear5CubicEEENSt9enable_ifIXntsrSt34is_trivially_default_constructibleIT_E5valueEvE4typeEPS7_l
FNDA:3932,_ZN5amrex7BaseFabIN5Model5Solid6Affine5CubicEEC2ERKNS_3BoxEibbPNS_5ArenaE
FNDA:1536,_ZNK5amrex7BaseFabIN5Model5Solid6Affine5CubicEE3boxEv
FNDA:0,_ZN5amrex12placementNewIN5Model5Solid6Affine9HexagonalEEENSt9enable_ifIXntsrSt34is_trivially_default_constructibleIT_E5valueEvE4typeEPS7_l
FNDA:1800,_ZN5amrex15placementDeleteIN3Set7Matrix4ILi2ELi1EEEEENSt9enable_ifIXsrSt25is_trivially_destructibleIT_E5valueEvE4typeEPS6_l
FNDA:3624,_ZN5amrex12placementNewIN3Set7Matrix4ILi2ELi3EEEEENSt9enable_ifIXntsrSt34is_trivially_default_constructibleIT_E5valueEvE4typeEPS6_l
FNDA:142887,_ZN5amrex7BaseFabIN5Eigen6MatrixIdLi2ELi2ELi0ELi2ELi2EEEE4copyILNS_5RunOnE1EEERS4_RKS4_RKNS_3BoxEiSC_ii
FNDA:0,_ZN5amrex7BaseFabIN5Model5Solid7Elastic28PseudoLinearCubicPredeformedEED2Ev
FNDA:11682,_ZN5amrex7BaseFabIN5Model5Solid6Affine9IsotropicEED2Ev
FNDA:0,_ZN5amrex12placementNewIN5Model5Solid7Elastic28PseudoLinearCubicPredeformedEEENSt9enable_ifIXntsrSt34is_trivially_default_constructibleIT_E5valueEvE4typeEPS7_l
FNDA:0,_ZN5amrex15placementDeleteIN5Model5Solid7Elastic28PseudoLinearCubicPredeformedEEENSt9enable_ifIXntsrSt25is_trivially_destructibleIT_E5valueEvE4typeEPS7_l
FNDA:0,_ZNK5amrex7BaseFabIN5Model5Solid6Affine9HexagonalEE6nBytesEv
FNDA:0,_ZN5amrex7BaseFabIN5Eigen6MatrixIdLi2ELi2ELi0ELi2ELi2EEEE10addFromMemILNS_5RunOnE1ES3_EEmRKNS_3BoxEiiPKv
FNF:416
FNH:162
DA:69,0
DA:75,58442
DA:81,58442
DA:90,88974726
DA:158,91961
DA:160,9306221
DA:164,91961
DA:168,5422162
DA:169,5422162
DA:173,15859
DA:175,1376927
DA:179,15859
DA:267,9210051
DA:269,9213931
DA:270,9213931
DA:278,4897520
DA:286,0
DA:292,3795319
DA:362,0
DA:363,0
DA:364,0
DA:366,0
DA:382,0
DA:400,32759022
DA:418,22320613
DA:1721,721642000
DA:1745,993071000
DA:1835,11171
DA:1837,11171
DA:1838,11171
DA:1851,16879240
DA:1861,16879240
DA:1862,16879240
DA:1865,16879240
DA:1867,941531105
DA:1872,16879240
DA:1893,91961
DA:1898,91961
DA:1901,91961
DA:1902,91961
DA:1903,91961
DA:1905,91961
DA:1907,91961
DA:1923,91961
DA:1924,91961
DA:1926,91961
DA:1927,91961
DA:1930,0
DA:1932,0
DA:1934,0
DA:1937,0
DA:1939,0
DA:1940,0
DA:1941,0
DA:1942,0
DA:1947,0
DA:1994,4684459
DA:1996,4611861
DA:1997,4684459
DA:2098,5446411
DA:2100,5446411
DA:2105,5441891
DA:2107,5438021
DA:2112,5438021
DA:2114,5438021
DA:2116,5438021
DA:2117,3382703
DA:2119,2055318
DA:2123,5441891
DA:2124,5441891
DA:2126,5446411
DA:2175,0
DA:2183,0
DA:2185,0
DA:2186,0
DA:2187,0
DA:2188,0
DA:2192,0
DA:2196,0
DA:2203,0
DA:2211,0
DA:2213,0
DA:2214,0
DA:2215,0
DA:2216,0
DA:2220,0
DA:2224,0
DA:2231,28856
DA:2233,28856
DA:2234,28856
DA:3188,0
DA:3190,0
DA:3227,18415
DA:3237,18415
DA:3238,18415
DA:3241,18415
DA:3242,6110090
DA:3247,18415
DA:3338,0
DA:3340,0
DA:3551,18415
DA:3553,18415
DA:3554,18415
DA:3559,61952
DA:3562,61952
DA:3563,3354714
DA:3567,61952
DA:3616,28856
DA:3632,57712
DA:3633,61222
DA:3634,32366
DA:3637,28856
DA:3721,0
DA:3728,0
DA:3730,0
DA:3731,0
DA:3732,0
DA:3737,0
DA:3861,0
DA:3868,0
DA:3870,0
DA:3871,0
DA:3872,0
DA:3877,0
LF:124
LH:76
end_of_record
TN:
SF:/home/brunnels/Research/alamo/ext/amrex/2d-coverage-g++-23.08/include/AMReX_BndryData.H
FN:61,_ZN5amrex10BndryDataTINS_8MultiFabEED2Ev
FNDA:0,_ZN5amrex10BndryDataTINS_8MultiFabEED2Ev
FNF:1
FNH:0
DA:61,0
LF:1
LH:0
end_of_record
TN:
SF:/home/brunnels/Research/alamo/ext/amrex/2d-coverage-g++-23.08/include/AMReX_BndryRegister.H
FN:55,_ZN5amrex14BndryRegisterTINS_8MultiFabEED2Ev
FNDA:0,_ZN5amrex14BndryRegisterTINS_8MultiFabEED2Ev
FNF:1
FNH:0
DA:55,0
LF:1
LH:0
end_of_record
TN:
SF:/home/brunnels/Research/alamo/ext/amrex/2d-coverage-g++-23.08/include/AMReX_Box.H
FN:56,_ZN5amrex3BoxC2ERKNS_7IntVectES3_
FN:85,_ZN5amrex3BoxC2ERKNS_7IntVectES3_NS_9IndexTypeE
FN:102,_ZNKR5amrex3Box8smallEndEv
FN:113,_ZNKR5amrex3Box6bigEndEv
FN:154,_ZNK5amrex3Box6lengthEi
FN:191,_ZNKR5amrex3Box6loVectEv
FN:196,_ZNKR5amrex3Box6hiVectEv
FN:213,_ZNK5amrex3Box2okEv
FN:245,_ZNK5amrex3Box8containsERKS0_
FN:305,_ZNK5amrex3BoxeqERKS0_
FN:309,_ZNK5amrex3BoxneERKS0_
FN:340,_ZNK5amrex3Box6numPtsEv
FN:536,_ZNK5amrex3BoxanERKS0_
FN:540,_ZN5amrex3BoxaNERKS0_
FN:598,_ZN5amrex3Box4growEi
FN:602,_ZN5amrex3Box4growERKNS_7IntVectE
FN:609,_ZN5amrex3Box4growEii
FN:1129,_ZN5amrex12BoxConverterD2Ev
FN:1129,_ZN5amrex12BoxConverterD0Ev
FNDA:818975000,_ZNKR5amrex3Box6loVectEv
FNDA:0,_ZN5amrex12BoxConverterD0Ev
FNDA:1245740,_ZNK5amrex3Box8containsERKS0_
FNDA:0,_ZNKR5amrex3Box6bigEndEv
FNDA:2572600000,_ZNK5amrex3Box6lengthEi
FNDA:1278080,_ZN5amrex3Box4growERKNS_7IntVectE
FNDA:1010140000,_ZNKR5amrex3Box6hiVectEv
FNDA:0,_ZNK5amrex3BoxneERKS0_
FNDA:3358030,_ZN5amrex3BoxaNERKS0_
FNDA:0,_ZN5amrex3BoxC2ERKNS_7IntVectES3_
FNDA:1401330,_ZNK5amrex3Box2okEv
FNDA:3357730,_ZNK5amrex3BoxanERKS0_
FNDA:0,_ZN5amrex3BoxC2ERKNS_7IntVectES3_NS_9IndexTypeE
FNDA:2636270,_ZN5amrex3Box4growEi
FNDA:0,_ZNKR5amrex3Box8smallEndEv
FNDA:0,_ZNK5amrex3BoxeqERKS0_
FNDA:857541000,_ZNK5amrex3Box6numPtsEv
FNDA:1660,_ZN5amrex3Box4growEii
FNDA:12551,_ZN5amrex12BoxConverterD2Ev
FNF:19
FNH:12
DA:56,0
DA:57,0
DA:58,0
DA:59,0
DA:85,0
DA:86,0
DA:88,0
DA:89,0
DA:102,0
DA:113,0
DA:154,7717790000
DA:191,1637950000
DA:196,2020270000
DA:213,4204000
DA:245,1245740
DA:248,3724200
DA:305,0
DA:309,0
DA:340,857541000
DA:341,857541000
DA:536,3357730
DA:540,3358030
DA:543,3358030
DA:544,3358030
DA:545,3358030
DA:598,7908810
DA:602,3834250
DA:609,4980
DA:778,18415
DA:779,18415
DA:780,36830
DA:781,18415
DA:782,18415
DA:783,18415
DA:784,18415
DA:786,18415
DA:794,875710
DA:796,875710
DA:798,1751420
DA:800,18415
DA:801,55245
DA:803,73660
DA:804,110490
DA:807,18415
DA:808,18415
DA:812,857295
DA:816,875710
DA:825,1978112
DA:826,989058
DA:827,989058
DA:828,989058
DA:836,40916017
DA:838,27277378
DA:839,27277378
DA:840,27277378
DA:841,27277378
DA:842,27277378
DA:844,13638639
DA:898,58089
DA:899,77452
DA:900,38726
DA:903,19363
DA:904,19363
DA:912,857357000
DA:914,1714710000
DA:919,857357000
DA:1129,12551
DA:1155,1277776
DA:1156,1277776
DA:1157,1277776
DA:1229,18415
DA:1230,18415
DA:1231,18415
DA:1248,857295
DA:1250,857295
DA:1265,18415
DA:1266,18415
DA:1267,18415
DA:1361,13638633
DA:1362,13638633
DA:1363,13638633
DA:1399,19363
DA:1401,19363
DA:1594,564961973
DA:1608,463900129
DA:1622,133462384
DA:1636,133462384
LF:87
LH:75
end_of_record
TN:
SF:/home/brunnels/Research/alamo/ext/amrex/2d-coverage-g++-23.08/include/AMReX_BoxArray.H
FN:120,_ZNK5amrex7BATnullclERKNS_3BoxE
FN:124,_ZN5amrex7BATnull10index_typeEv
FN:131,_ZNK5amrex12BATindexTypeclERKNS_3BoxE
FN:135,_ZNK5amrex12BATindexType10index_typeEv
FN:143,_ZNK5amrex15BATcoarsenRatioclERKNS_3BoxE
FN:147,_ZN5amrex15BATcoarsenRatio10index_typeEv
FN:157,_ZNK5amrex25BATindexType_coarsenRatioclERKNS_3BoxE
FN:166,_ZNK5amrex25BATindexType_coarsenRatio10index_typeEv
FN:217,_ZNK5amrex11BATbndryRegclERKNS_3BoxE
FN:236,_ZNK5amrex11BATbndryReg10index_typeEv
FN:286,_ZNK5amrex13BATransformerclERKNS_3BoxE
FN:350,_ZNK5amrex13BATransformer10index_typeEv
FN:528,_ZN5amrex8BoxArrayaSEOS0_
FN:533,_ZN5amrex8BoxArrayC2ERKS0_
FN:534,_ZN5amrex8BoxArrayC2EOS0_
FN:537,_ZN5amrex8BoxArrayD2Ev
FN:576,_ZNK5amrex8BoxArray4sizeEv
FN:582,_ZNK5amrex8BoxArray5emptyEv
FN:693,_ZNK5amrex8BoxArrayixEi
FN:784,_ZN5amrex8BoxArray8SameRefsERKS0_S2_
FN:787,_ZN5amrex8BoxArray5RefIDC2Ev
FN:788,_ZN5amrex8BoxArray5RefIDC2EPNS_5BARefE
FN:791,_ZNK5amrex8BoxArray5RefIDneERKS1_
FN:798,_ZNK5amrex8BoxArray8getRefIDEv
FN:801,_ZNK5amrex8BoxArray6ixTypeEv
FNDA:329453,_ZNK5amrex15BATcoarsenRatioclERKNS_3BoxE
FNDA:527842,_ZNK5amrex25BATindexType_coarsenRatioclERKNS_3BoxE
FNDA:71977,_ZNK5amrex12BATindexType10index_typeEv
FNDA:197688,_ZNK5amrex13BATransformer10index_typeEv
FNDA:0,_ZNK5amrex8BoxArray5RefIDneERKS1_
FNDA:53880,_ZN5amrex8BoxArrayaSEOS0_
FNDA:35420,_ZN5amrex8BoxArray8SameRefsERKS0_S2_
FNDA:1240710,_ZN5amrex8BoxArrayD2Ev
FNDA:14719,_ZN5amrex8BoxArray5RefIDC2Ev
FNDA:39551,_ZNK5amrex25BATindexType_coarsenRatio10index_typeEv
FNDA:0,_ZN5amrex8BoxArray5RefIDC2EPNS_5BARefE
FNDA:117,_ZN5amrex8BoxArrayC2EOS0_
FNDA:81476,_ZN5amrex7BATnull10index_typeEv
FNDA:20026100,_ZNK5amrex13BATransformerclERKNS_3BoxE
FNDA:4684,_ZN5amrex15BATcoarsenRatio10index_typeEv
FNDA:6124320,_ZNK5amrex7BATnullclERKNS_3BoxE
FNDA:10348100,_ZNK5amrex8BoxArrayixEi
FNDA:255183,_ZNK5amrex8BoxArray5emptyEv
FNDA:18230,_ZN5amrex8BoxArrayC2ERKS0_
FNDA:197688,_ZNK5amrex8BoxArray6ixTypeEv
FNDA:0,_ZNK5amrex8BoxArray8getRefIDEv
FNDA:59044,_ZNK5amrex8BoxArray4sizeEv
FNDA:0,_ZNK5amrex11BATbndryRegclERKNS_3BoxE
FNDA:13073500,_ZNK5amrex12BATindexTypeclERKNS_3BoxE
FNDA:0,_ZNK5amrex11BATbndryReg10index_typeEv
FNF:25
FNH:20
DA:120,6124320
DA:124,81476
DA:131,26146900
DA:135,71977
DA:143,658906
DA:147,4684
DA:157,527842
DA:158,1055680
DA:166,39551
DA:217,0
DA:218,0
DA:219,0
DA:220,0
DA:221,0
DA:222,0
DA:224,0
DA:226,0
DA:227,0
DA:228,0
DA:236,0
DA:286,20026100
DA:287,20026100
DA:289,6124320
DA:290,6124320
DA:291,13073500
DA:292,13073500
DA:293,329453
DA:294,329453
DA:295,498845
DA:296,498845
DA:297,0
DA:298,0
DA:350,197688
DA:351,197688
DA:353,81476
DA:354,81476
DA:355,71977
DA:356,71977
DA:357,4684
DA:358,4684
DA:359,39551
DA:360,39551
DA:361,0
DA:362,0
DA:528,53880
DA:533,18230
DA:534,117
DA:537,1240710
DA:576,59044
DA:582,255183
DA:693,10348100
DA:694,10348100
DA:784,35420
DA:787,14719
DA:788,0
DA:791,0
DA:798,0
DA:801,197688
LF:58
LH:40
end_of_record
TN:
SF:/home/brunnels/Research/alamo/ext/amrex/2d-coverage-g++-23.08/include/AMReX_BoxList.H
FN:85,_ZN5amrex7BoxListD2Ev
FN:115,_ZNK5amrex7BoxList5beginEv
FN:119,_ZNK5amrex7BoxList3endEv
FNDA:28856,_ZNK5amrex7BoxList5beginEv
FNDA:28856,_ZNK5amrex7BoxList3endEv
FNDA:28856,_ZN5amrex7BoxListD2Ev
FNF:3
FNH:3
DA:85,28856
DA:115,28856
DA:119,28856
LF:3
LH:3
end_of_record
TN:
SF:/home/brunnels/Research/alamo/ext/amrex/2d-coverage-g++-23.08/include/AMReX_CoordSys.H
FN:72,_ZNK5amrex8CoordSys8CellSizeEv
FNDA:6161440,_ZNK5amrex8CoordSys8CellSizeEv
FNF:1
FNH:1
DA:72,6161440
LF:1
LH:1
end_of_record
TN:
SF:/home/brunnels/Research/alamo/ext/amrex/2d-coverage-g++-23.08/include/AMReX_DataAllocator.H
FN:12,_ZN5amrex13DataAllocatorC2Ev
FN:14,_ZN5amrex13DataAllocatorC2EPNS_5ArenaE
FN:16,_ZNK5amrex13DataAllocator5allocEm
FN:20,_ZNK5amrex13DataAllocator4freeEPv
FN:24,_ZNK5amrex13DataAllocator5arenaEv
FNDA:5438020,_ZNK5amrex13DataAllocator4freeEPv
FNDA:14719,_ZN5amrex13DataAllocatorC2Ev
FNDA:5529980,_ZNK5amrex13DataAllocator5arenaEv
FNDA:91961,_ZNK5amrex13DataAllocator5allocEm
FNDA:91961,_ZN5amrex13DataAllocatorC2EPNS_5ArenaE
FNF:5
FNH:5
DA:12,14719
DA:14,91961
DA:16,91961
DA:17,91961
DA:20,5438020
DA:21,5438020
DA:22,5438020
DA:24,5529980
DA:25,5529980
LF:9
LH:9
end_of_record
TN:
SF:/home/brunnels/Research/alamo/ext/amrex/2d-coverage-g++-23.08/include/AMReX_DistributionMapping.H
FN:41,_ZN5amrex19DistributionMappingaSEOS0_
FN:55,_ZN5amrex19DistributionMappingC2ERKS0_
FN:61,_ZN5amrex19DistributionMappingC2EOS0_
FN:67,_ZN5amrex19DistributionMappingD2Ev
FN:363,_ZN5amrex19DistributionMapping5RefIDC2Ev
FN:364,_ZN5amrex19DistributionMapping5RefIDC2EPNS0_3RefE
FN:367,_ZNK5amrex19DistributionMapping5RefIDneERKS1_
FN:376,_ZNK5amrex19DistributionMapping8getRefIDEv
FNDA:0,_ZNK5amrex19DistributionMapping5RefIDneERKS1_
FNDA:1163020,_ZN5amrex19DistributionMappingD2Ev
FNDA:53880,_ZN5amrex19DistributionMappingaSEOS0_
FNDA:0,_ZN5amrex19DistributionMapping5RefIDC2EPNS0_3RefE
FNDA:0,_ZNK5amrex19DistributionMapping8getRefIDEv
FNDA:124,_ZN5amrex19DistributionMappingC2EOS0_
FNDA:14719,_ZN5amrex19DistributionMapping5RefIDC2Ev
FNDA:379,_ZN5amrex19DistributionMappingC2ERKS0_
FNF:8
FNH:5
DA:41,53880
DA:55,379
DA:61,124
DA:67,1163020
DA:363,14719
DA:364,0
DA:367,0
DA:376,0
LF:8
LH:5
end_of_record
TN:
SF:/home/brunnels/Research/alamo/ext/amrex/2d-coverage-g++-23.08/include/AMReX_FArrayBox.H
FN:268,_ZN5amrex9FArrayBoxD0Ev
FN:268,_ZN5amrex9FArrayBoxD2Ev
FN:508,_ZNK5amrex9FArrayBox12contains_nanILNS_5RunOnE1EEEbv
FN:652,_ZNK5amrex9FArrayBox12contains_infILNS_5RunOnE1EEEbv
FNDA:0,_ZNK5amrex9FArrayBox12contains_nanILNS_5RunOnE1EEEbv
FNDA:0,_ZNK5amrex9FArrayBox12contains_infILNS_5RunOnE1EEEbv
FNDA:4519900,_ZN5amrex9FArrayBoxD2Ev
FNDA:4501480,_ZN5amrex9FArrayBoxD0Ev
FNF:4
FNH:2
DA:268,9021380
DA:508,0
DA:510,0
DA:511,0
DA:527,0
DA:528,0
DA:529,0
DA:532,0
DA:652,0
DA:654,0
DA:655,0
DA:671,0
DA:672,0
DA:673,0
DA:676,0
LF:15
LH:1
end_of_record
TN:
SF:/home/brunnels/Research/alamo/ext/amrex/2d-coverage-g++-23.08/include/AMReX_FBI.H
FN:211,_ZN5amrex8FabArrayINS_9FArrayBoxEE17FB_local_copy_cpuERKNS_12FabArrayBase2FBEii
FN:211,_ZN5amrex8FabArrayINS_7BaseFabIN5Model5Solid6Linear9LaplacianEEEE17FB_local_copy_cpuERKNS_12FabArrayBase2FBEii
FN:211,_ZN5amrex8FabArrayINS_7BaseFabIN5Eigen6MatrixIdLi2ELi2ELi0ELi2ELi2EEEEEE17FB_local_copy_cpuERKNS_12FabArrayBase2FBEii
FN:211,_ZN5amrex8FabArrayINS_7BaseFabIN5Model5Solid7Elastic28PseudoLinearCubicPredeformedEEEE17FB_local_copy_cpuERKNS_12FabArrayBase2FBEii
FN:211,_ZN5amrex8FabArrayINS_7BaseFabIdEEE17FB_local_copy_cpuERKNS_12FabArrayBase2FBEii
FN:211,_ZN5amrex8FabArrayINS_7BaseFabIN5Model5Solid6Affine5CubicEEEE17FB_local_copy_cpuERKNS_12FabArrayBase2FBEii
FN:211,_ZN5amrex8FabArrayINS_7BaseFabIN5Model5Solid7Elastic10NeoHookeanEEEE17FB_local_copy_cpuERKNS_12FabArrayBase2FBEii
FN:211,_ZN5amrex8FabArrayINS_7BaseFabIN5Model5Solid6Affine9HexagonalEEEE17FB_local_copy_cpuERKNS_12FabArrayBase2FBEii
FN:211,_ZN5amrex8FabArrayINS_7BaseFabIN5Model5Solid6Linear5CubicEEEE17FB_local_copy_cpuERKNS_12FabArrayBase2FBEii
FN:211,_ZN5amrex8FabArrayINS_7BaseFabIN3Set7Matrix4ILi2ELi6EEEEEE17FB_local_copy_cpuERKNS_12FabArrayBase2FBEii
FN:211,_ZN5amrex8FabArrayINS_7BaseFabIN5Eigen6MatrixIdLi2ELi1ELi0ELi2ELi1EEEEEE17FB_local_copy_cpuERKNS_12FabArrayBase2FBEii
FN:211,_ZN5amrex8FabArrayINS_7BaseFabIN3Set7Matrix4ILi2ELi3EEEEEE17FB_local_copy_cpuERKNS_12FabArrayBase2FBEii
FN:211,_ZN5amrex8FabArrayINS_7BaseFabIN5Model5Solid6Linear19IsotropicDegradableEEEE17FB_local_copy_cpuERKNS_12FabArrayBase2FBEii
FN:211,_ZN5amrex8FabArrayINS_7BaseFabIN5Model5Solid6Linear9IsotropicEEEE17FB_local_copy_cpuERKNS_12FabArrayBase2FBEii
FN:211,_ZN5amrex8FabArrayINS_7BaseFabIN3Set7Matrix4ILi2ELi1EEEEEE17FB_local_copy_cpuERKNS_12FabArrayBase2FBEii
FN:211,_ZN5amrex8FabArrayINS_7BaseFabIN5Model5Solid6Affine9IsotropicEEEE17FB_local_copy_cpuERKNS_12FabArrayBase2FBEii
FN:211,_ZN5amrex8FabArrayINS_7BaseFabIN5Model5Solid6Affine2J2EEEE17FB_local_copy_cpuERKNS_12FabArrayBase2FBEii
FN:211,_ZN5amrex8FabArrayINS_7BaseFabIN5Model5Solid7Elastic17PseudoLinearCubicEEEE17FB_local_copy_cpuERKNS_12FabArrayBase2FBEii
FN:211,_ZN5amrex8FabArrayINS_7BaseFabIN3Set7Matrix4ILi2ELi4EEEEEE17FB_local_copy_cpuERKNS_12FabArrayBase2FBEii
FN:259,_ZZN5amrex8FabArrayINS_7BaseFabIN3Set7Matrix4ILi2ELi3EEEEEE17FB_local_copy_cpuERKNS_12FabArrayBase2FBEiiENKUliiiiE_clEiiii
FN:259,_ZZN5amrex8FabArrayINS_7BaseFabIN5Model5Solid6Affine9IsotropicEEEE17FB_local_copy_cpuERKNS_12FabArrayBase2FBEiiENKUliiiiE_clEiiii
FN:259,_ZZN5amrex8FabArrayINS_7BaseFabIN5Model5Solid6Linear9IsotropicEEEE17FB_local_copy_cpuERKNS_12FabArrayBase2FBEiiENKUliiiiE_clEiiii
FN:259,_ZZN5amrex8FabArrayINS_7BaseFabIN5Eigen6MatrixIdLi2ELi1ELi0ELi2ELi1EEEEEE17FB_local_copy_cpuERKNS_12FabArrayBase2FBEiiENKUliiiiE_clEiiii
FN:259,_ZZN5amrex8FabArrayINS_7BaseFabIN5Model5Solid7Elastic28PseudoLinearCubicPredeformedEEEE17FB_local_copy_cpuERKNS_12FabArrayBase2FBEiiENKUliiiiE_clEiiii
FN:259,_ZZN5amrex8FabArrayINS_7BaseFabIdEEE17FB_local_copy_cpuERKNS_12FabArrayBase2FBEiiENKUliiiiE_clEiiii
FN:259,_ZZN5amrex8FabArrayINS_7BaseFabIN5Model5Solid7Elastic17PseudoLinearCubicEEEE17FB_local_copy_cpuERKNS_12FabArrayBase2FBEiiENKUliiiiE_clEiiii
FN:259,_ZZN5amrex8FabArrayINS_7BaseFabIN3Set7Matrix4ILi2ELi4EEEEEE17FB_local_copy_cpuERKNS_12FabArrayBase2FBEiiENKUliiiiE_clEiiii
FN:259,_ZZN5amrex8FabArrayINS_7BaseFabIN5Model5Solid6Affine9HexagonalEEEE17FB_local_copy_cpuERKNS_12FabArrayBase2FBEiiENKUliiiiE_clEiiii
FN:259,_ZZN5amrex8FabArrayINS_7BaseFabIN5Model5Solid6Linear19IsotropicDegradableEEEE17FB_local_copy_cpuERKNS_12FabArrayBase2FBEiiENKUliiiiE_clEiiii
FN:259,_ZZN5amrex8FabArrayINS_7BaseFabIN5Model5Solid7Elastic10NeoHookeanEEEE17FB_local_copy_cpuERKNS_12FabArrayBase2FBEiiENKUliiiiE_clEiiii
FN:259,_ZZN5amrex8FabArrayINS_7BaseFabIN5Model5Solid6Affine5CubicEEEE17FB_local_copy_cpuERKNS_12FabArrayBase2FBEiiENKUliiiiE_clEiiii
FN:259,_ZZN5amrex8FabArrayINS_9FArrayBoxEE17FB_local_copy_cpuERKNS_12FabArrayBase2FBEiiENKUliiiiE_clEiiii
FN:259,_ZZN5amrex8FabArrayINS_7BaseFabIN5Model5Solid6Linear9LaplacianEEEE17FB_local_copy_cpuERKNS_12FabArrayBase2FBEiiENKUliiiiE_clEiiii
FN:259,_ZZN5amrex8FabArrayINS_7BaseFabIN3Set7Matrix4ILi2ELi1EEEEEE17FB_local_copy_cpuERKNS_12FabArrayBase2FBEiiENKUliiiiE_clEiiii
FN:259,_ZZN5amrex8FabArrayINS_7BaseFabIN5Model5Solid6Linear5CubicEEEE17FB_local_copy_cpuERKNS_12FabArrayBase2FBEiiENKUliiiiE_clEiiii
FN:259,_ZZN5amrex8FabArrayINS_7BaseFabIN3Set7Matrix4ILi2ELi6EEEEEE17FB_local_copy_cpuERKNS_12FabArrayBase2FBEiiENKUliiiiE_clEiiii
FN:259,_ZZN5amrex8FabArrayINS_7BaseFabIN5Model5Solid6Affine2J2EEEE17FB_local_copy_cpuERKNS_12FabArrayBase2FBEiiENKUliiiiE_clEiiii
FN:259,_ZZN5amrex8FabArrayINS_7BaseFabIN5Eigen6MatrixIdLi2ELi2ELi0ELi2ELi2EEEEEE17FB_local_copy_cpuERKNS_12FabArrayBase2FBEiiENKUliiiiE_clEiiii
FN:900,_ZN5amrex8FabArrayINS_7BaseFabIN5Model5Solid6Affine9HexagonalEEEE20pack_send_buffer_cpuIS5_EEvRKS7_iiRKNS_6VectorIPcSaISC_EEERKNSB_ImSaImEEERKNSB_IPKSt6vectorINS_12FabArrayBase10CopyComTagESaISN_EESaISR_EEE
FN:900,_ZN5amrex8FabArrayINS_7BaseFabIN3Set7Matrix4ILi2ELi3EEEEEE20pack_send_buffer_cpuIS4_EEvRKS6_iiRKNS_6VectorIPcSaISB_EEERKNSA_ImSaImEEERKNSA_IPKSt6vectorINS_12FabArrayBase10CopyComTagESaISM_EESaISQ_EEE
FN:900,_ZN5amrex8FabArrayINS_7BaseFabIN3Set7Matrix4ILi2ELi1EEEEEE20pack_send_buffer_cpuIS4_EEvRKS6_iiRKNS_6VectorIPcSaISB_EEERKNSA_ImSaImEEERKNSA_IPKSt6vectorINS_12FabArrayBase10CopyComTagESaISM_EESaISQ_EEE
FN:900,_ZN5amrex8FabArrayINS_7BaseFabIN5Model5Solid7Elastic17PseudoLinearCubicEEEE20pack_send_buffer_cpuIS5_EEvRKS7_iiRKNS_6VectorIPcSaISC_EEERKNSB_ImSaImEEERKNSB_IPKSt6vectorINS_12FabArrayBase10CopyComTagESaISN_EESaISR_EEE
FN:900,_ZN5amrex8FabArrayINS_7BaseFabIdEEE20pack_send_buffer_cpuIdEEvRKS3_iiRKNS_6VectorIPcSaIS8_EEERKNS7_ImSaImEEERKNS7_IPKSt6vectorINS_12FabArrayBase10CopyComTagESaISJ_EESaISN_EEE
FN:900,_ZN5amrex8FabArrayINS_7BaseFabIN5Model5Solid6Affine9IsotropicEEEE20pack_send_buffer_cpuIS5_EEvRKS7_iiRKNS_6VectorIPcSaISC_EEERKNSB_ImSaImEEERKNSB_IPKSt6vectorINS_12FabArrayBase10CopyComTagESaISN_EESaISR_EEE
FN:900,_ZN5amrex8FabArrayINS_7BaseFabIN5Eigen6MatrixIdLi2ELi2ELi0ELi2ELi2EEEEEE20pack_send_buffer_cpuIS4_EEvRKS6_iiRKNS_6VectorIPcSaISB_EEERKNSA_ImSaImEEERKNSA_IPKSt6vectorINS_12FabArrayBase10CopyComTagESaISM_EESaISQ_EEE
FN:900,_ZN5amrex8FabArrayINS_7BaseFabIN5Model5Solid6Affine2J2EEEE20pack_send_buffer_cpuIS5_EEvRKS7_iiRKNS_6VectorIPcSaISC_EEERKNSB_ImSaImEEERKNSB_IPKSt6vectorINS_12FabArrayBase10CopyComTagESaISN_EESaISR_EEE
FN:900,_ZN5amrex8FabArrayINS_7BaseFabIN3Set7Matrix4ILi2ELi4EEEEEE20pack_send_buffer_cpuIS4_EEvRKS6_iiRKNS_6VectorIPcSaISB_EEERKNSA_ImSaImEEERKNSA_IPKSt6vectorINS_12FabArrayBase10CopyComTagESaISM_EESaISQ_EEE
FN:900,_ZN5amrex8FabArrayINS_9IArrayBoxEE20pack_send_buffer_cpuIiEEvRKS2_iiRKNS_6VectorIPcSaIS7_EEERKNS6_ImSaImEEERKNS6_IPKSt6vectorINS_12FabArrayBase10CopyComTagESaISI_EESaISM_EEE
FN:900,_ZN5amrex8FabArrayINS_7BaseFabIN5Model5Solid6Affine5CubicEEEE20pack_send_buffer_cpuIS5_EEvRKS7_iiRKNS_6VectorIPcSaISC_EEERKNSB_ImSaImEEERKNSB_IPKSt6vectorINS_12FabArrayBase10CopyComTagESaISN_EESaISR_EEE
FN:900,_ZN5amrex8FabArrayINS_7BaseFabIN5Model5Solid7Elastic10NeoHookeanEEEE20pack_send_buffer_cpuIS5_EEvRKS7_iiRKNS_6VectorIPcSaISC_EEERKNSB_ImSaImEEERKNSB_IPKSt6vectorINS_12FabArrayBase10CopyComTagESaISN_EESaISR_EEE
FN:900,_ZN5amrex8FabArrayINS_7BaseFabIN5Model5Solid6Linear5CubicEEEE20pack_send_buffer_cpuIS5_EEvRKS7_iiRKNS_6VectorIPcSaISC_EEERKNSB_ImSaImEEERKNSB_IPKSt6vectorINS_12FabArrayBase10CopyComTagESaISN_EESaISR_EEE
FN:900,_ZN5amrex8FabArrayINS_7BaseFabIN5Model5Solid6Linear19IsotropicDegradableEEEE20pack_send_buffer_cpuIS5_EEvRKS7_iiRKNS_6VectorIPcSaISC_EEERKNSB_ImSaImEEERKNSB_IPKSt6vectorINS_12FabArrayBase10CopyComTagESaISN_EESaISR_EEE
FN:900,_ZN5amrex8FabArrayINS_7BaseFabIN5Model5Solid6Linear9LaplacianEEEE20pack_send_buffer_cpuIS5_EEvRKS7_iiRKNS_6VectorIPcSaISC_EEERKNSB_ImSaImEEERKNSB_IPKSt6vectorINS_12FabArrayBase10CopyComTagESaISN_EESaISR_EEE
FN:900,_ZN5amrex8FabArrayINS_7BaseFabIN5Eigen6MatrixIdLi2ELi1ELi0ELi2ELi1EEEEEE20pack_send_buffer_cpuIS4_EEvRKS6_iiRKNS_6VectorIPcSaISB_EEERKNSA_ImSaImEEERKNSA_IPKSt6vectorINS_12FabArrayBase10CopyComTagESaISM_EESaISQ_EEE
FN:900,_ZN5amrex8FabArrayINS_9FArrayBoxEE20pack_send_buffer_cpuIdEEvRKS2_iiRKNS_6VectorIPcSaIS7_EEERKNS6_ImSaImEEERKNS6_IPKSt6vectorINS_12FabArrayBase10CopyComTagESaISI_EESaISM_EEE
FN:900,_ZN5amrex8FabArrayINS_7BaseFabIN3Set7Matrix4ILi2ELi6EEEEEE20pack_send_buffer_cpuIS4_EEvRKS6_iiRKNS_6VectorIPcSaISB_EEERKNSA_ImSaImEEERKNSA_IPKSt6vectorINS_12FabArrayBase10CopyComTagESaISM_EESaISQ_EEE
FN:900,_ZN5amrex8FabArrayINS_7BaseFabIN5Model5Solid7Elastic28PseudoLinearCubicPredeformedEEEE20pack_send_buffer_cpuIS5_EEvRKS7_iiRKNS_6VectorIPcSaISC_EEERKNSB_ImSaImEEERKNSB_IPKSt6vectorINS_12FabArrayBase10CopyComTagESaISN_EESaISR_EEE
FN:900,_ZN5amrex8FabArrayINS_7BaseFabIN5Model5Solid6Linear9IsotropicEEEE20pack_send_buffer_cpuIS5_EEvRKS7_iiRKNS_6VectorIPcSaISC_EEERKNSB_ImSaImEEERKNSB_IPKSt6vectorINS_12FabArrayBase10CopyComTagESaISN_EESaISR_EEE
FN:925,_ZZN5amrex8FabArrayINS_7BaseFabIdEEE20pack_send_buffer_cpuIdEEvRKS3_iiRKNS_6VectorIPcSaIS8_EEERKNS7_ImSaImEEERKNS7_IPKSt6vectorINS_12FabArrayBase10CopyComTagESaISJ_EESaISN_EEEENKUliiiiE_clEiiii
FN:925,_ZZN5amrex8FabArrayINS_7BaseFabIN3Set7Matrix4ILi2ELi3EEEEEE20pack_send_buffer_cpuIS4_EEvRKS6_iiRKNS_6VectorIPcSaISB_EEERKNSA_ImSaImEEERKNSA_IPKSt6vectorINS_12FabArrayBase10CopyComTagESaISM_EESaISQ_EEEENKUliiiiE_clEiiii
FN:925,_ZZN5amrex8FabArrayINS_7BaseFabIN5Model5Solid6Affine9HexagonalEEEE20pack_send_buffer_cpuIS5_EEvRKS7_iiRKNS_6VectorIPcSaISC_EEERKNSB_ImSaImEEERKNSB_IPKSt6vectorINS_12FabArrayBase10CopyComTagESaISN_EESaISR_EEEENKUliiiiE_clEiiii
FN:925,_ZZN5amrex8FabArrayINS_7BaseFabIN5Model5Solid7Elastic28PseudoLinearCubicPredeformedEEEE20pack_send_buffer_cpuIS5_EEvRKS7_iiRKNS_6VectorIPcSaISC_EEERKNSB_ImSaImEEERKNSB_IPKSt6vectorINS_12FabArrayBase10CopyComTagESaISN_EESaISR_EEEENKUliiiiE_clEiiii
FN:925,_ZZN5amrex8FabArrayINS_7BaseFabIN5Eigen6MatrixIdLi2ELi2ELi0ELi2ELi2EEEEEE20pack_send_buffer_cpuIS4_EEvRKS6_iiRKNS_6VectorIPcSaISB_EEERKNSA_ImSaImEEERKNSA_IPKSt6vectorINS_12FabArrayBase10CopyComTagESaISM_EESaISQ_EEEENKUliiiiE_clEiiii
FN:925,_ZZN5amrex8FabArrayINS_7BaseFabIN5Model5Solid6Linear9IsotropicEEEE20pack_send_buffer_cpuIS5_EEvRKS7_iiRKNS_6VectorIPcSaISC_EEERKNSB_ImSaImEEERKNSB_IPKSt6vectorINS_12FabArrayBase10CopyComTagESaISN_EESaISR_EEEENKUliiiiE_clEiiii
FN:925,_ZZN5amrex8FabArrayINS_7BaseFabIN3Set7Matrix4ILi2ELi6EEEEEE20pack_send_buffer_cpuIS4_EEvRKS6_iiRKNS_6VectorIPcSaISB_EEERKNSA_ImSaImEEERKNSA_IPKSt6vectorINS_12FabArrayBase10CopyComTagESaISM_EESaISQ_EEEENKUliiiiE_clEiiii
FN:925,_ZZN5amrex8FabArrayINS_9IArrayBoxEE20pack_send_buffer_cpuIiEEvRKS2_iiRKNS_6VectorIPcSaIS7_EEERKNS6_ImSaImEEERKNS6_IPKSt6vectorINS_12FabArrayBase10CopyComTagESaISI_EESaISM_EEEENKUliiiiE_clEiiii
FN:925,_ZZN5amrex8FabArrayINS_7BaseFabIN3Set7Matrix4ILi2ELi1EEEEEE20pack_send_buffer_cpuIS4_EEvRKS6_iiRKNS_6VectorIPcSaISB_EEERKNSA_ImSaImEEERKNSA_IPKSt6vectorINS_12FabArrayBase10CopyComTagESaISM_EESaISQ_EEEENKUliiiiE_clEiiii
FN:925,_ZZN5amrex8FabArrayINS_7BaseFabIN5Model5Solid6Affine2J2EEEE20pack_send_buffer_cpuIS5_EEvRKS7_iiRKNS_6VectorIPcSaISC_EEERKNSB_ImSaImEEERKNSB_IPKSt6vectorINS_12FabArrayBase10CopyComTagESaISN_EESaISR_EEEENKUliiiiE_clEiiii
FN:925,_ZZN5amrex8FabArrayINS_7BaseFabIN5Eigen6MatrixIdLi2ELi1ELi0ELi2ELi1EEEEEE20pack_send_buffer_cpuIS4_EEvRKS6_iiRKNS_6VectorIPcSaISB_EEERKNSA_ImSaImEEERKNSA_IPKSt6vectorINS_12FabArrayBase10CopyComTagESaISM_EESaISQ_EEEENKUliiiiE_clEiiii
FN:925,_ZZN5amrex8FabArrayINS_7BaseFabIN5Model5Solid6Affine5CubicEEEE20pack_send_buffer_cpuIS5_EEvRKS7_iiRKNS_6VectorIPcSaISC_EEERKNSB_ImSaImEEERKNSB_IPKSt6vectorINS_12FabArrayBase10CopyComTagESaISN_EESaISR_EEEENKUliiiiE_clEiiii
FN:925,_ZZN5amrex8FabArrayINS_7BaseFabIN5Model5Solid7Elastic17PseudoLinearCubicEEEE20pack_send_buffer_cpuIS5_EEvRKS7_iiRKNS_6VectorIPcSaISC_EEERKNSB_ImSaImEEERKNSB_IPKSt6vectorINS_12FabArrayBase10CopyComTagESaISN_EESaISR_EEEENKUliiiiE_clEiiii
FN:925,_ZZN5amrex8FabArrayINS_7BaseFabIN5Model5Solid6Affine9IsotropicEEEE20pack_send_buffer_cpuIS5_EEvRKS7_iiRKNS_6VectorIPcSaISC_EEERKNSB_ImSaImEEERKNSB_IPKSt6vectorINS_12FabArrayBase10CopyComTagESaISN_EESaISR_EEEENKUliiiiE_clEiiii
FN:925,_ZZN5amrex8FabArrayINS_7BaseFabIN5Model5Solid6Linear9LaplacianEEEE20pack_send_buffer_cpuIS5_EEvRKS7_iiRKNS_6VectorIPcSaISC_EEERKNSB_ImSaImEEERKNSB_IPKSt6vectorINS_12FabArrayBase10CopyComTagESaISN_EESaISR_EEEENKUliiiiE_clEiiii
FN:925,_ZZN5amrex8FabArrayINS_7BaseFabIN5Model5Solid6Linear5CubicEEEE20pack_send_buffer_cpuIS5_EEvRKS7_iiRKNS_6VectorIPcSaISC_EEERKNSB_ImSaImEEERKNSB_IPKSt6vectorINS_12FabArrayBase10CopyComTagESaISN_EESaISR_EEEENKUliiiiE_clEiiii
FN:925,_ZZN5amrex8FabArrayINS_9FArrayBoxEE20pack_send_buffer_cpuIdEEvRKS2_iiRKNS_6VectorIPcSaIS7_EEERKNS6_ImSaImEEERKNS6_IPKSt6vectorINS_12FabArrayBase10CopyComTagESaISI_EESaISM_EEEENKUliiiiE_clEiiii
FN:925,_ZZN5amrex8FabArrayINS_7BaseFabIN5Model5Solid7Elastic10NeoHookeanEEEE20pack_send_buffer_cpuIS5_EEvRKS7_iiRKNS_6VectorIPcSaISC_EEERKNSB_ImSaImEEERKNSB_IPKSt6vectorINS_12FabArrayBase10CopyComTagESaISN_EESaISR_EEEENKUliiiiE_clEiiii
FN:925,_ZZN5amrex8FabArrayINS_7BaseFabIN3Set7Matrix4ILi2ELi4EEEEEE20pack_send_buffer_cpuIS4_EEvRKS6_iiRKNS_6VectorIPcSaISB_EEERKNSA_ImSaImEEERKNSA_IPKSt6vectorINS_12FabArrayBase10CopyComTagESaISM_EESaISQ_EEEENKUliiiiE_clEiiii
FN:925,_ZZN5amrex8FabArrayINS_7BaseFabIN5Model5Solid6Linear19IsotropicDegradableEEEE20pack_send_buffer_cpuIS5_EEvRKS7_iiRKNS_6VectorIPcSaISC_EEERKNSB_ImSaImEEERKNSB_IPKSt6vectorINS_12FabArrayBase10CopyComTagESaISN_EESaISR_EEEENKUliiiiE_clEiiii
FN:939,_ZN5amrex8FabArrayINS_7BaseFabIN5Model5Solid6Affine5CubicEEEE22unpack_recv_buffer_cpuIS5_EEvRS7_iiRKNS_6VectorIPcSaISB_EEERKNSA_ImSaImEEERKNSA_IPKSt6vectorINS_12FabArrayBase10CopyComTagESaISM_EESaISQ_EEENSL_4CpOpEb
FN:939,_ZN5amrex8FabArrayINS_7BaseFabIN5Model5Solid6Linear9IsotropicEEEE22unpack_recv_buffer_cpuIS5_EEvRS7_iiRKNS_6VectorIPcSaISB_EEERKNSA_ImSaImEEERKNSA_IPKSt6vectorINS_12FabArrayBase10CopyComTagESaISM_EESaISQ_EEENSL_4CpOpEb
FN:939,_ZN5amrex8FabArrayINS_7BaseFabIN5Model5Solid6Affine9HexagonalEEEE22unpack_recv_buffer_cpuIS5_EEvRS7_iiRKNS_6VectorIPcSaISB_EEERKNSA_ImSaImEEERKNSA_IPKSt6vectorINS_12FabArrayBase10CopyComTagESaISM_EESaISQ_EEENSL_4CpOpEb
FN:939,_ZN5amrex8FabArrayINS_7BaseFabIN5Model5Solid7Elastic17PseudoLinearCubicEEEE22unpack_recv_buffer_cpuIS5_EEvRS7_iiRKNS_6VectorIPcSaISB_EEERKNSA_ImSaImEEERKNSA_IPKSt6vectorINS_12FabArrayBase10CopyComTagESaISM_EESaISQ_EEENSL_4CpOpEb
FN:939,_ZN5amrex8FabArrayINS_7BaseFabIN5Model5Solid6Linear5CubicEEEE22unpack_recv_buffer_cpuIS5_EEvRS7_iiRKNS_6VectorIPcSaISB_EEERKNSA_ImSaImEEERKNSA_IPKSt6vectorINS_12FabArrayBase10CopyComTagESaISM_EESaISQ_EEENSL_4CpOpEb
FN:939,_ZN5amrex8FabArrayINS_7BaseFabIN5Model5Solid6Linear19IsotropicDegradableEEEE22unpack_recv_buffer_cpuIS5_EEvRS7_iiRKNS_6VectorIPcSaISB_EEERKNSA_ImSaImEEERKNSA_IPKSt6vectorINS_12FabArrayBase10CopyComTagESaISM_EESaISQ_EEENSL_4CpOpEb
FN:939,_ZN5amrex8FabArrayINS_7BaseFabIN5Model5Solid7Elastic28PseudoLinearCubicPredeformedEEEE22unpack_recv_buffer_cpuIS5_EEvRS7_iiRKNS_6VectorIPcSaISB_EEERKNSA_ImSaImEEERKNSA_IPKSt6vectorINS_12FabArrayBase10CopyComTagESaISM_EESaISQ_EEENSL_4CpOpEb
FN:939,_ZN5amrex8FabArrayINS_7BaseFabIN3Set7Matrix4ILi2ELi3EEEEEE22unpack_recv_buffer_cpuIS4_EEvRS6_iiRKNS_6VectorIPcSaISA_EEERKNS9_ImSaImEEERKNS9_IPKSt6vectorINS_12FabArrayBase10CopyComTagESaISL_EESaISP_EEENSK_4CpOpEb
FN:939,_ZN5amrex8FabArrayINS_7BaseFabIN5Eigen6MatrixIdLi2ELi1ELi0ELi2ELi1EEEEEE22unpack_recv_buffer_cpuIS4_EEvRS6_iiRKNS_6VectorIPcSaISA_EEERKNS9_ImSaImEEERKNS9_IPKSt6vectorINS_12FabArrayBase10CopyComTagESaISL_EESaISP_EEENSK_4CpOpEb
FN:939,_ZN5amrex8FabArrayINS_7BaseFabIN5Model5Solid7Elastic10NeoHookeanEEEE22unpack_recv_buffer_cpuIS5_EEvRS7_iiRKNS_6VectorIPcSaISB_EEERKNSA_ImSaImEEERKNSA_IPKSt6vectorINS_12FabArrayBase10CopyComTagESaISM_EESaISQ_EEENSL_4CpOpEb
FN:939,_ZN5amrex8FabArrayINS_7BaseFabIN3Set7Matrix4ILi2ELi6EEEEEE22unpack_recv_buffer_cpuIS4_EEvRS6_iiRKNS_6VectorIPcSaISA_EEERKNS9_ImSaImEEERKNS9_IPKSt6vectorINS_12FabArrayBase10CopyComTagESaISL_EESaISP_EEENSK_4CpOpEb
FN:939,_ZN5amrex8FabArrayINS_7BaseFabIN3Set7Matrix4ILi2ELi1EEEEEE22unpack_recv_buffer_cpuIS4_EEvRS6_iiRKNS_6VectorIPcSaISA_EEERKNS9_ImSaImEEERKNS9_IPKSt6vectorINS_12FabArrayBase10CopyComTagESaISL_EESaISP_EEENSK_4CpOpEb
FN:939,_ZN5amrex8FabArrayINS_7BaseFabIN5Model5Solid6Affine2J2EEEE22unpack_recv_buffer_cpuIS5_EEvRS7_iiRKNS_6VectorIPcSaISB_EEERKNSA_ImSaImEEERKNSA_IPKSt6vectorINS_12FabArrayBase10CopyComTagESaISM_EESaISQ_EEENSL_4CpOpEb
FN:939,_ZN5amrex8FabArrayINS_7BaseFabIN5Model5Solid6Affine9IsotropicEEEE22unpack_recv_buffer_cpuIS5_EEvRS7_iiRKNS_6VectorIPcSaISB_EEERKNSA_ImSaImEEERKNSA_IPKSt6vectorINS_12FabArrayBase10CopyComTagESaISM_EESaISQ_EEENSL_4CpOpEb
FN:939,_ZN5amrex8FabArrayINS_7BaseFabIN5Model5Solid6Linear9LaplacianEEEE22unpack_recv_buffer_cpuIS5_EEvRS7_iiRKNS_6VectorIPcSaISB_EEERKNSA_ImSaImEEERKNSA_IPKSt6vectorINS_12FabArrayBase10CopyComTagESaISM_EESaISQ_EEENSL_4CpOpEb
FN:939,_ZN5amrex8FabArrayINS_7BaseFabIdEEE22unpack_recv_buffer_cpuIdEEvRS3_iiRKNS_6VectorIPcSaIS7_EEERKNS6_ImSaImEEERKNS6_IPKSt6vectorINS_12FabArrayBase10CopyComTagESaISI_EESaISM_EEENSH_4CpOpEb
FN:939,_ZN5amrex8FabArrayINS_9FArrayBoxEE22unpack_recv_buffer_cpuIdEEvRS2_iiRKNS_6VectorIPcSaIS6_EEERKNS5_ImSaImEEERKNS5_IPKSt6vectorINS_12FabArrayBase10CopyComTagESaISH_EESaISL_EEENSG_4CpOpEb
FN:939,_ZN5amrex8FabArrayINS_7BaseFabIN5Eigen6MatrixIdLi2ELi2ELi0ELi2ELi2EEEEEE22unpack_recv_buffer_cpuIS4_EEvRS6_iiRKNS_6VectorIPcSaISA_EEERKNS9_ImSaImEEERKNS9_IPKSt6vectorINS_12FabArrayBase10CopyComTagESaISL_EESaISP_EEENSK_4CpOpEb
FN:939,_ZN5amrex8FabArrayINS_7BaseFabIN3Set7Matrix4ILi2ELi4EEEEEE22unpack_recv_buffer_cpuIS4_EEvRS6_iiRKNS_6VectorIPcSaISA_EEERKNS9_ImSaImEEERKNS9_IPKSt6vectorINS_12FabArrayBase10CopyComTagESaISL_EESaISP_EEENSK_4CpOpEb
FN:939,_ZN5amrex8FabArrayINS_9IArrayBoxEE22unpack_recv_buffer_cpuIiEEvRS2_iiRKNS_6VectorIPcSaIS6_EEERKNS5_ImSaImEEERKNS5_IPKSt6vectorINS_12FabArrayBase10CopyComTagESaISH_EESaISL_EEENSG_4CpOpEb
FN:1011,_ZZN5amrex8FabArrayINS_7BaseFabIN5Model5Solid7Elastic17PseudoLinearCubicEEEE22unpack_recv_buffer_cpuIS5_EEvRS7_iiRKNS_6VectorIPcSaISB_EEERKNSA_ImSaImEEERKNSA_IPKSt6vectorINS_12FabArrayBase10CopyComTagESaISM_EESaISQ_EEENSL_4CpOpEbENKUliiiiE_clEiiii
FN:1011,_ZZN5amrex8FabArrayINS_7BaseFabIN5Eigen6MatrixIdLi2ELi2ELi0ELi2ELi2EEEEEE22unpack_recv_buffer_cpuIS4_EEvRS6_iiRKNS_6VectorIPcSaISA_EEERKNS9_ImSaImEEERKNS9_IPKSt6vectorINS_12FabArrayBase10CopyComTagESaISL_EESaISP_EEENSK_4CpOpEbENKUliiiiE_clEiiii
FN:1011,_ZZN5amrex8FabArrayINS_7BaseFabIN5Model5Solid6Linear9LaplacianEEEE22unpack_recv_buffer_cpuIS5_EEvRS7_iiRKNS_6VectorIPcSaISB_EEERKNSA_ImSaImEEERKNSA_IPKSt6vectorINS_12FabArrayBase10CopyComTagESaISM_EESaISQ_EEENSL_4CpOpEbENKUliiiiE_clEiiii
FN:1011,_ZZN5amrex8FabArrayINS_7BaseFabIN5Model5Solid6Linear9IsotropicEEEE22unpack_recv_buffer_cpuIS5_EEvRS7_iiRKNS_6VectorIPcSaISB_EEERKNSA_ImSaImEEERKNSA_IPKSt6vectorINS_12FabArrayBase10CopyComTagESaISM_EESaISQ_EEENSL_4CpOpEbENKUliiiiE_clEiiii
FN:1011,_ZZN5amrex8FabArrayINS_7BaseFabIN3Set7Matrix4ILi2ELi3EEEEEE22unpack_recv_buffer_cpuIS4_EEvRS6_iiRKNS_6VectorIPcSaISA_EEERKNS9_ImSaImEEERKNS9_IPKSt6vectorINS_12FabArrayBase10CopyComTagESaISL_EESaISP_EEENSK_4CpOpEbENKUliiiiE_clEiiii
FN:1011,_ZZN5amrex8FabArrayINS_9FArrayBoxEE22unpack_recv_buffer_cpuIdEEvRS2_iiRKNS_6VectorIPcSaIS6_EEERKNS5_ImSaImEEERKNS5_IPKSt6vectorINS_12FabArrayBase10CopyComTagESaISH_EESaISL_EEENSG_4CpOpEbENKUliiiiE_clEiiii
FN:1011,_ZZN5amrex8FabArrayINS_7BaseFabIN5Model5Solid6Affine2J2EEEE22unpack_recv_buffer_cpuIS5_EEvRS7_iiRKNS_6VectorIPcSaISB_EEERKNSA_ImSaImEEERKNSA_IPKSt6vectorINS_12FabArrayBase10CopyComTagESaISM_EESaISQ_EEENSL_4CpOpEbENKUliiiiE_clEiiii
FN:1011,_ZZN5amrex8FabArrayINS_7BaseFabIdEEE22unpack_recv_buffer_cpuIdEEvRS3_iiRKNS_6VectorIPcSaIS7_EEERKNS6_ImSaImEEERKNS6_IPKSt6vectorINS_12FabArrayBase10CopyComTagESaISI_EESaISM_EEENSH_4CpOpEbENKUliiiiE_clEiiii
FN:1011,_ZZN5amrex8FabArrayINS_7BaseFabIN3Set7Matrix4ILi2ELi1EEEEEE22unpack_recv_buffer_cpuIS4_EEvRS6_iiRKNS_6VectorIPcSaISA_EEERKNS9_ImSaImEEERKNS9_IPKSt6vectorINS_12FabArrayBase10CopyComTagESaISL_EESaISP_EEENSK_4CpOpEbENKUliiiiE_clEiiii
FN:1011,_ZZN5amrex8FabArrayINS_7BaseFabIN5Model5Solid7Elastic28PseudoLinearCubicPredeformedEEEE22unpack_recv_buffer_cpuIS5_EEvRS7_iiRKNS_6VectorIPcSaISB_EEERKNSA_ImSaImEEERKNSA_IPKSt6vectorINS_12FabArrayBase10CopyComTagESaISM_EESaISQ_EEENSL_4CpOpEbENKUliiiiE_clEiiii
FN:1011,_ZZN5amrex8FabArrayINS_7BaseFabIN5Model5Solid6Linear5CubicEEEE22unpack_recv_buffer_cpuIS5_EEvRS7_iiRKNS_6VectorIPcSaISB_EEERKNSA_ImSaImEEERKNSA_IPKSt6vectorINS_12FabArrayBase10CopyComTagESaISM_EESaISQ_EEENSL_4CpOpEbENKUliiiiE_clEiiii
FN:1011,_ZZN5amrex8FabArrayINS_7BaseFabIN5Model5Solid6Affine5CubicEEEE22unpack_recv_buffer_cpuIS5_EEvRS7_iiRKNS_6VectorIPcSaISB_EEERKNSA_ImSaImEEERKNSA_IPKSt6vectorINS_12FabArrayBase10CopyComTagESaISM_EESaISQ_EEENSL_4CpOpEbENKUliiiiE_clEiiii
FN:1011,_ZZN5amrex8FabArrayINS_7BaseFabIN5Model5Solid6Linear19IsotropicDegradableEEEE22unpack_recv_buffer_cpuIS5_EEvRS7_iiRKNS_6VectorIPcSaISB_EEERKNSA_ImSaImEEERKNSA_IPKSt6vectorINS_12FabArrayBase10CopyComTagESaISM_EESaISQ_EEENSL_4CpOpEbENKUliiiiE_clEiiii
FN:1011,_ZZN5amrex8FabArrayINS_7BaseFabIN3Set7Matrix4ILi2ELi6EEEEEE22unpack_recv_buffer_cpuIS4_EEvRS6_iiRKNS_6VectorIPcSaISA_EEERKNS9_ImSaImEEERKNS9_IPKSt6vectorINS_12FabArrayBase10CopyComTagESaISL_EESaISP_EEENSK_4CpOpEbENKUliiiiE_clEiiii
FN:1011,_ZZN5amrex8FabArrayINS_7BaseFabIN5Model5Solid6Affine9IsotropicEEEE22unpack_recv_buffer_cpuIS5_EEvRS7_iiRKNS_6VectorIPcSaISB_EEERKNSA_ImSaImEEERKNSA_IPKSt6vectorINS_12FabArrayBase10CopyComTagESaISM_EESaISQ_EEENSL_4CpOpEbENKUliiiiE_clEiiii
FN:1011,_ZZN5amrex8FabArrayINS_7BaseFabIN5Model5Solid7Elastic10NeoHookeanEEEE22unpack_recv_buffer_cpuIS5_EEvRS7_iiRKNS_6VectorIPcSaISB_EEERKNSA_ImSaImEEERKNSA_IPKSt6vectorINS_12FabArrayBase10CopyComTagESaISM_EESaISQ_EEENSL_4CpOpEbENKUliiiiE_clEiiii
FN:1011,_ZZN5amrex8FabArrayINS_7BaseFabIN5Model5Solid6Affine9HexagonalEEEE22unpack_recv_buffer_cpuIS5_EEvRS7_iiRKNS_6VectorIPcSaISB_EEERKNSA_ImSaImEEERKNSA_IPKSt6vectorINS_12FabArrayBase10CopyComTagESaISM_EESaISQ_EEENSL_4CpOpEbENKUliiiiE_clEiiii
FN:1011,_ZZN5amrex8FabArrayINS_9IArrayBoxEE22unpack_recv_buffer_cpuIiEEvRS2_iiRKNS_6VectorIPcSaIS6_EEERKNS5_ImSaImEEERKNS5_IPKSt6vectorINS_12FabArrayBase10CopyComTagESaISH_EESaISL_EEENSG_4CpOpEbENKUliiiiE_clEiiii
FN:1011,_ZZN5amrex8FabArrayINS_7BaseFabIN3Set7Matrix4ILi2ELi4EEEEEE22unpack_recv_buffer_cpuIS4_EEvRS6_iiRKNS_6VectorIPcSaISA_EEERKNS9_ImSaImEEERKNS9_IPKSt6vectorINS_12FabArrayBase10CopyComTagESaISL_EESaISP_EEENSK_4CpOpEbENKUliiiiE_clEiiii
FN:1011,_ZZN5amrex8FabArrayINS_7BaseFabIN5Eigen6MatrixIdLi2ELi1ELi0ELi2ELi1EEEEEE22unpack_recv_buffer_cpuIS4_EEvRS6_iiRKNS_6VectorIPcSaISA_EEERKNS9_ImSaImEEERKNS9_IPKSt6vectorINS_12FabArrayBase10CopyComTagESaISL_EESaISP_EEENSK_4CpOpEbENKUliiiiE_clEiiii
FN:1019,_ZZN5amrex8FabArrayINS_7BaseFabIN5Model5Solid6Linear19IsotropicDegradableEEEE22unpack_recv_buffer_cpuIS5_EEvRS7_iiRKNS_6VectorIPcSaISB_EEERKNSA_ImSaImEEERKNSA_IPKSt6vectorINS_12FabArrayBase10CopyComTagESaISM_EESaISQ_EEENSL_4CpOpEbENKUliiiiE0_clEiiii
FN:1019,_ZZN5amrex8FabArrayINS_9IArrayBoxEE22unpack_recv_buffer_cpuIiEEvRS2_iiRKNS_6VectorIPcSaIS6_EEERKNS5_ImSaImEEERKNS5_IPKSt6vectorINS_12FabArrayBase10CopyComTagESaISH_EESaISL_EEENSG_4CpOpEbENKUliiiiE0_clEiiii
FN:1019,_ZZN5amrex8FabArrayINS_7BaseFabIN3Set7Matrix4ILi2ELi4EEEEEE22unpack_recv_buffer_cpuIS4_EEvRS6_iiRKNS_6VectorIPcSaISA_EEERKNS9_ImSaImEEERKNS9_IPKSt6vectorINS_12FabArrayBase10CopyComTagESaISL_EESaISP_EEENSK_4CpOpEbENKUliiiiE0_clEiiii
FN:1019,_ZZN5amrex8FabArrayINS_7BaseFabIN3Set7Matrix4ILi2ELi3EEEEEE22unpack_recv_buffer_cpuIS4_EEvRS6_iiRKNS_6VectorIPcSaISA_EEERKNS9_ImSaImEEERKNS9_IPKSt6vectorINS_12FabArrayBase10CopyComTagESaISL_EESaISP_EEENSK_4CpOpEbENKUliiiiE0_clEiiii
FN:1019,_ZZN5amrex8FabArrayINS_7BaseFabIN5Model5Solid7Elastic10NeoHookeanEEEE22unpack_recv_buffer_cpuIS5_EEvRS7_iiRKNS_6VectorIPcSaISB_EEERKNSA_ImSaImEEERKNSA_IPKSt6vectorINS_12FabArrayBase10CopyComTagESaISM_EESaISQ_EEENSL_4CpOpEbENKUliiiiE0_clEiiii
FN:1019,_ZZN5amrex8FabArrayINS_7BaseFabIN3Set7Matrix4ILi2ELi1EEEEEE22unpack_recv_buffer_cpuIS4_EEvRS6_iiRKNS_6VectorIPcSaISA_EEERKNS9_ImSaImEEERKNS9_IPKSt6vectorINS_12FabArrayBase10CopyComTagESaISL_EESaISP_EEENSK_4CpOpEbENKUliiiiE0_clEiiii
FN:1019,_ZZN5amrex8FabArrayINS_7BaseFabIN5Model5Solid6Affine5CubicEEEE22unpack_recv_buffer_cpuIS5_EEvRS7_iiRKNS_6VectorIPcSaISB_EEERKNSA_ImSaImEEERKNSA_IPKSt6vectorINS_12FabArrayBase10CopyComTagESaISM_EESaISQ_EEENSL_4CpOpEbENKUliiiiE0_clEiiii
FN:1019,_ZZN5amrex8FabArrayINS_7BaseFabIN5Model5Solid6Affine9HexagonalEEEE22unpack_recv_buffer_cpuIS5_EEvRS7_iiRKNS_6VectorIPcSaISB_EEERKNSA_ImSaImEEERKNSA_IPKSt6vectorINS_12FabArrayBase10CopyComTagESaISM_EESaISQ_EEENSL_4CpOpEbENKUliiiiE0_clEiiii
FN:1019,_ZZN5amrex8FabArrayINS_7BaseFabIdEEE22unpack_recv_buffer_cpuIdEEvRS3_iiRKNS_6VectorIPcSaIS7_EEERKNS6_ImSaImEEERKNS6_IPKSt6vectorINS_12FabArrayBase10CopyComTagESaISI_EESaISM_EEENSH_4CpOpEbENKUliiiiE0_clEiiii
FN:1019,_ZZN5amrex8FabArrayINS_9FArrayBoxEE22unpack_recv_buffer_cpuIdEEvRS2_iiRKNS_6VectorIPcSaIS6_EEERKNS5_ImSaImEEERKNS5_IPKSt6vectorINS_12FabArrayBase10CopyComTagESaISH_EESaISL_EEENSG_4CpOpEbENKUliiiiE0_clEiiii
FN:1019,_ZZN5amrex8FabArrayINS_7BaseFabIN5Model5Solid6Linear9LaplacianEEEE22unpack_recv_buffer_cpuIS5_EEvRS7_iiRKNS_6VectorIPcSaISB_EEERKNSA_ImSaImEEERKNSA_IPKSt6vectorINS_12FabArrayBase10CopyComTagESaISM_EESaISQ_EEENSL_4CpOpEbENKUliiiiE0_clEiiii
FN:1019,_ZZN5amrex8FabArrayINS_7BaseFabIN5Model5Solid7Elastic17PseudoLinearCubicEEEE22unpack_recv_buffer_cpuIS5_EEvRS7_iiRKNS_6VectorIPcSaISB_EEERKNSA_ImSaImEEERKNSA_IPKSt6vectorINS_12FabArrayBase10CopyComTagESaISM_EESaISQ_EEENSL_4CpOpEbENKUliiiiE0_clEiiii
FN:1019,_ZZN5amrex8FabArrayINS_7BaseFabIN3Set7Matrix4ILi2ELi6EEEEEE22unpack_recv_buffer_cpuIS4_EEvRS6_iiRKNS_6VectorIPcSaISA_EEERKNS9_ImSaImEEERKNS9_IPKSt6vectorINS_12FabArrayBase10CopyComTagESaISL_EESaISP_EEENSK_4CpOpEbENKUliiiiE0_clEiiii
FN:1019,_ZZN5amrex8FabArrayINS_7BaseFabIN5Eigen6MatrixIdLi2ELi2ELi0ELi2ELi2EEEEEE22unpack_recv_buffer_cpuIS4_EEvRS6_iiRKNS_6VectorIPcSaISA_EEERKNS9_ImSaImEEERKNS9_IPKSt6vectorINS_12FabArrayBase10CopyComTagESaISL_EESaISP_EEENSK_4CpOpEbENKUliiiiE0_clEiiii
FN:1019,_ZZN5amrex8FabArrayINS_7BaseFabIN5Model5Solid6Linear5CubicEEEE22unpack_recv_buffer_cpuIS5_EEvRS7_iiRKNS_6VectorIPcSaISB_EEERKNSA_ImSaImEEERKNSA_IPKSt6vectorINS_12FabArrayBase10CopyComTagESaISM_EESaISQ_EEENSL_4CpOpEbENKUliiiiE0_clEiiii
FN:1019,_ZZN5amrex8FabArrayINS_7BaseFabIN5Model5Solid6Affine9IsotropicEEEE22unpack_recv_buffer_cpuIS5_EEvRS7_iiRKNS_6VectorIPcSaISB_EEERKNSA_ImSaImEEERKNSA_IPKSt6vectorINS_12FabArrayBase10CopyComTagESaISM_EESaISQ_EEENSL_4CpOpEbENKUliiiiE0_clEiiii
FN:1019,_ZZN5amrex8FabArrayINS_7BaseFabIN5Model5Solid6Affine2J2EEEE22unpack_recv_buffer_cpuIS5_EEvRS7_iiRKNS_6VectorIPcSaISB_EEERKNSA_ImSaImEEERKNSA_IPKSt6vectorINS_12FabArrayBase10CopyComTagESaISM_EESaISQ_EEENSL_4CpOpEbENKUliiiiE0_clEiiii
FN:1019,_ZZN5amrex8FabArrayINS_7BaseFabIN5Eigen6MatrixIdLi2ELi1ELi0ELi2ELi1EEEEEE22unpack_recv_buffer_cpuIS4_EEvRS6_iiRKNS_6VectorIPcSaISA_EEERKNS9_ImSaImEEERKNS9_IPKSt6vectorINS_12FabArrayBase10CopyComTagESaISL_EESaISP_EEENSK_4CpOpEbENKUliiiiE0_clEiiii
FN:1019,_ZZN5amrex8FabArrayINS_7BaseFabIN5Model5Solid6Linear9IsotropicEEEE22unpack_recv_buffer_cpuIS5_EEvRS7_iiRKNS_6VectorIPcSaISB_EEERKNSA_ImSaImEEERKNSA_IPKSt6vectorINS_12FabArrayBase10CopyComTagESaISM_EESaISQ_EEENSL_4CpOpEbENKUliiiiE0_clEiiii
FN:1019,_ZZN5amrex8FabArrayINS_7BaseFabIN5Model5Solid7Elastic28PseudoLinearCubicPredeformedEEEE22unpack_recv_buffer_cpuIS5_EEvRS7_iiRKNS_6VectorIPcSaISB_EEERKNSA_ImSaImEEERKNSA_IPKSt6vectorINS_12FabArrayBase10CopyComTagESaISM_EESaISQ_EEENSL_4CpOpEbENKUliiiiE0_clEiiii
FNDA:0,_ZN5amrex8FabArrayINS_7BaseFabIN5Eigen6MatrixIdLi2ELi1ELi0ELi2ELi1EEEEEE22unpack_recv_buffer_cpuIS4_EEvRS6_iiRKNS_6VectorIPcSaISA_EEERKNS9_ImSaImEEERKNS9_IPKSt6vectorINS_12FabArrayBase10CopyComTagESaISL_EESaISP_EEENSK_4CpOpEb
FNDA:0,_ZZN5amrex8FabArrayINS_7BaseFabIN5Model5Solid6Affine9HexagonalEEEE17FB_local_copy_cpuERKNS_12FabArrayBase2FBEiiENKUliiiiE_clEiiii
FNDA:0,_ZZN5amrex8FabArrayINS_9IArrayBoxEE20pack_send_buffer_cpuIiEEvRKS2_iiRKNS_6VectorIPcSaIS7_EEERKNS6_ImSaImEEERKNS6_IPKSt6vectorINS_12FabArrayBase10CopyComTagESaISI_EESaISM_EEEENKUliiiiE_clEiiii
FNDA:0,_ZN5amrex8FabArrayINS_7BaseFabIN5Model5Solid6Affine5CubicEEEE20pack_send_buffer_cpuIS5_EEvRKS7_iiRKNS_6VectorIPcSaISC_EEERKNSB_ImSaImEEERKNSB_IPKSt6vectorINS_12FabArrayBase10CopyComTagESaISN_EESaISR_EEE
FNDA:40,_ZN5amrex8FabArrayINS_7BaseFabIN3Set7Matrix4ILi2ELi6EEEEEE17FB_local_copy_cpuERKNS_12FabArrayBase2FBEii
FNDA:0,_ZN5amrex8FabArrayINS_7BaseFabIN5Model5Solid7Elastic10NeoHookeanEEEE20pack_send_buffer_cpuIS5_EEvRKS7_iiRKNS_6VectorIPcSaISC_EEERKNSB_ImSaImEEERKNSB_IPKSt6vectorINS_12FabArrayBase10CopyComTagESaISN_EESaISR_EEE
FNDA:0,_ZZN5amrex8FabArrayINS_7BaseFabIN3Set7Matrix4ILi2ELi1EEEEEE20pack_send_buffer_cpuIS4_EEvRKS6_iiRKNS_6VectorIPcSaISB_EEERKNSA_ImSaImEEERKNSA_IPKSt6vectorINS_12FabArrayBase10CopyComTagESaISM_EESaISQ_EEEENKUliiiiE_clEiiii
FNDA:0,_ZZN5amrex8FabArrayINS_7BaseFabIN5Model5Solid6Linear19IsotropicDegradableEEEE17FB_local_copy_cpuERKNS_12FabArrayBase2FBEiiENKUliiiiE_clEiiii
FNDA:0,_ZZN5amrex8FabArrayINS_7BaseFabIN5Model5Solid6Linear9LaplacianEEEE22unpack_recv_buffer_cpuIS5_EEvRS7_iiRKNS_6VectorIPcSaISB_EEERKNSA_ImSaImEEERKNSA_IPKSt6vectorINS_12FabArrayBase10CopyComTagESaISM_EESaISQ_EEENSL_4CpOpEbENKUliiiiE0_clEiiii
FNDA:0,_ZN5amrex8FabArrayINS_7BaseFabIN5Model5Solid6Linear5CubicEEEE20pack_send_buffer_cpuIS5_EEvRKS7_iiRKNS_6VectorIPcSaISC_EEERKNSB_ImSaImEEERKNSB_IPKSt6vectorINS_12FabArrayBase10CopyComTagESaISN_EESaISR_EEE
FNDA:49,_ZN5amrex8FabArrayINS_7BaseFabIN5Eigen6MatrixIdLi2ELi1ELi0ELi2ELi1EEEEEE17FB_local_copy_cpuERKNS_12FabArrayBase2FBEii
FNDA:0,_ZZN5amrex8FabArrayINS_7BaseFabIN3Set7Matrix4ILi2ELi6EEEEEE22unpack_recv_buffer_cpuIS4_EEvRS6_iiRKNS_6VectorIPcSaISA_EEERKNS9_ImSaImEEERKNS9_IPKSt6vectorINS_12FabArrayBase10CopyComTagESaISL_EESaISP_EEENSK_4CpOpEbENKUliiiiE_clEiiii
FNDA:0,_ZN5amrex8FabArrayINS_7BaseFabIN5Model5Solid7Elastic10NeoHookeanEEEE22unpack_recv_buffer_cpuIS5_EEvRS7_iiRKNS_6VectorIPcSaISB_EEERKNSA_ImSaImEEERKNSA_IPKSt6vectorINS_12FabArrayBase10CopyComTagESaISM_EESaISQ_EEENSL_4CpOpEb
FNDA:0,_ZZN5amrex8FabArrayINS_7BaseFabIN5Model5Solid7Elastic10NeoHookeanEEEE17FB_local_copy_cpuERKNS_12FabArrayBase2FBEiiENKUliiiiE_clEiiii
FNDA:0,_ZZN5amrex8FabArrayINS_7BaseFabIN5Eigen6MatrixIdLi2ELi1ELi0ELi2ELi1EEEEEE20pack_send_buffer_cpuIS4_EEvRKS6_iiRKNS_6VectorIPcSaISB_EEERKNSA_ImSaImEEERKNSA_IPKSt6vectorINS_12FabArrayBase10CopyComTagESaISM_EESaISQ_EEEENKUliiiiE_clEiiii
FNDA:0,_ZZN5amrex8FabArrayINS_7BaseFabIN5Model5Solid6Affine2J2EEEE20pack_send_buffer_cpuIS5_EEvRKS7_iiRKNS_6VectorIPcSaISC_EEERKNSB_ImSaImEEERKNSB_IPKSt6vectorINS_12FabArrayBase10CopyComTagESaISN_EESaISR_EEEENKUliiiiE_clEiiii
FNDA:0,_ZZN5amrex8FabArrayINS_7BaseFabIN5Model5Solid6Affine5CubicEEEE20pack_send_buffer_cpuIS5_EEvRKS7_iiRKNS_6VectorIPcSaISC_EEERKNSB_ImSaImEEERKNSB_IPKSt6vectorINS_12FabArrayBase10CopyComTagESaISN_EESaISR_EEEENKUliiiiE_clEiiii
FNDA:0,_ZN5amrex8FabArrayINS_7BaseFabIN3Set7Matrix4ILi2ELi6EEEEEE22unpack_recv_buffer_cpuIS4_EEvRS6_iiRKNS_6VectorIPcSaISA_EEERKNS9_ImSaImEEERKNS9_IPKSt6vectorINS_12FabArrayBase10CopyComTagESaISL_EESaISP_EEENSK_4CpOpEb
FNDA:0,_ZN5amrex8FabArrayINS_7BaseFabIN3Set7Matrix4ILi2ELi1EEEEEE22unpack_recv_buffer_cpuIS4_EEvRS6_iiRKNS_6VectorIPcSaISA_EEERKNS9_ImSaImEEERKNS9_IPKSt6vectorINS_12FabArrayBase10CopyComTagESaISL_EESaISP_EEENSK_4CpOpEb
FNDA:0,_ZZN5amrex8FabArrayINS_7BaseFabIN5Model5Solid6Affine5CubicEEEE17FB_local_copy_cpuERKNS_12FabArrayBase2FBEiiENKUliiiiE_clEiiii
FNDA:0,_ZN5amrex8FabArrayINS_7BaseFabIN5Model5Solid6Affine2J2EEEE22unpack_recv_buffer_cpuIS5_EEvRS7_iiRKNS_6VectorIPcSaISB_EEERKNSA_ImSaImEEERKNSA_IPKSt6vectorINS_12FabArrayBase10CopyComTagESaISM_EESaISQ_EEENSL_4CpOpEb
FNDA:0,_ZN5amrex8FabArrayINS_7BaseFabIN5Model5Solid6Affine9IsotropicEEEE22unpack_recv_buffer_cpuIS5_EEvRS7_iiRKNS_6VectorIPcSaISB_EEERKNSA_ImSaImEEERKNSA_IPKSt6vectorINS_12FabArrayBase10CopyComTagESaISM_EESaISQ_EEENSL_4CpOpEb
FNDA:0,_ZZN5amrex8FabArrayINS_7BaseFabIN5Model5Solid7Elastic17PseudoLinearCubicEEEE20pack_send_buffer_cpuIS5_EEvRKS7_iiRKNS_6VectorIPcSaISC_EEERKNSB_ImSaImEEERKNSB_IPKSt6vectorINS_12FabArrayBase10CopyComTagESaISN_EESaISR_EEEENKUliiiiE_clEiiii
FNDA:0,_ZZN5amrex8FabArrayINS_7BaseFabIN5Model5Solid7Elastic17PseudoLinearCubicEEEE22unpack_recv_buffer_cpuIS5_EEvRS7_iiRKNS_6VectorIPcSaISB_EEERKNSA_ImSaImEEERKNSA_IPKSt6vectorINS_12FabArrayBase10CopyComTagESaISM_EESaISQ_EEENSL_4CpOpEbENKUliiiiE0_clEiiii
FNDA:0,_ZZN5amrex8FabArrayINS_9FArrayBoxEE17FB_local_copy_cpuERKNS_12FabArrayBase2FBEiiENKUliiiiE_clEiiii
FNDA:0,_ZZN5amrex8FabArrayINS_7BaseFabIN5Model5Solid6Affine9IsotropicEEEE22unpack_recv_buffer_cpuIS5_EEvRS7_iiRKNS_6VectorIPcSaISB_EEERKNSA_ImSaImEEERKNSA_IPKSt6vectorINS_12FabArrayBase10CopyComTagESaISM_EESaISQ_EEENSL_4CpOpEbENKUliiiiE_clEiiii
FNDA:16,_ZN5amrex8FabArrayINS_7BaseFabIN3Set7Matrix4ILi2ELi3EEEEEE17FB_local_copy_cpuERKNS_12FabArrayBase2FBEii
FNDA:0,_ZZN5amrex8FabArrayINS_7BaseFabIN5Model5Solid6Affine9IsotropicEEEE20pack_send_buffer_cpuIS5_EEvRKS7_iiRKNS_6VectorIPcSaISC_EEERKNSB_ImSaImEEERKNSB_IPKSt6vectorINS_12FabArrayBase10CopyComTagESaISN_EESaISR_EEEENKUliiiiE_clEiiii
FNDA:0,_ZZN5amrex8FabArrayINS_7BaseFabIN3Set7Matrix4ILi2ELi6EEEEEE22unpack_recv_buffer_cpuIS4_EEvRS6_iiRKNS_6VectorIPcSaISA_EEERKNS9_ImSaImEEERKNS9_IPKSt6vectorINS_12FabArrayBase10CopyComTagESaISL_EESaISP_EEENSK_4CpOpEbENKUliiiiE0_clEiiii
FNDA:0,_ZZN5amrex8FabArrayINS_7BaseFabIN5Model5Solid6Linear9LaplacianEEEE20pack_send_buffer_cpuIS5_EEvRKS7_iiRKNS_6VectorIPcSaISC_EEERKNSB_ImSaImEEERKNSB_IPKSt6vectorINS_12FabArrayBase10CopyComTagESaISN_EESaISR_EEEENKUliiiiE_clEiiii
FNDA:0,_ZZN5amrex8FabArrayINS_7BaseFabIN5Model5Solid7Elastic10NeoHookeanEEEE22unpack_recv_buffer_cpuIS5_EEvRS7_iiRKNS_6VectorIPcSaISB_EEERKNSA_ImSaImEEERKNSA_IPKSt6vectorINS_12FabArrayBase10CopyComTagESaISM_EESaISQ_EEENSL_4CpOpEbENKUliiiiE_clEiiii
FNDA:0,_ZN5amrex8FabArrayINS_7BaseFabIN5Model5Solid6Linear19IsotropicDegradableEEEE17FB_local_copy_cpuERKNS_12FabArrayBase2FBEii
FNDA:0,_ZN5amrex8FabArrayINS_7BaseFabIN5Model5Solid6Linear19IsotropicDegradableEEEE20pack_send_buffer_cpuIS5_EEvRKS7_iiRKNS_6VectorIPcSaISC_EEERKNSB_ImSaImEEERKNSB_IPKSt6vectorINS_12FabArrayBase10CopyComTagESaISN_EESaISR_EEE
FNDA:0,_ZZN5amrex8FabArrayINS_7BaseFabIN5Model5Solid6Linear9LaplacianEEEE17FB_local_copy_cpuERKNS_12FabArrayBase2FBEiiENKUliiiiE_clEiiii
FNDA:7,_ZN5amrex8FabArrayINS_7BaseFabIN5Model5Solid6Linear9IsotropicEEEE17FB_local_copy_cpuERKNS_12FabArrayBase2FBEii
FNDA:0,_ZN5amrex8FabArrayINS_7BaseFabIN5Model5Solid6Linear9LaplacianEEEE22unpack_recv_buffer_cpuIS5_EEvRS7_iiRKNS_6VectorIPcSaISB_EEERKNSA_ImSaImEEERKNSA_IPKSt6vectorINS_12FabArrayBase10CopyComTagESaISM_EESaISQ_EEENSL_4CpOpEb
FNDA:0,_ZN5amrex8FabArrayINS_7BaseFabIN5Model5Solid6Linear9LaplacianEEEE20pack_send_buffer_cpuIS5_EEvRKS7_iiRKNS_6VectorIPcSaISC_EEERKNSB_ImSaImEEERKNSB_IPKSt6vectorINS_12FabArrayBase10CopyComTagESaISN_EESaISR_EEE
FNDA:0,_ZN5amrex8FabArrayINS_7BaseFabIdEEE22unpack_recv_buffer_cpuIdEEvRS3_iiRKNS_6VectorIPcSaIS7_EEERKNS6_ImSaImEEERKNS6_IPKSt6vectorINS_12FabArrayBase10CopyComTagESaISI_EESaISM_EEENSH_4CpOpEb
FNDA:0,_ZZN5amrex8FabArrayINS_7BaseFabIN5Model5Solid6Affine9HexagonalEEEE22unpack_recv_buffer_cpuIS5_EEvRS7_iiRKNS_6VectorIPcSaISB_EEERKNSA_ImSaImEEERKNSA_IPKSt6vectorINS_12FabArrayBase10CopyComTagESaISM_EESaISQ_EEENSL_4CpOpEbENKUliiiiE_clEiiii
FNDA:0,_ZN5amrex8FabArrayINS_9FArrayBoxEE22unpack_recv_buffer_cpuIdEEvRS2_iiRKNS_6VectorIPcSaIS6_EEERKNS5_ImSaImEEERKNS5_IPKSt6vectorINS_12FabArrayBase10CopyComTagESaISH_EESaISL_EEENSG_4CpOpEb
FNDA:0,_ZZN5amrex8FabArrayINS_7BaseFabIN5Model5Solid6Linear5CubicEEEE20pack_send_buffer_cpuIS5_EEvRKS7_iiRKNS_6VectorIPcSaISC_EEERKNSB_ImSaImEEERKNSB_IPKSt6vectorINS_12FabArrayBase10CopyComTagESaISN_EESaISR_EEEENKUliiiiE_clEiiii
FNDA:0,_ZZN5amrex8FabArrayINS_7BaseFabIN3Set7Matrix4ILi2ELi1EEEEEE17FB_local_copy_cpuERKNS_12FabArrayBase2FBEiiENKUliiiiE_clEiiii
FNDA:0,_ZN5amrex8FabArrayINS_7BaseFabIN5Eigen6MatrixIdLi2ELi2ELi0ELi2ELi2EEEEEE22unpack_recv_buffer_cpuIS4_EEvRS6_iiRKNS_6VectorIPcSaISA_EEERKNS9_ImSaImEEERKNS9_IPKSt6vectorINS_12FabArrayBase10CopyComTagESaISL_EESaISP_EEENSK_4CpOpEb
FNDA:180,_ZN5amrex8FabArrayINS_7BaseFabIN3Set7Matrix4ILi2ELi1EEEEEE17FB_local_copy_cpuERKNS_12FabArrayBase2FBEii
FNDA:0,_ZN5amrex8FabArrayINS_7BaseFabIN3Set7Matrix4ILi2ELi4EEEEEE22unpack_recv_buffer_cpuIS4_EEvRS6_iiRKNS_6VectorIPcSaISA_EEERKNS9_ImSaImEEERKNS9_IPKSt6vectorINS_12FabArrayBase10CopyComTagESaISL_EESaISP_EEENSK_4CpOpEb
FNDA:0,_ZZN5amrex8FabArrayINS_7BaseFabIN5Model5Solid6Linear5CubicEEEE17FB_local_copy_cpuERKNS_12FabArrayBase2FBEiiENKUliiiiE_clEiiii
FNDA:19,_ZN5amrex8FabArrayINS_7BaseFabIN5Model5Solid6Affine9IsotropicEEEE17FB_local_copy_cpuERKNS_12FabArrayBase2FBEii
FNDA:0,_ZN5amrex8FabArrayINS_7BaseFabIN5Eigen6MatrixIdLi2ELi1ELi0ELi2ELi1EEEEEE20pack_send_buffer_cpuIS4_EEvRKS6_iiRKNS_6VectorIPcSaISB_EEERKNSA_ImSaImEEERKNSA_IPKSt6vectorINS_12FabArrayBase10CopyComTagESaISM_EESaISQ_EEE
FNDA:0,_ZZN5amrex8FabArrayINS_9IArrayBoxEE22unpack_recv_buffer_cpuIiEEvRS2_iiRKNS_6VectorIPcSaIS6_EEERKNS5_ImSaImEEERKNS5_IPKSt6vectorINS_12FabArrayBase10CopyComTagESaISH_EESaISL_EEENSG_4CpOpEbENKUliiiiE_clEiiii
FNDA:0,_ZZN5amrex8FabArrayINS_7BaseFabIN5Eigen6MatrixIdLi2ELi2ELi0ELi2ELi2EEEEEE22unpack_recv_buffer_cpuIS4_EEvRS6_iiRKNS_6VectorIPcSaISA_EEERKNS9_ImSaImEEERKNS9_IPKSt6vectorINS_12FabArrayBase10CopyComTagESaISL_EESaISP_EEENSK_4CpOpEbENKUliiiiE0_clEiiii
FNDA:0,_ZZN5amrex8FabArrayINS_7BaseFabIN5Model5Solid6Linear5CubicEEEE22unpack_recv_buffer_cpuIS5_EEvRS7_iiRKNS_6VectorIPcSaISB_EEERKNSA_ImSaImEEERKNSA_IPKSt6vectorINS_12FabArrayBase10CopyComTagESaISM_EESaISQ_EEENSL_4CpOpEbENKUliiiiE0_clEiiii
FNDA:0,_ZZN5amrex8FabArrayINS_7BaseFabIN3Set7Matrix4ILi2ELi6EEEEEE17FB_local_copy_cpuERKNS_12FabArrayBase2FBEiiENKUliiiiE_clEiiii
FNDA:0,_ZZN5amrex8FabArrayINS_9FArrayBoxEE20pack_send_buffer_cpuIdEEvRKS2_iiRKNS_6VectorIPcSaIS7_EEERKNS6_ImSaImEEERKNS6_IPKSt6vectorINS_12FabArrayBase10CopyComTagESaISI_EESaISM_EEEENKUliiiiE_clEiiii
FNDA:0,_ZZN5amrex8FabArrayINS_7BaseFabIN5Model5Solid6Affine9IsotropicEEEE22unpack_recv_buffer_cpuIS5_EEvRS7_iiRKNS_6VectorIPcSaISB_EEERKNSA_ImSaImEEERKNSA_IPKSt6vectorINS_12FabArrayBase10CopyComTagESaISM_EESaISQ_EEENSL_4CpOpEbENKUliiiiE0_clEiiii
FNDA:0,_ZZN5amrex8FabArrayINS_7BaseFabIN5Model5Solid7Elastic10NeoHookeanEEEE20pack_send_buffer_cpuIS5_EEvRKS7_iiRKNS_6VectorIPcSaISC_EEERKNSB_ImSaImEEERKNSB_IPKSt6vectorINS_12FabArrayBase10CopyComTagESaISN_EESaISR_EEEENKUliiiiE_clEiiii
FNDA:0,_ZZN5amrex8FabArrayINS_7BaseFabIN5Model5Solid6Affine2J2EEEE22unpack_recv_buffer_cpuIS5_EEvRS7_iiRKNS_6VectorIPcSaISB_EEERKNSA_ImSaImEEERKNSA_IPKSt6vectorINS_12FabArrayBase10CopyComTagESaISM_EESaISQ_EEENSL_4CpOpEbENKUliiiiE0_clEiiii
FNDA:0,_ZZN5amrex8FabArrayINS_7BaseFabIN3Set7Matrix4ILi2ELi4EEEEEE20pack_send_buffer_cpuIS4_EEvRKS6_iiRKNS_6VectorIPcSaISB_EEERKNSA_ImSaImEEERKNSA_IPKSt6vectorINS_12FabArrayBase10CopyComTagESaISM_EESaISQ_EEEENKUliiiiE_clEiiii
FNDA:0,_ZZN5amrex8FabArrayINS_7BaseFabIN5Eigen6MatrixIdLi2ELi1ELi0ELi2ELi1EEEEEE22unpack_recv_buffer_cpuIS4_EEvRS6_iiRKNS_6VectorIPcSaISA_EEERKNS9_ImSaImEEERKNS9_IPKSt6vectorINS_12FabArrayBase10CopyComTagESaISL_EESaISP_EEENSK_4CpOpEbENKUliiiiE0_clEiiii
FNDA:0,_ZZN5amrex8FabArrayINS_7BaseFabIN3Set7Matrix4ILi2ELi4EEEEEE22unpack_recv_buffer_cpuIS4_EEvRS6_iiRKNS_6VectorIPcSaISA_EEERKNS9_ImSaImEEERKNS9_IPKSt6vectorINS_12FabArrayBase10CopyComTagESaISL_EESaISP_EEENSK_4CpOpEbENKUliiiiE_clEiiii
FNDA:0,_ZZN5amrex8FabArrayINS_7BaseFabIN5Eigen6MatrixIdLi2ELi1ELi0ELi2ELi1EEEEEE22unpack_recv_buffer_cpuIS4_EEvRS6_iiRKNS_6VectorIPcSaISA_EEERKNS9_ImSaImEEERKNS9_IPKSt6vectorINS_12FabArrayBase10CopyComTagESaISL_EESaISP_EEENSK_4CpOpEbENKUliiiiE_clEiiii
FNDA:0,_ZN5amrex8FabArrayINS_9FArrayBoxEE20pack_send_buffer_cpuIdEEvRKS2_iiRKNS_6VectorIPcSaIS7_EEERKNS6_ImSaImEEERKNS6_IPKSt6vectorINS_12FabArrayBase10CopyComTagESaISI_EESaISM_EEE
FNDA:0,_ZN5amrex8FabArrayINS_7BaseFabIN5Model5Solid7Elastic28PseudoLinearCubicPredeformedEEEE20pack_send_buffer_cpuIS5_EEvRKS7_iiRKNS_6VectorIPcSaISC_EEERKNSB_ImSaImEEERKNSB_IPKSt6vectorINS_12FabArrayBase10CopyComTagESaISN_EESaISR_EEE
FNDA:0,_ZN5amrex8FabArrayINS_9IArrayBoxEE22unpack_recv_buffer_cpuIiEEvRS2_iiRKNS_6VectorIPcSaIS6_EEERKNS5_ImSaImEEERKNS5_IPKSt6vectorINS_12FabArrayBase10CopyComTagESaISH_EESaISL_EEENSG_4CpOpEb
FNDA:0,_ZN5amrex8FabArrayINS_7BaseFabIN5Model5Solid6Affine2J2EEEE17FB_local_copy_cpuERKNS_12FabArrayBase2FBEii
FNDA:0,_ZN5amrex8FabArrayINS_7BaseFabIN3Set7Matrix4ILi2ELi6EEEEEE20pack_send_buffer_cpuIS4_EEvRKS6_iiRKNS_6VectorIPcSaISB_EEERKNSA_ImSaImEEERKNSA_IPKSt6vectorINS_12FabArrayBase10CopyComTagESaISM_EESaISQ_EEE
FNDA:0,_ZZN5amrex8FabArrayINS_7BaseFabIN5Model5Solid6Affine2J2EEEE17FB_local_copy_cpuERKNS_12FabArrayBase2FBEiiENKUliiiiE_clEiiii
FNDA:0,_ZN5amrex8FabArrayINS_7BaseFabIN5Model5Solid6Linear9IsotropicEEEE20pack_send_buffer_cpuIS5_EEvRKS7_iiRKNS_6VectorIPcSaISC_EEERKNSB_ImSaImEEERKNSB_IPKSt6vectorINS_12FabArrayBase10CopyComTagESaISN_EESaISR_EEE
FNDA:0,_ZZN5amrex8FabArrayINS_7BaseFabIN5Model5Solid6Linear9IsotropicEEEE22unpack_recv_buffer_cpuIS5_EEvRS7_iiRKNS_6VectorIPcSaISB_EEERKNSA_ImSaImEEERKNSA_IPKSt6vectorINS_12FabArrayBase10CopyComTagESaISM_EESaISQ_EEENSL_4CpOpEbENKUliiiiE0_clEiiii
FNDA:0,_ZN5amrex8FabArrayINS_7BaseFabIN5Model5Solid7Elastic17PseudoLinearCubicEEEE17FB_local_copy_cpuERKNS_12FabArrayBase2FBEii
FNDA:0,_ZZN5amrex8FabArrayINS_7BaseFabIN5Eigen6MatrixIdLi2ELi2ELi0ELi2ELi2EEEEEE17FB_local_copy_cpuERKNS_12FabArrayBase2FBEiiENKUliiiiE_clEiiii
FNDA:0,_ZZN5amrex8FabArrayINS_7BaseFabIN5Model5Solid7Elastic28PseudoLinearCubicPredeformedEEEE22unpack_recv_buffer_cpuIS5_EEvRS7_iiRKNS_6VectorIPcSaISB_EEERKNSA_ImSaImEEERKNSA_IPKSt6vectorINS_12FabArrayBase10CopyComTagESaISM_EESaISQ_EEENSL_4CpOpEbENKUliiiiE0_clEiiii
FNDA:0,_ZZN5amrex8FabArrayINS_7BaseFabIN5Model5Solid6Linear19IsotropicDegradableEEEE20pack_send_buffer_cpuIS5_EEvRKS7_iiRKNS_6VectorIPcSaISC_EEERKNSB_ImSaImEEERKNSB_IPKSt6vectorINS_12FabArrayBase10CopyComTagESaISN_EESaISR_EEEENKUliiiiE_clEiiii
FNDA:0,_ZN5amrex8FabArrayINS_7BaseFabIN3Set7Matrix4ILi2ELi4EEEEEE17FB_local_copy_cpuERKNS_12FabArrayBase2FBEii
FNDA:65904,_ZN5amrex8FabArrayINS_9FArrayBoxEE17FB_local_copy_cpuERKNS_12FabArrayBase2FBEii
FNDA:0,_ZZN5amrex8FabArrayINS_7BaseFabIN5Model5Solid6Linear19IsotropicDegradableEEEE22unpack_recv_buffer_cpuIS5_EEvRS7_iiRKNS_6VectorIPcSaISB_EEERKNSA_ImSaImEEERKNSA_IPKSt6vectorINS_12FabArrayBase10CopyComTagESaISM_EESaISQ_EEENSL_4CpOpEbENKUliiiiE0_clEiiii
FNDA:0,_ZZN5amrex8FabArrayINS_7BaseFabIdEEE20pack_send_buffer_cpuIdEEvRKS3_iiRKNS_6VectorIPcSaIS8_EEERKNS7_ImSaImEEERKNS7_IPKSt6vectorINS_12FabArrayBase10CopyComTagESaISJ_EESaISN_EEEENKUliiiiE_clEiiii
FNDA:0,_ZZN5amrex8FabArrayINS_7BaseFabIN5Model5Solid7Elastic17PseudoLinearCubicEEEE22unpack_recv_buffer_cpuIS5_EEvRS7_iiRKNS_6VectorIPcSaISB_EEERKNSA_ImSaImEEERKNSA_IPKSt6vectorINS_12FabArrayBase10CopyComTagESaISM_EESaISQ_EEENSL_4CpOpEbENKUliiiiE_clEiiii
FNDA:0,_ZN5amrex8FabArrayINS_7BaseFabIN5Model5Solid6Linear9LaplacianEEEE17FB_local_copy_cpuERKNS_12FabArrayBase2FBEii
FNDA:0,_ZN5amrex8FabArrayINS_7BaseFabIN5Model5Solid6Affine9HexagonalEEEE20pack_send_buffer_cpuIS5_EEvRKS7_iiRKNS_6VectorIPcSaISC_EEERKNSB_ImSaImEEERKNSB_IPKSt6vectorINS_12FabArrayBase10CopyComTagESaISN_EESaISR_EEE
FNDA:179,_ZN5amrex8FabArrayINS_7BaseFabIN5Eigen6MatrixIdLi2ELi2ELi0ELi2ELi2EEEEEE17FB_local_copy_cpuERKNS_12FabArrayBase2FBEii
FNDA:0,_ZZN5amrex8FabArrayINS_7BaseFabIN3Set7Matrix4ILi2ELi3EEEEEE20pack_send_buffer_cpuIS4_EEvRKS6_iiRKNS_6VectorIPcSaISB_EEERKNSA_ImSaImEEERKNSA_IPKSt6vectorINS_12FabArrayBase10CopyComTagESaISM_EESaISQ_EEEENKUliiiiE_clEiiii
FNDA:0,_ZZN5amrex8FabArrayINS_7BaseFabIN5Eigen6MatrixIdLi2ELi2ELi0ELi2ELi2EEEEEE22unpack_recv_buffer_cpuIS4_EEvRS6_iiRKNS_6VectorIPcSaISA_EEERKNS9_ImSaImEEERKNS9_IPKSt6vectorINS_12FabArrayBase10CopyComTagESaISL_EESaISP_EEENSK_4CpOpEbENKUliiiiE_clEiiii
FNDA:0,_ZZN5amrex8FabArrayINS_7BaseFabIN5Model5Solid6Affine9HexagonalEEEE20pack_send_buffer_cpuIS5_EEvRKS7_iiRKNS_6VectorIPcSaISC_EEERKNSB_ImSaImEEERKNSB_IPKSt6vectorINS_12FabArrayBase10CopyComTagESaISN_EESaISR_EEEENKUliiiiE_clEiiii
FNDA:0,_ZN5amrex8FabArrayINS_7BaseFabIN3Set7Matrix4ILi2ELi3EEEEEE20pack_send_buffer_cpuIS4_EEvRKS6_iiRKNS_6VectorIPcSaISB_EEERKNSA_ImSaImEEERKNSA_IPKSt6vectorINS_12FabArrayBase10CopyComTagESaISM_EESaISQ_EEE
FNDA:0,_ZN5amrex8FabArrayINS_7BaseFabIN5Model5Solid7Elastic28PseudoLinearCubicPredeformedEEEE17FB_local_copy_cpuERKNS_12FabArrayBase2FBEii
FNDA:0,_ZZN5amrex8FabArrayINS_9IArrayBoxEE22unpack_recv_buffer_cpuIiEEvRS2_iiRKNS_6VectorIPcSaIS6_EEERKNS5_ImSaImEEERKNS5_IPKSt6vectorINS_12FabArrayBase10CopyComTagESaISH_EESaISL_EEENSG_4CpOpEbENKUliiiiE0_clEiiii
FNDA:0,_ZZN5amrex8FabArrayINS_7BaseFabIN3Set7Matrix4ILi2ELi4EEEEEE22unpack_recv_buffer_cpuIS4_EEvRS6_iiRKNS_6VectorIPcSaISA_EEERKNS9_ImSaImEEERKNS9_IPKSt6vectorINS_12FabArrayBase10CopyComTagESaISL_EESaISP_EEENSK_4CpOpEbENKUliiiiE0_clEiiii
FNDA:0,_ZZN5amrex8FabArrayINS_7BaseFabIN3Set7Matrix4ILi2ELi3EEEEEE17FB_local_copy_cpuERKNS_12FabArrayBase2FBEiiENKUliiiiE_clEiiii
FNDA:0,_ZZN5amrex8FabArrayINS_7BaseFabIN5Model5Solid6Linear9LaplacianEEEE22unpack_recv_buffer_cpuIS5_EEvRS7_iiRKNS_6VectorIPcSaISB_EEERKNSA_ImSaImEEERKNSA_IPKSt6vectorINS_12FabArrayBase10CopyComTagESaISM_EESaISQ_EEENSL_4CpOpEbENKUliiiiE_clEiiii
FNDA:0,_ZZN5amrex8FabArrayINS_7BaseFabIN3Set7Matrix4ILi2ELi3EEEEEE22unpack_recv_buffer_cpuIS4_EEvRS6_iiRKNS_6VectorIPcSaISA_EEERKNS9_ImSaImEEERKNS9_IPKSt6vectorINS_12FabArrayBase10CopyComTagESaISL_EESaISP_EEENSK_4CpOpEbENKUliiiiE0_clEiiii
FNDA:0,_ZZN5amrex8FabArrayINS_7BaseFabIN5Model5Solid6Linear9IsotropicEEEE22unpack_recv_buffer_cpuIS5_EEvRS7_iiRKNS_6VectorIPcSaISB_EEERKNSA_ImSaImEEERKNSA_IPKSt6vectorINS_12FabArrayBase10CopyComTagESaISM_EESaISQ_EEENSL_4CpOpEbENKUliiiiE_clEiiii
FNDA:0,_ZZN5amrex8FabArrayINS_7BaseFabIN5Model5Solid6Affine9IsotropicEEEE17FB_local_copy_cpuERKNS_12FabArrayBase2FBEiiENKUliiiiE_clEiiii
FNDA:0,_ZZN5amrex8FabArrayINS_7BaseFabIN5Model5Solid7Elastic10NeoHookeanEEEE22unpack_recv_buffer_cpuIS5_EEvRS7_iiRKNS_6VectorIPcSaISB_EEERKNSA_ImSaImEEERKNSA_IPKSt6vectorINS_12FabArrayBase10CopyComTagESaISM_EESaISQ_EEENSL_4CpOpEbENKUliiiiE0_clEiiii
FNDA:0,_ZN5amrex8FabArrayINS_7BaseFabIdEEE17FB_local_copy_cpuERKNS_12FabArrayBase2FBEii
FNDA:0,_ZN5amrex8FabArrayINS_7BaseFabIN3Set7Matrix4ILi2ELi1EEEEEE20pack_send_buffer_cpuIS4_EEvRKS6_iiRKNS_6VectorIPcSaISB_EEERKNSA_ImSaImEEERKNSA_IPKSt6vectorINS_12FabArrayBase10CopyComTagESaISM_EESaISQ_EEE
FNDA:0,_ZN5amrex8FabArrayINS_7BaseFabIN5Model5Solid6Affine5CubicEEEE22unpack_recv_buffer_cpuIS5_EEvRS7_iiRKNS_6VectorIPcSaISB_EEERKNSA_ImSaImEEERKNSA_IPKSt6vectorINS_12FabArrayBase10CopyComTagESaISM_EESaISQ_EEENSL_4CpOpEb
FNDA:0,_ZZN5amrex8FabArrayINS_7BaseFabIN5Model5Solid6Linear9IsotropicEEEE17FB_local_copy_cpuERKNS_12FabArrayBase2FBEiiENKUliiiiE_clEiiii
FNDA:8,_ZN5amrex8FabArrayINS_7BaseFabIN5Model5Solid6Affine5CubicEEEE17FB_local_copy_cpuERKNS_12FabArrayBase2FBEii
FNDA:0,_ZZN5amrex8FabArrayINS_7BaseFabIN3Set7Matrix4ILi2ELi1EEEEEE22unpack_recv_buffer_cpuIS4_EEvRS6_iiRKNS_6VectorIPcSaISA_EEERKNS9_ImSaImEEERKNS9_IPKSt6vectorINS_12FabArrayBase10CopyComTagESaISL_EESaISP_EEENSK_4CpOpEbENKUliiiiE0_clEiiii
FNDA:3,_ZN5amrex8FabArrayINS_7BaseFabIN5Model5Solid7Elastic10NeoHookeanEEEE17FB_local_copy_cpuERKNS_12FabArrayBase2FBEii
FNDA:0,_ZZN5amrex8FabArrayINS_7BaseFabIN3Set7Matrix4ILi2ELi3EEEEEE22unpack_recv_buffer_cpuIS4_EEvRS6_iiRKNS_6VectorIPcSaISA_EEERKNS9_ImSaImEEERKNS9_IPKSt6vectorINS_12FabArrayBase10CopyComTagESaISL_EESaISP_EEENSK_4CpOpEbENKUliiiiE_clEiiii
FNDA:0,_ZZN5amrex8FabArrayINS_9FArrayBoxEE22unpack_recv_buffer_cpuIdEEvRS2_iiRKNS_6VectorIPcSaIS6_EEERKNS5_ImSaImEEERKNS5_IPKSt6vectorINS_12FabArrayBase10CopyComTagESaISH_EESaISL_EEENSG_4CpOpEbENKUliiiiE_clEiiii
FNDA:0,_ZZN5amrex8FabArrayINS_7BaseFabIN5Eigen6MatrixIdLi2ELi1ELi0ELi2ELi1EEEEEE17FB_local_copy_cpuERKNS_12FabArrayBase2FBEiiENKUliiiiE_clEiiii
FNDA:0,_ZN5amrex8FabArrayINS_7BaseFabIN5Model5Solid6Linear9IsotropicEEEE22unpack_recv_buffer_cpuIS5_EEvRS7_iiRKNS_6VectorIPcSaISB_EEERKNSA_ImSaImEEERKNSA_IPKSt6vectorINS_12FabArrayBase10CopyComTagESaISM_EESaISQ_EEENSL_4CpOpEb
FNDA:0,_ZN5amrex8FabArrayINS_7BaseFabIN5Model5Solid6Affine9HexagonalEEEE22unpack_recv_buffer_cpuIS5_EEvRS7_iiRKNS_6VectorIPcSaISB_EEERKNSA_ImSaImEEERKNSA_IPKSt6vectorINS_12FabArrayBase10CopyComTagESaISM_EESaISQ_EEENSL_4CpOpEb
FNDA:0,_ZN5amrex8FabArrayINS_7BaseFabIN5Model5Solid7Elastic17PseudoLinearCubicEEEE20pack_send_buffer_cpuIS5_EEvRKS7_iiRKNS_6VectorIPcSaISC_EEERKNSB_ImSaImEEERKNSB_IPKSt6vectorINS_12FabArrayBase10CopyComTagESaISN_EESaISR_EEE
FNDA:0,_ZZN5amrex8FabArrayINS_7BaseFabIN5Model5Solid7Elastic28PseudoLinearCubicPredeformedEEEE17FB_local_copy_cpuERKNS_12FabArrayBase2FBEiiENKUliiiiE_clEiiii
FNDA:0,_ZN5amrex8FabArrayINS_7BaseFabIdEEE20pack_send_buffer_cpuIdEEvRKS3_iiRKNS_6VectorIPcSaIS8_EEERKNS7_ImSaImEEERKNS7_IPKSt6vectorINS_12FabArrayBase10CopyComTagESaISJ_EESaISN_EEE
FNDA:0,_ZZN5amrex8FabArrayINS_7BaseFabIN5Model5Solid7Elastic28PseudoLinearCubicPredeformedEEEE20pack_send_buffer_cpuIS5_EEvRKS7_iiRKNS_6VectorIPcSaISC_EEERKNSB_ImSaImEEERKNSB_IPKSt6vectorINS_12FabArrayBase10CopyComTagESaISN_EESaISR_EEEENKUliiiiE_clEiiii
FNDA:0,_ZZN5amrex8FabArrayINS_7BaseFabIdEEE17FB_local_copy_cpuERKNS_12FabArrayBase2FBEiiENKUliiiiE_clEiiii
FNDA:0,_ZZN5amrex8FabArrayINS_7BaseFabIN5Model5Solid6Affine2J2EEEE22unpack_recv_buffer_cpuIS5_EEvRS7_iiRKNS_6VectorIPcSaISB_EEERKNSA_ImSaImEEERKNSA_IPKSt6vectorINS_12FabArrayBase10CopyComTagESaISM_EESaISQ_EEENSL_4CpOpEbENKUliiiiE_clEiiii
FNDA:0,_ZZN5amrex8FabArrayINS_7BaseFabIN5Model5Solid6Affine5CubicEEEE22unpack_recv_buffer_cpuIS5_EEvRS7_iiRKNS_6VectorIPcSaISB_EEERKNSA_ImSaImEEERKNSA_IPKSt6vectorINS_12FabArrayBase10CopyComTagESaISM_EESaISQ_EEENSL_4CpOpEbENKUliiiiE0_clEiiii
FNDA:0,_ZN5amrex8FabArrayINS_7BaseFabIN5Model5Solid7Elastic17PseudoLinearCubicEEEE22unpack_recv_buffer_cpuIS5_EEvRS7_iiRKNS_6VectorIPcSaISB_EEERKNSA_ImSaImEEERKNSA_IPKSt6vectorINS_12FabArrayBase10CopyComTagESaISM_EESaISQ_EEENSL_4CpOpEb
FNDA:0,_ZN5amrex8FabArrayINS_7BaseFabIN5Model5Solid6Affine9IsotropicEEEE20pack_send_buffer_cpuIS5_EEvRKS7_iiRKNS_6VectorIPcSaISC_EEERKNSB_ImSaImEEERKNSB_IPKSt6vectorINS_12FabArrayBase10CopyComTagESaISN_EESaISR_EEE
FNDA:0,_ZZN5amrex8FabArrayINS_7BaseFabIdEEE22unpack_recv_buffer_cpuIdEEvRS3_iiRKNS_6VectorIPcSaIS7_EEERKNS6_ImSaImEEERKNS6_IPKSt6vectorINS_12FabArrayBase10CopyComTagESaISI_EESaISM_EEENSH_4CpOpEbENKUliiiiE_clEiiii
FNDA:0,_ZN5amrex8FabArrayINS_7BaseFabIN5Eigen6MatrixIdLi2ELi2ELi0ELi2ELi2EEEEEE20pack_send_buffer_cpuIS4_EEvRKS6_iiRKNS_6VectorIPcSaISB_EEERKNSA_ImSaImEEERKNSA_IPKSt6vectorINS_12FabArrayBase10CopyComTagESaISM_EESaISQ_EEE
FNDA:0,_ZN5amrex8FabArrayINS_7BaseFabIN5Model5Solid6Linear5CubicEEEE22unpack_recv_buffer_cpuIS5_EEvRS7_iiRKNS_6VectorIPcSaISB_EEERKNSA_ImSaImEEERKNSA_IPKSt6vectorINS_12FabArrayBase10CopyComTagESaISM_EESaISQ_EEENSL_4CpOpEb
FNDA:0,_ZZN5amrex8FabArrayINS_7BaseFabIN3Set7Matrix4ILi2ELi1EEEEEE22unpack_recv_buffer_cpuIS4_EEvRS6_iiRKNS_6VectorIPcSaISA_EEERKNS9_ImSaImEEERKNS9_IPKSt6vectorINS_12FabArrayBase10CopyComTagESaISL_EESaISP_EEENSK_4CpOpEbENKUliiiiE_clEiiii
FNDA:0,_ZZN5amrex8FabArrayINS_7BaseFabIN5Model5Solid7Elastic28PseudoLinearCubicPredeformedEEEE22unpack_recv_buffer_cpuIS5_EEvRS7_iiRKNS_6VectorIPcSaISB_EEERKNSA_ImSaImEEERKNSA_IPKSt6vectorINS_12FabArrayBase10CopyComTagESaISM_EESaISQ_EEENSL_4CpOpEbENKUliiiiE_clEiiii
FNDA:0,_ZZN5amrex8FabArrayINS_7BaseFabIN5Model5Solid6Affine9HexagonalEEEE22unpack_recv_buffer_cpuIS5_EEvRS7_iiRKNS_6VectorIPcSaISB_EEERKNSA_ImSaImEEERKNSA_IPKSt6vectorINS_12FabArrayBase10CopyComTagESaISM_EESaISQ_EEENSL_4CpOpEbENKUliiiiE0_clEiiii
FNDA:0,_ZN5amrex8FabArrayINS_7BaseFabIN5Model5Solid6Affine9HexagonalEEEE17FB_local_copy_cpuERKNS_12FabArrayBase2FBEii
FNDA:0,_ZN5amrex8FabArrayINS_7BaseFabIN5Model5Solid6Linear19IsotropicDegradableEEEE22unpack_recv_buffer_cpuIS5_EEvRS7_iiRKNS_6VectorIPcSaISB_EEERKNSA_ImSaImEEERKNSA_IPKSt6vectorINS_12FabArrayBase10CopyComTagESaISM_EESaISQ_EEENSL_4CpOpEb
FNDA:0,_ZZN5amrex8FabArrayINS_7BaseFabIN5Model5Solid7Elastic17PseudoLinearCubicEEEE17FB_local_copy_cpuERKNS_12FabArrayBase2FBEiiENKUliiiiE_clEiiii
FNDA:0,_ZN5amrex8FabArrayINS_7BaseFabIN5Model5Solid6Affine2J2EEEE20pack_send_buffer_cpuIS5_EEvRKS7_iiRKNS_6VectorIPcSaISC_EEERKNSB_ImSaImEEERKNSB_IPKSt6vectorINS_12FabArrayBase10CopyComTagESaISN_EESaISR_EEE
FNDA:0,_ZZN5amrex8FabArrayINS_7BaseFabIN5Model5Solid6Linear5CubicEEEE22unpack_recv_buffer_cpuIS5_EEvRS7_iiRKNS_6VectorIPcSaISB_EEERKNSA_ImSaImEEERKNSA_IPKSt6vectorINS_12FabArrayBase10CopyComTagESaISM_EESaISQ_EEENSL_4CpOpEbENKUliiiiE_clEiiii
FNDA:0,_ZZN5amrex8FabArrayINS_7BaseFabIN3Set7Matrix4ILi2ELi4EEEEEE17FB_local_copy_cpuERKNS_12FabArrayBase2FBEiiENKUliiiiE_clEiiii
FNDA:0,_ZZN5amrex8FabArrayINS_7BaseFabIN5Eigen6MatrixIdLi2ELi2ELi0ELi2ELi2EEEEEE20pack_send_buffer_cpuIS4_EEvRKS6_iiRKNS_6VectorIPcSaISB_EEERKNSA_ImSaImEEERKNSA_IPKSt6vectorINS_12FabArrayBase10CopyComTagESaISM_EESaISQ_EEEENKUliiiiE_clEiiii
FNDA:0,_ZZN5amrex8FabArrayINS_7BaseFabIN5Model5Solid6Linear9IsotropicEEEE20pack_send_buffer_cpuIS5_EEvRKS7_iiRKNS_6VectorIPcSaISC_EEERKNSB_ImSaImEEERKNSB_IPKSt6vectorINS_12FabArrayBase10CopyComTagESaISN_EESaISR_EEEENKUliiiiE_clEiiii
FNDA:0,_ZZN5amrex8FabArrayINS_7BaseFabIdEEE22unpack_recv_buffer_cpuIdEEvRS3_iiRKNS_6VectorIPcSaIS7_EEERKNS6_ImSaImEEERKNS6_IPKSt6vectorINS_12FabArrayBase10CopyComTagESaISI_EESaISM_EEENSH_4CpOpEbENKUliiiiE0_clEiiii
FNDA:0,_ZN5amrex8FabArrayINS_7BaseFabIN5Model5Solid7Elastic28PseudoLinearCubicPredeformedEEEE22unpack_recv_buffer_cpuIS5_EEvRS7_iiRKNS_6VectorIPcSaISB_EEERKNSA_ImSaImEEERKNSA_IPKSt6vectorINS_12FabArrayBase10CopyComTagESaISM_EESaISQ_EEENSL_4CpOpEb
FNDA:0,_ZN5amrex8FabArrayINS_7BaseFabIN3Set7Matrix4ILi2ELi3EEEEEE22unpack_recv_buffer_cpuIS4_EEvRS6_iiRKNS_6VectorIPcSaISA_EEERKNS9_ImSaImEEERKNS9_IPKSt6vectorINS_12FabArrayBase10CopyComTagESaISL_EESaISP_EEENSK_4CpOpEb
FNDA:0,_ZZN5amrex8FabArrayINS_7BaseFabIN5Model5Solid6Affine5CubicEEEE22unpack_recv_buffer_cpuIS5_EEvRS7_iiRKNS_6VectorIPcSaISB_EEERKNSA_ImSaImEEERKNSA_IPKSt6vectorINS_12FabArrayBase10CopyComTagESaISM_EESaISQ_EEENSL_4CpOpEbENKUliiiiE_clEiiii
FNDA:0,_ZN5amrex8FabArrayINS_7BaseFabIN5Model5Solid6Linear5CubicEEEE17FB_local_copy_cpuERKNS_12FabArrayBase2FBEii
FNDA:0,_ZN5amrex8FabArrayINS_7BaseFabIN3Set7Matrix4ILi2ELi4EEEEEE20pack_send_buffer_cpuIS4_EEvRKS6_iiRKNS_6VectorIPcSaISB_EEERKNSA_ImSaImEEERKNSA_IPKSt6vectorINS_12FabArrayBase10CopyComTagESaISM_EESaISQ_EEE
FNDA:0,_ZZN5amrex8FabArrayINS_7BaseFabIN3Set7Matrix4ILi2ELi6EEEEEE20pack_send_buffer_cpuIS4_EEvRKS6_iiRKNS_6VectorIPcSaISB_EEERKNSA_ImSaImEEERKNSA_IPKSt6vectorINS_12FabArrayBase10CopyComTagESaISM_EESaISQ_EEEENKUliiiiE_clEiiii
FNDA:0,_ZZN5amrex8FabArrayINS_9FArrayBoxEE22unpack_recv_buffer_cpuIdEEvRS2_iiRKNS_6VectorIPcSaIS6_EEERKNS5_ImSaImEEERKNS5_IPKSt6vectorINS_12FabArrayBase10CopyComTagESaISH_EESaISL_EEENSG_4CpOpEbENKUliiiiE0_clEiiii
FNDA:0,_ZZN5amrex8FabArrayINS_7BaseFabIN5Model5Solid6Linear19IsotropicDegradableEEEE22unpack_recv_buffer_cpuIS5_EEvRS7_iiRKNS_6VectorIPcSaISB_EEERKNSA_ImSaImEEERKNSA_IPKSt6vectorINS_12FabArrayBase10CopyComTagESaISM_EESaISQ_EEENSL_4CpOpEbENKUliiiiE_clEiiii
FNDA:0,_ZN5amrex8FabArrayINS_9IArrayBoxEE20pack_send_buffer_cpuIiEEvRKS2_iiRKNS_6VectorIPcSaIS7_EEERKNS6_ImSaImEEERKNS6_IPKSt6vectorINS_12FabArrayBase10CopyComTagESaISI_EESaISM_EEE
FNF:138
FNH:10
DA:211,66405
DA:213,66405
DA:214,66405
DA:215,66405
DA:216,66405
DA:217,66405
DA:222,10630168
DA:224,10563767
DA:229,10563767
DA:230,10563767
DA:231,10563767
DA:236,0
DA:237,0
DA:239,0
DA:244,0
DA:245,0
DA:250,0
DA:252,0
DA:253,0
DA:254,0
DA:256,0
DA:257,0
DA:258,0
DA:259,0
DA:261,0
DA:900,0
DA:907,0
DA:908,0
DA:913,0
DA:915,0
DA:917,0
DA:918,0
DA:919,0
DA:921,0
DA:922,0
DA:924,0
DA:925,0
DA:927,0
DA:929,0
DA:939,0
DA:947,0
DA:948,0
DA:950,0
DA:955,0
DA:957,0
DA:959,0
DA:960,0
DA:961,0
DA:963,0
DA:964,0
DA:965,0
DA:967,0
DA:971,0
DA:973,0
DA:981,0
DA:982,0
DA:983,0
DA:985,0
DA:987,0
DA:988,0
DA:989,0
DA:991,0
DA:992,0
DA:1001,0
DA:1003,0
DA:1004,0
DA:1005,0
DA:1007,0
DA:1008,0
DA:1010,0
DA:1011,0
DA:1013,0
DA:1018,0
DA:1019,0
DA:1021,0
LF:75
LH:11
end_of_record
TN:
SF:/home/brunnels/Research/alamo/ext/amrex/2d-coverage-g++-23.08/include/AMReX_FabArray.H
FN:57,_ZN5amrex11nBytesOwnedIN3Set7Matrix4ILi2ELi4EEEEElRKNS_7BaseFabIT_EE
FN:57,_ZN5amrex11nBytesOwnedIN5Model5Solid6Linear9LaplacianEEElRKNS_7BaseFabIT_EE
FN:57,_ZN5amrex11nBytesOwnedIN5Eigen6MatrixIdLi2ELi2ELi0ELi2ELi2EEEEElRKNS_7BaseFabIT_EE
FN:57,_ZN5amrex11nBytesOwnedIiEElRKNS_7BaseFabIT_EE
FN:57,_ZN5amrex11nBytesOwnedIN5Eigen6MatrixIdLi2ELi1ELi0ELi2ELi1EEEEElRKNS_7BaseFabIT_EE
FN:57,_ZN5amrex11nBytesOwnedIN5Model5Solid6Linear19IsotropicDegradableEEElRKNS_7BaseFabIT_EE
FN:57,_ZN5amrex11nBytesOwnedIdEElRKNS_7BaseFabIT_EE
FN:57,_ZN5amrex11nBytesOwnedIN5Model5Solid7Elastic28PseudoLinearCubicPredeformedEEElRKNS_7BaseFabIT_EE
FN:57,_ZN5amrex11nBytesOwnedIN5Model5Solid6Affine2J2EEElRKNS_7BaseFabIT_EE
FN:57,_ZN5amrex11nBytesOwnedIN5Model5Solid6Affine9IsotropicEEElRKNS_7BaseFabIT_EE
FN:57,_ZN5amrex11nBytesOwnedIN3Set7Matrix4ILi2ELi6EEEEElRKNS_7BaseFabIT_EE
FN:57,_ZN5amrex11nBytesOwnedIN5Model5Solid6Linear9IsotropicEEElRKNS_7BaseFabIT_EE
FN:57,_ZN5amrex11nBytesOwnedIN5Model5Solid6Linear5CubicEEElRKNS_7BaseFabIT_EE
FN:57,_ZN5amrex11nBytesOwnedIN5Model5Solid7Elastic10NeoHookeanEEElRKNS_7BaseFabIT_EE
FN:57,_ZN5amrex11nBytesOwnedIN3Set7Matrix4ILi2ELi3EEEEElRKNS_7BaseFabIT_EE
FN:57,_ZN5amrex11nBytesOwnedIN3Set7Matrix4ILi2ELi1EEEEElRKNS_7BaseFabIT_EE
FN:57,_ZN5amrex11nBytesOwnedIN5Model5Solid6Affine5CubicEEElRKNS_7BaseFabIT_EE
FN:57,_ZN5amrex11nBytesOwnedIN5Model5Solid6Affine9HexagonalEEElRKNS_7BaseFabIT_EE
FN:57,_ZN5amrex11nBytesOwnedIN5Model5Solid7Elastic17PseudoLinearCubicEEElRKNS_7BaseFabIT_EE
FN:121,_ZN5amrex6MFInfo8SetAllocEb
FN:222,_ZN5amrex4CopyINS_7BaseFabIN5Model5Solid6Linear19IsotropicDegradableEEES6_Li0EEEvRNS_8FabArrayIT_EERKNS7_IT0_EEiiii
FN:233,_ZN5amrex4CopyINS_7BaseFabIN5Model5Solid6Linear19IsotropicDegradableEEES6_Li0EEEvRNS_8FabArrayIT_EERKNS7_IT0_EEiiiRKNS_7IntVectE
FN:233,_ZN5amrex4CopyINS_7BaseFabIN5Model5Solid6Linear5CubicEEES6_Li0EEEvRNS_8FabArrayIT_EERKNS7_IT0_EEiiiRKNS_7IntVectE
FN:233,_ZN5amrex4CopyINS_7BaseFabIN3Set7Matrix4ILi2ELi4EEEEES5_Li0EEEvRNS_8FabArrayIT_EERKNS6_IT0_EEiiiRKNS_7IntVectE
FN:233,_ZN5amrex4CopyINS_7BaseFabIN5Model5Solid6Linear9LaplacianEEES6_Li0EEEvRNS_8FabArrayIT_EERKNS7_IT0_EEiiiRKNS_7IntVectE
FN:233,_ZN5amrex4CopyINS_9FArrayBoxES1_Li0EEEvRNS_8FabArrayIT_EERKNS2_IT0_EEiiiRKNS_7IntVectE
FN:233,_ZN5amrex4CopyINS_7BaseFabIN5Model5Solid7Elastic28PseudoLinearCubicPredeformedEEES6_Li0EEEvRNS_8FabArrayIT_EERKNS7_IT0_EEiiiRKNS_7IntVectE
FN:233,_ZN5amrex4CopyINS_9IArrayBoxES1_Li0EEEvRNS_8FabArrayIT_EERKNS2_IT0_EEiiiRKNS_7IntVectE
FN:233,_ZN5amrex4CopyINS_7BaseFabIN5Eigen6MatrixIdLi2ELi2ELi0ELi2ELi2EEEEES5_Li0EEEvRNS_8FabArrayIT_EERKNS6_IT0_EEiiiRKNS_7IntVectE
FN:233,_ZN5amrex4CopyINS_7BaseFabIN5Model5Solid6Affine2J2EEES6_Li0EEEvRNS_8FabArrayIT_EERKNS7_IT0_EEiiiRKNS_7IntVectE
FN:233,_ZN5amrex4CopyINS_7BaseFabIN3Set7Matrix4ILi2ELi3EEEEES5_Li0EEEvRNS_8FabArrayIT_EERKNS6_IT0_EEiiiRKNS_7IntVectE
FN:233,_ZN5amrex4CopyINS_7BaseFabIN5Model5Solid7Elastic17PseudoLinearCubicEEES6_Li0EEEvRNS_8FabArrayIT_EERKNS7_IT0_EEiiiRKNS_7IntVectE
FN:233,_ZN5amrex4CopyINS_7BaseFabIN5Model5Solid7Elastic10NeoHookeanEEES6_Li0EEEvRNS_8FabArrayIT_EERKNS7_IT0_EEiiiRKNS_7IntVectE
FN:233,_ZN5amrex4CopyINS_7BaseFabIN5Model5Solid6Affine5CubicEEES6_Li0EEEvRNS_8FabArrayIT_EERKNS7_IT0_EEiiiRKNS_7IntVectE
FN:233,_ZN5amrex4CopyINS_7BaseFabIN5Model5Solid6Affine9HexagonalEEES6_Li0EEEvRNS_8FabArrayIT_EERKNS7_IT0_EEiiiRKNS_7IntVectE
FN:233,_ZN5amrex4CopyINS_7BaseFabIN5Model5Solid6Affine9IsotropicEEES6_Li0EEEvRNS_8FabArrayIT_EERKNS7_IT0_EEiiiRKNS_7IntVectE
FN:233,_ZN5amrex4CopyINS_7BaseFabIN3Set7Matrix4ILi2ELi1EEEEES5_Li0EEEvRNS_8FabArrayIT_EERKNS6_IT0_EEiiiRKNS_7IntVectE
FN:233,_ZN5amrex4CopyINS_7BaseFabIN5Eigen6MatrixIdLi2ELi1ELi0ELi2ELi1EEEEES5_Li0EEEvRNS_8FabArrayIT_EERKNS6_IT0_EEiiiRKNS_7IntVectE
FN:233,_ZN5amrex4CopyINS_7BaseFabIN5Model5Solid6Linear9IsotropicEEES6_Li0EEEvRNS_8FabArrayIT_EERKNS7_IT0_EEiiiRKNS_7IntVectE
FN:233,_ZN5amrex4CopyINS_7BaseFabIN3Set7Matrix4ILi2ELi6EEEEES5_Li0EEEvRNS_8FabArrayIT_EERKNS6_IT0_EEiiiRKNS_7IntVectE
FN:282,_ZN5amrex3AddINS_7BaseFabIN3Set7Matrix4ILi2ELi3EEEEEvEEvRNS_8FabArrayIT_EERKS8_iiiRKNS_7IntVectE
FN:282,_ZN5amrex3AddINS_9FArrayBoxEvEEvRNS_8FabArrayIT_EERKS4_iiiRKNS_7IntVectE
FN:282,_ZN5amrex3AddINS_7BaseFabIN3Set7Matrix4ILi2ELi6EEEEEvEEvRNS_8FabArrayIT_EERKS8_iiiRKNS_7IntVectE
FN:282,_ZN5amrex3AddINS_7BaseFabIN5Model5Solid6Affine2J2EEEvEEvRNS_8FabArrayIT_EERKS9_iiiRKNS_7IntVectE
FN:282,_ZN5amrex3AddINS_7BaseFabIN3Set7Matrix4ILi2ELi1EEEEEvEEvRNS_8FabArrayIT_EERKS8_iiiRKNS_7IntVectE
FN:282,_ZN5amrex3AddINS_7BaseFabIN5Model5Solid6Affine9IsotropicEEEvEEvRNS_8FabArrayIT_EERKS9_iiiRKNS_7IntVectE
FN:282,_ZN5amrex3AddINS_7BaseFabIN5Model5Solid6Linear19IsotropicDegradableEEEvEEvRNS_8FabArrayIT_EERKS9_iiiRKNS_7IntVectE
FN:282,_ZN5amrex3AddINS_7BaseFabIN5Model5Solid7Elastic28PseudoLinearCubicPredeformedEEEvEEvRNS_8FabArrayIT_EERKS9_iiiRKNS_7IntVectE
FN:282,_ZN5amrex3AddINS_9IArrayBoxEvEEvRNS_8FabArrayIT_EERKS4_iiiRKNS_7IntVectE
FN:282,_ZN5amrex3AddINS_7BaseFabIN5Model5Solid6Linear5CubicEEEvEEvRNS_8FabArrayIT_EERKS9_iiiRKNS_7IntVectE
FN:282,_ZN5amrex3AddINS_7BaseFabIN5Model5Solid6Affine9HexagonalEEEvEEvRNS_8FabArrayIT_EERKS9_iiiRKNS_7IntVectE
FN:282,_ZN5amrex3AddINS_7BaseFabIN5Model5Solid7Elastic10NeoHookeanEEEvEEvRNS_8FabArrayIT_EERKS9_iiiRKNS_7IntVectE
FN:282,_ZN5amrex3AddINS_7BaseFabIN3Set7Matrix4ILi2ELi4EEEEEvEEvRNS_8FabArrayIT_EERKS8_iiiRKNS_7IntVectE
FN:282,_ZN5amrex3AddINS_7BaseFabIN5Model5Solid6Affine5CubicEEEvEEvRNS_8FabArrayIT_EERKS9_iiiRKNS_7IntVectE
FN:282,_ZN5amrex3AddINS_7BaseFabIN5Eigen6MatrixIdLi2ELi2ELi0ELi2ELi2EEEEEvEEvRNS_8FabArrayIT_EERKS8_iiiRKNS_7IntVectE
FN:282,_ZN5amrex3AddINS_7BaseFabIN5Model5Solid6Linear9IsotropicEEEvEEvRNS_8FabArrayIT_EERKS9_iiiRKNS_7IntVectE
FN:282,_ZN5amrex3AddINS_7BaseFabIN5Model5Solid6Linear9LaplacianEEEvEEvRNS_8FabArrayIT_EERKS9_iiiRKNS_7IntVectE
FN:282,_ZN5amrex3AddINS_7BaseFabIN5Eigen6MatrixIdLi2ELi1ELi0ELi2ELi1EEEEEvEEvRNS_8FabArrayIT_EERKS8_iiiRKNS_7IntVectE
FN:282,_ZN5amrex3AddINS_7BaseFabIN5Model5Solid7Elastic17PseudoLinearCubicEEEvEEvRNS_8FabArrayIT_EERKS9_iiiRKNS_7IntVectE
FN:421,_ZNK5amrex8FabArrayINS_9FArrayBoxEE7FactoryEv
FN:421,_ZNK5amrex8FabArrayINS_7BaseFabIN5Model5Solid6Affine9IsotropicEEEE7FactoryEv
FN:421,_ZNK5amrex8FabArrayINS_7BaseFabIN5Model5Solid6Linear5CubicEEEE7FactoryEv
FN:421,_ZNK5amrex8FabArrayINS_7BaseFabIN5Model5Solid6Linear9LaplacianEEEE7FactoryEv
FN:421,_ZNK5amrex8FabArrayINS_7BaseFabIN5Model5Solid7Elastic10NeoHookeanEEEE7FactoryEv
FN:421,_ZNK5amrex8FabArrayINS_7BaseFabIN5Model5Solid6Affine5CubicEEEE7FactoryEv
FN:421,_ZNK5amrex8FabArrayINS_7BaseFabIN5Model5Solid6Linear19IsotropicDegradableEEEE7FactoryEv
FN:421,_ZNK5amrex8FabArrayINS_7BaseFabIN5Model5Solid7Elastic28PseudoLinearCubicPredeformedEEEE7FactoryEv
FN:421,_ZNK5amrex8FabArrayINS_7BaseFabIN5Model5Solid6Affine9HexagonalEEEE7FactoryEv
FN:421,_ZNK5amrex8FabArrayINS_7BaseFabIN5Eigen6MatrixIdLi2ELi2ELi0ELi2ELi2EEEEEE7FactoryEv
FN:421,_ZNK5amrex8FabArrayINS_7BaseFabIN5Eigen6MatrixIdLi2ELi1ELi0ELi2ELi1EEEEEE7FactoryEv
FN:421,_ZNK5amrex8FabArrayINS_7BaseFabIN5Model5Solid6Linear9IsotropicEEEE7FactoryEv
FN:421,_ZNK5amrex8FabArrayINS_7BaseFabIN5Model5Solid6Affine2J2EEEE7FactoryEv
FN:421,_ZNK5amrex8FabArrayINS_7BaseFabIN5Model5Solid7Elastic17PseudoLinearCubicEEEE7FactoryEv
FN:469,_ZNK5amrex8FabArrayINS_7BaseFabIN5Model5Solid6Affine5CubicEEEEixERKNS_6MFIterE
FN:469,_ZNK5amrex8FabArrayINS_7BaseFabIN5Model5Solid7Elastic28PseudoLinearCubicPredeformedEEEEixERKNS_6MFIterE
FN:469,_ZNK5amrex8FabArrayINS_7BaseFabIN5Model5Solid6Linear5CubicEEEEixERKNS_6MFIterE
FN:469,_ZNK5amrex8FabArrayINS_7BaseFabIN5Eigen6MatrixIdLi2ELi1ELi0ELi2ELi1EEEEEEixERKNS_6MFIterE
FN:469,_ZNK5amrex8FabArrayINS_7BaseFabIN5Model5Solid6Affine9IsotropicEEEEixERKNS_6MFIterE
FN:469,_ZNK5amrex8FabArrayINS_7BaseFabIN5Model5Solid6Linear19IsotropicDegradableEEEEixERKNS_6MFIterE
FN:469,_ZNK5amrex8FabArrayINS_7BaseFabIN5Model5Solid7Elastic17PseudoLinearCubicEEEEixERKNS_6MFIterE
FN:469,_ZNK5amrex8FabArrayINS_7BaseFabIN5Model5Solid7Elastic10NeoHookeanEEEEixERKNS_6MFIterE
FN:469,_ZNK5amrex8FabArrayINS_7BaseFabIN5Model5Solid6Affine9HexagonalEEEEixERKNS_6MFIterE
FN:469,_ZNK5amrex8FabArrayINS_7BaseFabIN5Model5Solid6Linear9IsotropicEEEEixERKNS_6MFIterE
FN:469,_ZNK5amrex8FabArrayINS_9IArrayBoxEEixERKNS_6MFIterE
FN:469,_ZNK5amrex8FabArrayINS_9FArrayBoxEEixERKNS_6MFIterE
FN:469,_ZNK5amrex8FabArrayINS_7BaseFabIN5Model5Solid6Linear9LaplacianEEEEixERKNS_6MFIterE
FN:469,_ZNK5amrex8FabArrayINS_7BaseFabIN5Eigen6MatrixIdLi2ELi2ELi0ELi2ELi2EEEEEEixERKNS_6MFIterE
FN:469,_ZNK5amrex8FabArrayINS_7BaseFabIN5Model5Solid6Affine2J2EEEEixERKNS_6MFIterE
FN:475,_ZN5amrex8FabArrayINS_7BaseFabIN5Model5Solid6Affine5CubicEEEEixERKNS_6MFIterE
FN:475,_ZN5amrex8FabArrayINS_7BaseFabIN5Eigen6MatrixIdLi2ELi2ELi0ELi2ELi2EEEEEEixERKNS_6MFIterE
FN:475,_ZN5amrex8FabArrayINS_7BaseFabIN5Model5Solid6Affine9IsotropicEEEEixERKNS_6MFIterE
FN:475,_ZN5amrex8FabArrayINS_7BaseFabIN5Model5Solid7Elastic17PseudoLinearCubicEEEEixERKNS_6MFIterE
FN:475,_ZN5amrex8FabArrayINS_7BaseFabIN5Model5Solid6Linear9IsotropicEEEEixERKNS_6MFIterE
FN:475,_ZN5amrex8FabArrayINS_9FArrayBoxEEixERKNS_6MFIterE
FN:475,_ZN5amrex8FabArrayINS_7BaseFabIN5Model5Solid6Affine2J2EEEEixERKNS_6MFIterE
FN:475,_ZN5amrex8FabArrayINS_7BaseFabIN5Model5Solid6Linear19IsotropicDegradableEEEEixERKNS_6MFIterE
FN:475,_ZN5amrex8FabArrayINS_7BaseFabIN5Eigen6MatrixIdLi2ELi1ELi0ELi2ELi1EEEEEEixERKNS_6MFIterE
FN:475,_ZN5amrex8FabArrayINS_7BaseFabIdEEEixERKNS_6MFIterE
FN:475,_ZN5amrex8FabArrayINS_7BaseFabIN5Model5Solid6Linear5CubicEEEEixERKNS_6MFIterE
FN:475,_ZN5amrex8FabArrayINS_7BaseFabIN5Model5Solid6Affine9HexagonalEEEEixERKNS_6MFIterE
FN:475,_ZN5amrex8FabArrayINS_7BaseFabIN5Model5Solid6Linear9LaplacianEEEEixERKNS_6MFIterE
FN:475,_ZN5amrex8FabArrayINS_7BaseFabIN5Model5Solid7Elastic10NeoHookeanEEEEixERKNS_6MFIterE
FN:475,_ZN5amrex8FabArrayINS_7BaseFabIN5Model5Solid7Elastic28PseudoLinearCubicPredeformedEEEEixERKNS_6MFIterE
FN:478,_ZN5amrex8FabArrayINS_9FArrayBoxEE3getERKNS_6MFIterE
FN:481,_ZNK5amrex8FabArrayINS_9IArrayBoxEEixEi
FN:481,_ZNK5amrex8FabArrayINS_7BaseFabIN5Model5Solid6Linear9LaplacianEEEEixEi
FN:481,_ZNK5amrex8FabArrayINS_7BaseFabIN5Model5Solid7Elastic10NeoHookeanEEEEixEi
FN:481,_ZNK5amrex8FabArrayINS_7BaseFabIN5Eigen6MatrixIdLi2ELi1ELi0ELi2ELi1EEEEEEixEi
FN:481,_ZNK5amrex8FabArrayINS_7BaseFabIN5Model5Solid7Elastic28PseudoLinearCubicPredeformedEEEEixEi
FN:481,_ZNK5amrex8FabArrayINS_7BaseFabIN5Model5Solid7Elastic17PseudoLinearCubicEEEEixEi
FN:481,_ZNK5amrex8FabArrayINS_7BaseFabIN5Eigen6MatrixIdLi2ELi2ELi0ELi2ELi2EEEEEEixEi
FN:481,_ZNK5amrex8FabArrayINS_9FArrayBoxEEixEi
FN:481,_ZNK5amrex8FabArrayINS_7BaseFabIN3Set7Matrix4ILi2ELi3EEEEEEixEi
FN:481,_ZNK5amrex8FabArrayINS_7BaseFabIN5Model5Solid6Affine5CubicEEEEixEi
FN:481,_ZNK5amrex8FabArrayINS_7BaseFabIN5Model5Solid6Affine2J2EEEEixEi
FN:481,_ZNK5amrex8FabArrayINS_7BaseFabIN5Model5Solid6Linear9IsotropicEEEEixEi
FN:481,_ZNK5amrex8FabArrayINS_7BaseFabIN5Model5Solid6Affine9IsotropicEEEEixEi
FN:481,_ZNK5amrex8FabArrayINS_7BaseFabIN5Model5Solid6Linear19IsotropicDegradableEEEEixEi
FN:481,_ZNK5amrex8FabArrayINS_7BaseFabIN3Set7Matrix4ILi2ELi4EEEEEEixEi
FN:481,_ZNK5amrex8FabArrayINS_7BaseFabIN3Set7Matrix4ILi2ELi1EEEEEEixEi
FN:481,_ZNK5amrex8FabArrayINS_7BaseFabIN5Model5Solid6Affine9HexagonalEEEEixEi
FN:481,_ZNK5amrex8FabArrayINS_7BaseFabIN5Model5Solid6Linear5CubicEEEEixEi
FN:481,_ZNK5amrex8FabArrayINS_7BaseFabIN3Set7Matrix4ILi2ELi6EEEEEEixEi
FN:487,_ZN5amrex8FabArrayINS_7BaseFabIN3Set7Matrix4ILi2ELi4EEEEEEixEi
FN:487,_ZN5amrex8FabArrayINS_7BaseFabIN3Set7Matrix4ILi2ELi1EEEEEEixEi
FN:487,_ZN5amrex8FabArrayINS_7BaseFabIN5Eigen6MatrixIdLi2ELi2ELi0ELi2ELi2EEEEEEixEi
FN:487,_ZN5amrex8FabArrayINS_7BaseFabIN5Model5Solid7Elastic17PseudoLinearCubicEEEEixEi
FN:487,_ZN5amrex8FabArrayINS_7BaseFabIN5Model5Solid6Linear19IsotropicDegradableEEEEixEi
FN:487,_ZN5amrex8FabArrayINS_9IArrayBoxEEixEi
FN:487,_ZN5amrex8FabArrayINS_7BaseFabIN5Model5Solid7Elastic10NeoHookeanEEEEixEi
FN:487,_ZN5amrex8FabArrayINS_7BaseFabIN5Model5Solid6Linear5CubicEEEEixEi
FN:487,_ZN5amrex8FabArrayINS_7BaseFabIN5Model5Solid6Linear9IsotropicEEEEixEi
FN:487,_ZN5amrex8FabArrayINS_7BaseFabIN5Model5Solid6Affine5CubicEEEEixEi
FN:487,_ZN5amrex8FabArrayINS_7BaseFabIN3Set7Matrix4ILi2ELi3EEEEEEixEi
FN:487,_ZN5amrex8FabArrayINS_7BaseFabIN5Model5Solid6Affine9HexagonalEEEEixEi
FN:487,_ZN5amrex8FabArrayINS_7BaseFabIN3Set7Matrix4ILi2ELi6EEEEEEixEi
FN:487,_ZN5amrex8FabArrayINS_7BaseFabIN5Model5Solid7Elastic28PseudoLinearCubicPredeformedEEEEixEi
FN:487,_ZN5amrex8FabArrayINS_7BaseFabIN5Eigen6MatrixIdLi2ELi1ELi0ELi2ELi1EEEEEEixEi
FN:487,_ZN5amrex8FabArrayINS_7BaseFabIN5Model5Solid6Affine9IsotropicEEEEixEi
FN:487,_ZN5amrex8FabArrayINS_7BaseFabIN5Model5Solid6Affine2J2EEEEixEi
FN:487,_ZN5amrex8FabArrayINS_7BaseFabIdEEEixEi
FN:487,_ZN5amrex8FabArrayINS_7BaseFabIN5Model5Solid6Linear9LaplacianEEEEixEi
FN:487,_ZN5amrex8FabArrayINS_9FArrayBoxEEixEi
FN:490,_ZN5amrex8FabArrayINS_7BaseFabIN3Set7Matrix4ILi2ELi3EEEEEE3getEi
FN:490,_ZN5amrex8FabArrayINS_7BaseFabIN3Set7Matrix4ILi2ELi6EEEEEE3getEi
FN:490,_ZN5amrex8FabArrayINS_9IArrayBoxEE3getEi
FN:490,_ZN5amrex8FabArrayINS_9FArrayBoxEE3getEi
FN:490,_ZN5amrex8FabArrayINS_7BaseFabIN5Model5Solid7Elastic28PseudoLinearCubicPredeformedEEEE3getEi
FN:490,_ZN5amrex8FabArrayINS_7BaseFabIN5Model5Solid7Elastic10NeoHookeanEEEE3getEi
FN:490,_ZN5amrex8FabArrayINS_7BaseFabIN5Model5Solid6Linear9IsotropicEEEE3getEi
FN:490,_ZN5amrex8FabArrayINS_7BaseFabIN5Model5Solid6Affine2J2EEEE3getEi
FN:490,_ZN5amrex8FabArrayINS_7BaseFabIN5Model5Solid6Linear9LaplacianEEEE3getEi
FN:490,_ZN5amrex8FabArrayINS_7BaseFabIN5Model5Solid7Elastic17PseudoLinearCubicEEEE3getEi
FN:490,_ZN5amrex8FabArrayINS_7BaseFabIN5Model5Solid6Linear5CubicEEEE3getEi
FN:490,_ZN5amrex8FabArrayINS_7BaseFabIN3Set7Matrix4ILi2ELi4EEEEEE3getEi
FN:490,_ZN5amrex8FabArrayINS_7BaseFabIN5Eigen6MatrixIdLi2ELi1ELi0ELi2ELi1EEEEEE3getEi
FN:490,_ZN5amrex8FabArrayINS_7BaseFabIN5Model5Solid6Affine9HexagonalEEEE3getEi
FN:490,_ZN5amrex8FabArrayINS_7BaseFabIdEEE3getEi
FN:490,_ZN5amrex8FabArrayINS_7BaseFabIN5Eigen6MatrixIdLi2ELi2ELi0ELi2ELi2EEEEEE3getEi
FN:490,_ZN5amrex8FabArrayINS_7BaseFabIN5Model5Solid6Affine5CubicEEEE3getEi
FN:490,_ZN5amrex8FabArrayINS_7BaseFabIN5Model5Solid6Affine9IsotropicEEEE3getEi
FN:490,_ZN5amrex8FabArrayINS_7BaseFabIN3Set7Matrix4ILi2ELi1EEEEEE3getEi
FN:490,_ZN5amrex8FabArrayINS_7BaseFabIN5Model5Solid6Linear19IsotropicDegradableEEEE3getEi
FN:741,_ZN5amrex8FabArrayINS_9FArrayBoxEE12ParallelCopyERKS2_RKNS_11PeriodicityENS_12FabArrayBase4CpOpE
FN:774,_ZN5amrex8FabArrayINS_7BaseFabIN5Model5Solid6Affine9HexagonalEEEE12ParallelCopyERKS7_iiiRKNS_11PeriodicityENS_12FabArrayBase4CpOpE
FN:774,_ZN5amrex8FabArrayINS_7BaseFabIN5Model5Solid6Linear5CubicEEEE12ParallelCopyERKS7_iiiRKNS_11PeriodicityENS_12FabArrayBase4CpOpE
FN:774,_ZN5amrex8FabArrayINS_7BaseFabIN5Model5Solid6Affine2J2EEEE12ParallelCopyERKS7_iiiRKNS_11PeriodicityENS_12FabArrayBase4CpOpE
FN:774,_ZN5amrex8FabArrayINS_7BaseFabIN5Eigen6MatrixIdLi2ELi2ELi0ELi2ELi2EEEEEE12ParallelCopyERKS6_iiiRKNS_11PeriodicityENS_12FabArrayBase4CpOpE
FN:774,_ZN5amrex8FabArrayINS_7BaseFabIN5Eigen6MatrixIdLi2ELi1ELi0ELi2ELi1EEEEEE12ParallelCopyERKS6_iiiRKNS_11PeriodicityENS_12FabArrayBase4CpOpE
FN:774,_ZN5amrex8FabArrayINS_7BaseFabIN5Model5Solid7Elastic10NeoHookeanEEEE12ParallelCopyERKS7_iiiRKNS_11PeriodicityENS_12FabArrayBase4CpOpE
FN:774,_ZN5amrex8FabArrayINS_7BaseFabIN5Model5Solid6Linear9LaplacianEEEE12ParallelCopyERKS7_iiiRKNS_11PeriodicityENS_12FabArrayBase4CpOpE
FN:774,_ZN5amrex8FabArrayINS_7BaseFabIN5Model5Solid6Linear9IsotropicEEEE12ParallelCopyERKS7_iiiRKNS_11PeriodicityENS_12FabArrayBase4CpOpE
FN:774,_ZN5amrex8FabArrayINS_7BaseFabIN5Model5Solid6Affine5CubicEEEE12ParallelCopyERKS7_iiiRKNS_11PeriodicityENS_12FabArrayBase4CpOpE
FN:774,_ZN5amrex8FabArrayINS_7BaseFabIN5Model5Solid7Elastic17PseudoLinearCubicEEEE12ParallelCopyERKS7_iiiRKNS_11PeriodicityENS_12FabArrayBase4CpOpE
FN:774,_ZN5amrex8FabArrayINS_9FArrayBoxEE12ParallelCopyERKS2_iiiRKNS_11PeriodicityENS_12FabArrayBase4CpOpE
FN:774,_ZN5amrex8FabArrayINS_7BaseFabIN5Model5Solid6Linear19IsotropicDegradableEEEE12ParallelCopyERKS7_iiiRKNS_11PeriodicityENS_12FabArrayBase4CpOpE
FN:774,_ZN5amrex8FabArrayINS_7BaseFabIN5Model5Solid7Elastic28PseudoLinearCubicPredeformedEEEE12ParallelCopyERKS7_iiiRKNS_11PeriodicityENS_12FabArrayBase4CpOpE
FN:774,_ZN5amrex8FabArrayINS_7BaseFabIN5Model5Solid6Affine9IsotropicEEEE12ParallelCopyERKS7_iiiRKNS_11PeriodicityENS_12FabArrayBase4CpOpE
FN:823,_ZN5amrex8FabArrayINS_7BaseFabIN3Set7Matrix4ILi2ELi1EEEEEE12ParallelCopyERKS6_iiiiiRKNS_11PeriodicityENS_12FabArrayBase4CpOpE
FN:823,_ZN5amrex8FabArrayINS_7BaseFabIN5Model5Solid6Affine5CubicEEEE12ParallelCopyERKS7_iiiiiRKNS_11PeriodicityENS_12FabArrayBase4CpOpE
FN:823,_ZN5amrex8FabArrayINS_7BaseFabIN5Model5Solid6Affine9HexagonalEEEE12ParallelCopyERKS7_iiiiiRKNS_11PeriodicityENS_12FabArrayBase4CpOpE
FN:823,_ZN5amrex8FabArrayINS_7BaseFabIN5Model5Solid6Linear19IsotropicDegradableEEEE12ParallelCopyERKS7_iiiiiRKNS_11PeriodicityENS_12FabArrayBase4CpOpE
FN:823,_ZN5amrex8FabArrayINS_7BaseFabIN5Eigen6MatrixIdLi2ELi1ELi0ELi2ELi1EEEEEE12ParallelCopyERKS6_iiiiiRKNS_11PeriodicityENS_12FabArrayBase4CpOpE
FN:823,_ZN5amrex8FabArrayINS_9IArrayBoxEE12ParallelCopyERKS2_iiiiiRKNS_11PeriodicityENS_12FabArrayBase4CpOpE
FN:823,_ZN5amrex8FabArrayINS_7BaseFabIN5Model5Solid6Linear9LaplacianEEEE12ParallelCopyERKS7_iiiiiRKNS_11PeriodicityENS_12FabArrayBase4CpOpE
FN:823,_ZN5amrex8FabArrayINS_7BaseFabIN5Model5Solid6Affine9IsotropicEEEE12ParallelCopyERKS7_iiiiiRKNS_11PeriodicityENS_12FabArrayBase4CpOpE
FN:823,_ZN5amrex8FabArrayINS_7BaseFabIN5Model5Solid6Affine2J2EEEE12ParallelCopyERKS7_iiiiiRKNS_11PeriodicityENS_12FabArrayBase4CpOpE
FN:823,_ZN5amrex8FabArrayINS_7BaseFabIN3Set7Matrix4ILi2ELi3EEEEEE12ParallelCopyERKS6_iiiiiRKNS_11PeriodicityENS_12FabArrayBase4CpOpE
FN:823,_ZN5amrex8FabArrayINS_7BaseFabIN5Model5Solid7Elastic10NeoHookeanEEEE12ParallelCopyERKS7_iiiiiRKNS_11PeriodicityENS_12FabArrayBase4CpOpE
FN:823,_ZN5amrex8FabArrayINS_7BaseFabIN5Eigen6MatrixIdLi2ELi2ELi0ELi2ELi2EEEEEE12ParallelCopyERKS6_iiiiiRKNS_11PeriodicityENS_12FabArrayBase4CpOpE
FN:823,_ZN5amrex8FabArrayINS_9FArrayBoxEE12ParallelCopyERKS2_iiiiiRKNS_11PeriodicityENS_12FabArrayBase4CpOpE
FN:823,_ZN5amrex8FabArrayINS_7BaseFabIN5Model5Solid6Linear5CubicEEEE12ParallelCopyERKS7_iiiiiRKNS_11PeriodicityENS_12FabArrayBase4CpOpE
FN:823,_ZN5amrex8FabArrayINS_7BaseFabIN5Model5Solid7Elastic28PseudoLinearCubicPredeformedEEEE12ParallelCopyERKS7_iiiiiRKNS_11PeriodicityENS_12FabArrayBase4CpOpE
FN:823,_ZN5amrex8FabArrayINS_7BaseFabIN3Set7Matrix4ILi2ELi6EEEEEE12ParallelCopyERKS6_iiiiiRKNS_11PeriodicityENS_12FabArrayBase4CpOpE
FN:823,_ZN5amrex8FabArrayINS_7BaseFabIN3Set7Matrix4ILi2ELi4EEEEEE12ParallelCopyERKS6_iiiiiRKNS_11PeriodicityENS_12FabArrayBase4CpOpE
FN:823,_ZN5amrex8FabArrayINS_7BaseFabIN5Model5Solid6Linear9IsotropicEEEE12ParallelCopyERKS7_iiiiiRKNS_11PeriodicityENS_12FabArrayBase4CpOpE
FN:823,_ZN5amrex8FabArrayINS_7BaseFabIN5Model5Solid7Elastic17PseudoLinearCubicEEEE12ParallelCopyERKS7_iiiiiRKNS_11PeriodicityENS_12FabArrayBase4CpOpE
FN:1254,_ZN5amrex8FabArrayINS_7BaseFabIN3Set7Matrix4ILi2ELi1EEEEEE5ShMemC2Ev
FN:1254,_ZN5amrex8FabArrayINS_7BaseFabIN5Model5Solid6Linear5CubicEEEE5ShMemC2Ev
FN:1254,_ZN5amrex8FabArrayINS_7BaseFabIN5Eigen6MatrixIdLi2ELi1ELi0ELi2ELi1EEEEEE5ShMemC2Ev
FN:1254,_ZN5amrex8FabArrayINS_7BaseFabIN5Model5Solid6Linear9LaplacianEEEE5ShMemC2Ev
FN:1254,_ZN5amrex8FabArrayINS_7BaseFabIN5Model5Solid6Linear9IsotropicEEEE5ShMemC2Ev
FN:1254,_ZN5amrex8FabArrayINS_7BaseFabIN3Set7Matrix4ILi2ELi6EEEEEE5ShMemC2Ev
FN:1254,_ZN5amrex8FabArrayINS_7BaseFabIN5Eigen6MatrixIdLi2ELi2ELi0ELi2ELi2EEEEEE5ShMemC2Ev
FN:1254,_ZN5amrex8FabArrayINS_7BaseFabIN5Model5Solid6Affine9HexagonalEEEE5ShMemC2Ev
FN:1254,_ZN5amrex8FabArrayINS_7BaseFabIN5Model5Solid6Affine9IsotropicEEEE5ShMemC2Ev
FN:1254,_ZN5amrex8FabArrayINS_7BaseFabIN5Model5Solid7Elastic10NeoHookeanEEEE5ShMemC2Ev
FN:1254,_ZN5amrex8FabArrayINS_7BaseFabIN5Model5Solid6Linear19IsotropicDegradableEEEE5ShMemC2Ev
FN:1254,_ZN5amrex8FabArrayINS_7BaseFabIN5Model5Solid7Elastic28PseudoLinearCubicPredeformedEEEE5ShMemC2Ev
FN:1254,_ZN5amrex8FabArrayINS_9FArrayBoxEE5ShMemC2Ev
FN:1254,_ZN5amrex8FabArrayINS_7BaseFabIN5Model5Solid6Affine5CubicEEEE5ShMemC2Ev
FN:1254,_ZN5amrex8FabArrayINS_7BaseFabIN3Set7Matrix4ILi2ELi4EEEEEE5ShMemC2Ev
FN:1254,_ZN5amrex8FabArrayINS_7BaseFabIN5Model5Solid7Elastic17PseudoLinearCubicEEEE5ShMemC2Ev
FN:1254,_ZN5amrex8FabArrayINS_7BaseFabIN5Model5Solid6Affine2J2EEEE5ShMemC2Ev
FN:1254,_ZN5amrex8FabArrayINS_7BaseFabIN3Set7Matrix4ILi2ELi3EEEEEE5ShMemC2Ev
FN:1256,_ZN5amrex8FabArrayINS_7BaseFabIN5Model5Solid7Elastic17PseudoLinearCubicEEEE5ShMemD2Ev
FN:1256,_ZN5amrex8FabArrayINS_4MaskEE5ShMemD2Ev
FN:1256,_ZN5amrex8FabArrayINS_7BaseFabIN5Model5Solid6Linear19IsotropicDegradableEEEE5ShMemD2Ev
FN:1256,_ZN5amrex8FabArrayINS_7BaseFabIN5Model5Solid7Elastic28PseudoLinearCubicPredeformedEEEE5ShMemD2Ev
FN:1256,_ZN5amrex8FabArrayINS_7BaseFabIN5Model5Solid6Linear5CubicEEEE5ShMemD2Ev
FN:1256,_ZN5amrex8FabArrayINS_7BaseFabIN3Set7Matrix4ILi2ELi3EEEEEE5ShMemD2Ev
FN:1256,_ZN5amrex8FabArrayINS_7BaseFabIN3Set7Matrix4ILi2ELi4EEEEEE5ShMemD2Ev
FN:1256,_ZN5amrex8FabArrayINS_7BaseFabIN3Set7Matrix4ILi2ELi1EEEEEE5ShMemD2Ev
FN:1256,_ZN5amrex8FabArrayINS_9FArrayBoxEE5ShMemD2Ev
FN:1256,_ZN5amrex8FabArrayINS_7BaseFabIN5Model5Solid6Linear9LaplacianEEEE5ShMemD2Ev
FN:1256,_ZN5amrex8FabArrayINS_7BaseFabIN5Model5Solid7Elastic10NeoHookeanEEEE5ShMemD2Ev
FN:1256,_ZN5amrex8FabArrayINS_7BaseFabIN5Eigen6MatrixIdLi2ELi2ELi0ELi2ELi2EEEEEE5ShMemD2Ev
FN:1256,_ZN5amrex8FabArrayINS_7BaseFabIN5Model5Solid6Affine9IsotropicEEEE5ShMemD2Ev
FN:1256,_ZN5amrex8FabArrayINS_7BaseFabIN5Eigen6MatrixIdLi2ELi1ELi0ELi2ELi1EEEEEE5ShMemD2Ev
FN:1256,_ZN5amrex8FabArrayINS_9IArrayBoxEE5ShMemD2Ev
FN:1256,_ZN5amrex8FabArrayINS_7BaseFabIN3Set7Matrix4ILi2ELi6EEEEEE5ShMemD2Ev
FN:1256,_ZN5amrex8FabArrayINS_7BaseFabIN5Model5Solid6Affine9HexagonalEEEE5ShMemD2Ev
FN:1256,_ZN5amrex8FabArrayINS_7BaseFabIN5Model5Solid6Affine5CubicEEEE5ShMemD2Ev
FN:1256,_ZN5amrex8FabArrayINS_7BaseFabIN5Model5Solid6Linear9IsotropicEEEE5ShMemD2Ev
FN:1256,_ZN5amrex8FabArrayINS_7BaseFabIN5Model5Solid6Affine2J2EEEE5ShMemD2Ev
FN:1266,_ZN5amrex8FabArrayINS_7BaseFabIN5Eigen6MatrixIdLi2ELi2ELi0ELi2ELi2EEEEEE5ShMemC2EOS7_
FN:1266,_ZN5amrex8FabArrayINS_7BaseFabIN5Model5Solid6Affine2J2EEEE5ShMemC2EOS8_
FN:1266,_ZN5amrex8FabArrayINS_7BaseFabIN5Model5Solid6Affine9HexagonalEEEE5ShMemC2EOS8_
FN:1266,_ZN5amrex8FabArrayINS_7BaseFabIN5Model5Solid6Linear9IsotropicEEEE5ShMemC2EOS8_
FN:1266,_ZN5amrex8FabArrayINS_7BaseFabIN5Model5Solid6Linear5CubicEEEE5ShMemC2EOS8_
FN:1266,_ZN5amrex8FabArrayINS_7BaseFabIN5Model5Solid7Elastic10NeoHookeanEEEE5ShMemC2EOS8_
FN:1266,_ZN5amrex8FabArrayINS_7BaseFabIN5Model5Solid6Affine5CubicEEEE5ShMemC2EOS8_
FN:1266,_ZN5amrex8FabArrayINS_7BaseFabIN5Model5Solid6Linear19IsotropicDegradableEEEE5ShMemC2EOS8_
FN:1266,_ZN5amrex8FabArrayINS_7BaseFabIN5Model5Solid7Elastic28PseudoLinearCubicPredeformedEEEE5ShMemC2EOS8_
FN:1266,_ZN5amrex8FabArrayINS_7BaseFabIN5Model5Solid6Linear9LaplacianEEEE5ShMemC2EOS8_
FN:1266,_ZN5amrex8FabArrayINS_7BaseFabIN5Model5Solid6Affine9IsotropicEEEE5ShMemC2EOS8_
FN:1266,_ZN5amrex8FabArrayINS_7BaseFabIN5Model5Solid7Elastic17PseudoLinearCubicEEEE5ShMemC2EOS8_
FN:1266,_ZN5amrex8FabArrayINS_7BaseFabIN5Eigen6MatrixIdLi2ELi1ELi0ELi2ELi1EEEEEE5ShMemC2EOS7_
FN:1277,_ZN5amrex8FabArrayINS_7BaseFabIN5Model5Solid6Affine9IsotropicEEEE5ShMemaSEOS8_
FN:1277,_ZN5amrex8FabArrayINS_9FArrayBoxEE5ShMemaSEOS3_
FN:1277,_ZN5amrex8FabArrayINS_7BaseFabIN5Model5Solid6Affine2J2EEEE5ShMemaSEOS8_
FN:1277,_ZN5amrex8FabArrayINS_7BaseFabIN5Eigen6MatrixIdLi2ELi1ELi0ELi2ELi1EEEEEE5ShMemaSEOS7_
FN:1277,_ZN5amrex8FabArrayINS_7BaseFabIN5Model5Solid6Affine5CubicEEEE5ShMemaSEOS8_
FN:1277,_ZN5amrex8FabArrayINS_7BaseFabIN5Model5Solid7Elastic10NeoHookeanEEEE5ShMemaSEOS8_
FN:1277,_ZN5amrex8FabArrayINS_7BaseFabIN5Eigen6MatrixIdLi2ELi2ELi0ELi2ELi2EEEEEE5ShMemaSEOS7_
FN:1277,_ZN5amrex8FabArrayINS_7BaseFabIN5Model5Solid7Elastic28PseudoLinearCubicPredeformedEEEE5ShMemaSEOS8_
FN:1277,_ZN5amrex8FabArrayINS_7BaseFabIN5Model5Solid7Elastic17PseudoLinearCubicEEEE5ShMemaSEOS8_
FN:1277,_ZN5amrex8FabArrayINS_7BaseFabIN5Model5Solid6Affine9HexagonalEEEE5ShMemaSEOS8_
FN:1277,_ZN5amrex8FabArrayINS_7BaseFabIN5Model5Solid6Linear19IsotropicDegradableEEEE5ShMemaSEOS8_
FN:1277,_ZN5amrex8FabArrayINS_7BaseFabIN5Model5Solid6Linear5CubicEEEE5ShMemaSEOS8_
FN:1277,_ZN5amrex8FabArrayINS_7BaseFabIN5Model5Solid6Linear9IsotropicEEEE5ShMemaSEOS8_
FN:1277,_ZN5amrex8FabArrayINS_7BaseFabIN5Model5Solid6Linear9LaplacianEEEE5ShMemaSEOS8_
FN:1456,_ZN5amrex8FabArrayINS_9IArrayBoxEE6fabPtrERKNS_6MFIterE
FN:1456,_ZN5amrex8FabArrayINS_7BaseFabIN3Set7Matrix4ILi2ELi1EEEEEE6fabPtrERKNS_6MFIterE
FN:1456,_ZN5amrex8FabArrayINS_7BaseFabIN5Model5Solid6Linear19IsotropicDegradableEEEE6fabPtrERKNS_6MFIterE
FN:1456,_ZN5amrex8FabArrayINS_7BaseFabIN5Model5Solid7Elastic28PseudoLinearCubicPredeformedEEEE6fabPtrERKNS_6MFIterE
FN:1456,_ZN5amrex8FabArrayINS_7BaseFabIN5Model5Solid6Affine9HexagonalEEEE6fabPtrERKNS_6MFIterE
FN:1456,_ZN5amrex8FabArrayINS_7BaseFabIN5Model5Solid6Linear5CubicEEEE6fabPtrERKNS_6MFIterE
FN:1456,_ZN5amrex8FabArrayINS_7BaseFabIN3Set7Matrix4ILi2ELi3EEEEEE6fabPtrERKNS_6MFIterE
FN:1456,_ZN5amrex8FabArrayINS_7BaseFabIN5Model5Solid6Linear9IsotropicEEEE6fabPtrERKNS_6MFIterE
FN:1456,_ZN5amrex8FabArrayINS_7BaseFabIN5Model5Solid6Affine9IsotropicEEEE6fabPtrERKNS_6MFIterE
FN:1456,_ZN5amrex8FabArrayINS_7BaseFabIN5Eigen6MatrixIdLi2ELi2ELi0ELi2ELi2EEEEEE6fabPtrERKNS_6MFIterE
FN:1456,_ZN5amrex8FabArrayINS_7BaseFabIN5Eigen6MatrixIdLi2ELi1ELi0ELi2ELi1EEEEEE6fabPtrERKNS_6MFIterE
FN:1456,_ZN5amrex8FabArrayINS_6TagBoxEE6fabPtrERKNS_6MFIterE
FN:1456,_ZN5amrex8FabArrayINS_7BaseFabIN5Model5Solid6Affine2J2EEEE6fabPtrERKNS_6MFIterE
FN:1456,_ZN5amrex8FabArrayINS_7BaseFabIN5Model5Solid7Elastic17PseudoLinearCubicEEEE6fabPtrERKNS_6MFIterE
FN:1456,_ZN5amrex8FabArrayINS_9FArrayBoxEE6fabPtrERKNS_6MFIterE
FN:1456,_ZN5amrex8FabArrayINS_7BaseFabIdEEE6fabPtrERKNS_6MFIterE
FN:1456,_ZN5amrex8FabArrayINS_7BaseFabIN5Model5Solid6Affine5CubicEEEE6fabPtrERKNS_6MFIterE
FN:1456,_ZN5amrex8FabArrayINS_7BaseFabIN5Model5Solid7Elastic10NeoHookeanEEEE6fabPtrERKNS_6MFIterE
FN:1456,_ZN5amrex8FabArrayINS_7BaseFabIN3Set7Matrix4ILi2ELi6EEEEEE6fabPtrERKNS_6MFIterE
FN:1456,_ZN5amrex8FabArrayINS_7BaseFabIN5Model5Solid6Linear9LaplacianEEEE6fabPtrERKNS_6MFIterE
FN:1456,_ZN5amrex8FabArrayINS_7BaseFabIN3Set7Matrix4ILi2ELi4EEEEEE6fabPtrERKNS_6MFIterE
FN:1466,_ZNK5amrex8FabArrayINS_7BaseFabIN5Eigen6MatrixIdLi2ELi1ELi0ELi2ELi1EEEEEE6fabPtrERKNS_6MFIterE
FN:1466,_ZNK5amrex8FabArrayINS_7BaseFabIN5Model5Solid6Affine5CubicEEEE6fabPtrERKNS_6MFIterE
FN:1466,_ZNK5amrex8FabArrayINS_7BaseFabIN5Eigen6MatrixIdLi2ELi2ELi0ELi2ELi2EEEEEE6fabPtrERKNS_6MFIterE
FN:1466,_ZNK5amrex8FabArrayINS_7BaseFabIN5Model5Solid7Elastic10NeoHookeanEEEE6fabPtrERKNS_6MFIterE
FN:1466,_ZNK5amrex8FabArrayINS_7BaseFabIN5Model5Solid6Affine2J2EEEE6fabPtrERKNS_6MFIterE
FN:1466,_ZNK5amrex8FabArrayINS_7BaseFabIN3Set7Matrix4ILi2ELi6EEEEEE6fabPtrERKNS_6MFIterE
FN:1466,_ZNK5amrex8FabArrayINS_9IArrayBoxEE6fabPtrERKNS_6MFIterE
FN:1466,_ZNK5amrex8FabArrayINS_7BaseFabIN3Set7Matrix4ILi2ELi4EEEEEE6fabPtrERKNS_6MFIterE
FN:1466,_ZNK5amrex8FabArrayINS_7BaseFabIN3Set7Matrix4ILi2ELi3EEEEEE6fabPtrERKNS_6MFIterE
FN:1466,_ZNK5amrex8FabArrayINS_7BaseFabIN5Model5Solid6Affine9HexagonalEEEE6fabPtrERKNS_6MFIterE
FN:1466,_ZNK5amrex8FabArrayINS_7BaseFabIN5Model5Solid6Linear19IsotropicDegradableEEEE6fabPtrERKNS_6MFIterE
FN:1466,_ZNK5amrex8FabArrayINS_7BaseFabIN5Model5Solid6Affine9IsotropicEEEE6fabPtrERKNS_6MFIterE
FN:1466,_ZNK5amrex8FabArrayINS_7BaseFabIN5Model5Solid6Linear9LaplacianEEEE6fabPtrERKNS_6MFIterE
FN:1466,_ZNK5amrex8FabArrayINS_9FArrayBoxEE6fabPtrERKNS_6MFIterE
FN:1466,_ZNK5amrex8FabArrayINS_7BaseFabIN3Set7Matrix4ILi2ELi1EEEEEE6fabPtrERKNS_6MFIterE
FN:1466,_ZNK5amrex8FabArrayINS_7BaseFabIN5Model5Solid7Elastic17PseudoLinearCubicEEEE6fabPtrERKNS_6MFIterE
FN:1466,_ZNK5amrex8FabArrayINS_7BaseFabIN5Model5Solid6Linear5CubicEEEE6fabPtrERKNS_6MFIterE
FN:1466,_ZNK5amrex8FabArrayINS_7BaseFabIN5Model5Solid7Elastic28PseudoLinearCubicPredeformedEEEE6fabPtrERKNS_6MFIterE
FN:1466,_ZNK5amrex8FabArrayINS_7BaseFabIN5Model5Solid6Linear9IsotropicEEEE6fabPtrERKNS_6MFIterE
FN:1476,_ZN5amrex8FabArrayINS_7BaseFabIdEEE6fabPtrEi
FN:1476,_ZN5amrex8FabArrayINS_7BaseFabIN5Eigen6MatrixIdLi2ELi2ELi0ELi2ELi2EEEEEE6fabPtrEi
FN:1476,_ZN5amrex8FabArrayINS_7BaseFabIN5Model5Solid6Linear19IsotropicDegradableEEEE6fabPtrEi
FN:1476,_ZN5amrex8FabArrayINS_9IArrayBoxEE6fabPtrEi
FN:1476,_ZN5amrex8FabArrayINS_7BaseFabIN5Model5Solid7Elastic10NeoHookeanEEEE6fabPtrEi
FN:1476,_ZN5amrex8FabArrayINS_7BaseFabIN3Set7Matrix4ILi2ELi4EEEEEE6fabPtrEi
FN:1476,_ZN5amrex8FabArrayINS_7BaseFabIN5Model5Solid6Affine5CubicEEEE6fabPtrEi
FN:1476,_ZN5amrex8FabArrayINS_7BaseFabIN5Eigen6MatrixIdLi2ELi1ELi0ELi2ELi1EEEEEE6fabPtrEi
FN:1476,_ZN5amrex8FabArrayINS_9FArrayBoxEE6fabPtrEi
FN:1476,_ZN5amrex8FabArrayINS_7BaseFabIN3Set7Matrix4ILi2ELi3EEEEEE6fabPtrEi
FN:1476,_ZN5amrex8FabArrayINS_7BaseFabIN5Model5Solid6Affine2J2EEEE6fabPtrEi
FN:1476,_ZN5amrex8FabArrayINS_7BaseFabIN5Model5Solid6Affine9HexagonalEEEE6fabPtrEi
FN:1476,_ZN5amrex8FabArrayINS_7BaseFabIN5Model5Solid7Elastic17PseudoLinearCubicEEEE6fabPtrEi
FN:1476,_ZN5amrex8FabArrayINS_7BaseFabIN3Set7Matrix4ILi2ELi6EEEEEE6fabPtrEi
FN:1476,_ZN5amrex8FabArrayINS_7BaseFabIN5Model5Solid6Linear5CubicEEEE6fabPtrEi
FN:1476,_ZN5amrex8FabArrayINS_7BaseFabIN5Model5Solid6Affine9IsotropicEEEE6fabPtrEi
FN:1476,_ZN5amrex8FabArrayINS_7BaseFabIN3Set7Matrix4ILi2ELi1EEEEEE6fabPtrEi
FN:1476,_ZN5amrex8FabArrayINS_7BaseFabIN5Model5Solid7Elastic28PseudoLinearCubicPredeformedEEEE6fabPtrEi
FN:1476,_ZN5amrex8FabArrayINS_7BaseFabIN5Model5Solid6Linear9IsotropicEEEE6fabPtrEi
FN:1476,_ZN5amrex8FabArrayINS_7BaseFabIN5Model5Solid6Linear9LaplacianEEEE6fabPtrEi
FN:1485,_ZNK5amrex8FabArrayINS_7BaseFabIN3Set7Matrix4ILi2ELi3EEEEEE6fabPtrEi
FN:1485,_ZNK5amrex8FabArrayINS_7BaseFabIN5Model5Solid7Elastic28PseudoLinearCubicPredeformedEEEE6fabPtrEi
FN:1485,_ZNK5amrex8FabArrayINS_9IArrayBoxEE6fabPtrEi
FN:1485,_ZNK5amrex8FabArrayINS_7BaseFabIN5Model5Solid6Linear9LaplacianEEEE6fabPtrEi
FN:1485,_ZNK5amrex8FabArrayINS_7BaseFabIN5Model5Solid7Elastic17PseudoLinearCubicEEEE6fabPtrEi
FN:1485,_ZNK5amrex8FabArrayINS_7BaseFabIN5Model5Solid6Affine9HexagonalEEEE6fabPtrEi
FN:1485,_ZNK5amrex8FabArrayINS_7BaseFabIN3Set7Matrix4ILi2ELi4EEEEEE6fabPtrEi
FN:1485,_ZNK5amrex8FabArrayINS_7BaseFabIN5Model5Solid6Linear19IsotropicDegradableEEEE6fabPtrEi
FN:1485,_ZNK5amrex8FabArrayINS_7BaseFabIN5Model5Solid6Linear5CubicEEEE6fabPtrEi
FN:1485,_ZNK5amrex8FabArrayINS_9FArrayBoxEE6fabPtrEi
FN:1485,_ZNK5amrex8FabArrayINS_7BaseFabIN3Set7Matrix4ILi2ELi6EEEEEE6fabPtrEi
FN:1485,_ZNK5amrex8FabArrayINS_7BaseFabIN5Eigen6MatrixIdLi2ELi2ELi0ELi2ELi2EEEEEE6fabPtrEi
FN:1485,_ZNK5amrex8FabArrayINS_7BaseFabIN3Set7Matrix4ILi2ELi1EEEEEE6fabPtrEi
FN:1485,_ZNK5amrex8FabArrayINS_7BaseFabIN5Eigen6MatrixIdLi2ELi1ELi0ELi2ELi1EEEEEE6fabPtrEi
FN:1485,_ZNK5amrex8FabArrayINS_7BaseFabIN5Model5Solid6Affine5CubicEEEE6fabPtrEi
FN:1485,_ZNK5amrex8FabArrayINS_7BaseFabIN5Model5Solid6Linear9IsotropicEEEE6fabPtrEi
FN:1485,_ZNK5amrex8FabArrayINS_7BaseFabIN5Model5Solid6Affine2J2EEEE6fabPtrEi
FN:1485,_ZNK5amrex8FabArrayINS_7BaseFabIdEEE6fabPtrEi
FN:1485,_ZNK5amrex8FabArrayINS_7BaseFabIN5Model5Solid7Elastic10NeoHookeanEEEE6fabPtrEi
FN:1485,_ZNK5amrex8FabArrayINS_7BaseFabIN5Model5Solid6Affine9IsotropicEEEE6fabPtrEi
FN:1519,_ZNK5amrex8FabArrayINS_7BaseFabIN5Model5Solid6Linear5CubicEEEE5arrayIS6_Li0EEENS_6Array4IKS5_EERKNS_6MFIterE
FN:1519,_ZNK5amrex8FabArrayINS_7BaseFabIN5Model5Solid6Affine9IsotropicEEEE5arrayIS6_Li0EEENS_6Array4IKS5_EERKNS_6MFIterE
FN:1519,_ZNK5amrex8FabArrayINS_7BaseFabIN5Eigen6MatrixIdLi2ELi1ELi0ELi2ELi1EEEEEE5arrayIS5_Li0EEENS_6Array4IKS4_EERKNS_6MFIterE
FN:1519,_ZNK5amrex8FabArrayINS_7BaseFabIN5Model5Solid6Linear9LaplacianEEEE5arrayIS6_Li0EEENS_6Array4IKS5_EERKNS_6MFIterE
FN:1519,_ZNK5amrex8FabArrayINS_7BaseFabIN5Model5Solid6Linear19IsotropicDegradableEEEE5arrayIS6_Li0EEENS_6Array4IKS5_EERKNS_6MFIterE
FN:1519,_ZNK5amrex8FabArrayINS_7BaseFabIN3Set7Matrix4ILi2ELi3EEEEEE5arrayIS5_Li0EEENS_6Array4IKS4_EERKNS_6MFIterE
FN:1519,_ZNK5amrex8FabArrayINS_7BaseFabIN5Model5Solid7Elastic17PseudoLinearCubicEEEE5arrayIS6_Li0EEENS_6Array4IKS5_EERKNS_6MFIterE
FN:1519,_ZNK5amrex8FabArrayINS_7BaseFabIN5Model5Solid6Affine2J2EEEE5arrayIS6_Li0EEENS_6Array4IKS5_EERKNS_6MFIterE
FN:1519,_ZNK5amrex8FabArrayINS_7BaseFabIN5Model5Solid6Affine9HexagonalEEEE5arrayIS6_Li0EEENS_6Array4IKS5_EERKNS_6MFIterE
FN:1519,_ZNK5amrex8FabArrayINS_9IArrayBoxEE5arrayIS1_Li0EEENS_6Array4IKiEERKNS_6MFIterE
FN:1519,_ZNK5amrex8FabArrayINS_7BaseFabIN3Set7Matrix4ILi2ELi4EEEEEE5arrayIS5_Li0EEENS_6Array4IKS4_EERKNS_6MFIterE
FN:1519,_ZNK5amrex8FabArrayINS_7BaseFabIN5Model5Solid6Linear9IsotropicEEEE5arrayIS6_Li0EEENS_6Array4IKS5_EERKNS_6MFIterE
FN:1519,_ZNK5amrex8FabArrayINS_9FArrayBoxEE5arrayIS1_Li0EEENS_6Array4IKdEERKNS_6MFIterE
FN:1519,_ZNK5amrex8FabArrayINS_7BaseFabIN5Eigen6MatrixIdLi2ELi2ELi0ELi2ELi2EEEEEE5arrayIS5_Li0EEENS_6Array4IKS4_EERKNS_6MFIterE
FN:1519,_ZNK5amrex8FabArrayINS_7BaseFabIN5Model5Solid6Affine5CubicEEEE5arrayIS6_Li0EEENS_6Array4IKS5_EERKNS_6MFIterE
FN:1519,_ZNK5amrex8FabArrayINS_7BaseFabIN3Set7Matrix4ILi2ELi6EEEEEE5arrayIS5_Li0EEENS_6Array4IKS4_EERKNS_6MFIterE
FN:1519,_ZNK5amrex8FabArrayINS_7BaseFabIN3Set7Matrix4ILi2ELi1EEEEEE5arrayIS5_Li0EEENS_6Array4IKS4_EERKNS_6MFIterE
FN:1519,_ZNK5amrex8FabArrayINS_7BaseFabIN5Model5Solid7Elastic28PseudoLinearCubicPredeformedEEEE5arrayIS6_Li0EEENS_6Array4IKS5_EERKNS_6MFIterE
FN:1519,_ZNK5amrex8FabArrayINS_7BaseFabIN5Model5Solid7Elastic10NeoHookeanEEEE5arrayIS6_Li0EEENS_6Array4IKS5_EERKNS_6MFIterE
FN:1527,_ZN5amrex8FabArrayINS_7BaseFabIN3Set7Matrix4ILi2ELi4EEEEEE5arrayIS5_Li0EEENS_6Array4IS4_EERKNS_6MFIterE
FN:1527,_ZN5amrex8FabArrayINS_7BaseFabIN5Model5Solid6Linear19IsotropicDegradableEEEE5arrayIS6_Li0EEENS_6Array4IS5_EERKNS_6MFIterE
FN:1527,_ZN5amrex8FabArrayINS_9IArrayBoxEE5arrayIS1_Li0EEENS_6Array4IiEERKNS_6MFIterE
FN:1527,_ZN5amrex8FabArrayINS_7BaseFabIN5Model5Solid7Elastic10NeoHookeanEEEE5arrayIS6_Li0EEENS_6Array4IS5_EERKNS_6MFIterE
FN:1527,_ZN5amrex8FabArrayINS_7BaseFabIN5Model5Solid6Linear9IsotropicEEEE5arrayIS6_Li0EEENS_6Array4IS5_EERKNS_6MFIterE
FN:1527,_ZN5amrex8FabArrayINS_6TagBoxEE5arrayIS1_Li0EEENS_6Array4IcEERKNS_6MFIterE
FN:1527,_ZN5amrex8FabArrayINS_7BaseFabIN3Set7Matrix4ILi2ELi1EEEEEE5arrayIS5_Li0EEENS_6Array4IS4_EERKNS_6MFIterE
FN:1527,_ZN5amrex8FabArrayINS_7BaseFabIN5Model5Solid6Affine2J2EEEE5arrayIS6_Li0EEENS_6Array4IS5_EERKNS_6MFIterE
FN:1527,_ZN5amrex8FabArrayINS_7BaseFabIN5Eigen6MatrixIdLi2ELi2ELi0ELi2ELi2EEEEEE5arrayIS5_Li0EEENS_6Array4IS4_EERKNS_6MFIterE
FN:1527,_ZN5amrex8FabArrayINS_7BaseFabIN3Set7Matrix4ILi2ELi3EEEEEE5arrayIS5_Li0EEENS_6Array4IS4_EERKNS_6MFIterE
FN:1527,_ZN5amrex8FabArrayINS_7BaseFabIN5Model5Solid6Linear9LaplacianEEEE5arrayIS6_Li0EEENS_6Array4IS5_EERKNS_6MFIterE
FN:1527,_ZN5amrex8FabArrayINS_7BaseFabIN3Set7Matrix4ILi2ELi6EEEEEE5arrayIS5_Li0EEENS_6Array4IS4_EERKNS_6MFIterE
FN:1527,_ZN5amrex8FabArrayINS_7BaseFabIN5Eigen6MatrixIdLi2ELi1ELi0ELi2ELi1EEEEEE5arrayIS5_Li0EEENS_6Array4IS4_EERKNS_6MFIterE
FN:1527,_ZN5amrex8FabArrayINS_7BaseFabIN5Model5Solid6Affine5CubicEEEE5arrayIS6_Li0EEENS_6Array4IS5_EERKNS_6MFIterE
FN:1527,_ZN5amrex8FabArrayINS_7BaseFabIN5Model5Solid6Affine9IsotropicEEEE5arrayIS6_Li0EEENS_6Array4IS5_EERKNS_6MFIterE
FN:1527,_ZN5amrex8FabArrayINS_7BaseFabIdEEE5arrayIS2_Li0EEENS_6Array4IdEERKNS_6MFIterE
FN:1527,_ZN5amrex8FabArrayINS_7BaseFabIN5Model5Solid6Affine9HexagonalEEEE5arrayIS6_Li0EEENS_6Array4IS5_EERKNS_6MFIterE
FN:1527,_ZN5amrex8FabArrayINS_7BaseFabIN5Model5Solid7Elastic17PseudoLinearCubicEEEE5arrayIS6_Li0EEENS_6Array4IS5_EERKNS_6MFIterE
FN:1527,_ZN5amrex8FabArrayINS_9FArrayBoxEE5arrayIS1_Li0EEENS_6Array4IdEERKNS_6MFIterE
FN:1527,_ZN5amrex8FabArrayINS_7BaseFabIN5Model5Solid7Elastic28PseudoLinearCubicPredeformedEEEE5arrayIS6_Li0EEENS_6Array4IS5_EERKNS_6MFIterE
FN:1527,_ZN5amrex8FabArrayINS_7BaseFabIN5Model5Solid6Linear5CubicEEEE5arrayIS6_Li0EEENS_6Array4IS5_EERKNS_6MFIterE
FN:1535,_ZNK5amrex8FabArrayINS_7BaseFabIN5Model5Solid6Affine9IsotropicEEEE5arrayIS6_Li0EEENS_6Array4IKS5_EEi
FN:1535,_ZNK5amrex8FabArrayINS_7BaseFabIN5Model5Solid6Affine5CubicEEEE5arrayIS6_Li0EEENS_6Array4IKS5_EEi
FN:1535,_ZNK5amrex8FabArrayINS_7BaseFabIN3Set7Matrix4ILi2ELi4EEEEEE5arrayIS5_Li0EEENS_6Array4IKS4_EEi
FN:1535,_ZNK5amrex8FabArrayINS_7BaseFabIN3Set7Matrix4ILi2ELi6EEEEEE5arrayIS5_Li0EEENS_6Array4IKS4_EEi
FN:1535,_ZNK5amrex8FabArrayINS_7BaseFabIN5Model5Solid7Elastic17PseudoLinearCubicEEEE5arrayIS6_Li0EEENS_6Array4IKS5_EEi
FN:1535,_ZNK5amrex8FabArrayINS_7BaseFabIN5Model5Solid6Linear5CubicEEEE5arrayIS6_Li0EEENS_6Array4IKS5_EEi
FN:1535,_ZNK5amrex8FabArrayINS_7BaseFabIN5Model5Solid6Affine9HexagonalEEEE5arrayIS6_Li0EEENS_6Array4IKS5_EEi
FN:1535,_ZNK5amrex8FabArrayINS_7BaseFabIN5Eigen6MatrixIdLi2ELi1ELi0ELi2ELi1EEEEEE5arrayIS5_Li0EEENS_6Array4IKS4_EEi
FN:1535,_ZNK5amrex8FabArrayINS_7BaseFabIN5Model5Solid7Elastic28PseudoLinearCubicPredeformedEEEE5arrayIS6_Li0EEENS_6Array4IKS5_EEi
FN:1535,_ZNK5amrex8FabArrayINS_7BaseFabIN5Model5Solid6Linear9IsotropicEEEE5arrayIS6_Li0EEENS_6Array4IKS5_EEi
FN:1535,_ZNK5amrex8FabArrayINS_7BaseFabIN5Model5Solid6Linear9LaplacianEEEE5arrayIS6_Li0EEENS_6Array4IKS5_EEi
FN:1535,_ZNK5amrex8FabArrayINS_7BaseFabIN3Set7Matrix4ILi2ELi1EEEEEE5arrayIS5_Li0EEENS_6Array4IKS4_EEi
FN:1535,_ZNK5amrex8FabArrayINS_7BaseFabIN5Model5Solid7Elastic10NeoHookeanEEEE5arrayIS6_Li0EEENS_6Array4IKS5_EEi
FN:1535,_ZNK5amrex8FabArrayINS_7BaseFabIN5Model5Solid6Linear19IsotropicDegradableEEEE5arrayIS6_Li0EEENS_6Array4IKS5_EEi
FN:1535,_ZNK5amrex8FabArrayINS_7BaseFabIN3Set7Matrix4ILi2ELi3EEEEEE5arrayIS5_Li0EEENS_6Array4IKS4_EEi
FN:1535,_ZNK5amrex8FabArrayINS_7BaseFabIdEEE5arrayIS2_Li0EEENS_6Array4IKdEEi
FN:1535,_ZNK5amrex8FabArrayINS_7BaseFabIN5Model5Solid6Affine2J2EEEE5arrayIS6_Li0EEENS_6Array4IKS5_EEi
FN:1535,_ZNK5amrex8FabArrayINS_9IArrayBoxEE5arrayIS1_Li0EEENS_6Array4IKiEEi
FN:1535,_ZNK5amrex8FabArrayINS_9FArrayBoxEE5arrayIS1_Li0EEENS_6Array4IKdEEi
FN:1535,_ZNK5amrex8FabArrayINS_7BaseFabIN5Eigen6MatrixIdLi2ELi2ELi0ELi2ELi2EEEEEE5arrayIS5_Li0EEENS_6Array4IKS4_EEi
FN:1551,_ZNK5amrex8FabArrayINS_7BaseFabIN5Model5Solid6Affine9IsotropicEEEE11const_arrayIS6_Li0EEENS_6Array4IKS5_EERKNS_6MFIterE
FN:1551,_ZNK5amrex8FabArrayINS_7BaseFabIN5Eigen6MatrixIdLi2ELi2ELi0ELi2ELi2EEEEEE11const_arrayIS5_Li0EEENS_6Array4IKS4_EERKNS_6MFIterE
FN:1551,_ZNK5amrex8FabArrayINS_7BaseFabIN5Model5Solid6Affine9HexagonalEEEE11const_arrayIS6_Li0EEENS_6Array4IKS5_EERKNS_6MFIterE
FN:1551,_ZNK5amrex8FabArrayINS_7BaseFabIN5Model5Solid7Elastic28PseudoLinearCubicPredeformedEEEE11const_arrayIS6_Li0EEENS_6Array4IKS5_EERKNS_6MFIterE
FN:1551,_ZNK5amrex8FabArrayINS_7BaseFabIN3Set7Matrix4ILi2ELi3EEEEEE11const_arrayIS5_Li0EEENS_6Array4IKS4_EERKNS_6MFIterE
FN:1551,_ZNK5amrex8FabArrayINS_7BaseFabIN3Set7Matrix4ILi2ELi1EEEEEE11const_arrayIS5_Li0EEENS_6Array4IKS4_EERKNS_6MFIterE
FN:1551,_ZNK5amrex8FabArrayINS_7BaseFabIN5Eigen6MatrixIdLi2ELi1ELi0ELi2ELi1EEEEEE11const_arrayIS5_Li0EEENS_6Array4IKS4_EERKNS_6MFIterE
FN:1551,_ZNK5amrex8FabArrayINS_7BaseFabIN5Model5Solid6Linear5CubicEEEE11const_arrayIS6_Li0EEENS_6Array4IKS5_EERKNS_6MFIterE
FN:1551,_ZNK5amrex8FabArrayINS_7BaseFabIN5Model5Solid6Linear9IsotropicEEEE11const_arrayIS6_Li0EEENS_6Array4IKS5_EERKNS_6MFIterE
FN:1551,_ZNK5amrex8FabArrayINS_7BaseFabIN5Model5Solid6Affine5CubicEEEE11const_arrayIS6_Li0EEENS_6Array4IKS5_EERKNS_6MFIterE
FN:1551,_ZNK5amrex8FabArrayINS_7BaseFabIN5Model5Solid6Linear19IsotropicDegradableEEEE11const_arrayIS6_Li0EEENS_6Array4IKS5_EERKNS_6MFIterE
FN:1551,_ZNK5amrex8FabArrayINS_7BaseFabIN5Model5Solid6Affine2J2EEEE11const_arrayIS6_Li0EEENS_6Array4IKS5_EERKNS_6MFIterE
FN:1551,_ZNK5amrex8FabArrayINS_7BaseFabIN3Set7Matrix4ILi2ELi4EEEEEE11const_arrayIS5_Li0EEENS_6Array4IKS4_EERKNS_6MFIterE
FN:1551,_ZNK5amrex8FabArrayINS_7BaseFabIN3Set7Matrix4ILi2ELi6EEEEEE11const_arrayIS5_Li0EEENS_6Array4IKS4_EERKNS_6MFIterE
FN:1551,_ZNK5amrex8FabArrayINS_7BaseFabIN5Model5Solid7Elastic10NeoHookeanEEEE11const_arrayIS6_Li0EEENS_6Array4IKS5_EERKNS_6MFIterE
FN:1551,_ZNK5amrex8FabArrayINS_7BaseFabIN5Model5Solid6Linear9LaplacianEEEE11const_arrayIS6_Li0EEENS_6Array4IKS5_EERKNS_6MFIterE
FN:1551,_ZNK5amrex8FabArrayINS_9IArrayBoxEE11const_arrayIS1_Li0EEENS_6Array4IKiEERKNS_6MFIterE
FN:1551,_ZNK5amrex8FabArrayINS_7BaseFabIN5Model5Solid7Elastic17PseudoLinearCubicEEEE11const_arrayIS6_Li0EEENS_6Array4IKS5_EERKNS_6MFIterE
FN:1551,_ZNK5amrex8FabArrayINS_9FArrayBoxEE11const_arrayIS1_Li0EEENS_6Array4IKdEERKNS_6MFIterE
FN:1676,_ZN5amrex8FabArrayINS_7BaseFabIN5Model5Solid6Affine9HexagonalEEEE12clear_arraysEv
FN:1676,_ZN5amrex8FabArrayINS_9IArrayBoxEE12clear_arraysEv
FN:1676,_ZN5amrex8FabArrayINS_7BaseFabIN5Model5Solid7Elastic17PseudoLinearCubicEEEE12clear_arraysEv
FN:1676,_ZN5amrex8FabArrayINS_7BaseFabIN3Set7Matrix4ILi2ELi4EEEEEE12clear_arraysEv
FN:1676,_ZN5amrex8FabArrayINS_7BaseFabIN5Eigen6MatrixIdLi2ELi2ELi0ELi2ELi2EEEEEE12clear_arraysEv
FN:1676,_ZN5amrex8FabArrayINS_7BaseFabIN5Model5Solid6Affine5CubicEEEE12clear_arraysEv
FN:1676,_ZN5amrex8FabArrayINS_7BaseFabIN5Model5Solid6Linear19IsotropicDegradableEEEE12clear_arraysEv
FN:1676,_ZN5amrex8FabArrayINS_7BaseFabIN5Model5Solid7Elastic10NeoHookeanEEEE12clear_arraysEv
FN:1676,_ZN5amrex8FabArrayINS_7BaseFabIN3Set7Matrix4ILi2ELi3EEEEEE12clear_arraysEv
FN:1676,_ZN5amrex8FabArrayINS_4MaskEE12clear_arraysEv
FN:1676,_ZN5amrex8FabArrayINS_7BaseFabIN5Model5Solid7Elastic28PseudoLinearCubicPredeformedEEEE12clear_arraysEv
FN:1676,_ZN5amrex8FabArrayINS_9FArrayBoxEE12clear_arraysEv
FN:1676,_ZN5amrex8FabArrayINS_7BaseFabIN5Model5Solid6Linear9IsotropicEEEE12clear_arraysEv
FN:1676,_ZN5amrex8FabArrayINS_7BaseFabIN5Eigen6MatrixIdLi2ELi1ELi0ELi2ELi1EEEEEE12clear_arraysEv
FN:1676,_ZN5amrex8FabArrayINS_7BaseFabIN3Set7Matrix4ILi2ELi1EEEEEE12clear_arraysEv
FN:1676,_ZN5amrex8FabArrayINS_7BaseFabIN5Model5Solid6Linear5CubicEEEE12clear_arraysEv
FN:1676,_ZN5amrex8FabArrayINS_7BaseFabIN5Model5Solid6Linear9LaplacianEEEE12clear_arraysEv
FN:1676,_ZN5amrex8FabArrayINS_7BaseFabIN5Model5Solid6Affine2J2EEEE12clear_arraysEv
FN:1676,_ZN5amrex8FabArrayINS_7BaseFabIN5Model5Solid6Affine9IsotropicEEEE12clear_arraysEv
FN:1676,_ZN5amrex8FabArrayINS_7BaseFabIN3Set7Matrix4ILi2ELi6EEEEEE12clear_arraysEv
FN:1730,_ZN5amrex8FabArrayINS_7BaseFabIN5Model5Solid6Affine9IsotropicEEEE5clearEv
FN:1730,_ZN5amrex8FabArrayINS_7BaseFabIN3Set7Matrix4ILi2ELi4EEEEEE5clearEv
FN:1730,_ZN5amrex8FabArrayINS_7BaseFabIN5Model5Solid6Linear9LaplacianEEEE5clearEv
FN:1730,_ZN5amrex8FabArrayINS_7BaseFabIN5Model5Solid6Affine9HexagonalEEEE5clearEv
FN:1730,_ZN5amrex8FabArrayINS_7BaseFabIN3Set7Matrix4ILi2ELi1EEEEEE5clearEv
FN:1730,_ZN5amrex8FabArrayINS_7BaseFabIN5Model5Solid6Affine2J2EEEE5clearEv
FN:1730,_ZN5amrex8FabArrayINS_7BaseFabIN5Model5Solid7Elastic17PseudoLinearCubicEEEE5clearEv
FN:1730,_ZN5amrex8FabArrayINS_9IArrayBoxEE5clearEv
FN:1730,_ZN5amrex8FabArrayINS_7BaseFabIN5Model5Solid7Elastic10NeoHookeanEEEE5clearEv
FN:1730,_ZN5amrex8FabArrayINS_7BaseFabIN5Model5Solid6Affine5CubicEEEE5clearEv
FN:1730,_ZN5amrex8FabArrayINS_7BaseFabIN5Model5Solid6Linear19IsotropicDegradableEEEE5clearEv
FN:1730,_ZN5amrex8FabArrayINS_4MaskEE5clearEv
FN:1730,_ZN5amrex8FabArrayINS_7BaseFabIN5Eigen6MatrixIdLi2ELi1ELi0ELi2ELi1EEEEEE5clearEv
FN:1730,_ZN5amrex8FabArrayINS_7BaseFabIN3Set7Matrix4ILi2ELi3EEEEEE5clearEv
FN:1730,_ZN5amrex8FabArrayINS_7BaseFabIN3Set7Matrix4ILi2ELi6EEEEEE5clearEv
FN:1730,_ZN5amrex8FabArrayINS_7BaseFabIN5Model5Solid6Linear5CubicEEEE5clearEv
FN:1730,_ZN5amrex8FabArrayINS_7BaseFabIN5Model5Solid7Elastic28PseudoLinearCubicPredeformedEEEE5clearEv
FN:1730,_ZN5amrex8FabArrayINS_9FArrayBoxEE5clearEv
FN:1730,_ZN5amrex8FabArrayINS_7BaseFabIN5Eigen6MatrixIdLi2ELi2ELi0ELi2ELi2EEEEEE5clearEv
FN:1730,_ZN5amrex8FabArrayINS_7BaseFabIN5Model5Solid6Linear9IsotropicEEEE5clearEv
FN:1768,_ZN5amrex8FabArrayINS_9FArrayBoxEE9LocalCopyIS1_S1_Li0EEEvRKNS0_IT_EEiiiRKNS_7IntVectE
FN:1816,_ZN5amrex8FabArrayINS_7BaseFabIN3Set7Matrix4ILi2ELi4EEEEEEC2Ev
FN:1816,_ZN5amrex8FabArrayINS_7BaseFabIN3Set7Matrix4ILi2ELi1EEEEEEC2Ev
FN:1816,_ZN5amrex8FabArrayINS_7BaseFabIN5Eigen6MatrixIdLi2ELi2ELi0ELi2ELi2EEEEEEC2Ev
FN:1816,_ZN5amrex8FabArrayINS_7BaseFabIN5Model5Solid6Linear9IsotropicEEEEC2Ev
FN:1816,_ZN5amrex8FabArrayINS_7BaseFabIN5Model5Solid6Affine9IsotropicEEEEC2Ev
FN:1816,_ZN5amrex8FabArrayINS_7BaseFabIN5Model5Solid6Affine2J2EEEEC2Ev
FN:1816,_ZN5amrex8FabArrayINS_7BaseFabIN3Set7Matrix4ILi2ELi6EEEEEEC2Ev
FN:1816,_ZN5amrex8FabArrayINS_7BaseFabIN5Model5Solid6Affine5CubicEEEEC2Ev
FN:1816,_ZN5amrex8FabArrayINS_7BaseFabIN5Model5Solid7Elastic10NeoHookeanEEEEC2Ev
FN:1816,_ZN5amrex8FabArrayINS_7BaseFabIN5Model5Solid7Elastic17PseudoLinearCubicEEEEC2Ev
FN:1816,_ZN5amrex8FabArrayINS_7BaseFabIN5Model5Solid6Linear19IsotropicDegradableEEEEC2Ev
FN:1816,_ZN5amrex8FabArrayINS_7BaseFabIN5Eigen6MatrixIdLi2ELi1ELi0ELi2ELi1EEEEEEC2Ev
FN:1816,_ZN5amrex8FabArrayINS_7BaseFabIN5Model5Solid6Linear5CubicEEEEC2Ev
FN:1816,_ZN5amrex8FabArrayINS_7BaseFabIN5Model5Solid6Linear9LaplacianEEEEC2Ev
FN:1816,_ZN5amrex8FabArrayINS_7BaseFabIN3Set7Matrix4ILi2ELi3EEEEEEC2Ev
FN:1816,_ZN5amrex8FabArrayINS_7BaseFabIN5Model5Solid6Affine9HexagonalEEEEC2Ev
FN:1816,_ZN5amrex8FabArrayINS_7BaseFabIN5Model5Solid7Elastic28PseudoLinearCubicPredeformedEEEEC2Ev
FN:1831,_ZN5amrex8FabArrayINS_7BaseFabIN5Model5Solid6Affine2J2EEEEC2ERKNS_8BoxArrayERKNS_19DistributionMappingEiiRKNS_6MFInfoERKNS_10FabFactoryIS6_EE
FN:1831,_ZN5amrex8FabArrayINS_9FArrayBoxEEC2ERKNS_8BoxArrayERKNS_19DistributionMappingEiiRKNS_6MFInfoERKNS_10FabFactoryIS1_EE
FN:1831,_ZN5amrex8FabArrayINS_7BaseFabIN3Set7Matrix4ILi2ELi6EEEEEEC2ERKNS_8BoxArrayERKNS_19DistributionMappingEiiRKNS_6MFInfoERKNS_10FabFactoryIS5_EE
FN:1831,_ZN5amrex8FabArrayINS_7BaseFabIN5Model5Solid6Affine9IsotropicEEEEC2ERKNS_8BoxArrayERKNS_19DistributionMappingEiiRKNS_6MFInfoERKNS_10FabFactoryIS6_EE
FN:1831,_ZN5amrex8FabArrayINS_7BaseFabIN5Model5Solid7Elastic28PseudoLinearCubicPredeformedEEEEC2ERKNS_8BoxArrayERKNS_19DistributionMappingEiiRKNS_6MFInfoERKNS_10FabFactoryIS6_EE
FN:1831,_ZN5amrex8FabArrayINS_7BaseFabIN5Model5Solid7Elastic10NeoHookeanEEEEC2ERKNS_8BoxArrayERKNS_19DistributionMappingEiiRKNS_6MFInfoERKNS_10FabFactoryIS6_EE
FN:1831,_ZN5amrex8FabArrayINS_7BaseFabIN5Model5Solid7Elastic17PseudoLinearCubicEEEEC2ERKNS_8BoxArrayERKNS_19DistributionMappingEiiRKNS_6MFInfoERKNS_10FabFactoryIS6_EE
FN:1831,_ZN5amrex8FabArrayINS_7BaseFabIN3Set7Matrix4ILi2ELi4EEEEEEC2ERKNS_8BoxArrayERKNS_19DistributionMappingEiiRKNS_6MFInfoERKNS_10FabFactoryIS5_EE
FN:1831,_ZN5amrex8FabArrayINS_7BaseFabIN3Set7Matrix4ILi2ELi1EEEEEEC2ERKNS_8BoxArrayERKNS_19DistributionMappingEiiRKNS_6MFInfoERKNS_10FabFactoryIS5_EE
FN:1831,_ZN5amrex8FabArrayINS_7BaseFabIN3Set7Matrix4ILi2ELi3EEEEEEC2ERKNS_8BoxArrayERKNS_19DistributionMappingEiiRKNS_6MFInfoERKNS_10FabFactoryIS5_EE
FN:1831,_ZN5amrex8FabArrayINS_7BaseFabIN5Model5Solid6Linear9IsotropicEEEEC2ERKNS_8BoxArrayERKNS_19DistributionMappingEiiRKNS_6MFInfoERKNS_10FabFactoryIS6_EE
FN:1831,_ZN5amrex8FabArrayINS_7BaseFabIN5Model5Solid6Affine5CubicEEEEC2ERKNS_8BoxArrayERKNS_19DistributionMappingEiiRKNS_6MFInfoERKNS_10FabFactoryIS6_EE
FN:1831,_ZN5amrex8FabArrayINS_7BaseFabIN5Eigen6MatrixIdLi2ELi1ELi0ELi2ELi1EEEEEEC2ERKNS_8BoxArrayERKNS_19DistributionMappingEiiRKNS_6MFInfoERKNS_10FabFactoryIS5_EE
FN:1831,_ZN5amrex8FabArrayINS_7BaseFabIN5Model5Solid6Linear9LaplacianEEEEC2ERKNS_8BoxArrayERKNS_19DistributionMappingEiiRKNS_6MFInfoERKNS_10FabFactoryIS6_EE
FN:1831,_ZN5amrex8FabArrayINS_7BaseFabIN5Eigen6MatrixIdLi2ELi2ELi0ELi2ELi2EEEEEEC2ERKNS_8BoxArrayERKNS_19DistributionMappingEiiRKNS_6MFInfoERKNS_10FabFactoryIS5_EE
FN:1831,_ZN5amrex8FabArrayINS_7BaseFabIN5Model5Solid6Affine9HexagonalEEEEC2ERKNS_8BoxArrayERKNS_19DistributionMappingEiiRKNS_6MFInfoERKNS_10FabFactoryIS6_EE
FN:1831,_ZN5amrex8FabArrayINS_7BaseFabIN5Model5Solid6Linear19IsotropicDegradableEEEEC2ERKNS_8BoxArrayERKNS_19DistributionMappingEiiRKNS_6MFInfoERKNS_10FabFactoryIS6_EE
FN:1831,_ZN5amrex8FabArrayINS_7BaseFabIN5Model5Solid6Linear5CubicEEEEC2ERKNS_8BoxArrayERKNS_19DistributionMappingEiiRKNS_6MFInfoERKNS_10FabFactoryIS6_EE
FN:1841,_ZN5amrex8FabArrayINS_7BaseFabIN5Model5Solid6Affine5CubicEEEEC2ERKNS_8BoxArrayERKNS_19DistributionMappingEiRKNS_7IntVectERKNS_6MFInfoERKNS_10FabFactoryIS6_EE
FN:1841,_ZN5amrex8FabArrayINS_7BaseFabIN5Eigen6MatrixIdLi2ELi1ELi0ELi2ELi1EEEEEEC2ERKNS_8BoxArrayERKNS_19DistributionMappingEiRKNS_7IntVectERKNS_6MFInfoERKNS_10FabFactoryIS5_EE
FN:1841,_ZN5amrex8FabArrayINS_7BaseFabIN5Model5Solid6Linear19IsotropicDegradableEEEEC2ERKNS_8BoxArrayERKNS_19DistributionMappingEiRKNS_7IntVectERKNS_6MFInfoERKNS_10FabFactoryIS6_EE
FN:1841,_ZN5amrex8FabArrayINS_7BaseFabIN5Model5Solid7Elastic17PseudoLinearCubicEEEEC2ERKNS_8BoxArrayERKNS_19DistributionMappingEiRKNS_7IntVectERKNS_6MFInfoERKNS_10FabFactoryIS6_EE
FN:1841,_ZN5amrex8FabArrayINS_7BaseFabIN3Set7Matrix4ILi2ELi1EEEEEEC2ERKNS_8BoxArrayERKNS_19DistributionMappingEiRKNS_7IntVectERKNS_6MFInfoERKNS_10FabFactoryIS5_EE
FN:1841,_ZN5amrex8FabArrayINS_7BaseFabIN5Model5Solid6Linear9IsotropicEEEEC2ERKNS_8BoxArrayERKNS_19DistributionMappingEiRKNS_7IntVectERKNS_6MFInfoERKNS_10FabFactoryIS6_EE
FN:1841,_ZN5amrex8FabArrayINS_7BaseFabIN3Set7Matrix4ILi2ELi4EEEEEEC2ERKNS_8BoxArrayERKNS_19DistributionMappingEiRKNS_7IntVectERKNS_6MFInfoERKNS_10FabFactoryIS5_EE
FN:1841,_ZN5amrex8FabArrayINS_7BaseFabIN5Model5Solid7Elastic10NeoHookeanEEEEC2ERKNS_8BoxArrayERKNS_19DistributionMappingEiRKNS_7IntVectERKNS_6MFInfoERKNS_10FabFactoryIS6_EE
FN:1841,_ZN5amrex8FabArrayINS_7BaseFabIN5Model5Solid6Affine9IsotropicEEEEC2ERKNS_8BoxArrayERKNS_19DistributionMappingEiRKNS_7IntVectERKNS_6MFInfoERKNS_10FabFactoryIS6_EE
FN:1841,_ZN5amrex8FabArrayINS_7BaseFabIN5Model5Solid6Linear5CubicEEEEC2ERKNS_8BoxArrayERKNS_19DistributionMappingEiRKNS_7IntVectERKNS_6MFInfoERKNS_10FabFactoryIS6_EE
FN:1841,_ZN5amrex8FabArrayINS_7BaseFabIN5Model5Solid6Linear9LaplacianEEEEC2ERKNS_8BoxArrayERKNS_19DistributionMappingEiRKNS_7IntVectERKNS_6MFInfoERKNS_10FabFactoryIS6_EE
FN:1841,_ZN5amrex8FabArrayINS_7BaseFabIN5Eigen6MatrixIdLi2ELi2ELi0ELi2ELi2EEEEEEC2ERKNS_8BoxArrayERKNS_19DistributionMappingEiRKNS_7IntVectERKNS_6MFInfoERKNS_10FabFactoryIS5_EE
FN:1841,_ZN5amrex8FabArrayINS_7BaseFabIN5Model5Solid6Affine2J2EEEEC2ERKNS_8BoxArrayERKNS_19DistributionMappingEiRKNS_7IntVectERKNS_6MFInfoERKNS_10FabFactoryIS6_EE
FN:1841,_ZN5amrex8FabArrayINS_7BaseFabIN5Model5Solid6Affine9HexagonalEEEEC2ERKNS_8BoxArrayERKNS_19DistributionMappingEiRKNS_7IntVectERKNS_6MFInfoERKNS_10FabFactoryIS6_EE
FN:1841,_ZN5amrex8FabArrayINS_9FArrayBoxEEC2ERKNS_8BoxArrayERKNS_19DistributionMappingEiRKNS_7IntVectERKNS_6MFInfoERKNS_10FabFactoryIS1_EE
FN:1841,_ZN5amrex8FabArrayINS_7BaseFabIN5Model5Solid7Elastic28PseudoLinearCubicPredeformedEEEEC2ERKNS_8BoxArrayERKNS_19DistributionMappingEiRKNS_7IntVectERKNS_6MFInfoERKNS_10FabFactoryIS6_EE
FN:1841,_ZN5amrex8FabArrayINS_7BaseFabIN3Set7Matrix4ILi2ELi6EEEEEEC2ERKNS_8BoxArrayERKNS_19DistributionMappingEiRKNS_7IntVectERKNS_6MFInfoERKNS_10FabFactoryIS5_EE
FN:1841,_ZN5amrex8FabArrayINS_7BaseFabIN3Set7Matrix4ILi2ELi3EEEEEEC2ERKNS_8BoxArrayERKNS_19DistributionMappingEiRKNS_7IntVectERKNS_6MFInfoERKNS_10FabFactoryIS5_EE
FN:1877,_ZN5amrex8FabArrayINS_7BaseFabIN5Eigen6MatrixIdLi2ELi1ELi0ELi2ELi1EEEEEEC2EOS6_
FN:1877,_ZN5amrex8FabArrayINS_7BaseFabIN5Model5Solid6Affine5CubicEEEEC2EOS7_
FN:1877,_ZN5amrex8FabArrayINS_7BaseFabIN5Model5Solid6Affine9IsotropicEEEEC2EOS7_
FN:1877,_ZN5amrex8FabArrayINS_7BaseFabIN5Model5Solid6Linear9IsotropicEEEEC2EOS7_
FN:1877,_ZN5amrex8FabArrayINS_7BaseFabIN5Model5Solid7Elastic10NeoHookeanEEEEC2EOS7_
FN:1877,_ZN5amrex8FabArrayINS_7BaseFabIN5Model5Solid7Elastic17PseudoLinearCubicEEEEC2EOS7_
FN:1877,_ZN5amrex8FabArrayINS_7BaseFabIN5Model5Solid6Linear9LaplacianEEEEC2EOS7_
FN:1877,_ZN5amrex8FabArrayINS_7BaseFabIN5Model5Solid7Elastic28PseudoLinearCubicPredeformedEEEEC2EOS7_
FN:1877,_ZN5amrex8FabArrayINS_7BaseFabIN5Eigen6MatrixIdLi2ELi2ELi0ELi2ELi2EEEEEEC2EOS6_
FN:1877,_ZN5amrex8FabArrayINS_7BaseFabIN5Model5Solid6Affine2J2EEEEC2EOS7_
FN:1877,_ZN5amrex8FabArrayINS_7BaseFabIN5Model5Solid6Linear19IsotropicDegradableEEEEC2EOS7_
FN:1877,_ZN5amrex8FabArrayINS_7BaseFabIN5Model5Solid6Affine9HexagonalEEEEC2EOS7_
FN:1877,_ZN5amrex8FabArrayINS_7BaseFabIN5Model5Solid6Linear5CubicEEEEC2EOS7_
FN:1901,_ZN5amrex8FabArrayINS_9FArrayBoxEEaSEOS2_
FN:1901,_ZN5amrex8FabArrayINS_7BaseFabIN5Model5Solid6Affine9IsotropicEEEEaSEOS7_
FN:1901,_ZN5amrex8FabArrayINS_7BaseFabIN5Model5Solid6Linear5CubicEEEEaSEOS7_
FN:1901,_ZN5amrex8FabArrayINS_7BaseFabIN5Model5Solid6Linear19IsotropicDegradableEEEEaSEOS7_
FN:1901,_ZN5amrex8FabArrayINS_7BaseFabIN5Model5Solid6Affine9HexagonalEEEEaSEOS7_
FN:1901,_ZN5amrex8FabArrayINS_7BaseFabIN5Model5Solid7Elastic17PseudoLinearCubicEEEEaSEOS7_
FN:1901,_ZN5amrex8FabArrayINS_7BaseFabIN5Model5Solid7Elastic28PseudoLinearCubicPredeformedEEEEaSEOS7_
FN:1901,_ZN5amrex8FabArrayINS_7BaseFabIN5Eigen6MatrixIdLi2ELi2ELi0ELi2ELi2EEEEEEaSEOS6_
FN:1901,_ZN5amrex8FabArrayINS_7BaseFabIN5Eigen6MatrixIdLi2ELi1ELi0ELi2ELi1EEEEEEaSEOS6_
FN:1901,_ZN5amrex8FabArrayINS_7BaseFabIN5Model5Solid6Linear9IsotropicEEEEaSEOS7_
FN:1901,_ZN5amrex8FabArrayINS_7BaseFabIN5Model5Solid6Affine5CubicEEEEaSEOS7_
FN:1901,_ZN5amrex8FabArrayINS_7BaseFabIN5Model5Solid7Elastic10NeoHookeanEEEEaSEOS7_
FN:1901,_ZN5amrex8FabArrayINS_7BaseFabIN5Model5Solid6Affine2J2EEEEaSEOS7_
FN:1901,_ZN5amrex8FabArrayINS_7BaseFabIN5Model5Solid6Linear9LaplacianEEEEaSEOS7_
FN:1930,_ZN5amrex8FabArrayINS_7BaseFabIN3Set7Matrix4ILi2ELi4EEEEEED2Ev
FN:1930,_ZN5amrex8FabArrayINS_7BaseFabIN5Model5Solid6Affine9HexagonalEEEED2Ev
FN:1930,_ZN5amrex8FabArrayINS_7BaseFabIN5Eigen6MatrixIdLi2ELi2ELi0ELi2ELi2EEEEEED2Ev
FN:1930,_ZN5amrex8FabArrayINS_7BaseFabIN5Model5Solid7Elastic17PseudoLinearCubicEEEED2Ev
FN:1930,_ZN5amrex8FabArrayINS_4MaskEED2Ev
FN:1930,_ZN5amrex8FabArrayINS_7BaseFabIN5Model5Solid6Linear9IsotropicEEEED2Ev
FN:1930,_ZN5amrex8FabArrayINS_7BaseFabIN5Model5Solid6Linear5CubicEEEED2Ev
FN:1930,_ZN5amrex8FabArrayINS_7BaseFabIN5Model5Solid7Elastic28PseudoLinearCubicPredeformedEEEED2Ev
FN:1930,_ZN5amrex8FabArrayINS_7BaseFabIN3Set7Matrix4ILi2ELi6EEEEEED2Ev
FN:1930,_ZN5amrex8FabArrayINS_7BaseFabIN5Eigen6MatrixIdLi2ELi1ELi0ELi2ELi1EEEEEED2Ev
FN:1930,_ZN5amrex8FabArrayINS_7BaseFabIN5Model5Solid7Elastic10NeoHookeanEEEED2Ev
FN:1930,_ZN5amrex8FabArrayINS_7BaseFabIN5Model5Solid6Affine5CubicEEEED2Ev
FN:1930,_ZN5amrex8FabArrayINS_7BaseFabIN5Model5Solid6Affine2J2EEEED2Ev
FN:1930,_ZN5amrex8FabArrayINS_7BaseFabIN5Model5Solid6Linear19IsotropicDegradableEEEED2Ev
FN:1930,_ZN5amrex8FabArrayINS_7BaseFabIN3Set7Matrix4ILi2ELi3EEEEEED2Ev
FN:1930,_ZN5amrex8FabArrayINS_7BaseFabIN5Model5Solid6Affine9IsotropicEEEED2Ev
FN:1930,_ZN5amrex8FabArrayINS_9IArrayBoxEED2Ev
FN:1930,_ZN5amrex8FabArrayINS_7BaseFabIN5Model5Solid6Linear9LaplacianEEEED2Ev
FN:1930,_ZN5amrex8FabArrayINS_7BaseFabIN3Set7Matrix4ILi2ELi1EEEEEED2Ev
FN:1930,_ZN5amrex8FabArrayINS_9FArrayBoxEED2Ev
FN:1973,_ZN5amrex8FabArrayINS_7BaseFabIN3Set7Matrix4ILi2ELi6EEEEEE6defineERKNS_8BoxArrayERKNS_19DistributionMappingEiiRKNS_6MFInfoERKNS_10FabFactoryIS5_EE
FN:1973,_ZN5amrex8FabArrayINS_7BaseFabIN3Set7Matrix4ILi2ELi1EEEEEE6defineERKNS_8BoxArrayERKNS_19DistributionMappingEiiRKNS_6MFInfoERKNS_10FabFactoryIS5_EE
FN:1973,_ZN5amrex8FabArrayINS_7BaseFabIN5Model5Solid6Affine2J2EEEE6defineERKNS_8BoxArrayERKNS_19DistributionMappingEiiRKNS_6MFInfoERKNS_10FabFactoryIS6_EE
FN:1973,_ZN5amrex8FabArrayINS_7BaseFabIN5Model5Solid6Linear19IsotropicDegradableEEEE6defineERKNS_8BoxArrayERKNS_19DistributionMappingEiiRKNS_6MFInfoERKNS_10FabFactoryIS6_EE
FN:1973,_ZN5amrex8FabArrayINS_7BaseFabIN5Model5Solid6Linear9LaplacianEEEE6defineERKNS_8BoxArrayERKNS_19DistributionMappingEiiRKNS_6MFInfoERKNS_10FabFactoryIS6_EE
FN:1973,_ZN5amrex8FabArrayINS_7BaseFabIN3Set7Matrix4ILi2ELi3EEEEEE6defineERKNS_8BoxArrayERKNS_19DistributionMappingEiiRKNS_6MFInfoERKNS_10FabFactoryIS5_EE
FN:1973,_ZN5amrex8FabArrayINS_7BaseFabIN5Eigen6MatrixIdLi2ELi1ELi0ELi2ELi1EEEEEE6defineERKNS_8BoxArrayERKNS_19DistributionMappingEiiRKNS_6MFInfoERKNS_10FabFactoryIS5_EE
FN:1973,_ZN5amrex8FabArrayINS_7BaseFabIN5Model5Solid6Linear5CubicEEEE6defineERKNS_8BoxArrayERKNS_19DistributionMappingEiiRKNS_6MFInfoERKNS_10FabFactoryIS6_EE
FN:1973,_ZN5amrex8FabArrayINS_7BaseFabIN5Model5Solid6Affine5CubicEEEE6defineERKNS_8BoxArrayERKNS_19DistributionMappingEiiRKNS_6MFInfoERKNS_10FabFactoryIS6_EE
FN:1973,_ZN5amrex8FabArrayINS_7BaseFabIN5Model5Solid6Affine9HexagonalEEEE6defineERKNS_8BoxArrayERKNS_19DistributionMappingEiiRKNS_6MFInfoERKNS_10FabFactoryIS6_EE
FN:1973,_ZN5amrex8FabArrayINS_7BaseFabIN5Model5Solid6Affine9IsotropicEEEE6defineERKNS_8BoxArrayERKNS_19DistributionMappingEiiRKNS_6MFInfoERKNS_10FabFactoryIS6_EE
FN:1973,_ZN5amrex8FabArrayINS_7BaseFabIN3Set7Matrix4ILi2ELi4EEEEEE6defineERKNS_8BoxArrayERKNS_19DistributionMappingEiiRKNS_6MFInfoERKNS_10FabFactoryIS5_EE
FN:1973,_ZN5amrex8FabArrayINS_7BaseFabIN5Model5Solid6Linear9IsotropicEEEE6defineERKNS_8BoxArrayERKNS_19DistributionMappingEiiRKNS_6MFInfoERKNS_10FabFactoryIS6_EE
FN:1973,_ZN5amrex8FabArrayINS_7BaseFabIN5Model5Solid7Elastic17PseudoLinearCubicEEEE6defineERKNS_8BoxArrayERKNS_19DistributionMappingEiiRKNS_6MFInfoERKNS_10FabFactoryIS6_EE
FN:1973,_ZN5amrex8FabArrayINS_7BaseFabIN5Model5Solid7Elastic10NeoHookeanEEEE6defineERKNS_8BoxArrayERKNS_19DistributionMappingEiiRKNS_6MFInfoERKNS_10FabFactoryIS6_EE
FN:1973,_ZN5amrex8FabArrayINS_7BaseFabIN5Eigen6MatrixIdLi2ELi2ELi0ELi2ELi2EEEEEE6defineERKNS_8BoxArrayERKNS_19DistributionMappingEiiRKNS_6MFInfoERKNS_10FabFactoryIS5_EE
FN:1973,_ZN5amrex8FabArrayINS_7BaseFabIN5Model5Solid7Elastic28PseudoLinearCubicPredeformedEEEE6defineERKNS_8BoxArrayERKNS_19DistributionMappingEiiRKNS_6MFInfoERKNS_10FabFactoryIS6_EE
FN:1985,_ZN5amrex8FabArrayINS_7BaseFabIN5Eigen6MatrixIdLi2ELi1ELi0ELi2ELi1EEEEEE6defineERKNS_8BoxArrayERKNS_19DistributionMappingEiRKNS_7IntVectERKNS_6MFInfoERKNS_10FabFactoryIS5_EE
FN:1985,_ZN5amrex8FabArrayINS_7BaseFabIN5Model5Solid6Linear9LaplacianEEEE6defineERKNS_8BoxArrayERKNS_19DistributionMappingEiRKNS_7IntVectERKNS_6MFInfoERKNS_10FabFactoryIS6_EE
FN:1985,_ZN5amrex8FabArrayINS_7BaseFabIN3Set7Matrix4ILi2ELi4EEEEEE6defineERKNS_8BoxArrayERKNS_19DistributionMappingEiRKNS_7IntVectERKNS_6MFInfoERKNS_10FabFactoryIS5_EE
FN:1985,_ZN5amrex8FabArrayINS_7BaseFabIN5Model5Solid6Linear19IsotropicDegradableEEEE6defineERKNS_8BoxArrayERKNS_19DistributionMappingEiRKNS_7IntVectERKNS_6MFInfoERKNS_10FabFactoryIS6_EE
FN:1985,_ZN5amrex8FabArrayINS_7BaseFabIN5Model5Solid6Affine9IsotropicEEEE6defineERKNS_8BoxArrayERKNS_19DistributionMappingEiRKNS_7IntVectERKNS_6MFInfoERKNS_10FabFactoryIS6_EE
FN:1985,_ZN5amrex8FabArrayINS_7BaseFabIN5Model5Solid7Elastic28PseudoLinearCubicPredeformedEEEE6defineERKNS_8BoxArrayERKNS_19DistributionMappingEiRKNS_7IntVectERKNS_6MFInfoERKNS_10FabFactoryIS6_EE
FN:1985,_ZN5amrex8FabArrayINS_7BaseFabIN5Model5Solid6Linear5CubicEEEE6defineERKNS_8BoxArrayERKNS_19DistributionMappingEiRKNS_7IntVectERKNS_6MFInfoERKNS_10FabFactoryIS6_EE
FN:1985,_ZN5amrex8FabArrayINS_7BaseFabIN3Set7Matrix4ILi2ELi6EEEEEE6defineERKNS_8BoxArrayERKNS_19DistributionMappingEiRKNS_7IntVectERKNS_6MFInfoERKNS_10FabFactoryIS5_EE
FN:1985,_ZN5amrex8FabArrayINS_7BaseFabIN3Set7Matrix4ILi2ELi1EEEEEE6defineERKNS_8BoxArrayERKNS_19DistributionMappingEiRKNS_7IntVectERKNS_6MFInfoERKNS_10FabFactoryIS5_EE
FN:1985,_ZN5amrex8FabArrayINS_7BaseFabIN3Set7Matrix4ILi2ELi3EEEEEE6defineERKNS_8BoxArrayERKNS_19DistributionMappingEiRKNS_7IntVectERKNS_6MFInfoERKNS_10FabFactoryIS5_EE
FN:1985,_ZN5amrex8FabArrayINS_7BaseFabIN5Model5Solid7Elastic17PseudoLinearCubicEEEE6defineERKNS_8BoxArrayERKNS_19DistributionMappingEiRKNS_7IntVectERKNS_6MFInfoERKNS_10FabFactoryIS6_EE
FN:1985,_ZN5amrex8FabArrayINS_7BaseFabIN5Model5Solid6Affine5CubicEEEE6defineERKNS_8BoxArrayERKNS_19DistributionMappingEiRKNS_7IntVectERKNS_6MFInfoERKNS_10FabFactoryIS6_EE
FN:1985,_ZN5amrex8FabArrayINS_7BaseFabIN5Model5Solid6Linear9IsotropicEEEE6defineERKNS_8BoxArrayERKNS_19DistributionMappingEiRKNS_7IntVectERKNS_6MFInfoERKNS_10FabFactoryIS6_EE
FN:1985,_ZN5amrex8FabArrayINS_7BaseFabIN5Model5Solid6Affine2J2EEEE6defineERKNS_8BoxArrayERKNS_19DistributionMappingEiRKNS_7IntVectERKNS_6MFInfoERKNS_10FabFactoryIS6_EE
FN:1985,_ZN5amrex8FabArrayINS_9FArrayBoxEE6defineERKNS_8BoxArrayERKNS_19DistributionMappingEiRKNS_7IntVectERKNS_6MFInfoERKNS_10FabFactoryIS1_EE
FN:1985,_ZN5amrex8FabArrayINS_7BaseFabIN5Model5Solid7Elastic10NeoHookeanEEEE6defineERKNS_8BoxArrayERKNS_19DistributionMappingEiRKNS_7IntVectERKNS_6MFInfoERKNS_10FabFactoryIS6_EE
FN:1985,_ZN5amrex8FabArrayINS_7BaseFabIN5Eigen6MatrixIdLi2ELi2ELi0ELi2ELi2EEEEEE6defineERKNS_8BoxArrayERKNS_19DistributionMappingEiRKNS_7IntVectERKNS_6MFInfoERKNS_10FabFactoryIS5_EE
FN:1985,_ZN5amrex8FabArrayINS_7BaseFabIN5Model5Solid6Affine9HexagonalEEEE6defineERKNS_8BoxArrayERKNS_19DistributionMappingEiRKNS_7IntVectERKNS_6MFInfoERKNS_10FabFactoryIS6_EE
FN:2018,_ZN5amrex8FabArrayINS_7BaseFabIN5Model5Solid6Linear19IsotropicDegradableEEEE9AllocFabsERKNS_10FabFactoryIS6_EEPNS_5ArenaERKNS_6VectorINSt7__cxx1112basic_stringIcSt11char_traitsIcESaIcEEESaISK_EEE
FN:2018,_ZN5amrex8FabArrayINS_7BaseFabIN5Model5Solid6Affine2J2EEEE9AllocFabsERKNS_10FabFactoryIS6_EEPNS_5ArenaERKNS_6VectorINSt7__cxx1112basic_stringIcSt11char_traitsIcESaIcEEESaISK_EEE
FN:2018,_ZN5amrex8FabArrayINS_7BaseFabIN5Model5Solid6Linear9IsotropicEEEE9AllocFabsERKNS_10FabFactoryIS6_EEPNS_5ArenaERKNS_6VectorINSt7__cxx1112basic_stringIcSt11char_traitsIcESaIcEEESaISK_EEE
FN:2018,_ZN5amrex8FabArrayINS_7BaseFabIN3Set7Matrix4ILi2ELi4EEEEEE9AllocFabsERKNS_10FabFactoryIS5_EEPNS_5ArenaERKNS_6VectorINSt7__cxx1112basic_stringIcSt11char_traitsIcESaIcEEESaISJ_EEE
FN:2018,_ZN5amrex8FabArrayINS_7BaseFabIN5Model5Solid6Affine5CubicEEEE9AllocFabsERKNS_10FabFactoryIS6_EEPNS_5ArenaERKNS_6VectorINSt7__cxx1112basic_stringIcSt11char_traitsIcESaIcEEESaISK_EEE
FN:2018,_ZN5amrex8FabArrayINS_7BaseFabIN5Eigen6MatrixIdLi2ELi1ELi0ELi2ELi1EEEEEE9AllocFabsERKNS_10FabFactoryIS5_EEPNS_5ArenaERKNS_6VectorINSt7__cxx1112basic_stringIcSt11char_traitsIcESaIcEEESaISJ_EEE
FN:2018,_ZN5amrex8FabArrayINS_7BaseFabIN5Model5Solid7Elastic17PseudoLinearCubicEEEE9AllocFabsERKNS_10FabFactoryIS6_EEPNS_5ArenaERKNS_6VectorINSt7__cxx1112basic_stringIcSt11char_traitsIcESaIcEEESaISK_EEE
FN:2018,_ZN5amrex8FabArrayINS_9FArrayBoxEE9AllocFabsERKNS_10FabFactoryIS1_EEPNS_5ArenaERKNS_6VectorINSt7__cxx1112basic_stringIcSt11char_traitsIcESaIcEEESaISF_EEE
FN:2018,_ZN5amrex8FabArrayINS_7BaseFabIN3Set7Matrix4ILi2ELi1EEEEEE9AllocFabsERKNS_10FabFactoryIS5_EEPNS_5ArenaERKNS_6VectorINSt7__cxx1112basic_stringIcSt11char_traitsIcESaIcEEESaISJ_EEE
FN:2018,_ZN5amrex8FabArrayINS_7BaseFabIN3Set7Matrix4ILi2ELi3EEEEEE9AllocFabsERKNS_10FabFactoryIS5_EEPNS_5ArenaERKNS_6VectorINSt7__cxx1112basic_stringIcSt11char_traitsIcESaIcEEESaISJ_EEE
FN:2018,_ZN5amrex8FabArrayINS_7BaseFabIN5Model5Solid6Affine9IsotropicEEEE9AllocFabsERKNS_10FabFactoryIS6_EEPNS_5ArenaERKNS_6VectorINSt7__cxx1112basic_stringIcSt11char_traitsIcESaIcEEESaISK_EEE
FN:2018,_ZN5amrex8FabArrayINS_7BaseFabIN5Model5Solid6Linear9LaplacianEEEE9AllocFabsERKNS_10FabFactoryIS6_EEPNS_5ArenaERKNS_6VectorINSt7__cxx1112basic_stringIcSt11char_traitsIcESaIcEEESaISK_EEE
FN:2018,_ZN5amrex8FabArrayINS_7BaseFabIN3Set7Matrix4ILi2ELi6EEEEEE9AllocFabsERKNS_10FabFactoryIS5_EEPNS_5ArenaERKNS_6VectorINSt7__cxx1112basic_stringIcSt11char_traitsIcESaIcEEESaISJ_EEE
FN:2018,_ZN5amrex8FabArrayINS_7BaseFabIN5Model5Solid6Affine9HexagonalEEEE9AllocFabsERKNS_10FabFactoryIS6_EEPNS_5ArenaERKNS_6VectorINSt7__cxx1112basic_stringIcSt11char_traitsIcESaIcEEESaISK_EEE
FN:2018,_ZN5amrex8FabArrayINS_7BaseFabIN5Model5Solid7Elastic28PseudoLinearCubicPredeformedEEEE9AllocFabsERKNS_10FabFactoryIS6_EEPNS_5ArenaERKNS_6VectorINSt7__cxx1112basic_stringIcSt11char_traitsIcESaIcEEESaISK_EEE
FN:2018,_ZN5amrex8FabArrayINS_7BaseFabIN5Model5Solid7Elastic10NeoHookeanEEEE9AllocFabsERKNS_10FabFactoryIS6_EEPNS_5ArenaERKNS_6VectorINSt7__cxx1112basic_stringIcSt11char_traitsIcESaIcEEESaISK_EEE
FN:2018,_ZN5amrex8FabArrayINS_7BaseFabIN5Model5Solid6Linear5CubicEEEE9AllocFabsERKNS_10FabFactoryIS6_EEPNS_5ArenaERKNS_6VectorINSt7__cxx1112basic_stringIcSt11char_traitsIcESaIcEEESaISK_EEE
FN:2018,_ZN5amrex8FabArrayINS_7BaseFabIN5Eigen6MatrixIdLi2ELi2ELi0ELi2ELi2EEEEEE9AllocFabsERKNS_10FabFactoryIS5_EEPNS_5ArenaERKNS_6VectorINSt7__cxx1112basic_stringIcSt11char_traitsIcESaIcEEESaISJ_EEE
FN:2236,_ZN5amrex8FabArrayINS_9FArrayBoxEE8setBndryIS1_Li0EEEvdii
FN:2337,_ZN5amrex8FabArrayINS_9FArrayBoxEE14setDomainBndryIS1_Li0EEEvdRKNS_8GeometryE
FN:2345,_ZN5amrex8FabArrayINS_9FArrayBoxEE14setDomainBndryIS1_Li0EEEvdiiRKNS_8GeometryE
FN:2427,_ZN5amrex8FabArrayINS_7BaseFabIN5Eigen6MatrixIdLi2ELi2ELi0ELi2ELi2EEEEEE6setValIS5_Li0EEEvS4_
FN:2427,_ZN5amrex8FabArrayINS_7BaseFabIN5Model5Solid6Linear5CubicEEEE6setValIS6_Li0EEEvS5_
FN:2427,_ZN5amrex8FabArrayINS_7BaseFabIN3Set7Matrix4ILi2ELi6EEEEEE6setValIS5_Li0EEEvS4_
FN:2427,_ZN5amrex8FabArrayINS_7BaseFabIN5Model5Solid6Affine9HexagonalEEEE6setValIS6_Li0EEEvS5_
FN:2427,_ZN5amrex8FabArrayINS_7BaseFabIN5Model5Solid6Linear9IsotropicEEEE6setValIS6_Li0EEEvS5_
FN:2427,_ZN5amrex8FabArrayINS_7BaseFabIN5Model5Solid7Elastic28PseudoLinearCubicPredeformedEEEE6setValIS6_Li0EEEvS5_
FN:2427,_ZN5amrex8FabArrayINS_7BaseFabIN5Model5Solid6Affine5CubicEEEE6setValIS6_Li0EEEvS5_
FN:2427,_ZN5amrex8FabArrayINS_7BaseFabIN3Set7Matrix4ILi2ELi4EEEEEE6setValIS5_Li0EEEvS4_
FN:2427,_ZN5amrex8FabArrayINS_7BaseFabIN5Eigen6MatrixIdLi2ELi1ELi0ELi2ELi1EEEEEE6setValIS5_Li0EEEvS4_
FN:2427,_ZN5amrex8FabArrayINS_7BaseFabIN5Model5Solid6Linear19IsotropicDegradableEEEE6setValIS6_Li0EEEvS5_
FN:2427,_ZN5amrex8FabArrayINS_7BaseFabIN5Model5Solid7Elastic17PseudoLinearCubicEEEE6setValIS6_Li0EEEvS5_
FN:2427,_ZN5amrex8FabArrayINS_7BaseFabIN3Set7Matrix4ILi2ELi1EEEEEE6setValIS5_Li0EEEvS4_
FN:2427,_ZN5amrex8FabArrayINS_7BaseFabIN3Set7Matrix4ILi2ELi3EEEEEE6setValIS5_Li0EEEvS4_
FN:2427,_ZN5amrex8FabArrayINS_7BaseFabIN5Model5Solid6Affine2J2EEEE6setValIS6_Li0EEEvS5_
FN:2427,_ZN5amrex8FabArrayINS_9IArrayBoxEE6setValIS1_Li0EEEvi
FN:2427,_ZN5amrex8FabArrayINS_7BaseFabIN5Model5Solid7Elastic10NeoHookeanEEEE6setValIS6_Li0EEEvS5_
FN:2427,_ZN5amrex8FabArrayINS_7BaseFabIN5Model5Solid6Linear9LaplacianEEEE6setValIS6_Li0EEEvS5_
FN:2427,_ZN5amrex8FabArrayINS_7BaseFabIN5Model5Solid6Affine9IsotropicEEEE6setValIS6_Li0EEEvS5_
FN:2427,_ZN5amrex8FabArrayINS_9FArrayBoxEE6setValIS1_Li0EEEvd
FN:2444,_ZN5amrex8FabArrayINS_9FArrayBoxEE6setValIS1_Li0EEEvdiii
FN:2455,_ZN5amrex8FabArrayINS_7BaseFabIN3Set7Matrix4ILi2ELi4EEEEEE6setValIS5_Li0EEEvS4_iiRKNS_7IntVectE
FN:2455,_ZN5amrex8FabArrayINS_7BaseFabIN5Model5Solid7Elastic17PseudoLinearCubicEEEE6setValIS6_Li0EEEvS5_iiRKNS_7IntVectE
FN:2455,_ZN5amrex8FabArrayINS_7BaseFabIN5Model5Solid7Elastic28PseudoLinearCubicPredeformedEEEE6setValIS6_Li0EEEvS5_iiRKNS_7IntVectE
FN:2455,_ZN5amrex8FabArrayINS_7BaseFabIN5Eigen6MatrixIdLi2ELi1ELi0ELi2ELi1EEEEEE6setValIS5_Li0EEEvS4_iiRKNS_7IntVectE
FN:2455,_ZN5amrex8FabArrayINS_7BaseFabIN3Set7Matrix4ILi2ELi1EEEEEE6setValIS5_Li0EEEvS4_iiRKNS_7IntVectE
FN:2455,_ZN5amrex8FabArrayINS_7BaseFabIN5Eigen6MatrixIdLi2ELi2ELi0ELi2ELi2EEEEEE6setValIS5_Li0EEEvS4_iiRKNS_7IntVectE
FN:2455,_ZN5amrex8FabArrayINS_7BaseFabIN5Model5Solid6Linear19IsotropicDegradableEEEE6setValIS6_Li0EEEvS5_iiRKNS_7IntVectE
FN:2455,_ZN5amrex8FabArrayINS_7BaseFabIN5Model5Solid6Linear5CubicEEEE6setValIS6_Li0EEEvS5_iiRKNS_7IntVectE
FN:2455,_ZN5amrex8FabArrayINS_7BaseFabIN5Model5Solid6Affine9HexagonalEEEE6setValIS6_Li0EEEvS5_iiRKNS_7IntVectE
FN:2455,_ZN5amrex8FabArrayINS_9IArrayBoxEE6setValIS1_Li0EEEviiiRKNS_7IntVectE
FN:2455,_ZN5amrex8FabArrayINS_7BaseFabIN3Set7Matrix4ILi2ELi6EEEEEE6setValIS5_Li0EEEvS4_iiRKNS_7IntVectE
FN:2455,_ZN5amrex8FabArrayINS_7BaseFabIN5Model5Solid6Affine2J2EEEE6setValIS6_Li0EEEvS5_iiRKNS_7IntVectE
FN:2455,_ZN5amrex8FabArrayINS_7BaseFabIN5Model5Solid6Affine5CubicEEEE6setValIS6_Li0EEEvS5_iiRKNS_7IntVectE
FN:2455,_ZN5amrex8FabArrayINS_9FArrayBoxEE6setValIS1_Li0EEEvdiiRKNS_7IntVectE
FN:2455,_ZN5amrex8FabArrayINS_7BaseFabIN3Set7Matrix4ILi2ELi3EEEEEE6setValIS5_Li0EEEvS4_iiRKNS_7IntVectE
FN:2455,_ZN5amrex8FabArrayINS_7BaseFabIN5Model5Solid6Linear9LaplacianEEEE6setValIS6_Li0EEEvS5_iiRKNS_7IntVectE
FN:2455,_ZN5amrex8FabArrayINS_7BaseFabIN5Model5Solid7Elastic10NeoHookeanEEEE6setValIS6_Li0EEEvS5_iiRKNS_7IntVectE
FN:2455,_ZN5amrex8FabArrayINS_7BaseFabIN5Model5Solid6Linear9IsotropicEEEE6setValIS6_Li0EEEvS5_iiRKNS_7IntVectE
FN:2455,_ZN5amrex8FabArrayINS_7BaseFabIN5Model5Solid6Affine9IsotropicEEEE6setValIS6_Li0EEEvS5_iiRKNS_7IntVectE
FN:2989,_ZN5amrex8FabArrayINS_9FArrayBoxEE12FillBoundaryIdEEvb
FN:2989,_ZN5amrex8FabArrayINS_7BaseFabIN3Set7Matrix4ILi2ELi4EEEEEE12FillBoundaryIS4_EEvb
FN:2989,_ZN5amrex8FabArrayINS_7BaseFabIN5Model5Solid6Linear9IsotropicEEEE12FillBoundaryIS5_EEvb
FN:2989,_ZN5amrex8FabArrayINS_7BaseFabIN3Set7Matrix4ILi2ELi3EEEEEE12FillBoundaryIS4_EEvb
FN:2989,_ZN5amrex8FabArrayINS_7BaseFabIN5Model5Solid6Affine9IsotropicEEEE12FillBoundaryIS5_EEvb
FN:2989,_ZN5amrex8FabArrayINS_7BaseFabIN5Model5Solid6Affine2J2EEEE12FillBoundaryIS5_EEvb
FN:2989,_ZN5amrex8FabArrayINS_7BaseFabIN5Model5Solid6Linear9LaplacianEEEE12FillBoundaryIS5_EEvb
FN:2989,_ZN5amrex8FabArrayINS_7BaseFabIN5Model5Solid6Affine5CubicEEEE12FillBoundaryIS5_EEvb
FN:2989,_ZN5amrex8FabArrayINS_7BaseFabIN5Model5Solid6Affine9HexagonalEEEE12FillBoundaryIS5_EEvb
FN:2989,_ZN5amrex8FabArrayINS_7BaseFabIN5Model5Solid6Linear19IsotropicDegradableEEEE12FillBoundaryIS5_EEvb
FN:2989,_ZN5amrex8FabArrayINS_7BaseFabIN3Set7Matrix4ILi2ELi6EEEEEE12FillBoundaryIS4_EEvb
FN:2989,_ZN5amrex8FabArrayINS_7BaseFabIN5Model5Solid7Elastic17PseudoLinearCubicEEEE12FillBoundaryIS5_EEvb
FN:2989,_ZN5amrex8FabArrayINS_7BaseFabIN5Model5Solid7Elastic10NeoHookeanEEEE12FillBoundaryIS5_EEvb
FN:2989,_ZN5amrex8FabArrayINS_7BaseFabIN5Model5Solid6Linear5CubicEEEE12FillBoundaryIS5_EEvb
FN:2989,_ZN5amrex8FabArrayINS_7BaseFabIN3Set7Matrix4ILi2ELi1EEEEEE12FillBoundaryIS4_EEvb
FN:2989,_ZN5amrex8FabArrayINS_7BaseFabIN5Model5Solid7Elastic28PseudoLinearCubicPredeformedEEEE12FillBoundaryIS5_EEvb
FN:2989,_ZN5amrex8FabArrayINS_7BaseFabIN5Eigen6MatrixIdLi2ELi2ELi0ELi2ELi2EEEEEE12FillBoundaryIS4_EEvb
FN:2989,_ZN5amrex8FabArrayINS_7BaseFabIN5Eigen6MatrixIdLi2ELi1ELi0ELi2ELi1EEEEEE12FillBoundaryIS4_EEvb
FN:3001,_ZN5amrex8FabArrayINS_7BaseFabIdEEE12FillBoundaryIdEEvRKNS_11PeriodicityEb
FN:3001,_ZN5amrex8FabArrayINS_7BaseFabIN3Set7Matrix4ILi2ELi1EEEEEE12FillBoundaryIS4_EEvRKNS_11PeriodicityEb
FN:3001,_ZN5amrex8FabArrayINS_9FArrayBoxEE12FillBoundaryIdEEvRKNS_11PeriodicityEb
FN:3001,_ZN5amrex8FabArrayINS_7BaseFabIN3Set7Matrix4ILi2ELi6EEEEEE12FillBoundaryIS4_EEvRKNS_11PeriodicityEb
FN:3001,_ZN5amrex8FabArrayINS_7BaseFabIN5Model5Solid6Linear19IsotropicDegradableEEEE12FillBoundaryIS5_EEvRKNS_11PeriodicityEb
FN:3001,_ZN5amrex8FabArrayINS_7BaseFabIN3Set7Matrix4ILi2ELi3EEEEEE12FillBoundaryIS4_EEvRKNS_11PeriodicityEb
FN:3001,_ZN5amrex8FabArrayINS_7BaseFabIN3Set7Matrix4ILi2ELi4EEEEEE12FillBoundaryIS4_EEvRKNS_11PeriodicityEb
FN:3051,_ZN5amrex8FabArrayINS_7BaseFabIN5Eigen6MatrixIdLi2ELi2ELi0ELi2ELi2EEEEEE12FillBoundaryIS4_EEviiRKNS_7IntVectERKNS_11PeriodicityEb
FN:3051,_ZN5amrex8FabArrayINS_7BaseFabIN5Model5Solid7Elastic10NeoHookeanEEEE12FillBoundaryIS5_EEviiRKNS_7IntVectERKNS_11PeriodicityEb
FN:3051,_ZN5amrex8FabArrayINS_7BaseFabIN5Model5Solid7Elastic17PseudoLinearCubicEEEE12FillBoundaryIS5_EEviiRKNS_7IntVectERKNS_11PeriodicityEb
FN:3051,_ZN5amrex8FabArrayINS_7BaseFabIN5Model5Solid6Linear5CubicEEEE12FillBoundaryIS5_EEviiRKNS_7IntVectERKNS_11PeriodicityEb
FN:3051,_ZN5amrex8FabArrayINS_7BaseFabIN5Eigen6MatrixIdLi2ELi1ELi0ELi2ELi1EEEEEE12FillBoundaryIS4_EEviiRKNS_7IntVectERKNS_11PeriodicityEb
FN:3051,_ZN5amrex8FabArrayINS_9FArrayBoxEE12FillBoundaryIdEEviiRKNS_7IntVectERKNS_11PeriodicityEb
FN:3051,_ZN5amrex8FabArrayINS_7BaseFabIN5Model5Solid6Affine5CubicEEEE12FillBoundaryIS5_EEviiRKNS_7IntVectERKNS_11PeriodicityEb
FN:3051,_ZN5amrex8FabArrayINS_7BaseFabIN5Model5Solid6Linear9LaplacianEEEE12FillBoundaryIS5_EEviiRKNS_7IntVectERKNS_11PeriodicityEb
FN:3051,_ZN5amrex8FabArrayINS_7BaseFabIN5Model5Solid6Linear19IsotropicDegradableEEEE12FillBoundaryIS5_EEviiRKNS_7IntVectERKNS_11PeriodicityEb
FN:3051,_ZN5amrex8FabArrayINS_7BaseFabIN5Model5Solid6Affine9IsotropicEEEE12FillBoundaryIS5_EEviiRKNS_7IntVectERKNS_11PeriodicityEb
FN:3051,_ZN5amrex8FabArrayINS_7BaseFabIN5Model5Solid6Linear9IsotropicEEEE12FillBoundaryIS5_EEviiRKNS_7IntVectERKNS_11PeriodicityEb
FN:3051,_ZN5amrex8FabArrayINS_7BaseFabIN5Model5Solid6Affine9HexagonalEEEE12FillBoundaryIS5_EEviiRKNS_7IntVectERKNS_11PeriodicityEb
FN:3051,_ZN5amrex8FabArrayINS_7BaseFabIN5Model5Solid7Elastic28PseudoLinearCubicPredeformedEEEE12FillBoundaryIS5_EEviiRKNS_7IntVectERKNS_11PeriodicityEb
FN:3051,_ZN5amrex8FabArrayINS_7BaseFabIN5Model5Solid6Affine2J2EEEE12FillBoundaryIS5_EEviiRKNS_7IntVectERKNS_11PeriodicityEb
FN:3317,_ZN5amrex8FabArrayINS_7BaseFabIN3Set7Matrix4ILi2ELi4EEEEEE19FillBoundary_nowaitIS4_EEviiRKNS_7IntVectERKNS_11PeriodicityEb
FN:3317,_ZN5amrex8FabArrayINS_7BaseFabIN3Set7Matrix4ILi2ELi1EEEEEE19FillBoundary_nowaitIS4_EEviiRKNS_7IntVectERKNS_11PeriodicityEb
FN:3317,_ZN5amrex8FabArrayINS_7BaseFabIN5Eigen6MatrixIdLi2ELi1ELi0ELi2ELi1EEEEEE19FillBoundary_nowaitIS4_EEviiRKNS_7IntVectERKNS_11PeriodicityEb
FN:3317,_ZN5amrex8FabArrayINS_9FArrayBoxEE19FillBoundary_nowaitIdEEviiRKNS_7IntVectERKNS_11PeriodicityEb
FN:3317,_ZN5amrex8FabArrayINS_7BaseFabIN5Model5Solid6Affine5CubicEEEE19FillBoundary_nowaitIS5_EEviiRKNS_7IntVectERKNS_11PeriodicityEb
FN:3317,_ZN5amrex8FabArrayINS_7BaseFabIdEEE19FillBoundary_nowaitIdEEviiRKNS_7IntVectERKNS_11PeriodicityEb
FN:3317,_ZN5amrex8FabArrayINS_7BaseFabIN5Model5Solid6Affine9HexagonalEEEE19FillBoundary_nowaitIS5_EEviiRKNS_7IntVectERKNS_11PeriodicityEb
FN:3317,_ZN5amrex8FabArrayINS_7BaseFabIN5Model5Solid6Affine9IsotropicEEEE19FillBoundary_nowaitIS5_EEviiRKNS_7IntVectERKNS_11PeriodicityEb
FN:3317,_ZN5amrex8FabArrayINS_7BaseFabIN5Model5Solid6Affine2J2EEEE19FillBoundary_nowaitIS5_EEviiRKNS_7IntVectERKNS_11PeriodicityEb
FN:3317,_ZN5amrex8FabArrayINS_7BaseFabIN3Set7Matrix4ILi2ELi3EEEEEE19FillBoundary_nowaitIS4_EEviiRKNS_7IntVectERKNS_11PeriodicityEb
FN:3317,_ZN5amrex8FabArrayINS_7BaseFabIN5Model5Solid7Elastic17PseudoLinearCubicEEEE19FillBoundary_nowaitIS5_EEviiRKNS_7IntVectERKNS_11PeriodicityEb
FN:3317,_ZN5amrex8FabArrayINS_7BaseFabIN5Model5Solid6Linear9LaplacianEEEE19FillBoundary_nowaitIS5_EEviiRKNS_7IntVectERKNS_11PeriodicityEb
FN:3317,_ZN5amrex8FabArrayINS_7BaseFabIN5Eigen6MatrixIdLi2ELi2ELi0ELi2ELi2EEEEEE19FillBoundary_nowaitIS4_EEviiRKNS_7IntVectERKNS_11PeriodicityEb
FN:3317,_ZN5amrex8FabArrayINS_7BaseFabIN5Model5Solid6Linear5CubicEEEE19FillBoundary_nowaitIS5_EEviiRKNS_7IntVectERKNS_11PeriodicityEb
FN:3317,_ZN5amrex8FabArrayINS_7BaseFabIN5Model5Solid6Linear9IsotropicEEEE19FillBoundary_nowaitIS5_EEviiRKNS_7IntVectERKNS_11PeriodicityEb
FN:3317,_ZN5amrex8FabArrayINS_7BaseFabIN5Model5Solid6Linear19IsotropicDegradableEEEE19FillBoundary_nowaitIS5_EEviiRKNS_7IntVectERKNS_11PeriodicityEb
FN:3317,_ZN5amrex8FabArrayINS_7BaseFabIN5Model5Solid7Elastic10NeoHookeanEEEE19FillBoundary_nowaitIS5_EEviiRKNS_7IntVectERKNS_11PeriodicityEb
FN:3317,_ZN5amrex8FabArrayINS_7BaseFabIN5Model5Solid7Elastic28PseudoLinearCubicPredeformedEEEE19FillBoundary_nowaitIS5_EEviiRKNS_7IntVectERKNS_11PeriodicityEb
FN:3317,_ZN5amrex8FabArrayINS_7BaseFabIN3Set7Matrix4ILi2ELi6EEEEEE19FillBoundary_nowaitIS4_EEviiRKNS_7IntVectERKNS_11PeriodicityEb
FN:3394,_ZN5amrex8FabArrayINS_9IArrayBoxEE6setValIS1_Li0EEEviRKNS_12FabArrayBase12CommMetaDataEii
FNDA:1,_ZN5amrex8FabArrayINS_7BaseFabIN5Model5Solid7Elastic10NeoHookeanEEEE5ShMemC2EOS8_
FNDA:0,_ZN5amrex4CopyINS_7BaseFabIN3Set7Matrix4ILi2ELi3EEEEES5_Li0EEEvRNS_8FabArrayIT_EERKNS6_IT0_EEiiiRKNS_7IntVectE
FNDA:2,_ZN5amrex8FabArrayINS_7BaseFabIN5Model5Solid6Affine2J2EEEE12FillBoundaryIS5_EEvb
FNDA:0,_ZN5amrex8FabArrayINS_7BaseFabIN5Model5Solid6Linear19IsotropicDegradableEEEE6setValIS6_Li0EEEvS5_
FNDA:58702,_ZNK5amrex8FabArrayINS_7BaseFabIN5Eigen6MatrixIdLi2ELi2ELi0ELi2ELi2EEEEEEixEi
FNDA:0,_ZN5amrex8FabArrayINS_7BaseFabIN5Model5Solid6Affine5CubicEEEEixEi
FNDA:0,_ZN5amrex8FabArrayINS_7BaseFabIN5Model5Solid7Elastic17PseudoLinearCubicEEEE6setValIS6_Li0EEEvS5_
FNDA:32,_ZN5amrex8FabArrayINS_7BaseFabIN5Model5Solid6Affine9IsotropicEEEE19FillBoundary_nowaitIS5_EEviiRKNS_7IntVectERKNS_11PeriodicityEb
FNDA:1,_ZN5amrex8FabArrayINS_7BaseFabIN5Model5Solid6Linear9LaplacianEEEE5ShMemD2Ev
FNDA:0,_ZNK5amrex8FabArrayINS_7BaseFabIN5Model5Solid6Linear9IsotropicEEEE5arrayIS6_Li0EEENS_6Array4IKS5_EEi
FNDA:1147170,_ZN5amrex8FabArrayINS_9FArrayBoxEE5ShMemD2Ev
FNDA:26,_ZN5amrex8FabArrayINS_7BaseFabIN5Model5Solid7Elastic10NeoHookeanEEEE5clearEv
FNDA:116779,_ZN5amrex8FabArrayINS_7BaseFabIN5Eigen6MatrixIdLi2ELi1ELi0ELi2ELi1EEEEEE6fabPtrERKNS_6MFIterE
FNDA:66,_ZN5amrex11nBytesOwnedIN5Model5Solid6Affine2J2EEElRKNS_7BaseFabIT_EE
FNDA:0,_ZN5amrex11nBytesOwnedIN5Model5Solid6Linear19IsotropicDegradableEEElRKNS_7BaseFabIT_EE
FNDA:320,_ZN5amrex8FabArrayINS_7BaseFabIN5Eigen6MatrixIdLi2ELi1ELi0ELi2ELi1EEEEEED2Ev
FNDA:58,_ZN5amrex8FabArrayINS_7BaseFabIN5Model5Solid6Affine2J2EEEE5arrayIS6_Li0EEENS_6Array4IS5_EERKNS_6MFIterE
FNDA:61878,_ZN5amrex8FabArrayINS_7BaseFabIN5Model5Solid6Affine5CubicEEEE6fabPtrEi
FNDA:0,_ZNK5amrex8FabArrayINS_7BaseFabIN5Eigen6MatrixIdLi2ELi1ELi0ELi2ELi1EEEEEE11const_arrayIS5_Li0EEENS_6Array4IKS4_EERKNS_6MFIterE
FNDA:1,_ZN5amrex8FabArrayINS_7BaseFabIN5Model5Solid6Linear9LaplacianEEEE5ShMemC2Ev
FNDA:24522,_ZN5amrex8FabArrayINS_9IArrayBoxEE5clearEv
FNDA:0,_ZN5amrex11nBytesOwnedIN5Model5Solid7Elastic28PseudoLinearCubicPredeformedEEElRKNS_7BaseFabIT_EE
FNDA:8999090,_ZN5amrex11nBytesOwnedIdEElRKNS_7BaseFabIT_EE
FNDA:0,_ZN5amrex8FabArrayINS_7BaseFabIN5Model5Solid6Affine9HexagonalEEEE19FillBoundary_nowaitIS5_EEviiRKNS_7IntVectERKNS_11PeriodicityEb
FNDA:220726,_ZN5amrex8FabArrayINS_7BaseFabIN5Model5Solid6Affine9IsotropicEEEE6fabPtrERKNS_6MFIterE
FNDA:3,_ZN5amrex8FabArrayINS_7BaseFabIN5Model5Solid6Affine2J2EEEE12ParallelCopyERKS7_iiiRKNS_11PeriodicityENS_12FabArrayBase4CpOpE
FNDA:0,_ZN5amrex8FabArrayINS_7BaseFabIN5Model5Solid6Affine5CubicEEEE12FillBoundaryIS5_EEviiRKNS_7IntVectERKNS_11PeriodicityEb
FNDA:532299,_ZN5amrex8FabArrayINS_7BaseFabIN5Eigen6MatrixIdLi2ELi2ELi0ELi2ELi2EEEEEE6fabPtrERKNS_6MFIterE
FNDA:272,_ZN5amrex8FabArrayINS_7BaseFabIN5Eigen6MatrixIdLi2ELi1ELi0ELi2ELi1EEEEEE5ShMemC2Ev
FNDA:1169,_ZN5amrex8FabArrayINS_7BaseFabIN5Model5Solid6Linear9IsotropicEEEE6fabPtrERKNS_6MFIterE
FNDA:10212,_ZN5amrex8FabArrayINS_9IArrayBoxEE12ParallelCopyERKS2_iiiiiRKNS_11PeriodicityENS_12FabArrayBase4CpOpE
FNDA:5,_ZN5amrex8FabArrayINS_7BaseFabIN3Set7Matrix4ILi2ELi3EEEEEE6defineERKNS_8BoxArrayERKNS_19DistributionMappingEiiRKNS_6MFInfoERKNS_10FabFactoryIS5_EE
FNDA:0,_ZN5amrex8FabArrayINS_7BaseFabIN5Model5Solid7Elastic17PseudoLinearCubicEEEE5clearEv
FNDA:2,_ZN5amrex8FabArrayINS_7BaseFabIN5Model5Solid6Linear9IsotropicEEEEC2Ev
FNDA:0,_ZNK5amrex8FabArrayINS_7BaseFabIN5Model5Solid7Elastic28PseudoLinearCubicPredeformedEEEE5arrayIS6_Li0EEENS_6Array4IKS5_EEi
FNDA:0,_ZN5amrex4CopyINS_7BaseFabIN5Model5Solid6Affine2J2EEES6_Li0EEEvRNS_8FabArrayIT_EERKNS7_IT0_EEiiiRKNS_7IntVectE
FNDA:0,_ZN5amrex8FabArrayINS_7BaseFabIN5Model5Solid6Linear5CubicEEEE5ShMemC2EOS8_
FNDA:13194,_ZN5amrex8FabArrayINS_9FArrayBoxEE12FillBoundaryIdEEviiRKNS_7IntVectERKNS_11PeriodicityEb
FNDA:661403,_ZN5amrex8FabArrayINS_7BaseFabIN3Set7Matrix4ILi2ELi1EEEEEE5arrayIS5_Li0EEENS_6Array4IS4_EERKNS_6MFIterE
FNDA:42,_ZN5amrex8FabArrayINS_7BaseFabIN3Set7Matrix4ILi2ELi3EEEEEE9AllocFabsERKNS_10FabFactoryIS5_EEPNS_5ArenaERKNS_6VectorINSt7__cxx1112basic_stringIcSt11char_traitsIcESaIcEEESaISJ_EEE
FNDA:0,_ZN5amrex8FabArrayINS_7BaseFabIN5Model5Solid6Linear19IsotropicDegradableEEEE6defineERKNS_8BoxArrayERKNS_19DistributionMappingEiRKNS_7IntVectERKNS_6MFInfoERKNS_10FabFactoryIS6_EE
FNDA:0,_ZNK5amrex8FabArrayINS_7BaseFabIN5Model5Solid7Elastic10NeoHookeanEEEE7FactoryEv
FNDA:107173,_ZN5amrex8FabArrayINS_7BaseFabIN3Set7Matrix4ILi2ELi3EEEEEE6fabPtrERKNS_6MFIterE
FNDA:76,_ZN5amrex8FabArrayINS_7BaseFabIN5Model5Solid6Affine9IsotropicEEEEC2ERKNS_8BoxArrayERKNS_19DistributionMappingEiiRKNS_6MFInfoERKNS_10FabFactoryIS6_EE
FNDA:0,_ZNK5amrex8FabArrayINS_7BaseFabIN5Model5Solid6Linear19IsotropicDegradableEEEE5arrayIS6_Li0EEENS_6Array4IKS5_EERKNS_6MFIterE
FNDA:15,_ZN5amrex8FabArrayINS_7BaseFabIN5Model5Solid6Linear9IsotropicEEEEC2ERKNS_8BoxArrayERKNS_19DistributionMappingEiRKNS_7IntVectERKNS_6MFInfoERKNS_10FabFactoryIS6_EE
FNDA:1296,_ZN5amrex8FabArrayINS_9FArrayBoxEE9LocalCopyIS1_S1_Li0EEEvRKNS0_IT_EEiiiRKNS_7IntVectE
FNDA:55428,_ZN5amrex11nBytesOwnedIN5Eigen6MatrixIdLi2ELi1ELi0ELi2ELi1EEEEElRKNS_7BaseFabIT_EE
FNDA:40,_ZN5amrex8FabArrayINS_7BaseFabIN3Set7Matrix4ILi2ELi4EEEEEE6fabPtrEi
FNDA:0,_ZNK5amrex8FabArrayINS_7BaseFabIN5Eigen6MatrixIdLi2ELi1ELi0ELi2ELi1EEEEEE5arrayIS5_Li0EEENS_6Array4IKS4_EEi
FNDA:268,_ZN5amrex8FabArrayINS_7BaseFabIN3Set7Matrix4ILi2ELi6EEEEEED2Ev
FNDA:27,_ZNK5amrex8FabArrayINS_7BaseFabIN5Model5Solid6Affine2J2EEEEixEi
FNDA:0,_ZNK5amrex8FabArrayINS_7BaseFabIN5Model5Solid7Elastic17PseudoLinearCubicEEEE6fabPtrEi
FNDA:92,_ZN5amrex8FabArrayINS_7BaseFabIN5Eigen6MatrixIdLi2ELi2ELi0ELi2ELi2EEEEEE5ShMemaSEOS7_
FNDA:2,_ZN5amrex8FabArrayINS_7BaseFabIN5Model5Solid6Linear9LaplacianEEEE12FillBoundaryIS5_EEvb
FNDA:9186,_ZNK5amrex8FabArrayINS_7BaseFabIN5Model5Solid6Affine5CubicEEEEixEi
FNDA:0,_ZNK5amrex8FabArrayINS_7BaseFabIN3Set7Matrix4ILi2ELi1EEEEEE5arrayIS5_Li0EEENS_6Array4IKS4_EEi
FNDA:0,_ZNK5amrex8FabArrayINS_7BaseFabIN5Model5Solid7Elastic17PseudoLinearCubicEEEE5arrayIS6_Li0EEENS_6Array4IKS5_EERKNS_6MFIterE
FNDA:0,_ZNK5amrex8FabArrayINS_7BaseFabIN5Model5Solid6Linear19IsotropicDegradableEEEEixERKNS_6MFIterE
FNDA:106,_ZN5amrex8FabArrayINS_7BaseFabIN5Model5Solid6Affine2J2EEEE6fabPtrERKNS_6MFIterE
FNDA:1,_ZNK5amrex8FabArrayINS_7BaseFabIN3Set7Matrix4ILi2ELi4EEEEEE6fabPtrERKNS_6MFIterE
FNDA:0,_ZNK5amrex8FabArrayINS_7BaseFabIN5Model5Solid6Affine9HexagonalEEEE6fabPtrEi
FNDA:0,_ZN5amrex8FabArrayINS_7BaseFabIN3Set7Matrix4ILi2ELi3EEEEEEixEi
FNDA:0,_ZN5amrex8FabArrayINS_7BaseFabIN5Model5Solid7Elastic28PseudoLinearCubicPredeformedEEEE6defineERKNS_8BoxArrayERKNS_19DistributionMappingEiRKNS_7IntVectERKNS_6MFInfoERKNS_10FabFactoryIS6_EE
FNDA:164,_ZN5amrex8FabArrayINS_7BaseFabIN3Set7Matrix4ILi2ELi6EEEEEE12FillBoundaryIS4_EEvRKNS_11PeriodicityEb
FNDA:12179,_ZN5amrex8FabArrayINS_6TagBoxEE6fabPtrERKNS_6MFIterE
FNDA:0,_ZNK5amrex8FabArrayINS_7BaseFabIN5Model5Solid6Linear9LaplacianEEEE6fabPtrEi
FNDA:0,_ZN5amrex8FabArrayINS_7BaseFabIN5Model5Solid6Affine9IsotropicEEEE12ParallelCopyERKS7_iiiiiRKNS_11PeriodicityENS_12FabArrayBase4CpOpE
FNDA:0,_ZNK5amrex8FabArrayINS_7BaseFabIN5Model5Solid6Linear9LaplacianEEEE5arrayIS6_Li0EEENS_6Array4IKS5_EEi
FNDA:894,_ZNK5amrex8FabArrayINS_7BaseFabIN3Set7Matrix4ILi2ELi3EEEEEE5arrayIS5_Li0EEENS_6Array4IKS4_EERKNS_6MFIterE
FNDA:26227,_ZNK5amrex8FabArrayINS_7BaseFabIN3Set7Matrix4ILi2ELi3EEEEEEixEi
FNDA:0,_ZN5amrex4CopyINS_7BaseFabIN5Model5Solid7Elastic10NeoHookeanEEES6_Li0EEEvRNS_8FabArrayIT_EERKNS7_IT0_EEiiiRKNS_7IntVectE
FNDA:0,_ZN5amrex8FabArrayINS_7BaseFabIN5Model5Solid6Linear9LaplacianEEEE12ParallelCopyERKS7_iiiRKNS_11PeriodicityENS_12FabArrayBase4CpOpE
FNDA:4,_ZN5amrex8FabArrayINS_7BaseFabIN5Model5Solid6Affine5CubicEEEE5ShMemaSEOS8_
FNDA:0,_ZN5amrex8FabArrayINS_7BaseFabIN5Model5Solid7Elastic10NeoHookeanEEEE12ParallelCopyERKS7_iiiRKNS_11PeriodicityENS_12FabArrayBase4CpOpE
FNDA:0,_ZN5amrex8FabArrayINS_7BaseFabIN5Model5Solid6Affine9IsotropicEEEEC2Ev
FNDA:0,_ZN5amrex8FabArrayINS_7BaseFabIN5Model5Solid6Linear19IsotropicDegradableEEEE6setValIS6_Li0EEEvS5_iiRKNS_7IntVectE
FNDA:11,_ZN5amrex8FabArrayINS_7BaseFabIN5Model5Solid7Elastic10NeoHookeanEEEED2Ev
FNDA:76,_ZN5amrex8FabArrayINS_7BaseFabIN5Model5Solid6Affine9IsotropicEEEE6defineERKNS_8BoxArrayERKNS_19DistributionMappingEiRKNS_7IntVectERKNS_6MFInfoERKNS_10FabFactoryIS6_EE
FNDA:2,_ZN5amrex8FabArrayINS_7BaseFabIN5Model5Solid7Elastic10NeoHookeanEEEE5ShMemaSEOS8_
FNDA:34,_ZN5amrex8FabArrayINS_7BaseFabIN5Model5Solid6Affine5CubicEEEE5clearEv
FNDA:27,_ZN5amrex8FabArrayINS_7BaseFabIN5Model5Solid6Affine2J2EEEE3getEi
FNDA:0,_ZN5amrex3AddINS_7BaseFabIN3Set7Matrix4ILi2ELi1EEEEEvEEvRNS_8FabArrayIT_EERKS8_iiiRKNS_7IntVectE
FNDA:6009230,_ZNK5amrex8FabArrayINS_9FArrayBoxEEixEi
FNDA:3,_ZN5amrex8FabArrayINS_7BaseFabIN5Model5Solid6Affine2J2EEEEC2Ev
FNDA:0,_ZN5amrex3AddINS_7BaseFabIN5Model5Solid6Affine2J2EEEvEEvRNS_8FabArrayIT_EERKS9_iiiRKNS_7IntVectE
FNDA:16972,_ZN5amrex11nBytesOwnedIN5Model5Solid6Affine9IsotropicEEElRKNS_7BaseFabIT_EE
FNDA:10,_ZN5amrex8FabArrayINS_7BaseFabIN5Eigen6MatrixIdLi2ELi2ELi0ELi2ELi2EEEEEE12ParallelCopyERKS6_iiiRKNS_11PeriodicityENS_12FabArrayBase4CpOpE
FNDA:17,_ZN5amrex8FabArrayINS_7BaseFabIN5Model5Solid6Linear9IsotropicEEEE5ShMemC2Ev
FNDA:0,_ZN5amrex4CopyINS_7BaseFabIN5Model5Solid7Elastic17PseudoLinearCubicEEES6_Li0EEEvRNS_8FabArrayIT_EERKNS7_IT0_EEiiiRKNS_7IntVectE
FNDA:1,_ZN5amrex8FabArrayINS_7BaseFabIN5Model5Solid7Elastic10NeoHookeanEEEEC2EOS7_
FNDA:12,_ZN5amrex8FabArrayINS_7BaseFabIN5Eigen6MatrixIdLi2ELi1ELi0ELi2ELi1EEEEEE6defineERKNS_8BoxArrayERKNS_19DistributionMappingEiiRKNS_6MFInfoERKNS_10FabFactoryIS5_EE
FNDA:0,_ZN5amrex8FabArrayINS_7BaseFabIN5Model5Solid6Linear9LaplacianEEEE12ParallelCopyERKS7_iiiiiRKNS_11PeriodicityENS_12FabArrayBase4CpOpE
FNDA:12,_ZN5amrex8FabArrayINS_7BaseFabIN5Eigen6MatrixIdLi2ELi1ELi0ELi2ELi1EEEEEE12ParallelCopyERKS6_iiiRKNS_11PeriodicityENS_12FabArrayBase4CpOpE
FNDA:1075830,_ZN5amrex8FabArrayINS_9FArrayBoxEE9AllocFabsERKNS_10FabFactoryIS1_EEPNS_5ArenaERKNS_6VectorINSt7__cxx1112basic_stringIcSt11char_traitsIcESaIcEEESaISF_EEE
FNDA:0,_ZN5amrex8FabArrayINS_7BaseFabIN5Model5Solid7Elastic17PseudoLinearCubicEEEE9AllocFabsERKNS_10FabFactoryIS6_EEPNS_5ArenaERKNS_6VectorINSt7__cxx1112basic_stringIcSt11char_traitsIcESaIcEEESaISK_EEE
FNDA:0,_ZN5amrex8FabArrayINS_7BaseFabIN5Model5Solid6Affine9HexagonalEEEE6fabPtrERKNS_6MFIterE
FNDA:0,_ZN5amrex8FabArrayINS_7BaseFabIN5Model5Solid6Affine9HexagonalEEEE5ShMemC2EOS8_
FNDA:1440,_ZN5amrex8FabArrayINS_7BaseFabIN3Set7Matrix4ILi2ELi1EEEEEEC2ERKNS_8BoxArrayERKNS_19DistributionMappingEiRKNS_7IntVectERKNS_6MFInfoERKNS_10FabFactoryIS5_EE
FNDA:48,_ZN5amrex8FabArrayINS_7BaseFabIN5Model5Solid6Affine2J2EEEEixERKNS_6MFIterE
FNDA:0,_ZN5amrex8FabArrayINS_7BaseFabIN5Model5Solid7Elastic17PseudoLinearCubicEEEEC2ERKNS_8BoxArrayERKNS_19DistributionMappingEiRKNS_7IntVectERKNS_6MFInfoERKNS_10FabFactoryIS6_EE
FNDA:5,_ZN5amrex8FabArrayINS_7BaseFabIN5Model5Solid6Affine5CubicEEEE6setValIS6_Li0EEEvS5_
FNDA:0,_ZN5amrex8FabArrayINS_7BaseFabIN5Model5Solid7Elastic28PseudoLinearCubicPredeformedEEEE6setValIS6_Li0EEEvS5_
FNDA:0,_ZNK5amrex8FabArrayINS_7BaseFabIN5Model5Solid6Linear5CubicEEEEixERKNS_6MFIterE
FNDA:0,_ZN5amrex8FabArrayINS_7BaseFabIN5Model5Solid7Elastic10NeoHookeanEEEEixEi
FNDA:441,_ZN5amrex8FabArrayINS_9IArrayBoxEE6setValIS1_Li0EEEviRKNS_12FabArrayBase12CommMetaDataEii
FNDA:0,_ZN5amrex8FabArrayINS_7BaseFabIN5Model5Solid7Elastic28PseudoLinearCubicPredeformedEEEE6fabPtrERKNS_6MFIterE
FNDA:379,_ZN5amrex8FabArrayINS_7BaseFabIN5Eigen6MatrixIdLi2ELi1ELi0ELi2ELi1EEEEEE6setValIS5_Li0EEEvS4_iiRKNS_7IntVectE
FNDA:20,_ZN5amrex8FabArrayINS_7BaseFabIN5Model5Solid6Affine9IsotropicEEEEC2EOS7_
FNDA:26,_ZN5amrex8FabArrayINS_7BaseFabIN5Model5Solid7Elastic10NeoHookeanEEEE12clear_arraysEv
FNDA:0,_ZN5amrex8FabArrayINS_7BaseFabIdEEE19FillBoundary_nowaitIdEEviiRKNS_7IntVectERKNS_11PeriodicityEb
FNDA:14,_ZN5amrex8FabArrayINS_7BaseFabIN5Model5Solid6Linear9IsotropicEEEE6setValIS6_Li0EEEvS5_
FNDA:32,_ZN5amrex8FabArrayINS_7BaseFabIN5Model5Solid6Affine9IsotropicEEEE12FillBoundaryIS5_EEvb
FNDA:8,_ZN5amrex8FabArrayINS_7BaseFabIN5Model5Solid6Affine5CubicEEEE19FillBoundary_nowaitIS5_EEviiRKNS_7IntVectERKNS_11PeriodicityEb
FNDA:34,_ZN5amrex8FabArrayINS_7BaseFabIN5Model5Solid6Affine5CubicEEEE12clear_arraysEv
FNDA:0,_ZNK5amrex8FabArrayINS_7BaseFabIN3Set7Matrix4ILi2ELi3EEEEEE11const_arrayIS5_Li0EEENS_6Array4IKS4_EERKNS_6MFIterE
FNDA:0,_ZN5amrex8FabArrayINS_7BaseFabIN5Model5Solid6Linear19IsotropicDegradableEEEE12clear_arraysEv
FNDA:14,_ZN5amrex8FabArrayINS_7BaseFabIN5Model5Solid6Affine2J2EEEE5clearEv
FNDA:6776410,_ZN5amrex8FabArrayINS_9FArrayBoxEEixERKNS_6MFIterE
FNDA:0,_ZNK5amrex8FabArrayINS_7BaseFabIN5Model5Solid7Elastic17PseudoLinearCubicEEEEixEi
FNDA:28,_ZN5amrex8FabArrayINS_7BaseFabIN3Set7Matrix4ILi2ELi4EEEEEE5ShMemD2Ev
FNDA:0,_ZN5amrex8FabArrayINS_7BaseFabIN5Model5Solid7Elastic28PseudoLinearCubicPredeformedEEEE3getEi
FNDA:0,_ZN5amrex8FabArrayINS_7BaseFabIN5Model5Solid6Affine9HexagonalEEEE6setValIS6_Li0EEEvS5_
FNDA:0,_ZNK5amrex8FabArrayINS_7BaseFabIN5Model5Solid6Linear9LaplacianEEEE7FactoryEv
FNDA:10,_ZN5amrex8FabArrayINS_7BaseFabIN5Eigen6MatrixIdLi2ELi2ELi0ELi2ELi2EEEEEEC2Ev
FNDA:0,_ZN5amrex8FabArrayINS_7BaseFabIN5Model5Solid7Elastic28PseudoLinearCubicPredeformedEEEED2Ev
FNDA:69645,_ZN5amrex11nBytesOwnedIiEElRKNS_7BaseFabIT_EE
FNDA:0,_ZNK5amrex8FabArrayINS_7BaseFabIN5Model5Solid6Linear9LaplacianEEEE5arrayIS6_Li0EEENS_6Array4IKS5_EERKNS_6MFIterE
FNDA:0,_ZN5amrex8FabArrayINS_7BaseFabIN5Model5Solid6Linear19IsotropicDegradableEEEEixERKNS_6MFIterE
FNDA:379,_ZN5amrex8FabArrayINS_7BaseFabIN5Eigen6MatrixIdLi2ELi1ELi0ELi2ELi1EEEEEE6setValIS5_Li0EEEvS4_
FNDA:0,_ZN5amrex4CopyINS_7BaseFabIN5Eigen6MatrixIdLi2ELi2ELi0ELi2ELi2EEEEES5_Li0EEEvRNS_8FabArrayIT_EERKNS6_IT0_EEiiiRKNS_7IntVectE
FNDA:272,_ZN5amrex8FabArrayINS_7BaseFabIN5Eigen6MatrixIdLi2ELi2ELi0ELi2ELi2EEEEEE6setValIS5_Li0EEEvS4_iiRKNS_7IntVectE
FNDA:1600,_ZN5amrex8FabArrayINS_7BaseFabIN3Set7Matrix4ILi2ELi1EEEEEE9AllocFabsERKNS_10FabFactoryIS5_EEPNS_5ArenaERKNS_6VectorINSt7__cxx1112basic_stringIcSt11char_traitsIcESaIcEEESaISJ_EEE
FNDA:1309,_ZN5amrex8FabArrayINS_7BaseFabIN5Model5Solid6Linear9IsotropicEEEE3getEi
FNDA:3196,_ZNK5amrex8FabArrayINS_7BaseFabIN5Model5Solid6Affine9IsotropicEEEEixERKNS_6MFIterE
FNDA:0,_ZN5amrex3AddINS_7BaseFabIN3Set7Matrix4ILi2ELi6EEEEEvEEvRNS_8FabArrayIT_EERKS8_iiiRKNS_7IntVectE
FNDA:0,_ZNK5amrex8FabArrayINS_7BaseFabIN3Set7Matrix4ILi2ELi1EEEEEE11const_arrayIS5_Li0EEENS_6Array4IKS4_EERKNS_6MFIterE
FNDA:0,_ZN5amrex4CopyINS_9IArrayBoxES1_Li0EEEvRNS_8FabArrayIT_EERKNS2_IT0_EEiiiRKNS_7IntVectE
FNDA:0,_ZN5amrex8FabArrayINS_7BaseFabIN5Model5Solid6Linear9IsotropicEEEE5ShMemC2EOS8_
FNDA:84,_ZN5amrex8FabArrayINS_7BaseFabIN3Set7Matrix4ILi2ELi3EEEEEE12clear_arraysEv
FNDA:1600,_ZN5amrex8FabArrayINS_7BaseFabIN3Set7Matrix4ILi2ELi1EEEEEE5ShMemD2Ev
FNDA:96,_ZN5amrex8FabArrayINS_7BaseFabIN5Eigen6MatrixIdLi2ELi1ELi0ELi2ELi1EEEEEE5ShMemaSEOS7_
FNDA:0,_ZN5amrex8FabArrayINS_7BaseFabIN5Model5Solid6Affine9HexagonalEEEEaSEOS7_
FNDA:0,_ZN5amrex8FabArrayINS_7BaseFabIN5Model5Solid6Linear5CubicEEEED2Ev
FNDA:336,_ZN5amrex8FabArrayINS_7BaseFabIN5Model5Solid7Elastic10NeoHookeanEEEE6fabPtrEi
FNDA:28,_ZN5amrex8FabArrayINS_7BaseFabIN3Set7Matrix4ILi2ELi4EEEEEE6defineERKNS_8BoxArrayERKNS_19DistributionMappingEiRKNS_7IntVectERKNS_6MFInfoERKNS_10FabFactoryIS5_EE
FNDA:12,_ZN5amrex8FabArrayINS_7BaseFabIN5Eigen6MatrixIdLi2ELi1ELi0ELi2ELi1EEEEEE12ParallelCopyERKS6_iiiiiRKNS_11PeriodicityENS_12FabArrayBase4CpOpE
FNDA:8068,_ZNK5amrex8FabArrayINS_7BaseFabIN5Eigen6MatrixIdLi2ELi1ELi0ELi2ELi1EEEEEEixERKNS_6MFIterE
FNDA:0,_ZN5amrex8FabArrayINS_7BaseFabIN5Model5Solid6Linear9IsotropicEEEEC2EOS7_
FNDA:0,_ZNK5amrex8FabArrayINS_7BaseFabIN5Eigen6MatrixIdLi2ELi1ELi0ELi2ELi1EEEEEE5arrayIS5_Li0EEENS_6Array4IKS4_EERKNS_6MFIterE
FNDA:336,_ZN5amrex8FabArrayINS_7BaseFabIN5Model5Solid7Elastic10NeoHookeanEEEE3getEi
FNDA:160,_ZN5amrex8FabArrayINS_7BaseFabIN3Set7Matrix4ILi2ELi1EEEEEE6setValIS5_Li0EEEvS4_iiRKNS_7IntVectE
FNDA:498,_ZNK5amrex8FabArrayINS_9IArrayBoxEE6fabPtrERKNS_6MFIterE
FNDA:0,_ZN5amrex8FabArrayINS_7BaseFabIN5Model5Solid6Linear5CubicEEEEixEi
FNDA:0,_ZN5amrex8FabArrayINS_7BaseFabIN5Model5Solid6Linear5CubicEEEE6fabPtrERKNS_6MFIterE
FNDA:917126,_ZN5amrex4CopyINS_9FArrayBoxES1_Li0EEEvRNS_8FabArrayIT_EERKNS2_IT0_EEiiiRKNS_7IntVectE
FNDA:0,_ZN5amrex8FabArrayINS_9FArrayBoxEE8setBndryIS1_Li0EEEvdii
FNDA:1,_ZN5amrex8FabArrayINS_7BaseFabIN3Set7Matrix4ILi2ELi4EEEEEE6setValIS5_Li0EEEvS4_
FNDA:0,_ZN5amrex8FabArrayINS_7BaseFabIN5Model5Solid6Linear9IsotropicEEEEixEi
FNDA:0,_ZN5amrex4CopyINS_7BaseFabIN5Model5Solid7Elastic28PseudoLinearCubicPredeformedEEES6_Li0EEEvRNS_8FabArrayIT_EERKNS7_IT0_EEiiiRKNS_7IntVectE
FNDA:11957,_ZN5amrex8FabArrayINS_9FArrayBoxEEC2ERKNS_8BoxArrayERKNS_19DistributionMappingEiiRKNS_6MFInfoERKNS_10FabFactoryIS1_EE
FNDA:3500,_ZN5amrex8FabArrayINS_7BaseFabIN3Set7Matrix4ILi2ELi1EEEEEE19FillBoundary_nowaitIS4_EEviiRKNS_7IntVectERKNS_11PeriodicityEb
FNDA:0,_ZN5amrex8FabArrayINS_7BaseFabIN5Eigen6MatrixIdLi2ELi1ELi0ELi2ELi1EEEEEE12FillBoundaryIS4_EEviiRKNS_7IntVectERKNS_11PeriodicityEb
FNDA:0,_ZN5amrex8FabArrayINS_7BaseFabIN5Model5Solid6Linear19IsotropicDegradableEEEE6defineERKNS_8BoxArrayERKNS_19DistributionMappingEiiRKNS_6MFInfoERKNS_10FabFactoryIS6_EE
FNDA:0,_ZNK5amrex8FabArrayINS_7BaseFabIN5Model5Solid7Elastic28PseudoLinearCubicPredeformedEEEEixEi
FNDA:113730,_ZN5amrex8FabArrayINS_9IArrayBoxEE3getEi
FNDA:0,_ZN5amrex8FabArrayINS_7BaseFabIN5Model5Solid6Linear19IsotropicDegradableEEEE6fabPtrEi
FNDA:12179,_ZN5amrex8FabArrayINS_6TagBoxEE5arrayIS1_Li0EEENS_6Array4IcEERKNS_6MFIterE
FNDA:0,_ZN5amrex4CopyINS_7BaseFabIN3Set7Matrix4ILi2ELi4EEEEES5_Li0EEEvRNS_8FabArrayIT_EERKNS6_IT0_EEiiiRKNS_7IntVectE
FNDA:0,_ZN5amrex8FabArrayINS_7BaseFabIN5Model5Solid6Linear19IsotropicDegradableEEEE5ShMemD2Ev
FNDA:0,_ZN5amrex8FabArrayINS_7BaseFabIN5Model5Solid7Elastic28PseudoLinearCubicPredeformedEEEE5ShMemD2Ev
FNDA:0,_ZN5amrex8FabArrayINS_7BaseFabIN5Model5Solid6Affine2J2EEEE5ShMemaSEOS8_
FNDA:0,_ZN5amrex8FabArrayINS_7BaseFabIN5Model5Solid6Linear19IsotropicDegradableEEEEC2ERKNS_8BoxArrayERKNS_19DistributionMappingEiRKNS_7IntVectERKNS_6MFInfoERKNS_10FabFactoryIS6_EE
FNDA:0,_ZNK5amrex8FabArrayINS_7BaseFabIN5Model5Solid6Linear5CubicEEEE7FactoryEv
FNDA:0,_ZNK5amrex8FabArrayINS_7BaseFabIN5Model5Solid6Linear5CubicEEEE5arrayIS6_Li0EEENS_6Array4IKS5_EEi
FNDA:29451,_ZN5amrex8FabArrayINS_9IArrayBoxEE6fabPtrERKNS_6MFIterE
FNDA:960,_ZN5amrex8FabArrayINS_7BaseFabIN3Set7Matrix4ILi2ELi1EEEEEE12FillBoundaryIS4_EEvRKNS_11PeriodicityEb
FNDA:1091,_ZN5amrex8FabArrayINS_7BaseFabIN5Model5Solid6Linear9IsotropicEEEE5arrayIS6_Li0EEENS_6Array4IS5_EERKNS_6MFIterE
FNDA:16,_ZNK5amrex8FabArrayINS_7BaseFabIN5Model5Solid6Affine2J2EEEE6fabPtrERKNS_6MFIterE
FNDA:2349,_ZN5amrex8FabArrayINS_7BaseFabIN5Model5Solid7Elastic10NeoHookeanEEEE5arrayIS6_Li0EEENS_6Array4IS5_EERKNS_6MFIterE
FNDA:53646,_ZN5amrex8FabArrayINS_9FArrayBoxEE5ShMemaSEOS3_
FNDA:56,_ZN5amrex8FabArrayINS_7BaseFabIN3Set7Matrix4ILi2ELi4EEEEEE5clearEv
FNDA:17686,_ZN5amrex8FabArrayINS_9FArrayBoxEE12ParallelCopyERKS2_RKNS_11PeriodicityENS_12FabArrayBase4CpOpE
FNDA:0,_ZN5amrex8FabArrayINS_7BaseFabIN5Model5Solid6Linear19IsotropicDegradableEEEEixEi
FNDA:11,_ZN5amrex8FabArrayINS_7BaseFabIN5Model5Solid6Affine5CubicEEEE9AllocFabsERKNS_10FabFactoryIS6_EEPNS_5ArenaERKNS_6VectorINSt7__cxx1112basic_stringIcSt11char_traitsIcESaIcEEESaISK_EEE
FNDA:0,_ZNK5amrex8FabArrayINS_7BaseFabIN5Model5Solid7Elastic28PseudoLinearCubicPredeformedEEEE6fabPtrEi
FNDA:0,_ZN5amrex8FabArrayINS_4MaskEED2Ev
FNDA:260,_ZN5amrex8FabArrayINS_7BaseFabIN5Eigen6MatrixIdLi2ELi1ELi0ELi2ELi1EEEEEEC2ERKNS_8BoxArrayERKNS_19DistributionMappingEiRKNS_7IntVectERKNS_6MFInfoERKNS_10FabFactoryIS5_EE
FNDA:0,_ZN5amrex8FabArrayINS_7BaseFabIN5Model5Solid6Linear5CubicEEEE12FillBoundaryIS5_EEviiRKNS_7IntVectERKNS_11PeriodicityEb
FNDA:0,_ZN5amrex8FabArrayINS_7BaseFabIN5Model5Solid6Linear5CubicEEEE6setValIS6_Li0EEEvS5_
FNDA:22590,_ZN5amrex8FabArrayINS_7BaseFabIN5Eigen6MatrixIdLi2ELi2ELi0ELi2ELi2EEEEEEixERKNS_6MFIterE
FNDA:0,_ZN5amrex8FabArrayINS_7BaseFabIN5Model5Solid7Elastic17PseudoLinearCubicEEEEixEi
FNDA:28,_ZN5amrex8FabArrayINS_7BaseFabIN3Set7Matrix4ILi2ELi4EEEEEE9AllocFabsERKNS_10FabFactoryIS5_EEPNS_5ArenaERKNS_6VectorINSt7__cxx1112basic_stringIcSt11char_traitsIcESaIcEEESaISJ_EEE
FNDA:40,_ZN5amrex8FabArrayINS_7BaseFabIN5Model5Solid6Affine9IsotropicEEEEaSEOS7_
FNDA:0,_ZNK5amrex8FabArrayINS_7BaseFabIN5Model5Solid6Affine9IsotropicEEEE7FactoryEv
FNDA:56,_ZN5amrex8FabArrayINS_7BaseFabIN3Set7Matrix4ILi2ELi4EEEEEE12clear_arraysEv
FNDA:0,_ZNK5amrex8FabArrayINS_7BaseFabIN5Model5Solid7Elastic28PseudoLinearCubicPredeformedEEEEixERKNS_6MFIterE
FNDA:0,_ZN5amrex8FabArrayINS_7BaseFabIN5Model5Solid7Elastic17PseudoLinearCubicEEEE6setValIS6_Li0EEEvS5_iiRKNS_7IntVectE
FNDA:22,_ZN5amrex8FabArrayINS_7BaseFabIN3Set7Matrix4ILi2ELi6EEEEEE6setValIS5_Li0EEEvS4_
FNDA:3200,_ZN5amrex8FabArrayINS_7BaseFabIN3Set7Matrix4ILi2ELi1EEEEEE5clearEv
FNDA:6,_ZN5amrex8FabArrayINS_7BaseFabIN3Set7Matrix4ILi2ELi3EEEEEE12FillBoundaryIS4_EEvb
FNDA:0,_ZN5amrex8FabArrayINS_7BaseFabIN5Model5Solid6Linear19IsotropicDegradableEEEE12ParallelCopyERKS7_iiiiiRKNS_11PeriodicityENS_12FabArrayBase4CpOpE
FNDA:687703,_ZN5amrex8FabArrayINS_9FArrayBoxEE19FillBoundary_nowaitIdEEviiRKNS_7IntVectERKNS_11PeriodicityEb
FNDA:0,_ZN5amrex8FabArrayINS_7BaseFabIN5Model5Solid6Linear9LaplacianEEEE6defineERKNS_8BoxArrayERKNS_19DistributionMappingEiiRKNS_6MFInfoERKNS_10FabFactoryIS6_EE
FNDA:11171,_ZN5amrex8FabArrayINS_9IArrayBoxEEixEi
FNDA:373,_ZNK5amrex8FabArrayINS_7BaseFabIN3Set7Matrix4ILi2ELi6EEEEEE6fabPtrERKNS_6MFIterE
FNDA:0,_ZN5amrex8FabArrayINS_9FArrayBoxEE6setValIS1_Li0EEEvdiii
FNDA:0,_ZN5amrex8FabArrayINS_7BaseFabIN5Model5Solid6Linear19IsotropicDegradableEEEE6fabPtrERKNS_6MFIterE
FNDA:124901,_ZN5amrex8FabArrayINS_9IArrayBoxEE6fabPtrEi
FNDA:104,_ZN5amrex8FabArrayINS_7BaseFabIN5Eigen6MatrixIdLi2ELi1ELi0ELi2ELi1EEEEEE19FillBoundary_nowaitIS4_EEviiRKNS_7IntVectERKNS_11PeriodicityEb
FNDA:1136,_ZN5amrex8FabArrayINS_7BaseFabIN5Eigen6MatrixIdLi2ELi2ELi0ELi2ELi2EEEEEE12clear_arraysEv
FNDA:0,_ZNK5amrex8FabArrayINS_7BaseFabIN5Model5Solid7Elastic28PseudoLinearCubicPredeformedEEEE11const_arrayIS6_Li0EEENS_6Array4IKS5_EERKNS_6MFIterE
FNDA:0,_ZN5amrex8FabArrayINS_7BaseFabIN5Model5Solid7Elastic17PseudoLinearCubicEEEEixERKNS_6MFIterE
FNDA:26672600,_ZN5amrex8FabArrayINS_9FArrayBoxEE3getEi
FNDA:9588,_ZN5amrex8FabArrayINS_7BaseFabIN5Model5Solid6Affine9IsotropicEEEEixERKNS_6MFIterE
FNDA:20,_ZN5amrex8FabArrayINS_7BaseFabIN5Model5Solid6Linear9IsotropicEEEE12FillBoundaryIS5_EEvb
FNDA:0,_ZN5amrex8FabArrayINS_7BaseFabIN5Model5Solid6Linear5CubicEEEEaSEOS7_
FNDA:51332,_ZN5amrex11nBytesOwnedIN5Eigen6MatrixIdLi2ELi2ELi0ELi2ELi2EEEEElRKNS_7BaseFabIT_EE
FNDA:238,_ZN5amrex8FabArrayINS_7BaseFabIN3Set7Matrix4ILi2ELi6EEEEEEC2ERKNS_8BoxArrayERKNS_19DistributionMappingEiiRKNS_6MFInfoERKNS_10FabFactoryIS5_EE
FNDA:0,_ZN5amrex8FabArrayINS_7BaseFabIN5Model5Solid6Affine9HexagonalEEEE5clearEv
FNDA:0,_ZN5amrex8FabArrayINS_7BaseFabIN5Model5Solid6Linear19IsotropicDegradableEEEEaSEOS7_
FNDA:26561,_ZN5amrex8FabArrayINS_9FArrayBoxEE12FillBoundaryIdEEvRKNS_11PeriodicityEb
FNDA:78,_ZN5amrex8FabArrayINS_7BaseFabIN5Model5Solid6Linear9IsotropicEEEEixERKNS_6MFIterE
FNDA:0,_ZN5amrex8FabArrayINS_7BaseFabIN5Model5Solid6Affine2J2EEEE5ShMemC2EOS8_
FNDA:42,_ZN5amrex8FabArrayINS_7BaseFabIN3Set7Matrix4ILi2ELi3EEEEEE5ShMemD2Ev
FNDA:113730,_ZNK5amrex8FabArrayINS_9IArrayBoxEE6fabPtrEi
FNDA:0,_ZN5amrex4CopyINS_7BaseFabIN5Model5Solid6Linear19IsotropicDegradableEEES6_Li0EEEvRNS_8FabArrayIT_EERKNS7_IT0_EEiiii
FNDA:0,_ZN5amrex4CopyINS_7BaseFabIN5Model5Solid6Linear9LaplacianEEES6_Li0EEEvRNS_8FabArrayIT_EERKNS7_IT0_EEiiiRKNS_7IntVectE
FNDA:0,_ZN5amrex8FabArrayINS_7BaseFabIN5Model5Solid6Linear5CubicEEEE12ParallelCopyERKS7_iiiRKNS_11PeriodicityENS_12FabArrayBase4CpOpE
FNDA:0,_ZNK5amrex8FabArrayINS_7BaseFabIN5Model5Solid6Affine9HexagonalEEEE5arrayIS6_Li0EEENS_6Array4IKS5_EEi
FNDA:17,_ZN5amrex8FabArrayINS_7BaseFabIN5Model5Solid6Linear9IsotropicEEEED2Ev
FNDA:2,_ZN5amrex11nBytesOwnedIN5Model5Solid6Linear9LaplacianEEElRKNS_7BaseFabIT_EE
FNDA:0,_ZN5amrex8FabArrayINS_7BaseFabIN5Model5Solid7Elastic28PseudoLinearCubicPredeformedEEEE6setValIS6_Li0EEEvS5_iiRKNS_7IntVectE
FNDA:2,_ZN5amrex8FabArrayINS_7BaseFabIN5Model5Solid6Linear9LaplacianEEEE5clearEv
FNDA:661403,_ZN5amrex8FabArrayINS_7BaseFabIN3Set7Matrix4ILi2ELi1EEEEEE6fabPtrERKNS_6MFIterE
FNDA:272,_ZN5amrex8FabArrayINS_7BaseFabIN5Eigen6MatrixIdLi2ELi1ELi0ELi2ELi1EEEEEE9AllocFabsERKNS_10FabFactoryIS5_EEPNS_5ArenaERKNS_6VectorINSt7__cxx1112basic_stringIcSt11char_traitsIcESaIcEEESaISJ_EEE
FNDA:0,_ZN5amrex8FabArrayINS_7BaseFabIN5Model5Solid6Linear5CubicEEEE5ShMemD2Ev
FNDA:0,_ZN5amrex8FabArrayINS_7BaseFabIN5Model5Solid6Linear5CubicEEEE5ShMemC2Ev
FNDA:0,_ZNK5amrex8FabArrayINS_7BaseFabIN5Model5Solid6Linear5CubicEEEE5arrayIS6_Li0EEENS_6Array4IKS5_EERKNS_6MFIterE
FNDA:1536,_ZN5amrex8FabArrayINS_7BaseFabIN5Model5Solid6Affine5CubicEEEEixERKNS_6MFIterE
FNDA:48,_ZN5amrex8FabArrayINS_7BaseFabIN5Eigen6MatrixIdLi2ELi1ELi0ELi2ELi1EEEEEEC2EOS6_
FNDA:512,_ZNK5amrex8FabArrayINS_7BaseFabIN5Model5Solid6Affine5CubicEEEE6fabPtrERKNS_6MFIterE
FNDA:272,_ZN5amrex8FabArrayINS_7BaseFabIN5Eigen6MatrixIdLi2ELi1ELi0ELi2ELi1EEEEEE6defineERKNS_8BoxArrayERKNS_19DistributionMappingEiRKNS_7IntVectERKNS_6MFInfoERKNS_10FabFactoryIS5_EE
FNDA:477,_ZN5amrex8FabArrayINS_7BaseFabIN3Set7Matrix4ILi2ELi4EEEEEE5arrayIS5_Li0EEENS_6Array4IS4_EERKNS_6MFIterE
FNDA:26227,_ZNK5amrex8FabArrayINS_7BaseFabIN3Set7Matrix4ILi2ELi3EEEEEE6fabPtrEi
FNDA:1600,_ZN5amrex8FabArrayINS_7BaseFabIN3Set7Matrix4ILi2ELi1EEEEEE5ShMemC2Ev
FNDA:1,_ZN5amrex8FabArrayINS_7BaseFabIN3Set7Matrix4ILi2ELi4EEEEEE6setValIS5_Li0EEEvS4_iiRKNS_7IntVectE
FNDA:0,_ZN5amrex8FabArrayINS_7BaseFabIN3Set7Matrix4ILi2ELi4EEEEEEixEi
FNDA:512,_ZNK5amrex8FabArrayINS_7BaseFabIN5Model5Solid6Affine5CubicEEEEixERKNS_6MFIterE
FNDA:12257,_ZN5amrex8FabArrayINS_9FArrayBoxEE14setDomainBndryIS1_Li0EEEvdiiRKNS_8GeometryE
FNDA:0,_ZN5amrex8FabArrayINS_7BaseFabIN5Eigen6MatrixIdLi2ELi2ELi0ELi2ELi2EEEEEE12FillBoundaryIS4_EEviiRKNS_7IntVectERKNS_11PeriodicityEb
FNDA:0,_ZN5amrex4CopyINS_7BaseFabIN5Model5Solid6Linear19IsotropicDegradableEEES6_Li0EEEvRNS_8FabArrayIT_EERKNS7_IT0_EEiiiRKNS_7IntVectE
FNDA:0,_ZN5amrex8FabArrayINS_4MaskEE5ShMemD2Ev
FNDA:40,_ZN5amrex8FabArrayINS_7BaseFabIN5Model5Solid6Affine9IsotropicEEEE5ShMemaSEOS8_
FNDA:0,_ZN5amrex8FabArrayINS_7BaseFabIN5Model5Solid6Affine9HexagonalEEEE12ParallelCopyERKS7_iiiiiRKNS_11PeriodicityENS_12FabArrayBase4CpOpE
FNDA:11,_ZN5amrex8FabArrayINS_7BaseFabIN5Model5Solid6Affine5CubicEEEEC2ERKNS_8BoxArrayERKNS_19DistributionMappingEiRKNS_7IntVectERKNS_6MFInfoERKNS_10FabFactoryIS6_EE
FNDA:53646,_ZN5amrex8FabArrayINS_9FArrayBoxEEaSEOS2_
FNDA:28,_ZN5amrex8FabArrayINS_7BaseFabIN3Set7Matrix4ILi2ELi4EEEEEED2Ev
FNDA:113730,_ZNK5amrex8FabArrayINS_9IArrayBoxEEixEi
FNDA:0,_ZN5amrex8FabArrayINS_7BaseFabIN5Model5Solid6Affine5CubicEEEE12ParallelCopyERKS7_iiiiiRKNS_11PeriodicityENS_12FabArrayBase4CpOpE
FNDA:0,_ZNK5amrex8FabArrayINS_7BaseFabIN5Model5Solid6Linear9LaplacianEEEEixEi
FNDA:0,_ZNK5amrex8FabArrayINS_7BaseFabIN5Model5Solid6Affine9IsotropicEEEE11const_arrayIS6_Li0EEENS_6Array4IKS5_EERKNS_6MFIterE
FNDA:0,_ZNK5amrex8FabArrayINS_7BaseFabIN5Model5Solid6Affine9IsotropicEEEE5arrayIS6_Li0EEENS_6Array4IKS5_EEi
FNDA:0,_ZN5amrex3AddINS_7BaseFabIN3Set7Matrix4ILi2ELi3EEEEEvEEvRNS_8FabArrayIT_EERKS8_iiiRKNS_7IntVectE
FNDA:98131,_ZN5amrex8FabArrayINS_7BaseFabIN3Set7Matrix4ILi2ELi3EEEEEE3getEi
FNDA:0,_ZN5amrex8FabArrayINS_7BaseFabIN5Model5Solid6Linear19IsotropicDegradableEEEE9AllocFabsERKNS_10FabFactoryIS6_EEPNS_5ArenaERKNS_6VectorINSt7__cxx1112basic_stringIcSt11char_traitsIcESaIcEEESaISK_EEE
FNDA:0,_ZN5amrex8FabArrayINS_7BaseFabIN5Model5Solid7Elastic17PseudoLinearCubicEEEE5ShMemD2Ev
FNDA:0,_ZN5amrex8FabArrayINS_7BaseFabIdEEE6fabPtrEi
FNDA:660205,_ZN5amrex8FabArrayINS_9FArrayBoxEE12FillBoundaryIdEEvb
FNDA:4,_ZN5amrex8FabArrayINS_7BaseFabIN5Model5Solid6Affine2J2EEEEC2ERKNS_8BoxArrayERKNS_19DistributionMappingEiiRKNS_6MFInfoERKNS_10FabFactoryIS6_EE
FNDA:8068,_ZNK5amrex8FabArrayINS_7BaseFabIN5Eigen6MatrixIdLi2ELi1ELi0ELi2ELi1EEEEEE6fabPtrERKNS_6MFIterE
FNDA:2,_ZN5amrex8FabArrayINS_7BaseFabIN3Set7Matrix4ILi2ELi4EEEEEE12FillBoundaryIS4_EEvb
FNDA:272,_ZN5amrex8FabArrayINS_7BaseFabIN5Eigen6MatrixIdLi2ELi2ELi0ELi2ELi2EEEEEE6setValIS5_Li0EEEvS4_
FNDA:2080,_ZN5amrex8FabArrayINS_7BaseFabIN3Set7Matrix4ILi2ELi1EEEEEE12ParallelCopyERKS6_iiiiiRKNS_11PeriodicityENS_12FabArrayBase4CpOpE
FNDA:476,_ZN5amrex8FabArrayINS_7BaseFabIN5Eigen6MatrixIdLi2ELi2ELi0ELi2ELi2EEEEEED2Ev
FNDA:0,_ZN5amrex8FabArrayINS_7BaseFabIN5Model5Solid7Elastic17PseudoLinearCubicEEEED2Ev
FNDA:67925,_ZNK5amrex8FabArrayINS_7BaseFabIN5Eigen6MatrixIdLi2ELi1ELi0ELi2ELi1EEEEEEixEi
FNDA:0,_ZNK5amrex8FabArrayINS_7BaseFabIN5Model5Solid7Elastic17PseudoLinearCubicEEEE5arrayIS6_Li0EEENS_6Array4IKS5_EEi
FNDA:24522,_ZN5amrex8FabArrayINS_9IArrayBoxEE12clear_arraysEv
FNDA:0,_ZN5amrex8FabArrayINS_7BaseFabIN5Model5Solid7Elastic17PseudoLinearCubicEEEE12clear_arraysEv
FNDA:3,_ZN5amrex8FabArrayINS_7BaseFabIN5Model5Solid6Affine2J2EEEE6defineERKNS_8BoxArrayERKNS_19DistributionMappingEiiRKNS_6MFInfoERKNS_10FabFactoryIS6_EE
FNDA:29451,_ZN5amrex8FabArrayINS_9IArrayBoxEE5arrayIS1_Li0EEENS_6Array4IiEERKNS_6MFIterE
FNDA:0,_ZNK5amrex8FabArrayINS_7BaseFabIN5Model5Solid6Affine9HexagonalEEEE11const_arrayIS6_Li0EEENS_6Array4IKS5_EERKNS_6MFIterE
FNDA:0,_ZN5amrex8FabArrayINS_7BaseFabIN5Model5Solid7Elastic17PseudoLinearCubicEEEE12FillBoundaryIS5_EEviiRKNS_7IntVectERKNS_11PeriodicityEb
FNDA:0,_ZN5amrex8FabArrayINS_7BaseFabIN5Model5Solid6Linear19IsotropicDegradableEEEE5arrayIS6_Li0EEENS_6Array4IS5_EERKNS_6MFIterE
FNDA:160,_ZN5amrex8FabArrayINS_7BaseFabIN3Set7Matrix4ILi2ELi1EEEEEE6defineERKNS_8BoxArrayERKNS_19DistributionMappingEiiRKNS_6MFInfoERKNS_10FabFactoryIS5_EE
FNDA:50294,_ZN5amrex3AddINS_9FArrayBoxEvEEvRNS_8FabArrayIT_EERKS4_iiiRKNS_7IntVectE
FNDA:227072,_ZN5amrex8FabArrayINS_7BaseFabIN5Eigen6MatrixIdLi2ELi2ELi0ELi2ELi2EEEEEE6fabPtrEi
FNDA:17,_ZN5amrex8FabArrayINS_7BaseFabIN5Model5Solid6Linear9IsotropicEEEE9AllocFabsERKNS_10FabFactoryIS6_EEPNS_5ArenaERKNS_6VectorINSt7__cxx1112basic_stringIcSt11char_traitsIcESaIcEEESaISK_EEE
FNDA:160,_ZN5amrex8FabArrayINS_7BaseFabIN3Set7Matrix4ILi2ELi1EEEEEEC2Ev
FNDA:36,_ZNK5amrex8FabArrayINS_7BaseFabIN5Model5Solid7Elastic10NeoHookeanEEEEixEi
FNDA:4,_ZN5amrex8FabArrayINS_7BaseFabIN3Set7Matrix4ILi2ELi4EEEEEEC2Ev
FNDA:0,_ZN5amrex8FabArrayINS_7BaseFabIN5Model5Solid6Affine9HexagonalEEEED2Ev
FNDA:0,_ZN5amrex8FabArrayINS_7BaseFabIdEEE12FillBoundaryIdEEvRKNS_11PeriodicityEb
FNDA:0,_ZN5amrex8FabArrayINS_7BaseFabIN5Eigen6MatrixIdLi2ELi2ELi0ELi2ELi2EEEEEEixEi
FNDA:56,_ZN5amrex11nBytesOwnedIN3Set7Matrix4ILi2ELi4EEEEElRKNS_7BaseFabIT_EE
FNDA:0,_ZNK5amrex8FabArrayINS_7BaseFabIN5Eigen6MatrixIdLi2ELi2ELi0ELi2ELi2EEEEEE11const_arrayIS5_Li0EEENS_6Array4IKS4_EERKNS_6MFIterE
FNDA:20,_ZN5amrex8FabArrayINS_7BaseFabIN3Set7Matrix4ILi2ELi4EEEEEE19FillBoundary_nowaitIS4_EEviiRKNS_7IntVectERKNS_11PeriodicityEb
FNDA:1,_ZN5amrex8FabArrayINS_7BaseFabIN5Model5Solid6Linear9LaplacianEEEE6defineERKNS_8BoxArrayERKNS_19DistributionMappingEiRKNS_7IntVectERKNS_6MFInfoERKNS_10FabFactoryIS6_EE
FNDA:0,_ZN5amrex4CopyINS_7BaseFabIN5Model5Solid6Linear5CubicEEES6_Li0EEEvRNS_8FabArrayIT_EERKNS7_IT0_EEiiiRKNS_7IntVectE
FNDA:29010,_ZN5amrex8FabArrayINS_7BaseFabIN3Set7Matrix4ILi2ELi6EEEEEE3getEi
FNDA:7,_ZN5amrex8FabArrayINS_7BaseFabIN5Model5Solid6Affine2J2EEEE9AllocFabsERKNS_10FabFactoryIS6_EEPNS_5ArenaERKNS_6VectorINSt7__cxx1112basic_stringIcSt11char_traitsIcESaIcEEESaISK_EEE
FNDA:0,_ZNK5amrex8FabArrayINS_9FArrayBoxEE7FactoryEv
FNDA:272,_ZN5amrex8FabArrayINS_7BaseFabIN5Model5Solid6Affine9IsotropicEEEE5clearEv
FNDA:15,_ZNK5amrex8FabArrayINS_7BaseFabIN5Model5Solid7Elastic10NeoHookeanEEEE6fabPtrERKNS_6MFIterE
FNDA:30,_ZN5amrex8FabArrayINS_7BaseFabIN3Set7Matrix4ILi2ELi6EEEEEE6defineERKNS_8BoxArrayERKNS_19DistributionMappingEiiRKNS_6MFInfoERKNS_10FabFactoryIS5_EE
FNDA:0,_ZNK5amrex8FabArrayINS_7BaseFabIN3Set7Matrix4ILi2ELi4EEEEEE5arrayIS5_Li0EEENS_6Array4IKS4_EEi
FNDA:7530,_ZNK5amrex8FabArrayINS_7BaseFabIN5Eigen6MatrixIdLi2ELi2ELi0ELi2ELi2EEEEEE6fabPtrERKNS_6MFIterE
FNDA:0,_ZN5amrex8FabArrayINS_7BaseFabIN5Model5Solid7Elastic10NeoHookeanEEEE12FillBoundaryIS5_EEviiRKNS_7IntVectERKNS_11PeriodicityEb
FNDA:0,_ZNK5amrex8FabArrayINS_7BaseFabIN5Model5Solid6Affine5CubicEEEE5arrayIS6_Li0EEENS_6Array4IKS5_EEi
FNDA:0,_ZN5amrex8FabArrayINS_7BaseFabIN5Model5Solid6Affine9HexagonalEEEE12ParallelCopyERKS7_iiiRKNS_11PeriodicityENS_12FabArrayBase4CpOpE
FNDA:46,_ZN5amrex8FabArrayINS_7BaseFabIN5Eigen6MatrixIdLi2ELi2ELi0ELi2ELi2EEEEEE5ShMemC2EOS7_
FNDA:2,_ZN5amrex8FabArrayINS_7BaseFabIN5Model5Solid6Affine5CubicEEEEC2EOS7_
FNDA:0,_ZN5amrex8FabArrayINS_7BaseFabIN3Set7Matrix4ILi2ELi1EEEEEEixEi
FNDA:0,_ZNK5amrex8FabArrayINS_7BaseFabIN5Model5Solid6Affine9IsotropicEEEE5arrayIS6_Li0EEENS_6Array4IKS5_EERKNS_6MFIterE
FNDA:0,_ZN5amrex8FabArrayINS_7BaseFabIN5Model5Solid6Affine9HexagonalEEEE12clear_arraysEv
FNDA:0,_ZNK5amrex8FabArrayINS_7BaseFabIN3Set7Matrix4ILi2ELi6EEEEEE5arrayIS5_Li0EEENS_6Array4IKS4_EEi
FNDA:1754,_ZN5amrex8FabArrayINS_7BaseFabIN5Eigen6MatrixIdLi2ELi2ELi0ELi2ELi2EEEEEE12FillBoundaryIS4_EEvb
FNDA:0,_ZNK5amrex8FabArrayINS_7BaseFabIN5Model5Solid6Linear9LaplacianEEEE11const_arrayIS6_Li0EEENS_6Array4IKS5_EERKNS_6MFIterE
FNDA:0,_ZN5amrex8FabArrayINS_7BaseFabIN5Model5Solid7Elastic28PseudoLinearCubicPredeformedEEEE6defineERKNS_8BoxArrayERKNS_19DistributionMappingEiiRKNS_6MFInfoERKNS_10FabFactoryIS6_EE
FNDA:34995,_ZN5amrex8FabArrayINS_7BaseFabIN5Model5Solid6Affine9IsotropicEEEE3getEi
FNDA:0,_ZN5amrex8FabArrayINS_7BaseFabIN5Model5Solid7Elastic28PseudoLinearCubicPredeformedEEEE12FillBoundaryIS5_EEvb
FNDA:9186,_ZNK5amrex8FabArrayINS_7BaseFabIN5Model5Solid6Affine5CubicEEEE6fabPtrEi
FNDA:1309,_ZN5amrex8FabArrayINS_7BaseFabIN5Model5Solid6Linear9IsotropicEEEE6fabPtrEi
FNDA:272,_ZN5amrex8FabArrayINS_7BaseFabIN5Model5Solid6Affine9IsotropicEEEE12clear_arraysEv
FNDA:14,_ZN5amrex8FabArrayINS_7BaseFabIN5Model5Solid6Linear9IsotropicEEEE6setValIS6_Li0EEEvS5_iiRKNS_7IntVectE
FNDA:0,_ZNK5amrex8FabArrayINS_7BaseFabIN5Model5Solid7Elastic28PseudoLinearCubicPredeformedEEEE5arrayIS6_Li0EEENS_6Array4IKS5_EERKNS_6MFIterE
FNDA:7378,_ZNK5amrex8FabArrayINS_7BaseFabIN3Set7Matrix4ILi2ELi6EEEEEEixEi
FNDA:373,_ZNK5amrex8FabArrayINS_7BaseFabIN3Set7Matrix4ILi2ELi6EEEEEE5arrayIS5_Li0EEENS_6Array4IKS4_EERKNS_6MFIterE
FNDA:0,_ZN5amrex8FabArrayINS_7BaseFabIN5Model5Solid6Linear9LaplacianEEEEixEi
FNDA:0,_ZN5amrex8FabArrayINS_7BaseFabIN5Model5Solid6Affine9HexagonalEEEE5ShMemD2Ev
FNDA:0,_ZNK5amrex8FabArrayINS_7BaseFabIN5Eigen6MatrixIdLi2ELi2ELi0ELi2ELi2EEEEEE5arrayIS5_Li0EEENS_6Array4IKS4_EEi
FNDA:0,_ZN5amrex8FabArrayINS_7BaseFabIN5Model5Solid6Linear19IsotropicDegradableEEEEC2EOS7_
FNDA:1147170,_ZN5amrex8FabArrayINS_9FArrayBoxEED2Ev
FNDA:0,_ZN5amrex8FabArrayINS_7BaseFabIN5Model5Solid6Affine9HexagonalEEEE12FillBoundaryIS5_EEviiRKNS_7IntVectERKNS_11PeriodicityEb
FNDA:420,_ZN5amrex8FabArrayINS_7BaseFabIN5Eigen6MatrixIdLi2ELi2ELi0ELi2ELi2EEEEEEC2ERKNS_8BoxArrayERKNS_19DistributionMappingEiiRKNS_6MFInfoERKNS_10FabFactoryIS5_EE
FNDA:0,_ZN5amrex8FabArrayINS_7BaseFabIN5Model5Solid7Elastic28PseudoLinearCubicPredeformedEEEE5arrayIS6_Li0EEENS_6Array4IS5_EERKNS_6MFIterE
FNDA:0,_ZN5amrex8FabArrayINS_7BaseFabIN5Model5Solid7Elastic28PseudoLinearCubicPredeformedEEEE19FillBoundary_nowaitIS5_EEviiRKNS_7IntVectERKNS_11PeriodicityEb
FNDA:1670,_ZNK5amrex8FabArrayINS_7BaseFabIN3Set7Matrix4ILi2ELi1EEEEEE6fabPtrERKNS_6MFIterE
FNDA:2348400,_ZN5amrex8FabArrayINS_9FArrayBoxEE5clearEv
FNDA:0,_ZN5amrex8FabArrayINS_7BaseFabIN5Model5Solid7Elastic28PseudoLinearCubicPredeformedEEEE5clearEv
FNDA:1670,_ZNK5amrex8FabArrayINS_7BaseFabIN3Set7Matrix4ILi2ELi1EEEEEE5arrayIS5_Li0EEENS_6Array4IKS4_EERKNS_6MFIterE
FNDA:0,_ZN5amrex8FabArrayINS_7BaseFabIN5Model5Solid6Linear5CubicEEEE5clearEv
FNDA:1,_ZN5amrex8FabArrayINS_7BaseFabIN5Model5Solid6Linear9LaplacianEEEEC2ERKNS_8BoxArrayERKNS_19DistributionMappingEiiRKNS_6MFInfoERKNS_10FabFactoryIS6_EE
FNDA:0,_ZNK5amrex8FabArrayINS_7BaseFabIN5Eigen6MatrixIdLi2ELi1ELi0ELi2ELi1EEEEEE7FactoryEv
FNDA:227072,_ZN5amrex8FabArrayINS_7BaseFabIN5Eigen6MatrixIdLi2ELi2ELi0ELi2ELi2EEEEEE3getEi
FNDA:0,_ZNK5amrex8FabArrayINS_7BaseFabIN5Model5Solid6Affine5CubicEEEE5arrayIS6_Li0EEENS_6Array4IKS5_EERKNS_6MFIterE
FNDA:4293390,_ZNK5amrex8FabArrayINS_9FArrayBoxEE6fabPtrERKNS_6MFIterE
FNDA:0,_ZNK5amrex8FabArrayINS_7BaseFabIN5Model5Solid6Linear9IsotropicEEEE7FactoryEv
FNDA:0,_ZN5amrex8FabArrayINS_7BaseFabIN5Model5Solid6Affine2J2EEEEC2EOS7_
FNDA:16,_ZN5amrex8FabArrayINS_7BaseFabIN5Model5Solid6Affine9IsotropicEEEE6setValIS6_Li0EEEvS5_
FNDA:61878,_ZN5amrex8FabArrayINS_7BaseFabIN5Model5Solid6Affine5CubicEEEE3getEi
FNDA:0,_ZN5amrex11nBytesOwnedIN5Model5Solid6Affine9HexagonalEEElRKNS_7BaseFabIT_EE
FNDA:42,_ZN5amrex8FabArrayINS_7BaseFabIN3Set7Matrix4ILi2ELi3EEEEEE5ShMemC2Ev
FNDA:0,_ZN5amrex8FabArrayINS_7BaseFabIN5Model5Solid6Affine9IsotropicEEEE12ParallelCopyERKS7_iiiRKNS_11PeriodicityENS_12FabArrayBase4CpOpE
FNDA:0,_ZNK5amrex8FabArrayINS_7BaseFabIN5Model5Solid7Elastic10NeoHookeanEEEE11const_arrayIS6_Li0EEENS_6Array4IKS5_EERKNS_6MFIterE
FNDA:20,_ZN5amrex8FabArrayINS_7BaseFabIN5Model5Solid6Affine9IsotropicEEEE5ShMemC2EOS8_
FNDA:67925,_ZNK5amrex8FabArrayINS_7BaseFabIN5Eigen6MatrixIdLi2ELi1ELi0ELi2ELi1EEEEEE6fabPtrEi
FNDA:0,_ZNK5amrex8FabArrayINS_7BaseFabIN3Set7Matrix4ILi2ELi6EEEEEE11const_arrayIS5_Li0EEENS_6Array4IKS4_EERKNS_6MFIterE
FNDA:0,_ZN5amrex8FabArrayINS_7BaseFabIN5Model5Solid6Linear5CubicEEEE9AllocFabsERKNS_10FabFactoryIS6_EEPNS_5ArenaERKNS_6VectorINSt7__cxx1112basic_stringIcSt11char_traitsIcESaIcEEESaISK_EEE
FNDA:0,_ZN5amrex3AddINS_7BaseFabIN5Eigen6MatrixIdLi2ELi1ELi0ELi2ELi1EEEEEvEEvRNS_8FabArrayIT_EERKS8_iiiRKNS_7IntVectE
FNDA:430,_ZN5amrex8FabArrayINS_7BaseFabIN5Eigen6MatrixIdLi2ELi2ELi0ELi2ELi2EEEEEE6defineERKNS_8BoxArrayERKNS_19DistributionMappingEiRKNS_7IntVectERKNS_6MFInfoERKNS_10FabFactoryIS5_EE
FNDA:7,_ZN5amrex8FabArrayINS_7BaseFabIN5Model5Solid6Affine2J2EEEE5ShMemC2Ev
FNDA:268,_ZN5amrex8FabArrayINS_7BaseFabIN3Set7Matrix4ILi2ELi6EEEEEE5ShMemD2Ev
FNDA:0,_ZNK5amrex8FabArrayINS_9FArrayBoxEE5arrayIS1_Li0EEENS_6Array4IKdEEi
FNDA:0,_ZN5amrex3AddINS_7BaseFabIN5Model5Solid6Linear9LaplacianEEEvEEvRNS_8FabArrayIT_EERKS9_iiiRKNS_7IntVectE
FNDA:0,_ZN5amrex8FabArrayINS_7BaseFabIN5Model5Solid7Elastic28PseudoLinearCubicPredeformedEEEE12ParallelCopyERKS7_iiiRKNS_11PeriodicityENS_12FabArrayBase4CpOpE
FNDA:260,_ZN5amrex8FabArrayINS_7BaseFabIN5Eigen6MatrixIdLi2ELi1ELi0ELi2ELi1EEEEEEC2ERKNS_8BoxArrayERKNS_19DistributionMappingEiiRKNS_6MFInfoERKNS_10FabFactoryIS5_EE
FNDA:5,_ZN5amrex8FabArrayINS_7BaseFabIN5Model5Solid6Linear9LaplacianEEEE6fabPtrERKNS_6MFIterE
FNDA:358,_ZN5amrex8FabArrayINS_7BaseFabIN3Set7Matrix4ILi2ELi6EEEEEE12ParallelCopyERKS6_iiiiiRKNS_11PeriodicityENS_12FabArrayBase4CpOpE
FNDA:0,_ZN5amrex8FabArrayINS_7BaseFabIdEEEixEi
FNDA:1600,_ZN5amrex8FabArrayINS_7BaseFabIN3Set7Matrix4ILi2ELi1EEEEEED2Ev
FNDA:0,_ZN5amrex8FabArrayINS_7BaseFabIN5Model5Solid6Linear19IsotropicDegradableEEEEC2ERKNS_8BoxArrayERKNS_19DistributionMappingEiiRKNS_6MFInfoERKNS_10FabFactoryIS6_EE
FNDA:17,_ZN5amrex8FabArrayINS_7BaseFabIN5Model5Solid6Linear9IsotropicEEEE5ShMemD2Ev
FNDA:0,_ZN5amrex8FabArrayINS_7BaseFabIN5Model5Solid7Elastic28PseudoLinearCubicPredeformedEEEEC2Ev
FNDA:0,_ZNK5amrex8FabArrayINS_7BaseFabIN5Model5Solid7Elastic28PseudoLinearCubicPredeformedEEEE6fabPtrERKNS_6MFIterE
FNDA:0,_ZN5amrex4CopyINS_7BaseFabIN5Model5Solid6Linear9IsotropicEEES6_Li0EEEvRNS_8FabArrayIT_EERKNS7_IT0_EEiiiRKNS_7IntVectE
FNDA:0,_ZN5amrex8FabArrayINS_7BaseFabIN5Model5Solid6Affine2J2EEEE12FillBoundaryIS5_EEviiRKNS_7IntVectERKNS_11PeriodicityEb
FNDA:7530,_ZNK5amrex8FabArrayINS_7BaseFabIN5Eigen6MatrixIdLi2ELi2ELi0ELi2ELi2EEEEEEixERKNS_6MFIterE
FNDA:26,_ZNK5amrex8FabArrayINS_7BaseFabIN5Model5Solid6Linear9IsotropicEEEE6fabPtrERKNS_6MFIterE
FNDA:0,_ZN5amrex11nBytesOwnedIN5Model5Solid7Elastic17PseudoLinearCubicEEElRKNS_7BaseFabIT_EE
FNDA:0,_ZN5amrex8FabArrayINS_7BaseFabIN5Model5Solid6Affine9HexagonalEEEEC2Ev
FNDA:0,_ZNK5amrex8FabArrayINS_7BaseFabIN5Model5Solid6Linear5CubicEEEE6fabPtrERKNS_6MFIterE
FNDA:0,_ZN5amrex8FabArrayINS_7BaseFabIN5Model5Solid7Elastic28PseudoLinearCubicPredeformedEEEE12FillBoundaryIS5_EEviiRKNS_7IntVectERKNS_11PeriodicityEb
FNDA:0,_ZN5amrex8FabArrayINS_7BaseFabIN5Model5Solid6Linear5CubicEEEEC2ERKNS_8BoxArrayERKNS_19DistributionMappingEiiRKNS_6MFInfoERKNS_10FabFactoryIS6_EE
FNDA:0,_ZN5amrex4CopyINS_7BaseFabIN3Set7Matrix4ILi2ELi6EEEEES5_Li0EEEvRNS_8FabArrayIT_EERKNS6_IT0_EEiiiRKNS_7IntVectE
FNDA:0,_ZNK5amrex8FabArrayINS_7BaseFabIN5Model5Solid7Elastic17PseudoLinearCubicEEEE7FactoryEv
FNDA:16,_ZNK5amrex8FabArrayINS_7BaseFabIN5Model5Solid6Affine2J2EEEEixERKNS_6MFIterE
FNDA:0,_ZNK5amrex8FabArrayINS_7BaseFabIN5Model5Solid7Elastic10NeoHookeanEEEE5arrayIS6_Li0EEENS_6Array4IKS5_EERKNS_6MFIterE
FNDA:1786580,_ZNK5amrex8FabArrayINS_9FArrayBoxEE11const_arrayIS1_Li0EEENS_6Array4IKdEERKNS_6MFIterE
FNDA:7,_ZN5amrex8FabArrayINS_7BaseFabIN5Model5Solid6Affine2J2EEEE5ShMemD2Ev
FNDA:48,_ZN5amrex8FabArrayINS_7BaseFabIN5Eigen6MatrixIdLi2ELi1ELi0ELi2ELi1EEEEEE5ShMemC2EOS7_
FNDA:0,_ZN5amrex8FabArrayINS_9FArrayBoxEEixEi
FNDA:0,_ZNK5amrex8FabArrayINS_7BaseFabIN5Model5Solid6Affine2J2EEEE7FactoryEv
FNDA:20120,_ZN5amrex8FabArrayINS_7BaseFabIN3Set7Matrix4ILi2ELi1EEEEEE3getEi
FNDA:0,_ZN5amrex8FabArrayINS_7BaseFabIN5Model5Solid7Elastic17PseudoLinearCubicEEEE12ParallelCopyERKS7_iiiiiRKNS_11PeriodicityENS_12FabArrayBase4CpOpE
FNDA:34,_ZN5amrex8FabArrayINS_7BaseFabIN5Model5Solid6Linear9IsotropicEEEE5clearEv
FNDA:16,_ZN5amrex8FabArrayINS_7BaseFabIN5Model5Solid6Affine9IsotropicEEEE6setValIS6_Li0EEEvS5_iiRKNS_7IntVectE
FNDA:0,_ZN5amrex6MFInfo8SetAllocEb
FNDA:20065,_ZNK5amrex8FabArrayINS_7BaseFabIN5Model5Solid6Affine9IsotropicEEEE6fabPtrEi
FNDA:28856,_ZN5amrex8FabArrayINS_9FArrayBoxEE3getERKNS_6MFIterE
FNDA:208,_ZN5amrex8FabArrayINS_7BaseFabIN3Set7Matrix4ILi2ELi6EEEEEE19FillBoundary_nowaitIS4_EEviiRKNS_7IntVectERKNS_11PeriodicityEb
FNDA:0,_ZN5amrex8FabArrayINS_7BaseFabIN5Model5Solid6Linear19IsotropicDegradableEEEE3getEi
FNDA:0,_ZN5amrex8FabArrayINS_7BaseFabIN5Model5Solid6Linear9LaplacianEEEEaSEOS7_
FNDA:0,_ZNK5amrex8FabArrayINS_7BaseFabIN5Model5Solid7Elastic17PseudoLinearCubicEEEE11const_arrayIS6_Li0EEENS_6Array4IKS5_EERKNS_6MFIterE
FNDA:0,_ZNK5amrex8FabArrayINS_7BaseFabIdEEE6fabPtrEi
FNDA:430,_ZN5amrex8FabArrayINS_7BaseFabIN5Eigen6MatrixIdLi2ELi2ELi0ELi2ELi2EEEEEE9AllocFabsERKNS_10FabFactoryIS5_EEPNS_5ArenaERKNS_6VectorINSt7__cxx1112basic_stringIcSt11char_traitsIcESaIcEEESaISJ_EEE
FNDA:536,_ZN5amrex8FabArrayINS_7BaseFabIN3Set7Matrix4ILi2ELi6EEEEEE12clear_arraysEv
FNDA:27,_ZNK5amrex8FabArrayINS_7BaseFabIN5Model5Solid6Affine2J2EEEE6fabPtrEi
FNDA:0,_ZN5amrex8FabArrayINS_7BaseFabIN5Model5Solid6Affine9HexagonalEEEEC2ERKNS_8BoxArrayERKNS_19DistributionMappingEiiRKNS_6MFInfoERKNS_10FabFactoryIS6_EE
FNDA:104,_ZN5amrex8FabArrayINS_7BaseFabIN5Eigen6MatrixIdLi2ELi1ELi0ELi2ELi1EEEEEE12FillBoundaryIS4_EEvb
FNDA:0,_ZN5amrex8FabArrayINS_7BaseFabIN5Model5Solid7Elastic28PseudoLinearCubicPredeformedEEEEixERKNS_6MFIterE
FNDA:0,_ZN5amrex8FabArrayINS_7BaseFabIN5Model5Solid6Linear5CubicEEEE5arrayIS6_Li0EEENS_6Array4IS5_EERKNS_6MFIterE
FNDA:0,_ZN5amrex3AddINS_7BaseFabIN5Model5Solid7Elastic17PseudoLinearCubicEEEvEEvRNS_8FabArrayIT_EERKS9_iiiRKNS_7IntVectE
FNDA:0,_ZN5amrex8FabArrayINS_7BaseFabIN5Model5Solid7Elastic17PseudoLinearCubicEEEE5ShMemC2EOS8_
FNDA:36,_ZNK5amrex8FabArrayINS_7BaseFabIN5Model5Solid7Elastic10NeoHookeanEEEE6fabPtrEi
FNDA:0,_ZN5amrex8FabArrayINS_7BaseFabIN5Model5Solid6Affine9HexagonalEEEE6defineERKNS_8BoxArrayERKNS_19DistributionMappingEiRKNS_7IntVectERKNS_6MFInfoERKNS_10FabFactoryIS6_EE
FNDA:0,_ZN5amrex8FabArrayINS_7BaseFabIN5Model5Solid6Linear9LaplacianEEEE6fabPtrEi
FNDA:37,_ZNK5amrex8FabArrayINS_7BaseFabIN5Model5Solid6Linear9IsotropicEEEE6fabPtrEi
FNDA:0,_ZN5amrex8FabArrayINS_7BaseFabIN5Model5Solid6Affine9HexagonalEEEEC2EOS7_
FNDA:0,_ZN5amrex4CopyINS_7BaseFabIN5Eigen6MatrixIdLi2ELi1ELi0ELi2ELi1EEEEES5_Li0EEEvRNS_8FabArrayIT_EERKNS6_IT0_EEiiiRKNS_7IntVectE
FNDA:5,_ZN5amrex8FabArrayINS_7BaseFabIN3Set7Matrix4ILi2ELi3EEEEEEC2Ev
FNDA:40,_ZN5amrex8FabArrayINS_7BaseFabIN3Set7Matrix4ILi2ELi4EEEEEE12ParallelCopyERKS6_iiiiiRKNS_11PeriodicityENS_12FabArrayBase4CpOpE
FNDA:0,_ZN5amrex8FabArrayINS_7BaseFabIN5Model5Solid6Linear9IsotropicEEEE5ShMemaSEOS8_
FNDA:13,_ZN5amrex8FabArrayINS_7BaseFabIN5Model5Solid6Affine5CubicEEEE5ShMemD2Ev
FNDA:45,_ZN5amrex8FabArrayINS_7BaseFabIN5Model5Solid7Elastic10NeoHookeanEEEEixERKNS_6MFIterE
FNDA:0,_ZN5amrex8FabArrayINS_7BaseFabIN5Model5Solid6Linear9LaplacianEEEE5ShMemaSEOS8_
FNDA:81150,_ZN5amrex8FabArrayINS_9FArrayBoxEE6setValIS1_Li0EEEvd
FNDA:477,_ZN5amrex8FabArrayINS_7BaseFabIN3Set7Matrix4ILi2ELi4EEEEEE6fabPtrERKNS_6MFIterE
FNDA:0,_ZNK5amrex8FabArrayINS_7BaseFabIN5Model5Solid7Elastic17PseudoLinearCubicEEEE6fabPtrERKNS_6MFIterE
FNDA:498,_ZNK5amrex8FabArrayINS_9IArrayBoxEE11const_arrayIS1_Li0EEENS_6Array4IKiEERKNS_6MFIterE
FNDA:0,_ZN5amrex8FabArrayINS_7BaseFabIN5Model5Solid6Linear5CubicEEEEC2EOS7_
FNDA:2,_ZN5amrex8FabArrayINS_7BaseFabIN5Model5Solid6Linear9IsotropicEEEE12ParallelCopyERKS7_iiiiiRKNS_11PeriodicityENS_12FabArrayBase4CpOpE
FNDA:1136,_ZN5amrex8FabArrayINS_7BaseFabIN5Eigen6MatrixIdLi2ELi2ELi0ELi2ELi2EEEEEE5clearEv
FNDA:20,_ZN5amrex8FabArrayINS_7BaseFabIN5Model5Solid6Linear9IsotropicEEEE19FillBoundary_nowaitIS5_EEviiRKNS_7IntVectERKNS_11PeriodicityEb
FNDA:1613920,_ZNK5amrex8FabArrayINS_9FArrayBoxEEixERKNS_6MFIterE
FNDA:536,_ZN5amrex8FabArrayINS_7BaseFabIN3Set7Matrix4ILi2ELi6EEEEEE5clearEv
FNDA:0,_ZN5amrex8FabArrayINS_7BaseFabIN5Model5Solid6Affine9HexagonalEEEE5ShMemaSEOS8_
FNDA:96,_ZN5amrex8FabArrayINS_7BaseFabIN5Model5Solid6Affine9IsotropicEEEED2Ev
FNDA:6009230,_ZNK5amrex8FabArrayINS_9FArrayBoxEE6fabPtrEi
FNDA:3196,_ZNK5amrex8FabArrayINS_7BaseFabIN5Model5Solid6Affine9IsotropicEEEE6fabPtrERKNS_6MFIterE
FNDA:15288,_ZN5amrex8FabArrayINS_7BaseFabIN3Set7Matrix4ILi2ELi6EEEEEE6fabPtrERKNS_6MFIterE
FNDA:892898,_ZNK5amrex8FabArrayINS_9FArrayBoxEE5arrayIS1_Li0EEENS_6Array4IKdEERKNS_6MFIterE
FNDA:84,_ZN5amrex8FabArrayINS_7BaseFabIN3Set7Matrix4ILi2ELi3EEEEEE5clearEv
FNDA:0,_ZN5amrex8FabArrayINS_7BaseFabIN5Model5Solid6Linear5CubicEEEE12FillBoundaryIS5_EEvb
FNDA:0,_ZNK5amrex8FabArrayINS_9IArrayBoxEEixERKNS_6MFIterE
FNDA:0,_ZN5amrex8FabArrayINS_7BaseFabIN5Model5Solid6Linear5CubicEEEE19FillBoundary_nowaitIS5_EEviiRKNS_7IntVectERKNS_11PeriodicityEb
FNDA:0,_ZN5amrex8FabArrayINS_7BaseFabIN5Model5Solid6Linear19IsotropicDegradableEEEED2Ev
FNDA:0,_ZN5amrex8FabArrayINS_7BaseFabIN5Model5Solid6Linear5CubicEEEEC2Ev
FNDA:0,_ZNK5amrex8FabArrayINS_7BaseFabIN5Model5Solid6Affine9HexagonalEEEEixEi
FNDA:3,_ZN5amrex8FabArrayINS_7BaseFabIN3Set7Matrix4ILi2ELi3EEEEEE6setValIS5_Li0EEEvS4_iiRKNS_7IntVectE
FNDA:7,_ZN5amrex8FabArrayINS_7BaseFabIN5Model5Solid7Elastic10NeoHookeanEEEE6setValIS6_Li0EEEvS5_
FNDA:42,_ZN5amrex8FabArrayINS_7BaseFabIN3Set7Matrix4ILi2ELi3EEEEEED2Ev
FNDA:0,_ZN5amrex8FabArrayINS_7BaseFabIN5Model5Solid6Linear9LaplacianEEEEC2Ev
FNDA:0,_ZN5amrex8FabArrayINS_7BaseFabIN5Model5Solid6Linear9LaplacianEEEE5ShMemC2EOS8_
FNDA:0,_ZN5amrex8FabArrayINS_7BaseFabIN5Model5Solid6Affine9IsotropicEEEE12FillBoundaryIS5_EEviiRKNS_7IntVectERKNS_11PeriodicityEb
FNDA:0,_ZNK5amrex8FabArrayINS_7BaseFabIN5Model5Solid6Linear5CubicEEEE6fabPtrEi
FNDA:12,_ZN5amrex8FabArrayINS_7BaseFabIN5Eigen6MatrixIdLi2ELi1ELi0ELi2ELi1EEEEEEC2Ev
FNDA:0,_ZN5amrex8FabArrayINS_9IArrayBoxEE6setValIS1_Li0EEEvi
FNDA:0,_ZN5amrex8FabArrayINS_7BaseFabIN5Model5Solid6Linear19IsotropicDegradableEEEEC2Ev
FNDA:11957,_ZN5amrex8FabArrayINS_9FArrayBoxEE5ShMemC2Ev
FNDA:0,_ZNK5amrex8FabArrayINS_7BaseFabIN5Model5Solid6Affine2J2EEEE5arrayIS6_Li0EEENS_6Array4IKS5_EEi
FNDA:0,_ZN5amrex8FabArrayINS_7BaseFabIN5Model5Solid7Elastic28PseudoLinearCubicPredeformedEEEE5ShMemC2Ev
FNDA:2,_ZN5amrex8FabArrayINS_7BaseFabIN5Model5Solid7Elastic10NeoHookeanEEEEaSEOS7_
FNDA:0,_ZN5amrex8FabArrayINS_7BaseFabIdEEE3getEi
FNDA:2920,_ZNK5amrex8FabArrayINS_7BaseFabIN3Set7Matrix4ILi2ELi1EEEEEEixEi
FNDA:11964,_ZN5amrex8FabArrayINS_9FArrayBoxEE12ParallelCopyERKS2_iiiRKNS_11PeriodicityENS_12FabArrayBase4CpOpE
FNDA:0,_ZN5amrex8FabArrayINS_7BaseFabIN5Model5Solid6Linear5CubicEEEEixERKNS_6MFIterE
FNDA:1440,_ZN5amrex8FabArrayINS_7BaseFabIN3Set7Matrix4ILi2ELi1EEEEEEC2ERKNS_8BoxArrayERKNS_19DistributionMappingEiiRKNS_6MFInfoERKNS_10FabFactoryIS5_EE
FNDA:0,_ZN5amrex8FabArrayINS_7BaseFabIN5Model5Solid6Affine2J2EEEEixEi
FNDA:11,_ZN5amrex8FabArrayINS_7BaseFabIN5Model5Solid6Affine5CubicEEEE5ShMemC2Ev
FNDA:0,_ZNK5amrex8FabArrayINS_7BaseFabIN5Model5Solid6Linear9IsotropicEEEE5arrayIS6_Li0EEENS_6Array4IKS5_EERKNS_6MFIterE
FNDA:0,_ZNK5amrex8FabArrayINS_7BaseFabIN5Model5Solid6Linear19IsotropicDegradableEEEE6fabPtrERKNS_6MFIterE
FNDA:24,_ZN5amrex8FabArrayINS_7BaseFabIN3Set7Matrix4ILi2ELi4EEEEEEC2ERKNS_8BoxArrayERKNS_19DistributionMappingEiiRKNS_6MFInfoERKNS_10FabFactoryIS5_EE
FNDA:2394,_ZN5amrex8FabArrayINS_7BaseFabIN5Model5Solid7Elastic10NeoHookeanEEEE6fabPtrERKNS_6MFIterE
FNDA:2,_ZN5amrex8FabArrayINS_7BaseFabIN5Model5Solid6Linear9LaplacianEEEE19FillBoundary_nowaitIS5_EEviiRKNS_7IntVectERKNS_11PeriodicityEb
FNDA:0,_ZN5amrex8FabArrayINS_7BaseFabIN5Model5Solid7Elastic28PseudoLinearCubicPredeformedEEEEC2ERKNS_8BoxArrayERKNS_19DistributionMappingEiRKNS_7IntVectERKNS_6MFInfoERKNS_10FabFactoryIS6_EE
FNDA:3600,_ZN5amrex11nBytesOwnedIN3Set7Matrix4ILi2ELi1EEEEElRKNS_7BaseFabIT_EE
FNDA:0,_ZN5amrex3AddINS_7BaseFabIN5Model5Solid7Elastic10NeoHookeanEEEvEEvRNS_8FabArrayIT_EERKS9_iiiRKNS_7IntVectE
FNDA:26,_ZNK5amrex8FabArrayINS_7BaseFabIN5Model5Solid6Linear9IsotropicEEEEixERKNS_6MFIterE
FNDA:1754,_ZN5amrex8FabArrayINS_7BaseFabIN5Eigen6MatrixIdLi2ELi2ELi0ELi2ELi2EEEEEE19FillBoundary_nowaitIS4_EEviiRKNS_7IntVectERKNS_11PeriodicityEb
FNDA:4,_ZN5amrex8FabArrayINS_7BaseFabIN5Model5Solid6Affine5CubicEEEEaSEOS7_
FNDA:238,_ZN5amrex8FabArrayINS_7BaseFabIN3Set7Matrix4ILi2ELi6EEEEEEC2ERKNS_8BoxArrayERKNS_19DistributionMappingEiRKNS_7IntVectERKNS_6MFInfoERKNS_10FabFactoryIS5_EE
FNDA:81150,_ZN5amrex8FabArrayINS_9FArrayBoxEE6setValIS1_Li0EEEvdiiRKNS_7IntVectE
FNDA:7,_ZN5amrex8FabArrayINS_7BaseFabIN5Model5Solid6Affine2J2EEEE6defineERKNS_8BoxArrayERKNS_19DistributionMappingEiRKNS_7IntVectERKNS_6MFInfoERKNS_10FabFactoryIS6_EE
FNDA:2920,_ZNK5amrex8FabArrayINS_7BaseFabIN3Set7Matrix4ILi2ELi1EEEEEE6fabPtrEi
FNDA:10,_ZN5amrex8FabArrayINS_7BaseFabIN5Model5Solid7Elastic10NeoHookeanEEEE6defineERKNS_8BoxArrayERKNS_19DistributionMappingEiRKNS_7IntVectERKNS_6MFInfoERKNS_10FabFactoryIS6_EE
FNDA:0,_ZNK5amrex8FabArrayINS_7BaseFabIN5Model5Solid6Linear5CubicEEEEixEi
FNDA:0,_ZN5amrex8FabArrayINS_7BaseFabIN5Model5Solid6Linear5CubicEEEE5ShMemaSEOS8_
FNDA:1,_ZN5amrex8FabArrayINS_7BaseFabIN5Model5Solid6Linear9LaplacianEEEED2Ev
FNDA:0,_ZN5amrex3AddINS_7BaseFabIN5Model5Solid6Linear9IsotropicEEEvEEvRNS_8FabArrayIT_EERKS9_iiiRKNS_7IntVectE
FNDA:15,_ZN5amrex8FabArrayINS_7BaseFabIN5Model5Solid6Linear9IsotropicEEEEC2ERKNS_8BoxArrayERKNS_19DistributionMappingEiiRKNS_6MFInfoERKNS_10FabFactoryIS6_EE
FNDA:0,_ZNK5amrex8FabArrayINS_7BaseFabIN5Eigen6MatrixIdLi2ELi2ELi0ELi2ELi2EEEEEE7FactoryEv
FNDA:11,_ZN5amrex8FabArrayINS_7BaseFabIN5Model5Solid6Affine5CubicEEEEC2ERKNS_8BoxArrayERKNS_19DistributionMappingEiiRKNS_6MFInfoERKNS_10FabFactoryIS6_EE
FNDA:0,_ZNK5amrex8FabArrayINS_7BaseFabIN5Model5Solid6Linear9LaplacianEEEEixERKNS_6MFIterE
FNDA:14,_ZN5amrex8FabArrayINS_7BaseFabIN5Model5Solid6Affine2J2EEEE12clear_arraysEv
FNDA:14,_ZN5amrex8FabArrayINS_7BaseFabIN5Model5Solid7Elastic10NeoHookeanEEEE19FillBoundary_nowaitIS5_EEviiRKNS_7IntVectERKNS_11PeriodicityEb
FNDA:2540,_ZN5amrex8FabArrayINS_7BaseFabIN3Set7Matrix4ILi2ELi1EEEEEE12FillBoundaryIS4_EEvb
FNDA:0,_ZN5amrex8FabArrayINS_7BaseFabIN5Model5Solid7Elastic10NeoHookeanEEEE6defineERKNS_8BoxArrayERKNS_19DistributionMappingEiiRKNS_6MFInfoERKNS_10FabFactoryIS6_EE
FNDA:2,_ZN5amrex8FabArrayINS_7BaseFabIN5Model5Solid6Linear9LaplacianEEEE12clear_arraysEv
FNDA:10,_ZN5amrex8FabArrayINS_7BaseFabIN5Eigen6MatrixIdLi2ELi2ELi0ELi2ELi2EEEEEE6defineERKNS_8BoxArrayERKNS_19DistributionMappingEiiRKNS_6MFInfoERKNS_10FabFactoryIS5_EE
FNDA:4857110,_ZN5amrex8FabArrayINS_9FArrayBoxEE5arrayIS1_Li0EEENS_6Array4IdEERKNS_6MFIterE
FNDA:0,_ZN5amrex8FabArrayINS_7BaseFabIN5Model5Solid6Linear9LaplacianEEEEixERKNS_6MFIterE
FNDA:0,_ZNK5amrex8FabArrayINS_7BaseFabIN5Eigen6MatrixIdLi2ELi2ELi0ELi2ELi2EEEEEE5arrayIS5_Li0EEENS_6Array4IKS4_EERKNS_6MFIterE
FNDA:0,_ZN5amrex4CopyINS_7BaseFabIN3Set7Matrix4ILi2ELi1EEEEES5_Li0EEEvRNS_8FabArrayIT_EERKNS6_IT0_EEiiiRKNS_7IntVectE
FNDA:0,_ZN5amrex8FabArrayINS_7BaseFabIN5Model5Solid7Elastic28PseudoLinearCubicPredeformedEEEE12ParallelCopyERKS7_iiiiiRKNS_11PeriodicityENS_12FabArrayBase4CpOpE
FNDA:7,_ZN5amrex8FabArrayINS_7BaseFabIN5Model5Solid7Elastic10NeoHookeanEEEE6setValIS6_Li0EEEvS5_iiRKNS_7IntVectE
FNDA:10,_ZN5amrex8FabArrayINS_7BaseFabIN5Model5Solid7Elastic10NeoHookeanEEEE9AllocFabsERKNS_10FabFactoryIS6_EEPNS_5ArenaERKNS_6VectorINSt7__cxx1112basic_stringIcSt11char_traitsIcESaIcEEESaISK_EEE
FNDA:12205,_ZN5amrex8FabArrayINS_9IArrayBoxEED2Ev
FNDA:0,_ZN5amrex8FabArrayINS_7BaseFabIN5Model5Solid7Elastic17PseudoLinearCubicEEEE5arrayIS6_Li0EEENS_6Array4IS5_EERKNS_6MFIterE
FNDA:0,_ZN5amrex8FabArrayINS_7BaseFabIN5Model5Solid7Elastic17PseudoLinearCubicEEEE5ShMemC2Ev
FNDA:0,_ZNK5amrex8FabArrayINS_7BaseFabIN5Model5Solid6Linear9LaplacianEEEE6fabPtrERKNS_6MFIterE
FNDA:0,_ZN5amrex8FabArrayINS_7BaseFabIN5Model5Solid7Elastic28PseudoLinearCubicPredeformedEEEE6fabPtrEi
FNDA:58702,_ZNK5amrex8FabArrayINS_7BaseFabIN5Eigen6MatrixIdLi2ELi2ELi0ELi2ELi2EEEEEE6fabPtrEi
FNDA:37,_ZN5amrex8FabArrayINS_7BaseFabIN3Set7Matrix4ILi2ELi3EEEEEEC2ERKNS_8BoxArrayERKNS_19DistributionMappingEiiRKNS_6MFInfoERKNS_10FabFactoryIS5_EE
FNDA:0,_ZN5amrex8FabArrayINS_7BaseFabIN5Model5Solid6Linear9IsotropicEEEE12FillBoundaryIS5_EEviiRKNS_7IntVectERKNS_11PeriodicityEb
FNDA:1,_ZN5amrex8FabArrayINS_7BaseFabIN5Model5Solid6Linear9LaplacianEEEE6setValIS6_Li0EEEvS5_iiRKNS_7IntVectE
FNDA:0,_ZN5amrex8FabArrayINS_7BaseFabIN5Model5Solid6Linear19IsotropicDegradableEEEE19FillBoundary_nowaitIS5_EEviiRKNS_7IntVectERKNS_11PeriodicityEb
FNDA:0,_ZN5amrex8FabArrayINS_7BaseFabIN5Model5Solid6Affine2J2EEEEaSEOS7_
FNDA:0,_ZNK5amrex8FabArrayINS_7BaseFabIN5Model5Solid6Affine2J2EEEE11const_arrayIS6_Li0EEENS_6Array4IKS5_EERKNS_6MFIterE
FNDA:0,_ZNK5amrex8FabArrayINS_7BaseFabIN3Set7Matrix4ILi2ELi4EEEEEE11const_arrayIS5_Li0EEENS_6Array4IKS4_EERKNS_6MFIterE
FNDA:0,_ZN5amrex8FabArrayINS_7BaseFabIN5Model5Solid6Linear5CubicEEEE12clear_arraysEv
FNDA:0,_ZN5amrex3AddINS_7BaseFabIN5Eigen6MatrixIdLi2ELi2ELi0ELi2ELi2EEEEEvEEvRNS_8FabArrayIT_EERKS8_iiiRKNS_7IntVectE
FNDA:1044260,_ZN5amrex8FabArrayINS_9FArrayBoxEE6defineERKNS_8BoxArrayERKNS_19DistributionMappingEiRKNS_7IntVectERKNS_6MFInfoERKNS_10FabFactoryIS1_EE
FNDA:1,_ZN5amrex8FabArrayINS_7BaseFabIN5Model5Solid6Linear9LaplacianEEEE6setValIS6_Li0EEEvS5_
FNDA:28,_ZN5amrex8FabArrayINS_7BaseFabIN3Set7Matrix4ILi2ELi4EEEEEE5ShMemC2Ev
FNDA:0,_ZN5amrex8FabArrayINS_7BaseFabIN5Model5Solid6Linear19IsotropicDegradableEEEE12ParallelCopyERKS7_iiiRKNS_11PeriodicityENS_12FabArrayBase4CpOpE
FNDA:0,_ZN5amrex8FabArrayINS_7BaseFabIN5Model5Solid6Linear5CubicEEEE12ParallelCopyERKS7_iiiiiRKNS_11PeriodicityENS_12FabArrayBase4CpOpE
FNDA:37,_ZN5amrex8FabArrayINS_7BaseFabIN3Set7Matrix4ILi2ELi3EEEEEEC2ERKNS_8BoxArrayERKNS_19DistributionMappingEiRKNS_7IntVectERKNS_6MFInfoERKNS_10FabFactoryIS5_EE
FNDA:7378,_ZNK5amrex8FabArrayINS_7BaseFabIN3Set7Matrix4ILi2ELi6EEEEEE6fabPtrEi
FNDA:6840,_ZN5amrex11nBytesOwnedIN5Model5Solid6Affine5CubicEEElRKNS_7BaseFabIT_EE
FNDA:0,_ZN5amrex3AddINS_7BaseFabIN5Model5Solid6Affine5CubicEEEvEEvRNS_8FabArrayIT_EERKS9_iiiRKNS_7IntVectE
FNDA:12205,_ZN5amrex8FabArrayINS_9IArrayBoxEE5ShMemD2Ev
FNDA:0,_ZNK5amrex8FabArrayINS_9IArrayBoxEE5arrayIS1_Li0EEENS_6Array4IKiEEi
FNDA:0,_ZN5amrex8FabArrayINS_7BaseFabIN5Model5Solid6Affine9HexagonalEEEEixERKNS_6MFIterE
FNDA:0,_ZN5amrex3AddINS_7BaseFabIN3Set7Matrix4ILi2ELi4EEEEEvEEvRNS_8FabArrayIT_EERKS8_iiiRKNS_7IntVectE
FNDA:0,_ZNK5amrex8FabArrayINS_7BaseFabIN5Model5Solid6Linear19IsotropicDegradableEEEE11const_arrayIS6_Li0EEENS_6Array4IKS5_EERKNS_6MFIterE
FNDA:0,_ZN5amrex8FabArrayINS_7BaseFabIN5Model5Solid6Linear19IsotropicDegradableEEEE5ShMemaSEOS8_
FNDA:420,_ZN5amrex8FabArrayINS_7BaseFabIN5Eigen6MatrixIdLi2ELi2ELi0ELi2ELi2EEEEEEC2ERKNS_8BoxArrayERKNS_19DistributionMappingEiRKNS_7IntVectERKNS_6MFInfoERKNS_10FabFactoryIS5_EE
FNDA:0,_ZN5amrex8FabArrayINS_7BaseFabIN5Model5Solid7Elastic17PseudoLinearCubicEEEEC2ERKNS_8BoxArrayERKNS_19DistributionMappingEiiRKNS_6MFInfoERKNS_10FabFactoryIS6_EE
FNDA:0,_ZN5amrex8FabArrayINS_7BaseFabIN5Model5Solid7Elastic17PseudoLinearCubicEEEE6fabPtrEi
FNDA:0,_ZNK5amrex8FabArrayINS_7BaseFabIN5Model5Solid6Affine9HexagonalEEEE5arrayIS6_Li0EEENS_6Array4IKS5_EERKNS_6MFIterE
FNDA:0,_ZN5amrex8FabArrayINS_7BaseFabIN5Model5Solid7Elastic17PseudoLinearCubicEEEE6defineERKNS_8BoxArrayERKNS_19DistributionMappingEiiRKNS_6MFInfoERKNS_10FabFactoryIS6_EE
FNDA:0,_ZN5amrex4CopyINS_7BaseFabIN5Model5Solid6Affine9IsotropicEEES6_Li0EEEvRNS_8FabArrayIT_EERKNS7_IT0_EEiiiRKNS_7IntVectE
FNDA:0,_ZN5amrex8FabArrayINS_7BaseFabIN5Model5Solid7Elastic17PseudoLinearCubicEEEE19FillBoundary_nowaitIS5_EEviiRKNS_7IntVectERKNS_11PeriodicityEb
FNDA:268,_ZN5amrex8FabArrayINS_7BaseFabIN3Set7Matrix4ILi2ELi6EEEEEE9AllocFabsERKNS_10FabFactoryIS5_EEPNS_5ArenaERKNS_6VectorINSt7__cxx1112basic_stringIcSt11char_traitsIcESaIcEEESaISJ_EEE
FNDA:1,_ZN5amrex8FabArrayINS_7BaseFabIN5Model5Solid6Linear9LaplacianEEEE9AllocFabsERKNS_10FabFactoryIS6_EEPNS_5ArenaERKNS_6VectorINSt7__cxx1112basic_stringIcSt11char_traitsIcESaIcEEESaISK_EEE
FNDA:183759,_ZN5amrex8FabArrayINS_7BaseFabIN5Eigen6MatrixIdLi2ELi1ELi0ELi2ELi1EEEEEE3getEi
FNDA:0,_ZN5amrex8FabArrayINS_7BaseFabIN5Model5Solid6Linear19IsotropicDegradableEEEE5ShMemC2EOS8_
FNDA:76,_ZN5amrex8FabArrayINS_7BaseFabIN5Model5Solid6Affine9IsotropicEEEE5ShMemC2Ev
FNDA:0,_ZN5amrex8FabArrayINS_7BaseFabIN5Model5Solid6Affine5CubicEEEEC2Ev
FNDA:0,_ZN5amrex8FabArrayINS_7BaseFabIN5Model5Solid6Linear19IsotropicDegradableEEEE12FillBoundaryIS5_EEviiRKNS_7IntVectERKNS_11PeriodicityEb
FNDA:0,_ZN5amrex8FabArrayINS_7BaseFabIN5Model5Solid6Affine9HexagonalEEEEC2ERKNS_8BoxArrayERKNS_19DistributionMappingEiRKNS_7IntVectERKNS_6MFInfoERKNS_10FabFactoryIS6_EE
FNDA:4,_ZN5amrex8FabArrayINS_7BaseFabIN5Model5Solid6Affine2J2EEEEC2ERKNS_8BoxArrayERKNS_19DistributionMappingEiRKNS_7IntVectERKNS_6MFInfoERKNS_10FabFactoryIS6_EE
FNDA:29010,_ZN5amrex8FabArrayINS_7BaseFabIN3Set7Matrix4ILi2ELi6EEEEEE6fabPtrEi
FNDA:0,_ZNK5amrex8FabArrayINS_7BaseFabIN3Set7Matrix4ILi2ELi3EEEEEE5arrayIS5_Li0EEENS_6Array4IKS4_EEi
FNDA:0,_ZN5amrex8FabArrayINS_7BaseFabIN5Model5Solid6Affine9IsotropicEEEEixEi
FNDA:0,_ZN5amrex8FabArrayINS_7BaseFabIN5Model5Solid6Linear5CubicEEEE6fabPtrEi
FNDA:0,_ZNK5amrex8FabArrayINS_7BaseFabIN5Model5Solid6Affine5CubicEEEE11const_arrayIS6_Li0EEENS_6Array4IKS5_EERKNS_6MFIterE
FNDA:211138,_ZN5amrex8FabArrayINS_7BaseFabIN5Model5Solid6Affine9IsotropicEEEE5arrayIS6_Li0EEENS_6Array4IS5_EERKNS_6MFIterE
FNDA:1,_ZN5amrex8FabArrayINS_7BaseFabIN5Model5Solid6Linear9LaplacianEEEEC2ERKNS_8BoxArrayERKNS_19DistributionMappingEiRKNS_7IntVectERKNS_6MFInfoERKNS_10FabFactoryIS6_EE
FNDA:0,_ZN5amrex8FabArrayINS_7BaseFabIN5Model5Solid6Linear9IsotropicEEEEaSEOS7_
FNDA:0,_ZN5amrex4CopyINS_7BaseFabIN5Model5Solid6Affine9HexagonalEEES6_Li0EEEvRNS_8FabArrayIT_EERKNS7_IT0_EEiiiRKNS_7IntVectE
FNDA:96,_ZN5amrex8FabArrayINS_7BaseFabIN5Model5Solid6Affine9IsotropicEEEE5ShMemD2Ev
FNDA:0,_ZN5amrex8FabArrayINS_7BaseFabIN5Model5Solid6Linear5CubicEEEEC2ERKNS_8BoxArrayERKNS_19DistributionMappingEiRKNS_7IntVectERKNS_6MFInfoERKNS_10FabFactoryIS6_EE
FNDA:0,_ZN5amrex8FabArrayINS_7BaseFabIN5Model5Solid7Elastic17PseudoLinearCubicEEEE6defineERKNS_8BoxArrayERKNS_19DistributionMappingEiRKNS_7IntVectERKNS_6MFInfoERKNS_10FabFactoryIS6_EE
FNDA:41612,_ZN5amrex8FabArrayINS_9FArrayBoxEE12ParallelCopyERKS2_iiiiiRKNS_11PeriodicityENS_12FabArrayBase4CpOpE
FNDA:0,_ZNK5amrex8FabArrayINS_7BaseFabIN5Model5Solid6Linear19IsotropicDegradableEEEE5arrayIS6_Li0EEENS_6Array4IKS5_EEi
FNDA:2,_ZN5amrex8FabArrayINS_7BaseFabIN5Model5Solid6Linear9IsotropicEEEE6defineERKNS_8BoxArrayERKNS_19DistributionMappingEiiRKNS_6MFInfoERKNS_10FabFactoryIS6_EE
FNDA:0,_ZN5amrex8FabArrayINS_4MaskEE5clearEv
FNDA:0,_ZN5amrex8FabArrayINS_7BaseFabIN5Model5Solid6Affine5CubicEEEE12ParallelCopyERKS7_iiiRKNS_11PeriodicityENS_12FabArrayBase4CpOpE
FNDA:12257,_ZN5amrex8FabArrayINS_9FArrayBoxEE14setDomainBndryIS1_Li0EEEvdRKNS_8GeometryE
FNDA:0,_ZN5amrex8FabArrayINS_7BaseFabIdEEE6fabPtrERKNS_6MFIterE
FNDA:0,_ZN5amrex3AddINS_9IArrayBoxEvEEvRNS_8FabArrayIT_EERKS4_iiiRKNS_7IntVectE
FNDA:0,_ZN5amrex8FabArrayINS_7BaseFabIN5Model5Solid6Affine9HexagonalEEEE6fabPtrEi
FNDA:0,_ZN5amrex8FabArrayINS_7BaseFabIN5Model5Solid7Elastic17PseudoLinearCubicEEEE5ShMemaSEOS8_
FNDA:7,_ZN5amrex8FabArrayINS_7BaseFabIN5Model5Solid6Affine2J2EEEED2Ev
FNDA:0,_ZN5amrex4CopyINS_7BaseFabIN5Model5Solid6Affine5CubicEEES6_Li0EEEvRNS_8FabArrayIT_EERKNS7_IT0_EEiiiRKNS_7IntVectE
FNDA:0,_ZN5amrex8FabArrayINS_7BaseFabIN5Eigen6MatrixIdLi2ELi1ELi0ELi2ELi1EEEEEEixEi
FNDA:40,_ZNK5amrex8FabArrayINS_7BaseFabIN3Set7Matrix4ILi2ELi4EEEEEEixEi
FNDA:30,_ZN5amrex8FabArrayINS_7BaseFabIN3Set7Matrix4ILi2ELi6EEEEEEC2Ev
FNDA:0,_ZNK5amrex8FabArrayINS_7BaseFabIN5Model5Solid7Elastic17PseudoLinearCubicEEEEixERKNS_6MFIterE
FNDA:11824,_ZN5amrex8FabArrayINS_7BaseFabIN5Model5Solid6Affine5CubicEEEE5arrayIS6_Li0EEENS_6Array4IS5_EERKNS_6MFIterE
FNDA:18,_ZN5amrex8FabArrayINS_7BaseFabIN3Set7Matrix4ILi2ELi4EEEEEE12FillBoundaryIS4_EEvRKNS_11PeriodicityEb
FNDA:96,_ZN5amrex8FabArrayINS_7BaseFabIN5Eigen6MatrixIdLi2ELi1ELi0ELi2ELi1EEEEEEaSEOS6_
FNDA:22,_ZN5amrex8FabArrayINS_7BaseFabIN3Set7Matrix4ILi2ELi6EEEEEE6setValIS5_Li0EEEvS4_iiRKNS_7IntVectE
FNDA:13,_ZN5amrex8FabArrayINS_7BaseFabIN5Model5Solid6Affine5CubicEEEED2Ev
FNDA:0,_ZN5amrex8FabArrayINS_7BaseFabIN5Model5Solid7Elastic28PseudoLinearCubicPredeformedEEEE9AllocFabsERKNS_10FabFactoryIS6_EEPNS_5ArenaERKNS_6VectorINSt7__cxx1112basic_stringIcSt11char_traitsIcESaIcEEESaISK_EEE
FNDA:3200,_ZN5amrex8FabArrayINS_7BaseFabIN3Set7Matrix4ILi2ELi1EEEEEE12clear_arraysEv
FNDA:0,_ZNK5amrex8FabArrayINS_7BaseFabIN5Model5Solid6Affine9HexagonalEEEEixERKNS_6MFIterE
FNDA:1,_ZN5amrex8FabArrayINS_7BaseFabIN5Model5Solid6Affine2J2EEEE6setValIS6_Li0EEEvS5_
FNDA:0,_ZN5amrex8FabArrayINS_7BaseFabIN5Model5Solid7Elastic28PseudoLinearCubicPredeformedEEEE5ShMemC2EOS8_
FNDA:832,_ZN5amrex8FabArrayINS_7BaseFabIN5Eigen6MatrixIdLi2ELi1ELi0ELi2ELi1EEEEEE5clearEv
FNDA:5,_ZN5amrex8FabArrayINS_7BaseFabIN5Model5Solid6Affine5CubicEEEE6setValIS6_Li0EEEvS5_iiRKNS_7IntVectE
FNDA:0,_ZNK5amrex8FabArrayINS_7BaseFabIdEEE5arrayIS2_Li0EEENS_6Array4IKdEEi
FNDA:0,_ZN5amrex3AddINS_7BaseFabIN5Model5Solid6Affine9HexagonalEEEvEEvRNS_8FabArrayIT_EERKS9_iiiRKNS_7IntVectE
FNDA:0,_ZN5amrex8FabArrayINS_7BaseFabIN5Model5Solid6Affine9HexagonalEEEE5arrayIS6_Li0EEENS_6Array4IS5_EERKNS_6MFIterE
FNDA:0,_ZN5amrex3AddINS_7BaseFabIN5Model5Solid6Linear5CubicEEEvEEvRNS_8FabArrayIT_EERKS9_iiiRKNS_7IntVectE
FNDA:0,_ZN5amrex8FabArrayINS_7BaseFabIN5Model5Solid6Linear19IsotropicDegradableEEEE5ShMemC2Ev
FNDA:1,_ZNK5amrex8FabArrayINS_7BaseFabIN3Set7Matrix4ILi2ELi4EEEEEE5arrayIS5_Li0EEENS_6Array4IKS4_EERKNS_6MFIterE
FNDA:46,_ZN5amrex8FabArrayINS_7BaseFabIN5Eigen6MatrixIdLi2ELi2ELi0ELi2ELi2EEEEEEC2EOS6_
FNDA:14,_ZN5amrex8FabArrayINS_7BaseFabIN5Model5Solid7Elastic10NeoHookeanEEEE12FillBoundaryIS5_EEvb
FNDA:0,_ZNK5amrex8FabArrayINS_7BaseFabIN5Model5Solid6Affine9HexagonalEEEE6fabPtrERKNS_6MFIterE
FNDA:34,_ZN5amrex8FabArrayINS_7BaseFabIN5Model5Solid6Linear9IsotropicEEEE12clear_arraysEv
FNDA:832,_ZN5amrex8FabArrayINS_7BaseFabIN5Eigen6MatrixIdLi2ELi1ELi0ELi2ELi1EEEEEE12clear_arraysEv
FNDA:320,_ZN5amrex8FabArrayINS_7BaseFabIN5Eigen6MatrixIdLi2ELi1ELi0ELi2ELi1EEEEEE5ShMemD2Ev
FNDA:0,_ZNK5amrex8FabArrayINS_9IArrayBoxEE5arrayIS1_Li0EEENS_6Array4IKiEERKNS_6MFIterE
FNDA:0,_ZN5amrex8FabArrayINS_7BaseFabIN5Model5Solid7Elastic17PseudoLinearCubicEEEE12FillBoundaryIS5_EEvb
FNDA:0,_ZN5amrex8FabArrayINS_7BaseFabIN5Model5Solid7Elastic28PseudoLinearCubicPredeformedEEEEC2EOS7_
FNDA:0,_ZNK5amrex8FabArrayINS_7BaseFabIN5Model5Solid6Affine9HexagonalEEEE7FactoryEv
FNDA:20120,_ZN5amrex8FabArrayINS_7BaseFabIN3Set7Matrix4ILi2ELi1EEEEEE6fabPtrEi
FNDA:0,_ZN5amrex8FabArrayINS_7BaseFabIdEEE5arrayIS2_Li0EEENS_6Array4IdEERKNS_6MFIterE
FNDA:0,_ZN5amrex8FabArrayINS_7BaseFabIN5Model5Solid7Elastic17PseudoLinearCubicEEEE12ParallelCopyERKS7_iiiRKNS_11PeriodicityENS_12FabArrayBase4CpOpE
FNDA:13360,_ZN5amrex8FabArrayINS_7BaseFabIN5Model5Solid6Affine5CubicEEEE6fabPtrERKNS_6MFIterE
FNDA:0,_ZN5amrex8FabArrayINS_7BaseFabIN5Model5Solid7Elastic17PseudoLinearCubicEEEEC2Ev
FNDA:11,_ZN5amrex8FabArrayINS_7BaseFabIN5Model5Solid6Affine5CubicEEEE6defineERKNS_8BoxArrayERKNS_19DistributionMappingEiRKNS_7IntVectERKNS_6MFInfoERKNS_10FabFactoryIS6_EE
FNDA:15,_ZNK5amrex8FabArrayINS_7BaseFabIN5Model5Solid7Elastic10NeoHookeanEEEEixERKNS_6MFIterE
FNDA:10,_ZN5amrex8FabArrayINS_7BaseFabIN5Model5Solid7Elastic10NeoHookeanEEEE5ShMemC2Ev
FNDA:0,_ZN5amrex8FabArrayINS_7BaseFabIN5Model5Solid7Elastic10NeoHookeanEEEEC2Ev
FNDA:11957,_ZN5amrex8FabArrayINS_9FArrayBoxEEC2ERKNS_8BoxArrayERKNS_19DistributionMappingEiRKNS_7IntVectERKNS_6MFInfoERKNS_10FabFactoryIS1_EE
FNDA:0,_ZN5amrex8FabArrayINS_7BaseFabIN5Model5Solid6Affine9HexagonalEEEE3getEi
FNDA:1,_ZN5amrex8FabArrayINS_7BaseFabIN5Model5Solid6Affine2J2EEEE6setValIS6_Li0EEEvS5_iiRKNS_7IntVectE
FNDA:0,_ZNK5amrex8FabArrayINS_7BaseFabIN5Model5Solid7Elastic28PseudoLinearCubicPredeformedEEEE7FactoryEv
FNDA:34995,_ZN5amrex8FabArrayINS_7BaseFabIN5Model5Solid6Affine9IsotropicEEEE6fabPtrEi
FNDA:0,_ZN5amrex8FabArrayINS_7BaseFabIN5Model5Solid6Affine9HexagonalEEEE9AllocFabsERKNS_10FabFactoryIS6_EEPNS_5ArenaERKNS_6VectorINSt7__cxx1112basic_stringIcSt11char_traitsIcESaIcEEESaISK_EEE
FNDA:2348400,_ZN5amrex8FabArrayINS_9FArrayBoxEE12clear_arraysEv
FNDA:17,_ZN5amrex8FabArrayINS_7BaseFabIN5Model5Solid6Linear9IsotropicEEEE6defineERKNS_8BoxArrayERKNS_19DistributionMappingEiRKNS_7IntVectERKNS_6MFInfoERKNS_10FabFactoryIS6_EE
FNDA:0,_ZN5amrex8FabArrayINS_7BaseFabIN5Model5Solid6Affine9HexagonalEEEE6defineERKNS_8BoxArrayERKNS_19DistributionMappingEiiRKNS_6MFInfoERKNS_10FabFactoryIS6_EE
FNDA:430,_ZN5amrex8FabArrayINS_7BaseFabIN5Eigen6MatrixIdLi2ELi2ELi0ELi2ELi2EEEEEE5ShMemC2Ev
FNDA:0,_ZNK5amrex8FabArrayINS_7BaseFabIN5Model5Solid6Linear9IsotropicEEEE11const_arrayIS6_Li0EEENS_6Array4IKS5_EERKNS_6MFIterE
FNDA:0,_ZN5amrex8FabArrayINS_7BaseFabIN5Model5Solid6Affine9IsotropicEEEE6defineERKNS_8BoxArrayERKNS_19DistributionMappingEiiRKNS_6MFInfoERKNS_10FabFactoryIS6_EE
FNDA:0,_ZN5amrex8FabArrayINS_7BaseFabIN5Model5Solid7Elastic28PseudoLinearCubicPredeformedEEEEaSEOS7_
FNDA:20065,_ZNK5amrex8FabArrayINS_7BaseFabIN5Model5Solid6Affine9IsotropicEEEEixEi
FNDA:98131,_ZN5amrex8FabArrayINS_7BaseFabIN3Set7Matrix4ILi2ELi3EEEEEE6fabPtrEi
FNDA:76,_ZN5amrex8FabArrayINS_7BaseFabIN5Model5Solid6Affine9IsotropicEEEE9AllocFabsERKNS_10FabFactoryIS6_EEPNS_5ArenaERKNS_6VectorINSt7__cxx1112basic_stringIcSt11char_traitsIcESaIcEEESaISK_EEE
FNDA:476,_ZN5amrex8FabArrayINS_7BaseFabIN5Eigen6MatrixIdLi2ELi2ELi0ELi2ELi2EEEEEE5ShMemD2Ev
FNDA:0,_ZN5amrex8FabArrayINS_7BaseFabIN5Model5Solid6Linear19IsotropicDegradableEEEE12FillBoundaryIS5_EEvRKNS_11PeriodicityEb
FNDA:212,_ZN5amrex11nBytesOwnedIN5Model5Solid6Linear9IsotropicEEElRKNS_7BaseFabIT_EE
FNDA:40,_ZNK5amrex8FabArrayINS_7BaseFabIN3Set7Matrix4ILi2ELi4EEEEEE6fabPtrEi
FNDA:10,_ZN5amrex8FabArrayINS_7BaseFabIN5Model5Solid7Elastic10NeoHookeanEEEEC2ERKNS_8BoxArrayERKNS_19DistributionMappingEiRKNS_7IntVectERKNS_6MFInfoERKNS_10FabFactoryIS6_EE
FNDA:0,_ZN5amrex8FabArrayINS_7BaseFabIN3Set7Matrix4ILi2ELi6EEEEEEixEi
FNDA:0,_ZN5amrex8FabArrayINS_7BaseFabIN5Model5Solid6Linear19IsotropicDegradableEEEE5clearEv
FNDA:57,_ZN5amrex8FabArrayINS_7BaseFabIN3Set7Matrix4ILi2ELi3EEEEEE12ParallelCopyERKS6_iiiiiRKNS_11PeriodicityENS_12FabArrayBase4CpOpE
FNDA:15288,_ZN5amrex8FabArrayINS_7BaseFabIN3Set7Matrix4ILi2ELi6EEEEEE5arrayIS5_Li0EEENS_6Array4IS4_EERKNS_6MFIterE
FNDA:24204,_ZN5amrex8FabArrayINS_7BaseFabIN5Eigen6MatrixIdLi2ELi1ELi0ELi2ELi1EEEEEEixERKNS_6MFIterE
FNDA:3,_ZN5amrex8FabArrayINS_7BaseFabIN5Model5Solid6Affine2J2EEEE12ParallelCopyERKS7_iiiiiRKNS_11PeriodicityENS_12FabArrayBase4CpOpE
FNDA:183759,_ZN5amrex8FabArrayINS_7BaseFabIN5Eigen6MatrixIdLi2ELi1ELi0ELi2ELi1EEEEEE6fabPtrEi
FNDA:0,_ZNK5amrex8FabArrayINS_7BaseFabIN5Model5Solid7Elastic10NeoHookeanEEEE5arrayIS6_Li0EEENS_6Array4IKS5_EEi
FNDA:11,_ZN5amrex8FabArrayINS_7BaseFabIN5Model5Solid7Elastic10NeoHookeanEEEE5ShMemD2Ev
FNDA:26672600,_ZN5amrex8FabArrayINS_9FArrayBoxEE6fabPtrEi
FNDA:0,_ZN5amrex8FabArrayINS_7BaseFabIN5Model5Solid6Affine9HexagonalEEEE12FillBoundaryIS5_EEvb
FNDA:107173,_ZN5amrex8FabArrayINS_7BaseFabIN3Set7Matrix4ILi2ELi3EEEEEE5arrayIS5_Li0EEENS_6Array4IS4_EERKNS_6MFIterE
FNDA:0,_ZNK5amrex8FabArrayINS_7BaseFabIN5Model5Solid6Linear5CubicEEEE11const_arrayIS6_Li0EEENS_6Array4IKS5_EERKNS_6MFIterE
FNDA:268,_ZN5amrex8FabArrayINS_7BaseFabIN3Set7Matrix4ILi2ELi6EEEEEE5ShMemC2Ev
FNDA:8,_ZN5amrex8FabArrayINS_7BaseFabIN5Model5Solid6Affine5CubicEEEE12FillBoundaryIS5_EEvb
FNDA:0,_ZN5amrex8FabArrayINS_7BaseFabIN5Model5Solid7Elastic17PseudoLinearCubicEEEEaSEOS7_
FNDA:2,_ZN5amrex8FabArrayINS_7BaseFabIN5Model5Solid6Affine5CubicEEEE5ShMemC2EOS8_
FNDA:3344,_ZN5amrex11nBytesOwnedIN3Set7Matrix4ILi2ELi6EEEEElRKNS_7BaseFabIT_EE
FNDA:5,_ZN5amrex8FabArrayINS_7BaseFabIN5Model5Solid6Linear9LaplacianEEEE5arrayIS6_Li0EEENS_6Array4IS5_EERKNS_6MFIterE
FNDA:0,_ZN5amrex8FabArrayINS_7BaseFabIN5Model5Solid6Affine5CubicEEEE6defineERKNS_8BoxArrayERKNS_19DistributionMappingEiiRKNS_6MFInfoERKNS_10FabFactoryIS6_EE
FNDA:24,_ZN5amrex8FabArrayINS_7BaseFabIN3Set7Matrix4ILi2ELi4EEEEEEC2ERKNS_8BoxArrayERKNS_19DistributionMappingEiRKNS_7IntVectERKNS_6MFInfoERKNS_10FabFactoryIS5_EE
FNDA:0,_ZN5amrex8FabArrayINS_4MaskEE12clear_arraysEv
FNDA:0,_ZN5amrex8FabArrayINS_7BaseFabIN5Model5Solid6Affine9HexagonalEEEEixEi
FNDA:0,_ZN5amrex8FabArrayINS_7BaseFabIN5Model5Solid6Linear5CubicEEEE6defineERKNS_8BoxArrayERKNS_19DistributionMappingEiRKNS_7IntVectERKNS_6MFInfoERKNS_10FabFactoryIS6_EE
FNDA:0,_ZN5amrex8FabArrayINS_7BaseFabIN5Model5Solid7Elastic17PseudoLinearCubicEEEE6fabPtrERKNS_6MFIterE
FNDA:2,_ZN5amrex8FabArrayINS_7BaseFabIN5Model5Solid6Affine2J2EEEE19FillBoundary_nowaitIS5_EEviiRKNS_7IntVectERKNS_11PeriodicityEb
FNDA:37,_ZNK5amrex8FabArrayINS_7BaseFabIN5Model5Solid6Linear9IsotropicEEEEixEi
FNDA:32,_ZN5amrex8FabArrayINS_7BaseFabIN3Set7Matrix4ILi2ELi3EEEEEE19FillBoundary_nowaitIS4_EEviiRKNS_7IntVectERKNS_11PeriodicityEb
FNDA:509709,_ZN5amrex8FabArrayINS_7BaseFabIN5Eigen6MatrixIdLi2ELi2ELi0ELi2ELi2EEEEEE5arrayIS5_Li0EEENS_6Array4IS4_EERKNS_6MFIterE
FNDA:0,_ZN5amrex8FabArrayINS_7BaseFabIN5Model5Solid6Linear9LaplacianEEEE3getEi
FNDA:0,_ZN5amrex8FabArrayINS_7BaseFabIN5Model5Solid6Linear5CubicEEEE6defineERKNS_8BoxArrayERKNS_19DistributionMappingEiiRKNS_6MFInfoERKNS_10FabFactoryIS6_EE
FNDA:0,_ZN5amrex3AddINS_7BaseFabIN5Model5Solid7Elastic28PseudoLinearCubicPredeformedEEEvEEvRNS_8FabArrayIT_EERKS9_iiiRKNS_7IntVectE
FNDA:0,_ZN5amrex8FabArrayINS_7BaseFabIN5Model5Solid6Linear9LaplacianEEEE12FillBoundaryIS5_EEviiRKNS_7IntVectERKNS_11PeriodicityEb
FNDA:0,_ZN5amrex8FabArrayINS_7BaseFabIN5Model5Solid6Linear5CubicEEEE3getEi
FNDA:0,_ZNK5amrex8FabArrayINS_7BaseFabIN5Model5Solid6Affine2J2EEEE5arrayIS6_Li0EEENS_6Array4IKS5_EERKNS_6MFIterE
FNDA:44,_ZN5amrex8FabArrayINS_7BaseFabIN3Set7Matrix4ILi2ELi6EEEEEE12FillBoundaryIS4_EEvb
FNDA:894,_ZNK5amrex8FabArrayINS_7BaseFabIN3Set7Matrix4ILi2ELi3EEEEEE6fabPtrERKNS_6MFIterE
FNDA:40,_ZN5amrex8FabArrayINS_7BaseFabIN3Set7Matrix4ILi2ELi4EEEEEE3getEi
FNDA:0,_ZNK5amrex8FabArrayINS_7BaseFabIN5Model5Solid6Linear19IsotropicDegradableEEEE7FactoryEv
FNDA:0,_ZN5amrex8FabArrayINS_7BaseFabIN5Model5Solid6Linear9LaplacianEEEEC2EOS7_
FNDA:3,_ZN5amrex8FabArrayINS_7BaseFabIN3Set7Matrix4ILi2ELi3EEEEEE6setValIS5_Li0EEEvS4_
FNDA:4,_ZN5amrex8FabArrayINS_7BaseFabIN3Set7Matrix4ILi2ELi4EEEEEE6defineERKNS_8BoxArrayERKNS_19DistributionMappingEiiRKNS_6MFInfoERKNS_10FabFactoryIS5_EE
FNDA:10,_ZN5amrex8FabArrayINS_7BaseFabIN5Eigen6MatrixIdLi2ELi2ELi0ELi2ELi2EEEEEE12ParallelCopyERKS6_iiiiiRKNS_11PeriodicityENS_12FabArrayBase4CpOpE
FNDA:0,_ZN5amrex8FabArrayINS_7BaseFabIN5Model5Solid7Elastic10NeoHookeanEEEE12ParallelCopyERKS7_iiiiiRKNS_11PeriodicityENS_12FabArrayBase4CpOpE
FNDA:160,_ZN5amrex8FabArrayINS_7BaseFabIN3Set7Matrix4ILi2ELi1EEEEEE6setValIS5_Li0EEEvS4_
FNDA:92575,_ZN5amrex8FabArrayINS_7BaseFabIN5Eigen6MatrixIdLi2ELi1ELi0ELi2ELi1EEEEEE5arrayIS5_Li0EEENS_6Array4IS4_EERKNS_6MFIterE
FNDA:0,_ZN5amrex3AddINS_7BaseFabIN5Model5Solid6Linear19IsotropicDegradableEEEvEEvRNS_8FabArrayIT_EERKS9_iiiRKNS_7IntVectE
FNDA:76,_ZN5amrex8FabArrayINS_7BaseFabIN5Model5Solid6Affine9IsotropicEEEEC2ERKNS_8BoxArrayERKNS_19DistributionMappingEiRKNS_7IntVectERKNS_6MFInfoERKNS_10FabFactoryIS6_EE
FNDA:7248,_ZN5amrex11nBytesOwnedIN3Set7Matrix4ILi2ELi3EEEEElRKNS_7BaseFabIT_EE
FNDA:0,_ZNK5amrex8FabArrayINS_7BaseFabIN5Model5Solid6Linear19IsotropicDegradableEEEEixEi
FNDA:56,_ZN5amrex8FabArrayINS_9IArrayBoxEE6setValIS1_Li0EEEviiiRKNS_7IntVectE
FNDA:0,_ZN5amrex8FabArrayINS_7BaseFabIN5Model5Solid7Elastic28PseudoLinearCubicPredeformedEEEE5ShMemaSEOS8_
FNDA:0,_ZN5amrex8FabArrayINS_7BaseFabIN5Model5Solid7Elastic28PseudoLinearCubicPredeformedEEEEixEi
FNDA:92,_ZN5amrex8FabArrayINS_7BaseFabIN5Eigen6MatrixIdLi2ELi2ELi0ELi2ELi2EEEEEEaSEOS6_
FNDA:10,_ZN5amrex8FabArrayINS_7BaseFabIN5Model5Solid7Elastic10NeoHookeanEEEEC2ERKNS_8BoxArrayERKNS_19DistributionMappingEiiRKNS_6MFInfoERKNS_10FabFactoryIS6_EE
FNDA:0,_ZN5amrex8FabArrayINS_7BaseFabIN5Model5Solid6Affine9HexagonalEEEE5ShMemC2Ev
FNDA:0,_ZN5amrex8FabArrayINS_7BaseFabIN5Model5Solid6Affine9HexagonalEEEE6setValIS6_Li0EEEvS5_iiRKNS_7IntVectE
FNDA:11662400,_ZN5amrex8FabArrayINS_9FArrayBoxEE6fabPtrERKNS_6MFIterE
FNDA:0,_ZNK5amrex8FabArrayINS_7BaseFabIN5Model5Solid6Affine5CubicEEEE7FactoryEv
FNDA:1600,_ZN5amrex8FabArrayINS_7BaseFabIN3Set7Matrix4ILi2ELi1EEEEEE6defineERKNS_8BoxArrayERKNS_19DistributionMappingEiRKNS_7IntVectERKNS_6MFInfoERKNS_10FabFactoryIS5_EE
FNDA:96,_ZN5amrex11nBytesOwnedIN5Model5Solid7Elastic10NeoHookeanEEElRKNS_7BaseFabIT_EE
FNDA:0,_ZN5amrex8FabArrayINS_7BaseFabIN5Model5Solid7Elastic17PseudoLinearCubicEEEEC2EOS7_
FNDA:0,_ZN5amrex8FabArrayINS_7BaseFabIN5Model5Solid7Elastic28PseudoLinearCubicPredeformedEEEE12clear_arraysEv
FNDA:42,_ZN5amrex8FabArrayINS_7BaseFabIN3Set7Matrix4ILi2ELi3EEEEEE6defineERKNS_8BoxArrayERKNS_19DistributionMappingEiRKNS_7IntVectERKNS_6MFInfoERKNS_10FabFactoryIS5_EE
FNDA:0,_ZN5amrex3AddINS_7BaseFabIN5Model5Solid6Affine9IsotropicEEEvEEvRNS_8FabArrayIT_EERKS9_iiiRKNS_7IntVectE
FNDA:26,_ZN5amrex8FabArrayINS_7BaseFabIN3Set7Matrix4ILi2ELi3EEEEEE12FillBoundaryIS4_EEvRKNS_11PeriodicityEb
FNDA:0,_ZNK5amrex8FabArrayINS_7BaseFabIN5Model5Solid6Linear19IsotropicDegradableEEEE6fabPtrEi
FNDA:0,_ZN5amrex8FabArrayINS_7BaseFabIN5Model5Solid6Linear5CubicEEEE6setValIS6_Li0EEEvS5_iiRKNS_7IntVectE
FNDA:2,_ZN5amrex8FabArrayINS_7BaseFabIN5Model5Solid6Linear9IsotropicEEEE12ParallelCopyERKS7_iiiRKNS_11PeriodicityENS_12FabArrayBase4CpOpE
FNDA:0,_ZN5amrex8FabArrayINS_7BaseFabIN5Model5Solid7Elastic28PseudoLinearCubicPredeformedEEEEC2ERKNS_8BoxArrayERKNS_19DistributionMappingEiiRKNS_6MFInfoERKNS_10FabFactoryIS6_EE
FNDA:0,_ZN5amrex8FabArrayINS_7BaseFabIN5Model5Solid6Linear19IsotropicDegradableEEEE12FillBoundaryIS5_EEvb
FNDA:0,_ZN5amrex11nBytesOwnedIN5Model5Solid6Linear5CubicEEElRKNS_7BaseFabIT_EE
FNDA:0,_ZN5amrex8FabArrayINS_7BaseFabIdEEEixERKNS_6MFIterE
FNDA:268,_ZN5amrex8FabArrayINS_7BaseFabIN3Set7Matrix4ILi2ELi6EEEEEE6defineERKNS_8BoxArrayERKNS_19DistributionMappingEiRKNS_7IntVectERKNS_6MFInfoERKNS_10FabFactoryIS5_EE
FNDA:0,_ZN5amrex8FabArrayINS_7BaseFabIN5Model5Solid7Elastic17PseudoLinearCubicEEEE3getEi
FNDA:27,_ZN5amrex8FabArrayINS_7BaseFabIN5Model5Solid6Affine2J2EEEE6fabPtrEi
FNF:716
FNH:374
DA:57,9213931
DA:121,0
DA:222,0
DA:224,0
DA:225,0
DA:233,917126
DA:255,2175860
DA:257,1258730
DA:258,1258730
DA:260,1258730
DA:261,1258730
DA:262,932543000
DA:269,917126
DA:282,50294
DA:304,168072
DA:306,117778
DA:307,117778
DA:309,117778
DA:310,117778
DA:311,171708000
DA:318,50294
DA:421,0
DA:469,1633283
DA:475,6834499
DA:478,28856
DA:481,6315503
DA:487,11171
DA:490,27443007
DA:741,17686
DA:744,17686
DA:774,11991
DA:780,11991
DA:823,54386
DA:831,54386
DA:1254,14719
DA:1256,1162254
DA:1265,1162254
DA:1266,117
DA:1267,117
DA:1272,117
DA:1276,117
DA:1277,53880
DA:1278,53880
DA:1279,53880
DA:1280,53880
DA:1281,53880
DA:1282,53880
DA:1288,53880
DA:1456,13375209
DA:1460,13375209
DA:1461,13375209
DA:1466,4316189
DA:1470,4316189
DA:1471,4316189
DA:1476,27454178
DA:1478,27454178
DA:1480,27454178
DA:1485,6315503
DA:1487,6315503
DA:1489,6315503
DA:1519,895836
DA:1521,895836
DA:1527,6511830
DA:1529,6511830
DA:1535,0
DA:1537,0
DA:1551,1787078
DA:1553,1787078
DA:1676,2379148
DA:1683,2379148
DA:1685,2379148
DA:1686,2379148
DA:1687,2379148
DA:1688,2379148
DA:1730,2379148
DA:1732,2379148
DA:1734,1092301
DA:1735,1092301
DA:1738,2379148
DA:1739,7022871
DA:1740,4643723
DA:1741,4643723
DA:1742,4643723
DA:1745,2379148
DA:1746,2379148
DA:1747,2379148
DA:1748,2379148
DA:1751,2379148
DA:1752,2181100
DA:1753,1090555
DA:1756,2379148
DA:1758,2379148
DA:1759,2379148
DA:1768,1296
DA:1771,1296
DA:1772,1296
DA:1816,226
DA:1817,226
DA:1819,226
DA:1820,226
DA:1831,14493
DA:1837,14493
DA:1838,14493
DA:1841,14493
DA:1848,14493
DA:1850,14493
DA:1851,14493
DA:1852,14493
DA:1877,117
DA:1879,117
DA:1880,117
DA:1881,117
DA:1882,117
DA:1886,117
DA:1889,117
DA:1890,351
DA:1893,117
DA:1894,117
DA:1895,117
DA:1896,117
DA:1897,117
DA:1901,53880
DA:1903,53880
DA:1905,53880
DA:1907,53880
DA:1908,53880
DA:1909,53880
DA:1910,53880
DA:1911,53880
DA:1915,53880
DA:1916,53880
DA:1917,53880
DA:1918,53880
DA:1919,53880
DA:1921,53880
DA:1922,53880
DA:1923,53880
DA:1924,53880
DA:1926,53880
DA:1930,1162254
DA:1932,1162254
DA:1933,1162254
DA:1934,1162254
DA:1973,226
DA:1980,226
DA:1981,226
DA:1985,1047022
DA:1992,2094044
DA:1994,1047022
DA:1995,1047022
DA:1997,1047022
DA:1998,1047022
DA:2000,1047022
DA:2004,1047022
DA:2006,1047022
DA:2008,1047022
DA:2009,1045452
DA:2014,1047022
DA:2018,1078592
DA:2021,1078592
DA:2022,1078592
DA:2023,1078592
DA:2025,1078592
DA:2027,1078592
DA:2028,1078592
DA:2030,1078592
DA:2032,1078592
DA:2033,5648790
DA:2035,4570208
DA:2036,4570208
DA:2037,4570208
DA:2038,4570208
DA:2041,1078592
DA:2042,1078592
DA:2043,1078592
DA:2044,0
DA:2046,1078592
DA:2047,0
DA:2049,2157174
DA:2050,1078592
DA:2126,1078592
DA:2236,0
DA:2240,0
DA:2326,0
DA:2328,0
DA:2332,0
DA:2337,12257
DA:2339,12257
DA:2340,12257
DA:2345,12257
DA:2352,12257
DA:2353,36771
DA:2354,24514
DA:2355,1660
DA:2356,1660
DA:2363,1258000
DA:2365,1245740
DA:2366,1245740
DA:2368,28856
DA:2371,12257
DA:2427,82031
DA:2429,82031
DA:2430,82031
DA:2444,0
DA:2449,0
DA:2450,0
DA:2455,82087
DA:2482,267570
DA:2484,185483
DA:2485,185483
DA:2486,110343245
DA:2492,82087
DA:2989,664733
DA:2992,1329466
DA:2993,664733
DA:2994,664733
DA:2996,664733
DA:3001,27729
DA:3004,55458
DA:3005,15472
DA:3006,15472
DA:3008,27729
DA:3051,13194
DA:3055,26388
DA:3057,13194
DA:3058,13194
DA:3059,13194
DA:3061,13194
DA:3317,693399
DA:3320,693399
DA:3321,693399
DA:3394,441
DA:3408,441
DA:3409,441
DA:3410,441
DA:3414,11612
DA:3415,11171
DA:3416,11171
DA:3419,441
DA:3420,0
DA:3424,0
DA:3425,0
DA:3426,0
DA:3430,441
LF:244
LH:223
end_of_record
TN:
SF:/home/brunnels/Research/alamo/ext/amrex/2d-coverage-g++-23.08/include/AMReX_FabArrayBase.H
FN:31,_ZN5amrex12FabArrayBaseaSEOS0_
FN:39,_ZN5amrex12FabArrayBaseC2Ev
FN:40,_ZN5amrex12FabArrayBaseD2Ev
FN:52,_ZN5amrex12FabArrayBaseC2EOS0_
FN:68,_ZNK5amrex12FabArrayBase5nGrowEi
FN:70,_ZNK5amrex12FabArrayBase9nGrowVectEv
FN:73,_ZNK5amrex12FabArrayBase5nCompEv
FN:76,_ZNK5amrex12FabArrayBase6ixTypeEv
FN:79,_ZNK5amrex12FabArrayBase5emptyEv
FN:85,_ZNK5amrex12FabArrayBase8boxArrayEv
FN:91,_ZNK5amrex12FabArrayBase3boxEi
FN:103,_ZNK5amrex12FabArrayBase10local_sizeEv
FN:109,_ZNK5amrex12FabArrayBase10localindexEi
FN:121,_ZNK5amrex12FabArrayBase15DistributionMapEv
FN:136,_ZN5amrex12FabArrayBase13setMultiGhostEb
FN:221,_ZN5amrex12FabArrayBase5BDKeyC2Ev
FN:222,_ZN5amrex12FabArrayBase5BDKeyC2ERKNS_8BoxArray5RefIDERKNS_19DistributionMapping5RefIDE
FN:231,_ZNK5amrex12FabArrayBase5BDKeyneERKS1_
FN:240,_ZNK5amrex12FabArrayBase8getBDKeyEv
FN:692,_ZN5amrex12FabArrayBase13FabArrayStats11recordBuildEv
FN:697,_ZN5amrex12FabArrayBase13FabArrayStats12recordDeleteEv
FNDA:242816,_ZNK5amrex12FabArrayBase5emptyEv
FNDA:39350,_ZNK5amrex12FabArrayBase9nGrowVectEv
FNDA:14719,_ZN5amrex12FabArrayBaseC2Ev
FNDA:0,_ZN5amrex12FabArrayBase5BDKeyC2ERKNS_8BoxArray5RefIDERKNS_19DistributionMapping5RefIDE
FNDA:10308600,_ZNK5amrex12FabArrayBase3boxEi
FNDA:51435,_ZNK5amrex12FabArrayBase6ixTypeEv
FNDA:1162440,_ZN5amrex12FabArrayBaseD2Ev
FNDA:33769700,_ZNK5amrex12FabArrayBase10localindexEi
FNDA:551328,_ZNK5amrex12FabArrayBase8boxArrayEv
FNDA:0,_ZNK5amrex12FabArrayBase8getBDKeyEv
FNDA:0,_ZNK5amrex12FabArrayBase5BDKeyneERKS1_
FNDA:393155,_ZNK5amrex12FabArrayBase15DistributionMapEv
FNDA:117,_ZN5amrex12FabArrayBaseC2EOS0_
FNDA:0,_ZNK5amrex12FabArrayBase10local_sizeEv
FNDA:2070560,_ZNK5amrex12FabArrayBase5nGrowEi
FNDA:1163620,_ZNK5amrex12FabArrayBase5nCompEv
FNDA:53880,_ZN5amrex12FabArrayBaseaSEOS0_
FNDA:1162260,_ZN5amrex12FabArrayBase13FabArrayStats12recordDeleteEv
FNDA:14836,_ZN5amrex12FabArrayBase13FabArrayStats11recordBuildEv
FNDA:664622,_ZN5amrex12FabArrayBase13setMultiGhostEb
FNDA:14719,_ZN5amrex12FabArrayBase5BDKeyC2Ev
FNF:21
FNH:17
DA:31,53880
DA:39,14719
DA:40,1162440
DA:52,117
DA:68,4141130
DA:70,39350
DA:73,1163620
DA:76,51435
DA:79,242816
DA:85,551328
DA:91,10308600
DA:103,0
DA:109,33769700
DA:111,33769700
DA:112,33769700
DA:113,33769700
DA:116,0
DA:121,393155
DA:136,664622
DA:221,14719
DA:222,0
DA:223,0
DA:231,0
DA:232,0
DA:240,0
DA:241,0
DA:692,14836
DA:693,14836
DA:694,14836
DA:695,14836
DA:696,14836
DA:697,1162260
DA:698,1162260
DA:699,1162260
LF:34
LH:26
end_of_record
TN:
SF:/home/brunnels/Research/alamo/ext/amrex/2d-coverage-g++-23.08/include/AMReX_FabArrayCommI.H
FN:8,_ZN5amrex8FabArrayINS_7BaseFabIN5Model5Solid7Elastic17PseudoLinearCubicEEEE11FBEP_nowaitIS5_S6_Li0EEEviiRKNS_7IntVectERKNS_11PeriodicityEbbb
FN:8,_ZN5amrex8FabArrayINS_7BaseFabIN5Model5Solid6Affine5CubicEEEE11FBEP_nowaitIS5_S6_Li0EEEviiRKNS_7IntVectERKNS_11PeriodicityEbbb
FN:8,_ZN5amrex8FabArrayINS_7BaseFabIN5Model5Solid7Elastic10NeoHookeanEEEE11FBEP_nowaitIS5_S6_Li0EEEviiRKNS_7IntVectERKNS_11PeriodicityEbbb
FN:8,_ZN5amrex8FabArrayINS_7BaseFabIN5Model5Solid6Affine9IsotropicEEEE11FBEP_nowaitIS5_S6_Li0EEEviiRKNS_7IntVectERKNS_11PeriodicityEbbb
FN:8,_ZN5amrex8FabArrayINS_7BaseFabIN3Set7Matrix4ILi2ELi6EEEEEE11FBEP_nowaitIS4_S5_Li0EEEviiRKNS_7IntVectERKNS_11PeriodicityEbbb
FN:8,_ZN5amrex8FabArrayINS_7BaseFabIN3Set7Matrix4ILi2ELi4EEEEEE11FBEP_nowaitIS4_S5_Li0EEEviiRKNS_7IntVectERKNS_11PeriodicityEbbb
FN:8,_ZN5amrex8FabArrayINS_7BaseFabIN5Model5Solid6Linear19IsotropicDegradableEEEE11FBEP_nowaitIS5_S6_Li0EEEviiRKNS_7IntVectERKNS_11PeriodicityEbbb
FN:8,_ZN5amrex8FabArrayINS_7BaseFabIN5Model5Solid6Linear9IsotropicEEEE11FBEP_nowaitIS5_S6_Li0EEEviiRKNS_7IntVectERKNS_11PeriodicityEbbb
FN:8,_ZN5amrex8FabArrayINS_7BaseFabIN3Set7Matrix4ILi2ELi1EEEEEE11FBEP_nowaitIS4_S5_Li0EEEviiRKNS_7IntVectERKNS_11PeriodicityEbbb
FN:8,_ZN5amrex8FabArrayINS_7BaseFabIN3Set7Matrix4ILi2ELi3EEEEEE11FBEP_nowaitIS4_S5_Li0EEEviiRKNS_7IntVectERKNS_11PeriodicityEbbb
FN:8,_ZN5amrex8FabArrayINS_7BaseFabIN5Model5Solid6Affine9HexagonalEEEE11FBEP_nowaitIS5_S6_Li0EEEviiRKNS_7IntVectERKNS_11PeriodicityEbbb
FN:8,_ZN5amrex8FabArrayINS_7BaseFabIN5Model5Solid7Elastic28PseudoLinearCubicPredeformedEEEE11FBEP_nowaitIS5_S6_Li0EEEviiRKNS_7IntVectERKNS_11PeriodicityEbbb
FN:8,_ZN5amrex8FabArrayINS_7BaseFabIN5Model5Solid6Affine2J2EEEE11FBEP_nowaitIS5_S6_Li0EEEviiRKNS_7IntVectERKNS_11PeriodicityEbbb
FN:8,_ZN5amrex8FabArrayINS_7BaseFabIN5Model5Solid6Linear5CubicEEEE11FBEP_nowaitIS5_S6_Li0EEEviiRKNS_7IntVectERKNS_11PeriodicityEbbb
FN:8,_ZN5amrex8FabArrayINS_7BaseFabIN5Eigen6MatrixIdLi2ELi1ELi0ELi2ELi1EEEEEE11FBEP_nowaitIS4_S5_Li0EEEviiRKNS_7IntVectERKNS_11PeriodicityEbbb
FN:8,_ZN5amrex8FabArrayINS_7BaseFabIdEEE11FBEP_nowaitIdS2_Li0EEEviiRKNS_7IntVectERKNS_11PeriodicityEbbb
FN:8,_ZN5amrex8FabArrayINS_9FArrayBoxEE11FBEP_nowaitIdS1_Li0EEEviiRKNS_7IntVectERKNS_11PeriodicityEbbb
FN:8,_ZN5amrex8FabArrayINS_7BaseFabIN5Model5Solid6Linear9LaplacianEEEE11FBEP_nowaitIS5_S6_Li0EEEviiRKNS_7IntVectERKNS_11PeriodicityEbbb
FN:8,_ZN5amrex8FabArrayINS_7BaseFabIN5Eigen6MatrixIdLi2ELi2ELi0ELi2ELi2EEEEEE11FBEP_nowaitIS4_S5_Li0EEEviiRKNS_7IntVectERKNS_11PeriodicityEbbb
FN:168,_ZN5amrex8FabArrayINS_7BaseFabIN5Model5Solid6Affine2J2EEEE19FillBoundary_finishIS5_S6_Li0EEEvv
FN:168,_ZN5amrex8FabArrayINS_7BaseFabIdEEE19FillBoundary_finishIdS2_Li0EEEvv
FN:168,_ZN5amrex8FabArrayINS_7BaseFabIN5Model5Solid7Elastic28PseudoLinearCubicPredeformedEEEE19FillBoundary_finishIS5_S6_Li0EEEvv
FN:168,_ZN5amrex8FabArrayINS_7BaseFabIN5Model5Solid6Linear9LaplacianEEEE19FillBoundary_finishIS5_S6_Li0EEEvv
FN:168,_ZN5amrex8FabArrayINS_7BaseFabIN3Set7Matrix4ILi2ELi3EEEEEE19FillBoundary_finishIS4_S5_Li0EEEvv
FN:168,_ZN5amrex8FabArrayINS_7BaseFabIN3Set7Matrix4ILi2ELi6EEEEEE19FillBoundary_finishIS4_S5_Li0EEEvv
FN:168,_ZN5amrex8FabArrayINS_7BaseFabIN5Model5Solid6Linear5CubicEEEE19FillBoundary_finishIS5_S6_Li0EEEvv
FN:168,_ZN5amrex8FabArrayINS_7BaseFabIN5Eigen6MatrixIdLi2ELi1ELi0ELi2ELi1EEEEEE19FillBoundary_finishIS4_S5_Li0EEEvv
FN:168,_ZN5amrex8FabArrayINS_9FArrayBoxEE19FillBoundary_finishIdS1_Li0EEEvv
FN:168,_ZN5amrex8FabArrayINS_7BaseFabIN5Model5Solid6Affine9IsotropicEEEE19FillBoundary_finishIS5_S6_Li0EEEvv
FN:168,_ZN5amrex8FabArrayINS_7BaseFabIN5Model5Solid6Linear19IsotropicDegradableEEEE19FillBoundary_finishIS5_S6_Li0EEEvv
FN:168,_ZN5amrex8FabArrayINS_7BaseFabIN3Set7Matrix4ILi2ELi4EEEEEE19FillBoundary_finishIS4_S5_Li0EEEvv
FN:168,_ZN5amrex8FabArrayINS_7BaseFabIN5Model5Solid6Linear9IsotropicEEEE19FillBoundary_finishIS5_S6_Li0EEEvv
FN:168,_ZN5amrex8FabArrayINS_7BaseFabIN5Model5Solid6Affine9HexagonalEEEE19FillBoundary_finishIS5_S6_Li0EEEvv
FN:168,_ZN5amrex8FabArrayINS_7BaseFabIN5Model5Solid7Elastic10NeoHookeanEEEE19FillBoundary_finishIS5_S6_Li0EEEvv
FN:168,_ZN5amrex8FabArrayINS_7BaseFabIN3Set7Matrix4ILi2ELi1EEEEEE19FillBoundary_finishIS4_S5_Li0EEEvv
FN:168,_ZN5amrex8FabArrayINS_7BaseFabIN5Eigen6MatrixIdLi2ELi2ELi0ELi2ELi2EEEEEE19FillBoundary_finishIS4_S5_Li0EEEvv
FN:168,_ZN5amrex8FabArrayINS_7BaseFabIN5Model5Solid7Elastic17PseudoLinearCubicEEEE19FillBoundary_finishIS5_S6_Li0EEEvv
FN:168,_ZN5amrex8FabArrayINS_7BaseFabIN5Model5Solid6Affine5CubicEEEE19FillBoundary_finishIS5_S6_Li0EEEvv
FN:252,_ZN5amrex8FabArrayINS_7BaseFabIN3Set7Matrix4ILi2ELi6EEEEEE12ParallelCopyERKS6_iiiRKNS_7IntVectESB_RKNS_11PeriodicityENS_12FabArrayBase4CpOpEPKNSF_3CPCE
FN:252,_ZN5amrex8FabArrayINS_7BaseFabIN3Set7Matrix4ILi2ELi3EEEEEE12ParallelCopyERKS6_iiiRKNS_7IntVectESB_RKNS_11PeriodicityENS_12FabArrayBase4CpOpEPKNSF_3CPCE
FN:252,_ZN5amrex8FabArrayINS_7BaseFabIN5Model5Solid6Affine9HexagonalEEEE12ParallelCopyERKS7_iiiRKNS_7IntVectESC_RKNS_11PeriodicityENS_12FabArrayBase4CpOpEPKNSG_3CPCE
FN:252,_ZN5amrex8FabArrayINS_7BaseFabIN5Model5Solid6Affine2J2EEEE12ParallelCopyERKS7_iiiRKNS_7IntVectESC_RKNS_11PeriodicityENS_12FabArrayBase4CpOpEPKNSG_3CPCE
FN:252,_ZN5amrex8FabArrayINS_7BaseFabIN5Model5Solid6Affine5CubicEEEE12ParallelCopyERKS7_iiiRKNS_7IntVectESC_RKNS_11PeriodicityENS_12FabArrayBase4CpOpEPKNSG_3CPCE
FN:252,_ZN5amrex8FabArrayINS_7BaseFabIN5Model5Solid6Linear9IsotropicEEEE12ParallelCopyERKS7_iiiRKNS_7IntVectESC_RKNS_11PeriodicityENS_12FabArrayBase4CpOpEPKNSG_3CPCE
FN:252,_ZN5amrex8FabArrayINS_7BaseFabIN5Model5Solid7Elastic28PseudoLinearCubicPredeformedEEEE12ParallelCopyERKS7_iiiRKNS_7IntVectESC_RKNS_11PeriodicityENS_12FabArrayBase4CpOpEPKNSG_3CPCE
FN:252,_ZN5amrex8FabArrayINS_7BaseFabIN5Model5Solid6Linear9LaplacianEEEE12ParallelCopyERKS7_iiiRKNS_7IntVectESC_RKNS_11PeriodicityENS_12FabArrayBase4CpOpEPKNSG_3CPCE
FN:252,_ZN5amrex8FabArrayINS_7BaseFabIN5Model5Solid6Affine9IsotropicEEEE12ParallelCopyERKS7_iiiRKNS_7IntVectESC_RKNS_11PeriodicityENS_12FabArrayBase4CpOpEPKNSG_3CPCE
FN:252,_ZN5amrex8FabArrayINS_7BaseFabIN3Set7Matrix4ILi2ELi1EEEEEE12ParallelCopyERKS6_iiiRKNS_7IntVectESB_RKNS_11PeriodicityENS_12FabArrayBase4CpOpEPKNSF_3CPCE
FN:252,_ZN5amrex8FabArrayINS_9IArrayBoxEE12ParallelCopyERKS2_iiiRKNS_7IntVectES7_RKNS_11PeriodicityENS_12FabArrayBase4CpOpEPKNSB_3CPCE
FN:252,_ZN5amrex8FabArrayINS_9FArrayBoxEE12ParallelCopyERKS2_iiiRKNS_7IntVectES7_RKNS_11PeriodicityENS_12FabArrayBase4CpOpEPKNSB_3CPCE
FN:252,_ZN5amrex8FabArrayINS_7BaseFabIN3Set7Matrix4ILi2ELi4EEEEEE12ParallelCopyERKS6_iiiRKNS_7IntVectESB_RKNS_11PeriodicityENS_12FabArrayBase4CpOpEPKNSF_3CPCE
FN:252,_ZN5amrex8FabArrayINS_7BaseFabIN5Eigen6MatrixIdLi2ELi2ELi0ELi2ELi2EEEEEE12ParallelCopyERKS6_iiiRKNS_7IntVectESB_RKNS_11PeriodicityENS_12FabArrayBase4CpOpEPKNSF_3CPCE
FN:252,_ZN5amrex8FabArrayINS_7BaseFabIN5Model5Solid6Linear5CubicEEEE12ParallelCopyERKS7_iiiRKNS_7IntVectESC_RKNS_11PeriodicityENS_12FabArrayBase4CpOpEPKNSG_3CPCE
FN:252,_ZN5amrex8FabArrayINS_7BaseFabIN5Model5Solid7Elastic17PseudoLinearCubicEEEE12ParallelCopyERKS7_iiiRKNS_7IntVectESC_RKNS_11PeriodicityENS_12FabArrayBase4CpOpEPKNSG_3CPCE
FN:252,_ZN5amrex8FabArrayINS_7BaseFabIN5Model5Solid6Linear19IsotropicDegradableEEEE12ParallelCopyERKS7_iiiRKNS_7IntVectESC_RKNS_11PeriodicityENS_12FabArrayBase4CpOpEPKNSG_3CPCE
FN:252,_ZN5amrex8FabArrayINS_7BaseFabIN5Model5Solid7Elastic10NeoHookeanEEEE12ParallelCopyERKS7_iiiRKNS_7IntVectESC_RKNS_11PeriodicityENS_12FabArrayBase4CpOpEPKNSG_3CPCE
FN:252,_ZN5amrex8FabArrayINS_7BaseFabIN5Eigen6MatrixIdLi2ELi1ELi0ELi2ELi1EEEEEE12ParallelCopyERKS6_iiiRKNS_7IntVectESB_RKNS_11PeriodicityENS_12FabArrayBase4CpOpEPKNSF_3CPCE
FN:270,_ZN5amrex8FabArrayINS_7BaseFabIN5Model5Solid6Affine2J2EEEE19ParallelCopyToGhostERKS7_iiiRKNS_7IntVectESC_RKNS_11PeriodicityE
FN:270,_ZN5amrex8FabArrayINS_7BaseFabIN5Model5Solid6Affine9HexagonalEEEE19ParallelCopyToGhostERKS7_iiiRKNS_7IntVectESC_RKNS_11PeriodicityE
FN:270,_ZN5amrex8FabArrayINS_7BaseFabIN5Model5Solid7Elastic17PseudoLinearCubicEEEE19ParallelCopyToGhostERKS7_iiiRKNS_7IntVectESC_RKNS_11PeriodicityE
FN:270,_ZN5amrex8FabArrayINS_7BaseFabIN5Model5Solid6Affine5CubicEEEE19ParallelCopyToGhostERKS7_iiiRKNS_7IntVectESC_RKNS_11PeriodicityE
FN:270,_ZN5amrex8FabArrayINS_7BaseFabIN5Model5Solid6Affine9IsotropicEEEE19ParallelCopyToGhostERKS7_iiiRKNS_7IntVectESC_RKNS_11PeriodicityE
FN:270,_ZN5amrex8FabArrayINS_7BaseFabIN5Model5Solid6Linear9IsotropicEEEE19ParallelCopyToGhostERKS7_iiiRKNS_7IntVectESC_RKNS_11PeriodicityE
FN:270,_ZN5amrex8FabArrayINS_7BaseFabIN5Eigen6MatrixIdLi2ELi1ELi0ELi2ELi1EEEEEE19ParallelCopyToGhostERKS6_iiiRKNS_7IntVectESB_RKNS_11PeriodicityE
FN:270,_ZN5amrex8FabArrayINS_9FArrayBoxEE19ParallelCopyToGhostERKS2_iiiRKNS_7IntVectES7_RKNS_11PeriodicityE
FN:270,_ZN5amrex8FabArrayINS_7BaseFabIN5Model5Solid7Elastic10NeoHookeanEEEE19ParallelCopyToGhostERKS7_iiiRKNS_7IntVectESC_RKNS_11PeriodicityE
FN:270,_ZN5amrex8FabArrayINS_7BaseFabIN5Eigen6MatrixIdLi2ELi2ELi0ELi2ELi2EEEEEE19ParallelCopyToGhostERKS6_iiiRKNS_7IntVectESB_RKNS_11PeriodicityE
FN:270,_ZN5amrex8FabArrayINS_7BaseFabIN5Model5Solid6Linear5CubicEEEE19ParallelCopyToGhostERKS7_iiiRKNS_7IntVectESC_RKNS_11PeriodicityE
FN:270,_ZN5amrex8FabArrayINS_7BaseFabIN5Model5Solid6Linear9LaplacianEEEE19ParallelCopyToGhostERKS7_iiiRKNS_7IntVectESC_RKNS_11PeriodicityE
FN:270,_ZN5amrex8FabArrayINS_7BaseFabIN5Model5Solid7Elastic28PseudoLinearCubicPredeformedEEEE19ParallelCopyToGhostERKS7_iiiRKNS_7IntVectESC_RKNS_11PeriodicityE
FN:270,_ZN5amrex8FabArrayINS_7BaseFabIN5Model5Solid6Linear19IsotropicDegradableEEEE19ParallelCopyToGhostERKS7_iiiRKNS_7IntVectESC_RKNS_11PeriodicityE
FN:309,_ZN5amrex8FabArrayINS_7BaseFabIN5Model5Solid7Elastic28PseudoLinearCubicPredeformedEEEE19ParallelCopy_nowaitERKS7_iiiRKNS_7IntVectESC_RKNS_11PeriodicityENS_12FabArrayBase4CpOpEPKNSG_3CPCEb
FN:309,_ZN5amrex8FabArrayINS_7BaseFabIN5Model5Solid6Affine9IsotropicEEEE19ParallelCopy_nowaitERKS7_iiiRKNS_7IntVectESC_RKNS_11PeriodicityENS_12FabArrayBase4CpOpEPKNSG_3CPCEb
FN:309,_ZN5amrex8FabArrayINS_7BaseFabIN5Model5Solid6Linear19IsotropicDegradableEEEE19ParallelCopy_nowaitERKS7_iiiRKNS_7IntVectESC_RKNS_11PeriodicityENS_12FabArrayBase4CpOpEPKNSG_3CPCEb
FN:309,_ZN5amrex8FabArrayINS_7BaseFabIN5Model5Solid6Linear9LaplacianEEEE19ParallelCopy_nowaitERKS7_iiiRKNS_7IntVectESC_RKNS_11PeriodicityENS_12FabArrayBase4CpOpEPKNSG_3CPCEb
FN:309,_ZN5amrex8FabArrayINS_7BaseFabIN5Model5Solid7Elastic10NeoHookeanEEEE19ParallelCopy_nowaitERKS7_iiiRKNS_7IntVectESC_RKNS_11PeriodicityENS_12FabArrayBase4CpOpEPKNSG_3CPCEb
FN:309,_ZN5amrex8FabArrayINS_7BaseFabIN5Eigen6MatrixIdLi2ELi1ELi0ELi2ELi1EEEEEE19ParallelCopy_nowaitERKS6_iiiRKNS_7IntVectESB_RKNS_11PeriodicityENS_12FabArrayBase4CpOpEPKNSF_3CPCEb
FN:309,_ZN5amrex8FabArrayINS_7BaseFabIN3Set7Matrix4ILi2ELi4EEEEEE19ParallelCopy_nowaitERKS6_iiiRKNS_7IntVectESB_RKNS_11PeriodicityENS_12FabArrayBase4CpOpEPKNSF_3CPCEb
FN:309,_ZN5amrex8FabArrayINS_7BaseFabIN3Set7Matrix4ILi2ELi3EEEEEE19ParallelCopy_nowaitERKS6_iiiRKNS_7IntVectESB_RKNS_11PeriodicityENS_12FabArrayBase4CpOpEPKNSF_3CPCEb
FN:309,_ZN5amrex8FabArrayINS_7BaseFabIN5Eigen6MatrixIdLi2ELi2ELi0ELi2ELi2EEEEEE19ParallelCopy_nowaitERKS6_iiiRKNS_7IntVectESB_RKNS_11PeriodicityENS_12FabArrayBase4CpOpEPKNSF_3CPCEb
FN:309,_ZN5amrex8FabArrayINS_7BaseFabIN5Model5Solid6Affine5CubicEEEE19ParallelCopy_nowaitERKS7_iiiRKNS_7IntVectESC_RKNS_11PeriodicityENS_12FabArrayBase4CpOpEPKNSG_3CPCEb
FN:309,_ZN5amrex8FabArrayINS_7BaseFabIN5Model5Solid6Linear9IsotropicEEEE19ParallelCopy_nowaitERKS7_iiiRKNS_7IntVectESC_RKNS_11PeriodicityENS_12FabArrayBase4CpOpEPKNSG_3CPCEb
FN:309,_ZN5amrex8FabArrayINS_7BaseFabIN5Model5Solid7Elastic17PseudoLinearCubicEEEE19ParallelCopy_nowaitERKS7_iiiRKNS_7IntVectESC_RKNS_11PeriodicityENS_12FabArrayBase4CpOpEPKNSG_3CPCEb
FN:309,_ZN5amrex8FabArrayINS_7BaseFabIN3Set7Matrix4ILi2ELi6EEEEEE19ParallelCopy_nowaitERKS6_iiiRKNS_7IntVectESB_RKNS_11PeriodicityENS_12FabArrayBase4CpOpEPKNSF_3CPCEb
FN:309,_ZN5amrex8FabArrayINS_9IArrayBoxEE19ParallelCopy_nowaitERKS2_iiiRKNS_7IntVectES7_RKNS_11PeriodicityENS_12FabArrayBase4CpOpEPKNSB_3CPCEb
FN:309,_ZN5amrex8FabArrayINS_7BaseFabIN5Model5Solid6Affine2J2EEEE19ParallelCopy_nowaitERKS7_iiiRKNS_7IntVectESC_RKNS_11PeriodicityENS_12FabArrayBase4CpOpEPKNSG_3CPCEb
FN:309,_ZN5amrex8FabArrayINS_9FArrayBoxEE19ParallelCopy_nowaitERKS2_iiiRKNS_7IntVectES7_RKNS_11PeriodicityENS_12FabArrayBase4CpOpEPKNSB_3CPCEb
FN:309,_ZN5amrex8FabArrayINS_7BaseFabIN3Set7Matrix4ILi2ELi1EEEEEE19ParallelCopy_nowaitERKS6_iiiRKNS_7IntVectESB_RKNS_11PeriodicityENS_12FabArrayBase4CpOpEPKNSF_3CPCEb
FN:309,_ZN5amrex8FabArrayINS_7BaseFabIN5Model5Solid6Affine9HexagonalEEEE19ParallelCopy_nowaitERKS7_iiiRKNS_7IntVectESC_RKNS_11PeriodicityENS_12FabArrayBase4CpOpEPKNSG_3CPCEb
FN:309,_ZN5amrex8FabArrayINS_7BaseFabIN5Model5Solid6Linear5CubicEEEE19ParallelCopy_nowaitERKS7_iiiRKNS_7IntVectESC_RKNS_11PeriodicityENS_12FabArrayBase4CpOpEPKNSG_3CPCEb
FN:496,_ZN5amrex8FabArrayINS_7BaseFabIN5Model5Solid6Affine9IsotropicEEEE19ParallelCopy_finishEv
FN:496,_ZN5amrex8FabArrayINS_7BaseFabIN5Model5Solid6Linear9LaplacianEEEE19ParallelCopy_finishEv
FN:496,_ZN5amrex8FabArrayINS_9FArrayBoxEE19ParallelCopy_finishEv
FN:496,_ZN5amrex8FabArrayINS_7BaseFabIN5Model5Solid6Linear5CubicEEEE19ParallelCopy_finishEv
FN:496,_ZN5amrex8FabArrayINS_7BaseFabIN3Set7Matrix4ILi2ELi3EEEEEE19ParallelCopy_finishEv
FN:496,_ZN5amrex8FabArrayINS_7BaseFabIN5Model5Solid6Affine5CubicEEEE19ParallelCopy_finishEv
FN:496,_ZN5amrex8FabArrayINS_7BaseFabIN3Set7Matrix4ILi2ELi4EEEEEE19ParallelCopy_finishEv
FN:496,_ZN5amrex8FabArrayINS_7BaseFabIN5Model5Solid7Elastic17PseudoLinearCubicEEEE19ParallelCopy_finishEv
FN:496,_ZN5amrex8FabArrayINS_7BaseFabIN5Model5Solid7Elastic28PseudoLinearCubicPredeformedEEEE19ParallelCopy_finishEv
FN:496,_ZN5amrex8FabArrayINS_7BaseFabIN5Eigen6MatrixIdLi2ELi2ELi0ELi2ELi2EEEEEE19ParallelCopy_finishEv
FN:496,_ZN5amrex8FabArrayINS_7BaseFabIN3Set7Matrix4ILi2ELi1EEEEEE19ParallelCopy_finishEv
FN:496,_ZN5amrex8FabArrayINS_7BaseFabIN5Model5Solid6Affine9HexagonalEEEE19ParallelCopy_finishEv
FN:496,_ZN5amrex8FabArrayINS_7BaseFabIN5Eigen6MatrixIdLi2ELi1ELi0ELi2ELi1EEEEEE19ParallelCopy_finishEv
FN:496,_ZN5amrex8FabArrayINS_7BaseFabIN3Set7Matrix4ILi2ELi6EEEEEE19ParallelCopy_finishEv
FN:496,_ZN5amrex8FabArrayINS_7BaseFabIN5Model5Solid6Linear19IsotropicDegradableEEEE19ParallelCopy_finishEv
FN:496,_ZN5amrex8FabArrayINS_7BaseFabIN5Model5Solid6Linear9IsotropicEEEE19ParallelCopy_finishEv
FN:496,_ZN5amrex8FabArrayINS_9IArrayBoxEE19ParallelCopy_finishEv
FN:496,_ZN5amrex8FabArrayINS_7BaseFabIN5Model5Solid7Elastic10NeoHookeanEEEE19ParallelCopy_finishEv
FN:496,_ZN5amrex8FabArrayINS_7BaseFabIN5Model5Solid6Affine2J2EEEE19ParallelCopy_finishEv
FN:635,_ZNK5amrex8FabArrayINS_9IArrayBoxEE18PrepareSendBuffersIiEEvRKSt3mapIiSt6vectorINS_12FabArrayBase10CopyComTagESaIS7_EESt4lessIiESaISt4pairIKiS9_EEERPcRNS_6VectorISJ_SaISJ_EEERNSL_ImSaImEEERNSL_IiSaIiEEESU_RNSL_IPKS9_SaISW_EEEi
FN:635,_ZNK5amrex8FabArrayINS_7BaseFabIN3Set7Matrix4ILi2ELi4EEEEEE18PrepareSendBuffersIS4_EEvRKSt3mapIiSt6vectorINS_12FabArrayBase10CopyComTagESaISB_EESt4lessIiESaISt4pairIKiSD_EEERPcRNS_6VectorISN_SaISN_EEERNSP_ImSaImEEERNSP_IiSaIiEEESY_RNSP_IPKSD_SaIS10_EEEi
FN:635,_ZNK5amrex8FabArrayINS_7BaseFabIN5Model5Solid7Elastic28PseudoLinearCubicPredeformedEEEE18PrepareSendBuffersIS5_EEvRKSt3mapIiSt6vectorINS_12FabArrayBase10CopyComTagESaISC_EESt4lessIiESaISt4pairIKiSE_EEERPcRNS_6VectorISO_SaISO_EEERNSQ_ImSaImEEERNSQ_IiSaIiEEESZ_RNSQ_IPKSE_SaIS11_EEEi
FN:635,_ZNK5amrex8FabArrayINS_7BaseFabIN5Model5Solid6Affine2J2EEEE18PrepareSendBuffersIS5_EEvRKSt3mapIiSt6vectorINS_12FabArrayBase10CopyComTagESaISC_EESt4lessIiESaISt4pairIKiSE_EEERPcRNS_6VectorISO_SaISO_EEERNSQ_ImSaImEEERNSQ_IiSaIiEEESZ_RNSQ_IPKSE_SaIS11_EEEi
FN:635,_ZNK5amrex8FabArrayINS_7BaseFabIN5Model5Solid6Linear5CubicEEEE18PrepareSendBuffersIS5_EEvRKSt3mapIiSt6vectorINS_12FabArrayBase10CopyComTagESaISC_EESt4lessIiESaISt4pairIKiSE_EEERPcRNS_6VectorISO_SaISO_EEERNSQ_ImSaImEEERNSQ_IiSaIiEEESZ_RNSQ_IPKSE_SaIS11_EEEi
FN:635,_ZNK5amrex8FabArrayINS_7BaseFabIN5Model5Solid6Linear19IsotropicDegradableEEEE18PrepareSendBuffersIS5_EEvRKSt3mapIiSt6vectorINS_12FabArrayBase10CopyComTagESaISC_EESt4lessIiESaISt4pairIKiSE_EEERPcRNS_6VectorISO_SaISO_EEERNSQ_ImSaImEEERNSQ_IiSaIiEEESZ_RNSQ_IPKSE_SaIS11_EEEi
FN:635,_ZNK5amrex8FabArrayINS_7BaseFabIdEEE18PrepareSendBuffersIdEEvRKSt3mapIiSt6vectorINS_12FabArrayBase10CopyComTagESaIS8_EESt4lessIiESaISt4pairIKiSA_EEERPcRNS_6VectorISK_SaISK_EEERNSM_ImSaImEEERNSM_IiSaIiEEESV_RNSM_IPKSA_SaISX_EEEi
FN:635,_ZNK5amrex8FabArrayINS_9FArrayBoxEE18PrepareSendBuffersIdEEvRKSt3mapIiSt6vectorINS_12FabArrayBase10CopyComTagESaIS7_EESt4lessIiESaISt4pairIKiS9_EEERPcRNS_6VectorISJ_SaISJ_EEERNSL_ImSaImEEERNSL_IiSaIiEEESU_RNSL_IPKS9_SaISW_EEEi
FN:635,_ZNK5amrex8FabArrayINS_7BaseFabIN5Eigen6MatrixIdLi2ELi1ELi0ELi2ELi1EEEEEE18PrepareSendBuffersIS4_EEvRKSt3mapIiSt6vectorINS_12FabArrayBase10CopyComTagESaISB_EESt4lessIiESaISt4pairIKiSD_EEERPcRNS_6VectorISN_SaISN_EEERNSP_ImSaImEEERNSP_IiSaIiEEESY_RNSP_IPKSD_SaIS10_EEEi
FN:635,_ZNK5amrex8FabArrayINS_7BaseFabIN5Eigen6MatrixIdLi2ELi2ELi0ELi2ELi2EEEEEE18PrepareSendBuffersIS4_EEvRKSt3mapIiSt6vectorINS_12FabArrayBase10CopyComTagESaISB_EESt4lessIiESaISt4pairIKiSD_EEERPcRNS_6VectorISN_SaISN_EEERNSP_ImSaImEEERNSP_IiSaIiEEESY_RNSP_IPKSD_SaIS10_EEEi
FN:635,_ZNK5amrex8FabArrayINS_7BaseFabIN5Model5Solid6Affine9IsotropicEEEE18PrepareSendBuffersIS5_EEvRKSt3mapIiSt6vectorINS_12FabArrayBase10CopyComTagESaISC_EESt4lessIiESaISt4pairIKiSE_EEERPcRNS_6VectorISO_SaISO_EEERNSQ_ImSaImEEERNSQ_IiSaIiEEESZ_RNSQ_IPKSE_SaIS11_EEEi
FN:635,_ZNK5amrex8FabArrayINS_7BaseFabIN5Model5Solid7Elastic17PseudoLinearCubicEEEE18PrepareSendBuffersIS5_EEvRKSt3mapIiSt6vectorINS_12FabArrayBase10CopyComTagESaISC_EESt4lessIiESaISt4pairIKiSE_EEERPcRNS_6VectorISO_SaISO_EEERNSQ_ImSaImEEERNSQ_IiSaIiEEESZ_RNSQ_IPKSE_SaIS11_EEEi
FN:635,_ZNK5amrex8FabArrayINS_7BaseFabIN5Model5Solid6Linear9IsotropicEEEE18PrepareSendBuffersIS5_EEvRKSt3mapIiSt6vectorINS_12FabArrayBase10CopyComTagESaISC_EESt4lessIiESaISt4pairIKiSE_EEERPcRNS_6VectorISO_SaISO_EEERNSQ_ImSaImEEERNSQ_IiSaIiEEESZ_RNSQ_IPKSE_SaIS11_EEEi
FN:635,_ZNK5amrex8FabArrayINS_7BaseFabIN5Model5Solid6Affine9HexagonalEEEE18PrepareSendBuffersIS5_EEvRKSt3mapIiSt6vectorINS_12FabArrayBase10CopyComTagESaISC_EESt4lessIiESaISt4pairIKiSE_EEERPcRNS_6VectorISO_SaISO_EEERNSQ_ImSaImEEERNSQ_IiSaIiEEESZ_RNSQ_IPKSE_SaIS11_EEEi
FN:635,_ZNK5amrex8FabArrayINS_7BaseFabIN3Set7Matrix4ILi2ELi3EEEEEE18PrepareSendBuffersIS4_EEvRKSt3mapIiSt6vectorINS_12FabArrayBase10CopyComTagESaISB_EESt4lessIiESaISt4pairIKiSD_EEERPcRNS_6VectorISN_SaISN_EEERNSP_ImSaImEEERNSP_IiSaIiEEESY_RNSP_IPKSD_SaIS10_EEEi
FN:635,_ZNK5amrex8FabArrayINS_7BaseFabIN5Model5Solid6Affine5CubicEEEE18PrepareSendBuffersIS5_EEvRKSt3mapIiSt6vectorINS_12FabArrayBase10CopyComTagESaISC_EESt4lessIiESaISt4pairIKiSE_EEERPcRNS_6VectorISO_SaISO_EEERNSQ_ImSaImEEERNSQ_IiSaIiEEESZ_RNSQ_IPKSE_SaIS11_EEEi
FN:635,_ZNK5amrex8FabArrayINS_7BaseFabIN3Set7Matrix4ILi2ELi1EEEEEE18PrepareSendBuffersIS4_EEvRKSt3mapIiSt6vectorINS_12FabArrayBase10CopyComTagESaISB_EESt4lessIiESaISt4pairIKiSD_EEERPcRNS_6VectorISN_SaISN_EEERNSP_ImSaImEEERNSP_IiSaIiEEESY_RNSP_IPKSD_SaIS10_EEEi
FN:635,_ZNK5amrex8FabArrayINS_7BaseFabIN5Model5Solid6Linear9LaplacianEEEE18PrepareSendBuffersIS5_EEvRKSt3mapIiSt6vectorINS_12FabArrayBase10CopyComTagESaISC_EESt4lessIiESaISt4pairIKiSE_EEERPcRNS_6VectorISO_SaISO_EEERNSQ_ImSaImEEERNSQ_IiSaIiEEESZ_RNSQ_IPKSE_SaIS11_EEEi
FN:635,_ZNK5amrex8FabArrayINS_7BaseFabIN3Set7Matrix4ILi2ELi6EEEEEE18PrepareSendBuffersIS4_EEvRKSt3mapIiSt6vectorINS_12FabArrayBase10CopyComTagESaISB_EESt4lessIiESaISt4pairIKiSD_EEERPcRNS_6VectorISN_SaISN_EEERNSP_ImSaImEEERNSP_IiSaIiEEESY_RNSP_IPKSD_SaIS10_EEEi
FN:635,_ZNK5amrex8FabArrayINS_7BaseFabIN5Model5Solid7Elastic10NeoHookeanEEEE18PrepareSendBuffersIS5_EEvRKSt3mapIiSt6vectorINS_12FabArrayBase10CopyComTagESaISC_EESt4lessIiESaISt4pairIKiSE_EEERPcRNS_6VectorISO_SaISO_EEERNSQ_ImSaImEEERNSQ_IiSaIiEEESZ_RNSQ_IPKSE_SaIS11_EEEi
FN:699,_ZN5amrex8FabArrayINS_7BaseFabIN5Model5Solid7Elastic10NeoHookeanEEEE8PostSndsERKNS_6VectorIPcSaIS9_EEERKNS8_ImSaImEEERKNS8_IiSaIiEEERSJ_i
FN:699,_ZN5amrex8FabArrayINS_7BaseFabIN3Set7Matrix4ILi2ELi4EEEEEE8PostSndsERKNS_6VectorIPcSaIS8_EEERKNS7_ImSaImEEERKNS7_IiSaIiEEERSI_i
FN:699,_ZN5amrex8FabArrayINS_7BaseFabIN5Model5Solid6Linear19IsotropicDegradableEEEE8PostSndsERKNS_6VectorIPcSaIS9_EEERKNS8_ImSaImEEERKNS8_IiSaIiEEERSJ_i
FN:699,_ZN5amrex8FabArrayINS_7BaseFabIdEEE8PostSndsERKNS_6VectorIPcSaIS5_EEERKNS4_ImSaImEEERKNS4_IiSaIiEEERSF_i
FN:699,_ZN5amrex8FabArrayINS_7BaseFabIN5Model5Solid7Elastic28PseudoLinearCubicPredeformedEEEE8PostSndsERKNS_6VectorIPcSaIS9_EEERKNS8_ImSaImEEERKNS8_IiSaIiEEERSJ_i
FN:699,_ZN5amrex8FabArrayINS_7BaseFabIN3Set7Matrix4ILi2ELi6EEEEEE8PostSndsERKNS_6VectorIPcSaIS8_EEERKNS7_ImSaImEEERKNS7_IiSaIiEEERSI_i
FN:699,_ZN5amrex8FabArrayINS_7BaseFabIN5Model5Solid7Elastic17PseudoLinearCubicEEEE8PostSndsERKNS_6VectorIPcSaIS9_EEERKNS8_ImSaImEEERKNS8_IiSaIiEEERSJ_i
FN:699,_ZN5amrex8FabArrayINS_7BaseFabIN3Set7Matrix4ILi2ELi1EEEEEE8PostSndsERKNS_6VectorIPcSaIS8_EEERKNS7_ImSaImEEERKNS7_IiSaIiEEERSI_i
FN:699,_ZN5amrex8FabArrayINS_7BaseFabIN5Model5Solid6Linear9LaplacianEEEE8PostSndsERKNS_6VectorIPcSaIS9_EEERKNS8_ImSaImEEERKNS8_IiSaIiEEERSJ_i
FN:699,_ZN5amrex8FabArrayINS_7BaseFabIN5Eigen6MatrixIdLi2ELi2ELi0ELi2ELi2EEEEEE8PostSndsERKNS_6VectorIPcSaIS8_EEERKNS7_ImSaImEEERKNS7_IiSaIiEEERSI_i
FN:699,_ZN5amrex8FabArrayINS_7BaseFabIN5Model5Solid6Affine5CubicEEEE8PostSndsERKNS_6VectorIPcSaIS9_EEERKNS8_ImSaImEEERKNS8_IiSaIiEEERSJ_i
FN:699,_ZN5amrex8FabArrayINS_7BaseFabIN5Model5Solid6Affine9IsotropicEEEE8PostSndsERKNS_6VectorIPcSaIS9_EEERKNS8_ImSaImEEERKNS8_IiSaIiEEERSJ_i
FN:699,_ZN5amrex8FabArrayINS_9FArrayBoxEE8PostSndsERKNS_6VectorIPcSaIS4_EEERKNS3_ImSaImEEERKNS3_IiSaIiEEERSE_i
FN:699,_ZN5amrex8FabArrayINS_7BaseFabIN5Model5Solid6Linear9IsotropicEEEE8PostSndsERKNS_6VectorIPcSaIS9_EEERKNS8_ImSaImEEERKNS8_IiSaIiEEERSJ_i
FN:699,_ZN5amrex8FabArrayINS_9IArrayBoxEE8PostSndsERKNS_6VectorIPcSaIS4_EEERKNS3_ImSaImEEERKNS3_IiSaIiEEERSE_i
FN:699,_ZN5amrex8FabArrayINS_7BaseFabIN5Model5Solid6Linear5CubicEEEE8PostSndsERKNS_6VectorIPcSaIS9_EEERKNS8_ImSaImEEERKNS8_IiSaIiEEERSJ_i
FN:699,_ZN5amrex8FabArrayINS_7BaseFabIN5Model5Solid6Affine2J2EEEE8PostSndsERKNS_6VectorIPcSaIS9_EEERKNS8_ImSaImEEERKNS8_IiSaIiEEERSJ_i
FN:699,_ZN5amrex8FabArrayINS_7BaseFabIN5Model5Solid6Affine9HexagonalEEEE8PostSndsERKNS_6VectorIPcSaIS9_EEERKNS8_ImSaImEEERKNS8_IiSaIiEEERSJ_i
FN:699,_ZN5amrex8FabArrayINS_7BaseFabIN5Eigen6MatrixIdLi2ELi1ELi0ELi2ELi1EEEEEE8PostSndsERKNS_6VectorIPcSaIS8_EEERKNS7_ImSaImEEERKNS7_IiSaIiEEERSI_i
FN:699,_ZN5amrex8FabArrayINS_7BaseFabIN3Set7Matrix4ILi2ELi3EEEEEE8PostSndsERKNS_6VectorIPcSaIS8_EEERKNS7_ImSaImEEERKNS7_IiSaIiEEERSI_i
FN:736,_ZNK5amrex8FabArrayINS_7BaseFabIN5Model5Solid7Elastic17PseudoLinearCubicEEEE8PostRcvsIS5_EEvRKSt3mapIiSt6vectorINS_12FabArrayBase10CopyComTagESaISC_EESt4lessIiESaISt4pairIKiSE_EEERPcRNS_6VectorISO_SaISO_EEERNSQ_ImSaImEEERNSQ_IiSaIiEEESZ_ii
FN:736,_ZNK5amrex8FabArrayINS_7BaseFabIN5Model5Solid6Affine9IsotropicEEEE8PostRcvsIS5_EEvRKSt3mapIiSt6vectorINS_12FabArrayBase10CopyComTagESaISC_EESt4lessIiESaISt4pairIKiSE_EEERPcRNS_6VectorISO_SaISO_EEERNSQ_ImSaImEEERNSQ_IiSaIiEEESZ_ii
FN:736,_ZNK5amrex8FabArrayINS_7BaseFabIN3Set7Matrix4ILi2ELi4EEEEEE8PostRcvsIS4_EEvRKSt3mapIiSt6vectorINS_12FabArrayBase10CopyComTagESaISB_EESt4lessIiESaISt4pairIKiSD_EEERPcRNS_6VectorISN_SaISN_EEERNSP_ImSaImEEERNSP_IiSaIiEEESY_ii
FN:736,_ZNK5amrex8FabArrayINS_7BaseFabIN5Model5Solid6Linear9LaplacianEEEE8PostRcvsIS5_EEvRKSt3mapIiSt6vectorINS_12FabArrayBase10CopyComTagESaISC_EESt4lessIiESaISt4pairIKiSE_EEERPcRNS_6VectorISO_SaISO_EEERNSQ_ImSaImEEERNSQ_IiSaIiEEESZ_ii
FN:736,_ZNK5amrex8FabArrayINS_7BaseFabIN3Set7Matrix4ILi2ELi6EEEEEE8PostRcvsIS4_EEvRKSt3mapIiSt6vectorINS_12FabArrayBase10CopyComTagESaISB_EESt4lessIiESaISt4pairIKiSD_EEERPcRNS_6VectorISN_SaISN_EEERNSP_ImSaImEEERNSP_IiSaIiEEESY_ii
FN:736,_ZNK5amrex8FabArrayINS_7BaseFabIN5Model5Solid6Linear19IsotropicDegradableEEEE8PostRcvsIS5_EEvRKSt3mapIiSt6vectorINS_12FabArrayBase10CopyComTagESaISC_EESt4lessIiESaISt4pairIKiSE_EEERPcRNS_6VectorISO_SaISO_EEERNSQ_ImSaImEEERNSQ_IiSaIiEEESZ_ii
FN:736,_ZNK5amrex8FabArrayINS_7BaseFabIN5Model5Solid6Affine9HexagonalEEEE8PostRcvsIS5_EEvRKSt3mapIiSt6vectorINS_12FabArrayBase10CopyComTagESaISC_EESt4lessIiESaISt4pairIKiSE_EEERPcRNS_6VectorISO_SaISO_EEERNSQ_ImSaImEEERNSQ_IiSaIiEEESZ_ii
FN:736,_ZNK5amrex8FabArrayINS_7BaseFabIN5Model5Solid6Linear9IsotropicEEEE8PostRcvsIS5_EEvRKSt3mapIiSt6vectorINS_12FabArrayBase10CopyComTagESaISC_EESt4lessIiESaISt4pairIKiSE_EEERPcRNS_6VectorISO_SaISO_EEERNSQ_ImSaImEEERNSQ_IiSaIiEEESZ_ii
FN:736,_ZNK5amrex8FabArrayINS_7BaseFabIN5Model5Solid6Affine2J2EEEE8PostRcvsIS5_EEvRKSt3mapIiSt6vectorINS_12FabArrayBase10CopyComTagESaISC_EESt4lessIiESaISt4pairIKiSE_EEERPcRNS_6VectorISO_SaISO_EEERNSQ_ImSaImEEERNSQ_IiSaIiEEESZ_ii
FN:736,_ZNK5amrex8FabArrayINS_7BaseFabIN5Model5Solid6Linear5CubicEEEE8PostRcvsIS5_EEvRKSt3mapIiSt6vectorINS_12FabArrayBase10CopyComTagESaISC_EESt4lessIiESaISt4pairIKiSE_EEERPcRNS_6VectorISO_SaISO_EEERNSQ_ImSaImEEERNSQ_IiSaIiEEESZ_ii
FN:736,_ZNK5amrex8FabArrayINS_7BaseFabIN3Set7Matrix4ILi2ELi3EEEEEE8PostRcvsIS4_EEvRKSt3mapIiSt6vectorINS_12FabArrayBase10CopyComTagESaISB_EESt4lessIiESaISt4pairIKiSD_EEERPcRNS_6VectorISN_SaISN_EEERNSP_ImSaImEEERNSP_IiSaIiEEESY_ii
FN:736,_ZNK5amrex8FabArrayINS_7BaseFabIN5Model5Solid7Elastic28PseudoLinearCubicPredeformedEEEE8PostRcvsIS5_EEvRKSt3mapIiSt6vectorINS_12FabArrayBase10CopyComTagESaISC_EESt4lessIiESaISt4pairIKiSE_EEERPcRNS_6VectorISO_SaISO_EEERNSQ_ImSaImEEERNSQ_IiSaIiEEESZ_ii
FN:736,_ZNK5amrex8FabArrayINS_7BaseFabIN5Model5Solid6Affine5CubicEEEE8PostRcvsIS5_EEvRKSt3mapIiSt6vectorINS_12FabArrayBase10CopyComTagESaISC_EESt4lessIiESaISt4pairIKiSE_EEERPcRNS_6VectorISO_SaISO_EEERNSQ_ImSaImEEERNSQ_IiSaIiEEESZ_ii
FN:736,_ZNK5amrex8FabArrayINS_9IArrayBoxEE8PostRcvsIiEEvRKSt3mapIiSt6vectorINS_12FabArrayBase10CopyComTagESaIS7_EESt4lessIiESaISt4pairIKiS9_EEERPcRNS_6VectorISJ_SaISJ_EEERNSL_ImSaImEEERNSL_IiSaIiEEESU_ii
FN:736,_ZNK5amrex8FabArrayINS_7BaseFabIN5Eigen6MatrixIdLi2ELi2ELi0ELi2ELi2EEEEEE8PostRcvsIS4_EEvRKSt3mapIiSt6vectorINS_12FabArrayBase10CopyComTagESaISB_EESt4lessIiESaISt4pairIKiSD_EEERPcRNS_6VectorISN_SaISN_EEERNSP_ImSaImEEERNSP_IiSaIiEEESY_ii
FN:736,_ZNK5amrex8FabArrayINS_9FArrayBoxEE8PostRcvsIdEEvRKSt3mapIiSt6vectorINS_12FabArrayBase10CopyComTagESaIS7_EESt4lessIiESaISt4pairIKiS9_EEERPcRNS_6VectorISJ_SaISJ_EEERNSL_ImSaImEEERNSL_IiSaIiEEESU_ii
FN:736,_ZNK5amrex8FabArrayINS_7BaseFabIN3Set7Matrix4ILi2ELi1EEEEEE8PostRcvsIS4_EEvRKSt3mapIiSt6vectorINS_12FabArrayBase10CopyComTagESaISB_EESt4lessIiESaISt4pairIKiSD_EEERPcRNS_6VectorISN_SaISN_EEERNSP_ImSaImEEERNSP_IiSaIiEEESY_ii
FN:736,_ZNK5amrex8FabArrayINS_7BaseFabIdEEE8PostRcvsIdEEvRKSt3mapIiSt6vectorINS_12FabArrayBase10CopyComTagESaIS8_EESt4lessIiESaISt4pairIKiSA_EEERPcRNS_6VectorISK_SaISK_EEERNSM_ImSaImEEERNSM_IiSaIiEEESV_ii
FN:736,_ZNK5amrex8FabArrayINS_7BaseFabIN5Eigen6MatrixIdLi2ELi1ELi0ELi2ELi1EEEEEE8PostRcvsIS4_EEvRKSt3mapIiSt6vectorINS_12FabArrayBase10CopyComTagESaISB_EESt4lessIiESaISt4pairIKiSD_EEERPcRNS_6VectorISN_SaISN_EEERNSP_ImSaImEEERNSP_IiSaIiEEESY_ii
FN:736,_ZNK5amrex8FabArrayINS_7BaseFabIN5Model5Solid7Elastic10NeoHookeanEEEE8PostRcvsIS5_EEvRKSt3mapIiSt6vectorINS_12FabArrayBase10CopyComTagESaISC_EESt4lessIiESaISt4pairIKiSE_EEERPcRNS_6VectorISO_SaISO_EEERNSQ_ImSaImEEERNSQ_IiSaIiEEESZ_ii
FN:831,_ZN5amrex8FabArrayINS_7BaseFabIN3Set7Matrix4ILi2ELi4EEEEEE17FillBoundary_testEv
FN:831,_ZN5amrex8FabArrayINS_7BaseFabIN5Model5Solid6Linear9LaplacianEEEE17FillBoundary_testEv
FN:831,_ZN5amrex8FabArrayINS_7BaseFabIN5Model5Solid6Affine9HexagonalEEEE17FillBoundary_testEv
FN:831,_ZN5amrex8FabArrayINS_7BaseFabIN5Model5Solid7Elastic17PseudoLinearCubicEEEE17FillBoundary_testEv
FN:831,_ZN5amrex8FabArrayINS_7BaseFabIN3Set7Matrix4ILi2ELi1EEEEEE17FillBoundary_testEv
FN:831,_ZN5amrex8FabArrayINS_9FArrayBoxEE17FillBoundary_testEv
FN:831,_ZN5amrex8FabArrayINS_7BaseFabIN5Model5Solid7Elastic28PseudoLinearCubicPredeformedEEEE17FillBoundary_testEv
FN:831,_ZN5amrex8FabArrayINS_7BaseFabIN3Set7Matrix4ILi2ELi6EEEEEE17FillBoundary_testEv
FN:831,_ZN5amrex8FabArrayINS_7BaseFabIN5Model5Solid6Linear19IsotropicDegradableEEEE17FillBoundary_testEv
FN:831,_ZN5amrex8FabArrayINS_7BaseFabIN5Eigen6MatrixIdLi2ELi1ELi0ELi2ELi1EEEEEE17FillBoundary_testEv
FN:831,_ZN5amrex8FabArrayINS_7BaseFabIdEEE17FillBoundary_testEv
FN:831,_ZN5amrex8FabArrayINS_7BaseFabIN5Model5Solid6Affine2J2EEEE17FillBoundary_testEv
FN:831,_ZN5amrex8FabArrayINS_7BaseFabIN5Eigen6MatrixIdLi2ELi2ELi0ELi2ELi2EEEEEE17FillBoundary_testEv
FN:831,_ZN5amrex8FabArrayINS_7BaseFabIN5Model5Solid6Linear5CubicEEEE17FillBoundary_testEv
FN:831,_ZN5amrex8FabArrayINS_7BaseFabIN5Model5Solid7Elastic10NeoHookeanEEEE17FillBoundary_testEv
FN:831,_ZN5amrex8FabArrayINS_7BaseFabIN5Model5Solid6Affine9IsotropicEEEE17FillBoundary_testEv
FN:831,_ZN5amrex8FabArrayINS_7BaseFabIN3Set7Matrix4ILi2ELi3EEEEEE17FillBoundary_testEv
FN:831,_ZN5amrex8FabArrayINS_7BaseFabIN5Model5Solid6Affine5CubicEEEE17FillBoundary_testEv
FN:831,_ZN5amrex8FabArrayINS_7BaseFabIN5Model5Solid6Linear9IsotropicEEEE17FillBoundary_testEv
FNDA:108283,_ZN5amrex8FabArrayINS_9FArrayBoxEE19ParallelCopy_finishEv
FNDA:0,_ZN5amrex8FabArrayINS_7BaseFabIN5Model5Solid6Affine9HexagonalEEEE19ParallelCopyToGhostERKS7_iiiRKNS_7IntVectESC_RKNS_11PeriodicityE
FNDA:8,_ZN5amrex8FabArrayINS_7BaseFabIN5Model5Solid6Affine5CubicEEEE11FBEP_nowaitIS5_S6_Li0EEEviiRKNS_7IntVectERKNS_11PeriodicityEbbb
FNDA:358,_ZN5amrex8FabArrayINS_7BaseFabIN3Set7Matrix4ILi2ELi6EEEEEE12ParallelCopyERKS6_iiiRKNS_7IntVectESB_RKNS_11PeriodicityENS_12FabArrayBase4CpOpEPKNSF_3CPCE
FNDA:0,_ZN5amrex8FabArrayINS_7BaseFabIN5Model5Solid7Elastic28PseudoLinearCubicPredeformedEEEE19ParallelCopy_nowaitERKS7_iiiRKNS_7IntVectESC_RKNS_11PeriodicityENS_12FabArrayBase4CpOpEPKNSG_3CPCEb
FNDA:0,_ZN5amrex8FabArrayINS_7BaseFabIN5Model5Solid6Affine2J2EEEE19ParallelCopyToGhostERKS7_iiiRKNS_7IntVectESC_RKNS_11PeriodicityE
FNDA:60,_ZN5amrex8FabArrayINS_7BaseFabIN5Model5Solid6Affine9IsotropicEEEE19ParallelCopy_finishEv
FNDA:0,_ZN5amrex8FabArrayINS_7BaseFabIdEEE19FillBoundary_finishIdS2_Li0EEEvv
FNDA:0,_ZN5amrex8FabArrayINS_7BaseFabIN5Model5Solid7Elastic17PseudoLinearCubicEEEE11FBEP_nowaitIS5_S6_Li0EEEviiRKNS_7IntVectERKNS_11PeriodicityEbbb
FNDA:2,_ZN5amrex8FabArrayINS_7BaseFabIN5Model5Solid6Affine2J2EEEE19FillBoundary_finishIS5_S6_Li0EEEvv
FNDA:0,_ZN5amrex8FabArrayINS_7BaseFabIN5Model5Solid6Linear9LaplacianEEEE19ParallelCopy_finishEv
FNDA:32,_ZN5amrex8FabArrayINS_7BaseFabIN5Model5Solid6Affine9IsotropicEEEE11FBEP_nowaitIS5_S6_Li0EEEviiRKNS_7IntVectERKNS_11PeriodicityEbbb
FNDA:0,_ZNK5amrex8FabArrayINS_7BaseFabIN5Model5Solid6Affine9IsotropicEEEE8PostRcvsIS5_EEvRKSt3mapIiSt6vectorINS_12FabArrayBase10CopyComTagESaISC_EESt4lessIiESaISt4pairIKiSE_EEERPcRNS_6VectorISO_SaISO_EEERNSQ_ImSaImEEERNSQ_IiSaIiEEESZ_ii
FNDA:57,_ZN5amrex8FabArrayINS_7BaseFabIN3Set7Matrix4ILi2ELi3EEEEEE12ParallelCopyERKS6_iiiRKNS_7IntVectESB_RKNS_11PeriodicityENS_12FabArrayBase4CpOpEPKNSF_3CPCE
FNDA:32,_ZN5amrex8FabArrayINS_7BaseFabIN3Set7Matrix4ILi2ELi3EEEEEE19FillBoundary_finishIS4_S5_Li0EEEvv
FNDA:0,_ZNK5amrex8FabArrayINS_7BaseFabIN3Set7Matrix4ILi2ELi4EEEEEE18PrepareSendBuffersIS4_EEvRKSt3mapIiSt6vectorINS_12FabArrayBase10CopyComTagESaISB_EESt4lessIiESaISt4pairIKiSD_EEERPcRNS_6VectorISN_SaISN_EEERNSP_ImSaImEEERNSP_IiSaIiEEESY_RNSP_IPKSD_SaIS10_EEEi
FNDA:0,_ZNK5amrex8FabArrayINS_7BaseFabIN3Set7Matrix4ILi2ELi4EEEEEE8PostRcvsIS4_EEvRKSt3mapIiSt6vectorINS_12FabArrayBase10CopyComTagESaISB_EESt4lessIiESaISt4pairIKiSD_EEERPcRNS_6VectorISN_SaISN_EEERNSP_ImSaImEEERNSP_IiSaIiEEESY_ii
FNDA:0,_ZN5amrex8FabArrayINS_7BaseFabIN5Model5Solid6Affine9HexagonalEEEE12ParallelCopyERKS7_iiiRKNS_7IntVectESC_RKNS_11PeriodicityENS_12FabArrayBase4CpOpEPKNSG_3CPCE
FNDA:0,_ZN5amrex8FabArrayINS_7BaseFabIN5Model5Solid6Linear9LaplacianEEEE17FillBoundary_testEv
FNDA:208,_ZN5amrex8FabArrayINS_7BaseFabIN3Set7Matrix4ILi2ELi6EEEEEE19FillBoundary_finishIS4_S5_Li0EEEvv
FNDA:2,_ZN5amrex8FabArrayINS_7BaseFabIN5Model5Solid6Linear9LaplacianEEEE19FillBoundary_finishIS5_S6_Li0EEEvv
FNDA:0,_ZNK5amrex8FabArrayINS_9IArrayBoxEE18PrepareSendBuffersIiEEvRKSt3mapIiSt6vectorINS_12FabArrayBase10CopyComTagESaIS7_EESt4lessIiESaISt4pairIKiS9_EEERPcRNS_6VectorISJ_SaISJ_EEERNSL_ImSaImEEERNSL_IiSaIiEEESU_RNSL_IPKS9_SaISW_EEEi
FNDA:0,_ZN5amrex8FabArrayINS_7BaseFabIN5Model5Solid7Elastic28PseudoLinearCubicPredeformedEEEE19FillBoundary_finishIS5_S6_Li0EEEvv
FNDA:60,_ZN5amrex8FabArrayINS_7BaseFabIN5Model5Solid6Affine9IsotropicEEEE19ParallelCopy_nowaitERKS7_iiiRKNS_7IntVectESC_RKNS_11PeriodicityENS_12FabArrayBase4CpOpEPKNSG_3CPCEb
FNDA:0,_ZNK5amrex8FabArrayINS_7BaseFabIN5Model5Solid7Elastic17PseudoLinearCubicEEEE8PostRcvsIS5_EEvRKSt3mapIiSt6vectorINS_12FabArrayBase10CopyComTagESaISC_EESt4lessIiESaISt4pairIKiSE_EEERPcRNS_6VectorISO_SaISO_EEERNSQ_ImSaImEEERNSQ_IiSaIiEEESZ_ii
FNDA:14,_ZN5amrex8FabArrayINS_7BaseFabIN5Model5Solid7Elastic10NeoHookeanEEEE11FBEP_nowaitIS5_S6_Li0EEEviiRKNS_7IntVectERKNS_11PeriodicityEbbb
FNDA:0,_ZN5amrex8FabArrayINS_7BaseFabIN3Set7Matrix4ILi2ELi4EEEEEE17FillBoundary_testEv
FNDA:3,_ZN5amrex8FabArrayINS_7BaseFabIN5Model5Solid6Affine2J2EEEE12ParallelCopyERKS7_iiiRKNS_7IntVectESC_RKNS_11PeriodicityENS_12FabArrayBase4CpOpEPKNSG_3CPCE
FNDA:0,_ZN5amrex8FabArrayINS_7BaseFabIN5Model5Solid7Elastic17PseudoLinearCubicEEEE19ParallelCopyToGhostERKS7_iiiRKNS_7IntVectESC_RKNS_11PeriodicityE
FNDA:57,_ZN5amrex8FabArrayINS_7BaseFabIN3Set7Matrix4ILi2ELi3EEEEEE19ParallelCopy_finishEv
FNDA:0,_ZNK5amrex8FabArrayINS_7BaseFabIN5Model5Solid6Affine2J2EEEE18PrepareSendBuffersIS5_EEvRKSt3mapIiSt6vectorINS_12FabArrayBase10CopyComTagESaISC_EESt4lessIiESaISt4pairIKiSE_EEERPcRNS_6VectorISO_SaISO_EEERNSQ_ImSaImEEERNSQ_IiSaIiEEESZ_RNSQ_IPKSE_SaIS11_EEEi
FNDA:0,_ZN5amrex8FabArrayINS_7BaseFabIN5Model5Solid6Affine9HexagonalEEEE17FillBoundary_testEv
FNDA:0,_ZN5amrex8FabArrayINS_7BaseFabIN5Model5Solid6Linear5CubicEEEE19FillBoundary_finishIS5_S6_Li0EEEvv
FNDA:0,_ZN5amrex8FabArrayINS_7BaseFabIN3Set7Matrix4ILi2ELi4EEEEEE8PostSndsERKNS_6VectorIPcSaIS8_EEERKNS7_ImSaImEEERKNS7_IiSaIiEEERSI_i
FNDA:0,_ZNK5amrex8FabArrayINS_7BaseFabIN5Model5Solid7Elastic28PseudoLinearCubicPredeformedEEEE18PrepareSendBuffersIS5_EEvRKSt3mapIiSt6vectorINS_12FabArrayBase10CopyComTagESaISC_EESt4lessIiESaISt4pairIKiSE_EEERPcRNS_6VectorISO_SaISO_EEERNSQ_ImSaImEEERNSQ_IiSaIiEEESZ_RNSQ_IPKSE_SaIS11_EEEi
FNDA:0,_ZN5amrex8FabArrayINS_7BaseFabIN5Model5Solid7Elastic10NeoHookeanEEEE8PostSndsERKNS_6VectorIPcSaIS9_EEERKNS8_ImSaImEEERKNS8_IiSaIiEEERSJ_i
FNDA:0,_ZN5amrex8FabArrayINS_7BaseFabIN5Model5Solid6Linear5CubicEEEE19ParallelCopy_finishEv
FNDA:0,_ZN5amrex8FabArrayINS_7BaseFabIN5Model5Solid6Linear19IsotropicDegradableEEEE19ParallelCopy_nowaitERKS7_iiiRKNS_7IntVectESC_RKNS_11PeriodicityENS_12FabArrayBase4CpOpEPKNSG_3CPCEb
FNDA:0,_ZN5amrex8FabArrayINS_7BaseFabIdEEE8PostSndsERKNS_6VectorIPcSaIS5_EEERKNS4_ImSaImEEERKNS4_IiSaIiEEERSF_i
FNDA:6,_ZN5amrex8FabArrayINS_7BaseFabIN5Model5Solid6Affine5CubicEEEE12ParallelCopyERKS7_iiiRKNS_7IntVectESC_RKNS_11PeriodicityENS_12FabArrayBase4CpOpEPKNSG_3CPCE
FNDA:0,_ZN5amrex8FabArrayINS_7BaseFabIN5Model5Solid6Linear9LaplacianEEEE19ParallelCopy_nowaitERKS7_iiiRKNS_7IntVectESC_RKNS_11PeriodicityENS_12FabArrayBase4CpOpEPKNSG_3CPCEb
FNDA:0,_ZN5amrex8FabArrayINS_7BaseFabIN5Model5Solid7Elastic17PseudoLinearCubicEEEE17FillBoundary_testEv
FNDA:208,_ZN5amrex8FabArrayINS_7BaseFabIN3Set7Matrix4ILi2ELi6EEEEEE11FBEP_nowaitIS4_S5_Li0EEEviiRKNS_7IntVectERKNS_11PeriodicityEbbb
FNDA:0,_ZN5amrex8FabArrayINS_7BaseFabIN5Model5Solid6Linear19IsotropicDegradableEEEE8PostSndsERKNS_6VectorIPcSaIS9_EEERKNS8_ImSaImEEERKNS8_IiSaIiEEERSJ_i
FNDA:0,_ZNK5amrex8FabArrayINS_7BaseFabIN5Model5Solid6Linear5CubicEEEE18PrepareSendBuffersIS5_EEvRKSt3mapIiSt6vectorINS_12FabArrayBase10CopyComTagESaISC_EESt4lessIiESaISt4pairIKiSE_EEERPcRNS_6VectorISO_SaISO_EEERNSQ_ImSaImEEERNSQ_IiSaIiEEESZ_RNSQ_IPKSE_SaIS11_EEEi
FNDA:0,_ZNK5amrex8FabArrayINS_7BaseFabIN3Set7Matrix4ILi2ELi6EEEEEE8PostRcvsIS4_EEvRKSt3mapIiSt6vectorINS_12FabArrayBase10CopyComTagESaISB_EESt4lessIiESaISt4pairIKiSD_EEERPcRNS_6VectorISN_SaISN_EEERNSP_ImSaImEEERNSP_IiSaIiEEESY_ii
FNDA:0,_ZN5amrex8FabArrayINS_7BaseFabIN5Model5Solid6Linear19IsotropicDegradableEEEE11FBEP_nowaitIS5_S6_Li0EEEviiRKNS_7IntVectERKNS_11PeriodicityEbbb
FNDA:156,_ZN5amrex8FabArrayINS_7BaseFabIN5Eigen6MatrixIdLi2ELi1ELi0ELi2ELi1EEEEEE19ParallelCopy_nowaitERKS6_iiiRKNS_7IntVectESB_RKNS_11PeriodicityENS_12FabArrayBase4CpOpEPKNSF_3CPCEb
FNDA:0,_ZNK5amrex8FabArrayINS_7BaseFabIN5Model5Solid6Linear19IsotropicDegradableEEEE8PostRcvsIS5_EEvRKSt3mapIiSt6vectorINS_12FabArrayBase10CopyComTagESaISC_EESt4lessIiESaISt4pairIKiSE_EEERPcRNS_6VectorISO_SaISO_EEERNSQ_ImSaImEEERNSQ_IiSaIiEEESZ_ii
FNDA:3,_ZN5amrex8FabArrayINS_7BaseFabIN5Model5Solid7Elastic10NeoHookeanEEEE19ParallelCopy_nowaitERKS7_iiiRKNS_7IntVectESC_RKNS_11PeriodicityENS_12FabArrayBase4CpOpEPKNSG_3CPCEb
FNDA:0,_ZN5amrex8FabArrayINS_7BaseFabIN3Set7Matrix4ILi2ELi1EEEEEE17FillBoundary_testEv
FNDA:6,_ZN5amrex8FabArrayINS_7BaseFabIN5Model5Solid6Affine5CubicEEEE19ParallelCopy_finishEv
FNDA:0,_ZNK5amrex8FabArrayINS_7BaseFabIN5Model5Solid6Linear9LaplacianEEEE8PostRcvsIS5_EEvRKSt3mapIiSt6vectorINS_12FabArrayBase10CopyComTagESaISC_EESt4lessIiESaISt4pairIKiSE_EEERPcRNS_6VectorISO_SaISO_EEERNSQ_ImSaImEEERNSQ_IiSaIiEEESZ_ii
FNDA:20,_ZN5amrex8FabArrayINS_7BaseFabIN3Set7Matrix4ILi2ELi4EEEEEE11FBEP_nowaitIS4_S5_Li0EEEviiRKNS_7IntVectERKNS_11PeriodicityEbbb
FNDA:0,_ZNK5amrex8FabArrayINS_7BaseFabIN5Model5Solid6Linear19IsotropicDegradableEEEE18PrepareSendBuffersIS5_EEvRKSt3mapIiSt6vectorINS_12FabArrayBase10CopyComTagESaISC_EESt4lessIiESaISt4pairIKiSE_EEERPcRNS_6VectorISO_SaISO_EEERNSQ_ImSaImEEERNSQ_IiSaIiEEESZ_RNSQ_IPKSE_SaIS11_EEEi
FNDA:0,_ZN5amrex8FabArrayINS_9FArrayBoxEE17FillBoundary_testEv
FNDA:0,_ZN5amrex8FabArrayINS_7BaseFabIN3Set7Matrix4ILi2ELi6EEEEEE17FillBoundary_testEv
FNDA:0,_ZN5amrex8FabArrayINS_7BaseFabIN5Model5Solid6Linear19IsotropicDegradableEEEE17FillBoundary_testEv
FNDA:0,_ZN5amrex8FabArrayINS_7BaseFabIN5Model5Solid7Elastic28PseudoLinearCubicPredeformedEEEE12ParallelCopyERKS7_iiiRKNS_7IntVectESC_RKNS_11PeriodicityENS_12FabArrayBase4CpOpEPKNSG_3CPCE
FNDA:0,_ZN5amrex8FabArrayINS_7BaseFabIN5Model5Solid7Elastic28PseudoLinearCubicPredeformedEEEE8PostSndsERKNS_6VectorIPcSaIS9_EEERKNS8_ImSaImEEERKNS8_IiSaIiEEERSJ_i
FNDA:104,_ZN5amrex8FabArrayINS_7BaseFabIN5Eigen6MatrixIdLi2ELi1ELi0ELi2ELi1EEEEEE19FillBoundary_finishIS4_S5_Li0EEEvv
FNDA:40,_ZN5amrex8FabArrayINS_7BaseFabIN3Set7Matrix4ILi2ELi4EEEEEE19ParallelCopy_nowaitERKS6_iiiRKNS_7IntVectESB_RKNS_11PeriodicityENS_12FabArrayBase4CpOpEPKNSF_3CPCEb
FNDA:0,_ZN5amrex8FabArrayINS_7BaseFabIN5Model5Solid6Affine5CubicEEEE19ParallelCopyToGhostERKS7_iiiRKNS_7IntVectESC_RKNS_11PeriodicityE
FNDA:0,_ZNK5amrex8FabArrayINS_7BaseFabIdEEE18PrepareSendBuffersIdEEvRKSt3mapIiSt6vectorINS_12FabArrayBase10CopyComTagESaIS8_EESt4lessIiESaISt4pairIKiSA_EEERPcRNS_6VectorISK_SaISK_EEERNSM_ImSaImEEERNSM_IiSaIiEEESV_RNSM_IPKSA_SaISX_EEEi
FNDA:20,_ZN5amrex8FabArrayINS_7BaseFabIN5Model5Solid6Linear9IsotropicEEEE11FBEP_nowaitIS5_S6_Li0EEEviiRKNS_7IntVectERKNS_11PeriodicityEbbb
FNDA:3500,_ZN5amrex8FabArrayINS_7BaseFabIN3Set7Matrix4ILi2ELi1EEEEEE11FBEP_nowaitIS4_S5_Li0EEEviiRKNS_7IntVectERKNS_11PeriodicityEbbb
FNDA:32,_ZN5amrex8FabArrayINS_7BaseFabIN3Set7Matrix4ILi2ELi3EEEEEE11FBEP_nowaitIS4_S5_Li0EEEviiRKNS_7IntVectERKNS_11PeriodicityEbbb
FNDA:2,_ZN5amrex8FabArrayINS_7BaseFabIN5Model5Solid6Linear9IsotropicEEEE12ParallelCopyERKS7_iiiRKNS_7IntVectESC_RKNS_11PeriodicityENS_12FabArrayBase4CpOpEPKNSG_3CPCE
FNDA:40,_ZN5amrex8FabArrayINS_7BaseFabIN3Set7Matrix4ILi2ELi4EEEEEE19ParallelCopy_finishEv
FNDA:0,_ZN5amrex8FabArrayINS_7BaseFabIN5Model5Solid7Elastic28PseudoLinearCubicPredeformedEEEE17FillBoundary_testEv
FNDA:0,_ZNK5amrex8FabArrayINS_9FArrayBoxEE18PrepareSendBuffersIdEEvRKSt3mapIiSt6vectorINS_12FabArrayBase10CopyComTagESaIS7_EESt4lessIiESaISt4pairIKiS9_EEERPcRNS_6VectorISJ_SaISJ_EEERNSL_ImSaImEEERNSL_IiSaIiEEESU_RNSL_IPKS9_SaISW_EEEi
FNDA:0,_ZN5amrex8FabArrayINS_7BaseFabIN5Model5Solid6Affine9IsotropicEEEE19ParallelCopyToGhostERKS7_iiiRKNS_7IntVectESC_RKNS_11PeriodicityE
FNDA:0,_ZNK5amrex8FabArrayINS_7BaseFabIN5Model5Solid6Affine9HexagonalEEEE8PostRcvsIS5_EEvRKSt3mapIiSt6vectorINS_12FabArrayBase10CopyComTagESaISC_EESt4lessIiESaISt4pairIKiSE_EEERPcRNS_6VectorISO_SaISO_EEERNSQ_ImSaImEEERNSQ_IiSaIiEEESZ_ii
FNDA:0,_ZN5amrex8FabArrayINS_7BaseFabIN5Model5Solid7Elastic17PseudoLinearCubicEEEE8PostSndsERKNS_6VectorIPcSaIS9_EEERKNS8_ImSaImEEERKNS8_IiSaIiEEERSJ_i
FNDA:0,_ZN5amrex8FabArrayINS_7BaseFabIN5Model5Solid6Affine9HexagonalEEEE11FBEP_nowaitIS5_S6_Li0EEEviiRKNS_7IntVectERKNS_11PeriodicityEbbb
FNDA:0,_ZN5amrex8FabArrayINS_7BaseFabIN5Model5Solid6Linear9LaplacianEEEE12ParallelCopyERKS7_iiiRKNS_7IntVectESC_RKNS_11PeriodicityENS_12FabArrayBase4CpOpEPKNSG_3CPCE
FNDA:0,_ZN5amrex8FabArrayINS_7BaseFabIN3Set7Matrix4ILi2ELi6EEEEEE8PostSndsERKNS_6VectorIPcSaIS8_EEERKNS7_ImSaImEEERKNS7_IiSaIiEEERSI_i
FNDA:0,_ZNK5amrex8FabArrayINS_7BaseFabIN5Model5Solid6Affine2J2EEEE8PostRcvsIS5_EEvRKSt3mapIiSt6vectorINS_12FabArrayBase10CopyComTagESaISC_EESt4lessIiESaISt4pairIKiSE_EEERPcRNS_6VectorISO_SaISO_EEERNSQ_ImSaImEEERNSQ_IiSaIiEEESZ_ii
FNDA:0,_ZNK5amrex8FabArrayINS_7BaseFabIN5Eigen6MatrixIdLi2ELi2ELi0ELi2ELi2EEEEEE18PrepareSendBuffersIS4_EEvRKSt3mapIiSt6vectorINS_12FabArrayBase10CopyComTagESaISB_EESt4lessIiESaISt4pairIKiSD_EEERPcRNS_6VectorISN_SaISN_EEERNSP_ImSaImEEERNSP_IiSaIiEEESY_RNSP_IPKSD_SaIS10_EEEi
FNDA:0,_ZN5amrex8FabArrayINS_7BaseFabIN3Set7Matrix4ILi2ELi1EEEEEE8PostSndsERKNS_6VectorIPcSaIS8_EEERKNS7_ImSaImEEERKNS7_IiSaIiEEERSI_i
FNDA:0,_ZN5amrex8FabArrayINS_7BaseFabIN5Model5Solid7Elastic28PseudoLinearCubicPredeformedEEEE11FBEP_nowaitIS5_S6_Li0EEEviiRKNS_7IntVectERKNS_11PeriodicityEbbb
FNDA:0,_ZNK5amrex8FabArrayINS_7BaseFabIN5Model5Solid6Linear9IsotropicEEEE8PostRcvsIS5_EEvRKSt3mapIiSt6vectorINS_12FabArrayBase10CopyComTagESaISC_EESt4lessIiESaISt4pairIKiSE_EEERPcRNS_6VectorISO_SaISO_EEERNSQ_ImSaImEEERNSQ_IiSaIiEEESZ_ii
FNDA:829179,_ZN5amrex8FabArrayINS_9FArrayBoxEE19FillBoundary_finishIdS1_Li0EEEvv
FNDA:0,_ZNK5amrex8FabArrayINS_7BaseFabIN5Eigen6MatrixIdLi2ELi1ELi0ELi2ELi1EEEEEE18PrepareSendBuffersIS4_EEvRKSt3mapIiSt6vectorINS_12FabArrayBase10CopyComTagESaISB_EESt4lessIiESaISt4pairIKiSD_EEERPcRNS_6VectorISN_SaISN_EEERNSP_ImSaImEEERNSP_IiSaIiEEESY_RNSP_IPKSD_SaIS10_EEEi
FNDA:0,_ZN5amrex8FabArrayINS_7BaseFabIN5Model5Solid6Linear19IsotropicDegradableEEEE19FillBoundary_finishIS5_S6_Li0EEEvv
FNDA:0,_ZN5amrex8FabArrayINS_7BaseFabIdEEE17FillBoundary_testEv
FNDA:60,_ZN5amrex8FabArrayINS_7BaseFabIN5Model5Solid6Affine9IsotropicEEEE12ParallelCopyERKS7_iiiRKNS_7IntVectESC_RKNS_11PeriodicityENS_12FabArrayBase4CpOpEPKNSG_3CPCE
FNDA:0,_ZN5amrex8FabArrayINS_7BaseFabIN5Eigen6MatrixIdLi2ELi1ELi0ELi2ELi1EEEEEE17FillBoundary_testEv
FNDA:0,_ZN5amrex8FabArrayINS_7BaseFabIN5Model5Solid6Affine9IsotropicEEEE8PostSndsERKNS_6VectorIPcSaIS9_EEERKNS8_ImSaImEEERKNS8_IiSaIiEEERSJ_i
FNDA:6,_ZN5amrex8FabArrayINS_7BaseFabIN5Model5Solid6Affine5CubicEEEE19ParallelCopy_nowaitERKS7_iiiRKNS_7IntVectESC_RKNS_11PeriodicityENS_12FabArrayBase4CpOpEPKNSG_3CPCEb
FNDA:0,_ZN5amrex8FabArrayINS_7BaseFabIN5Model5Solid6Affine5CubicEEEE8PostSndsERKNS_6VectorIPcSaIS9_EEERKNS8_ImSaImEEERKNS8_IiSaIiEEERSJ_i
FNDA:20,_ZN5amrex8FabArrayINS_7BaseFabIN3Set7Matrix4ILi2ELi4EEEEEE19FillBoundary_finishIS4_S5_Li0EEEvv
FNDA:20,_ZN5amrex8FabArrayINS_7BaseFabIN5Model5Solid6Linear9IsotropicEEEE19FillBoundary_finishIS5_S6_Li0EEEvv
FNDA:0,_ZN5amrex8FabArrayINS_7BaseFabIN5Model5Solid7Elastic17PseudoLinearCubicEEEE19ParallelCopy_finishEv
FNDA:32,_ZN5amrex8FabArrayINS_7BaseFabIN5Model5Solid6Affine9IsotropicEEEE19FillBoundary_finishIS5_S6_Li0EEEvv
FNDA:57,_ZN5amrex8FabArrayINS_7BaseFabIN3Set7Matrix4ILi2ELi3EEEEEE19ParallelCopy_nowaitERKS6_iiiRKNS_7IntVectESB_RKNS_11PeriodicityENS_12FabArrayBase4CpOpEPKNSF_3CPCEb
FNDA:2,_ZN5amrex8FabArrayINS_7BaseFabIN5Model5Solid6Affine2J2EEEE11FBEP_nowaitIS5_S6_Li0EEEviiRKNS_7IntVectERKNS_11PeriodicityEbbb
FNDA:0,_ZNK5amrex8FabArrayINS_7BaseFabIN5Model5Solid6Linear5CubicEEEE8PostRcvsIS5_EEvRKSt3mapIiSt6vectorINS_12FabArrayBase10CopyComTagESaISC_EESt4lessIiESaISt4pairIKiSE_EEERPcRNS_6VectorISO_SaISO_EEERNSQ_ImSaImEEERNSQ_IiSaIiEEESZ_ii
FNDA:148,_ZN5amrex8FabArrayINS_7BaseFabIN5Eigen6MatrixIdLi2ELi2ELi0ELi2ELi2EEEEEE19ParallelCopy_nowaitERKS6_iiiRKNS_7IntVectESB_RKNS_11PeriodicityENS_12FabArrayBase4CpOpEPKNSF_3CPCEb
FNDA:0,_ZN5amrex8FabArrayINS_7BaseFabIN5Eigen6MatrixIdLi2ELi2ELi0ELi2ELi2EEEEEE8PostSndsERKNS_6VectorIPcSaIS8_EEERKNS7_ImSaImEEERKNS7_IiSaIiEEERSI_i
FNDA:0,_ZN5amrex8FabArrayINS_7BaseFabIN5Eigen6MatrixIdLi2ELi1ELi0ELi2ELi1EEEEEE19ParallelCopyToGhostERKS6_iiiRKNS_7IntVectESB_RKNS_11PeriodicityE
FNDA:0,_ZN5amrex8FabArrayINS_7BaseFabIN5Model5Solid6Linear9LaplacianEEEE8PostSndsERKNS_6VectorIPcSaIS9_EEERKNS8_ImSaImEEERKNS8_IiSaIiEEERSJ_i
FNDA:0,_ZN5amrex8FabArrayINS_7BaseFabIN5Model5Solid6Linear9IsotropicEEEE19ParallelCopyToGhostERKS7_iiiRKNS_7IntVectESC_RKNS_11PeriodicityE
FNDA:2080,_ZN5amrex8FabArrayINS_7BaseFabIN3Set7Matrix4ILi2ELi1EEEEEE12ParallelCopyERKS6_iiiRKNS_7IntVectESB_RKNS_11PeriodicityENS_12FabArrayBase4CpOpEPKNSF_3CPCE
FNDA:2,_ZN5amrex8FabArrayINS_7BaseFabIN5Model5Solid6Linear9IsotropicEEEE19ParallelCopy_nowaitERKS7_iiiRKNS_7IntVectESC_RKNS_11PeriodicityENS_12FabArrayBase4CpOpEPKNSG_3CPCEb
FNDA:0,_ZN5amrex8FabArrayINS_9FArrayBoxEE8PostSndsERKNS_6VectorIPcSaIS4_EEERKNS3_ImSaImEEERKNS3_IiSaIiEEERSE_i
FNDA:0,_ZN5amrex8FabArrayINS_7BaseFabIN5Model5Solid6Linear9IsotropicEEEE8PostSndsERKNS_6VectorIPcSaIS9_EEERKNS8_ImSaImEEERKNS8_IiSaIiEEERSJ_i
FNDA:0,_ZNK5amrex8FabArrayINS_7BaseFabIN5Model5Solid6Linear9IsotropicEEEE18PrepareSendBuffersIS5_EEvRKSt3mapIiSt6vectorINS_12FabArrayBase10CopyComTagESaISC_EESt4lessIiESaISt4pairIKiSE_EEERPcRNS_6VectorISO_SaISO_EEERNSQ_ImSaImEEERNSQ_IiSaIiEEESZ_RNSQ_IPKSE_SaIS11_EEEi
FNDA:0,_ZN5amrex8FabArrayINS_7BaseFabIN5Model5Solid7Elastic10NeoHookeanEEEE19ParallelCopyToGhostERKS7_iiiRKNS_7IntVectESC_RKNS_11PeriodicityE
FNDA:10212,_ZN5amrex8FabArrayINS_9IArrayBoxEE12ParallelCopyERKS2_iiiRKNS_7IntVectES7_RKNS_11PeriodicityENS_12FabArrayBase4CpOpEPKNSB_3CPCE
FNDA:0,_ZN5amrex8FabArrayINS_7BaseFabIN5Model5Solid6Linear5CubicEEEE11FBEP_nowaitIS5_S6_Li0EEEviiRKNS_7IntVectERKNS_11PeriodicityEbbb
FNDA:0,_ZN5amrex8FabArrayINS_7BaseFabIN5Model5Solid6Affine9HexagonalEEEE19FillBoundary_finishIS5_S6_Li0EEEvv
FNDA:0,_ZN5amrex8FabArrayINS_7BaseFabIN5Model5Solid6Affine2J2EEEE17FillBoundary_testEv
FNDA:0,_ZNK5amrex8FabArrayINS_7BaseFabIN5Model5Solid6Affine9IsotropicEEEE18PrepareSendBuffersIS5_EEvRKSt3mapIiSt6vectorINS_12FabArrayBase10CopyComTagESaISC_EESt4lessIiESaISt4pairIKiSE_EEERPcRNS_6VectorISO_SaISO_EEERNSQ_ImSaImEEERNSQ_IiSaIiEEESZ_RNSQ_IPKSE_SaIS11_EEEi
FNDA:0,_ZNK5amrex8FabArrayINS_7BaseFabIN5Model5Solid7Elastic17PseudoLinearCubicEEEE18PrepareSendBuffersIS5_EEvRKSt3mapIiSt6vectorINS_12FabArrayBase10CopyComTagESaISC_EESt4lessIiESaISt4pairIKiSE_EEERPcRNS_6VectorISO_SaISO_EEERNSQ_ImSaImEEERNSQ_IiSaIiEEESZ_RNSQ_IPKSE_SaIS11_EEEi
FNDA:0,_ZN5amrex8FabArrayINS_9FArrayBoxEE19ParallelCopyToGhostERKS2_iiiRKNS_7IntVectES7_RKNS_11PeriodicityE
FNDA:66218,_ZN5amrex8FabArrayINS_9FArrayBoxEE12ParallelCopyERKS2_iiiRKNS_7IntVectES7_RKNS_11PeriodicityENS_12FabArrayBase4CpOpEPKNSB_3CPCE
FNDA:0,_ZNK5amrex8FabArrayINS_7BaseFabIN3Set7Matrix4ILi2ELi3EEEEEE8PostRcvsIS4_EEvRKSt3mapIiSt6vectorINS_12FabArrayBase10CopyComTagESaISB_EESt4lessIiESaISt4pairIKiSD_EEERPcRNS_6VectorISN_SaISN_EEERNSP_ImSaImEEERNSP_IiSaIiEEESY_ii
FNDA:0,_ZNK5amrex8FabArrayINS_7BaseFabIN5Model5Solid6Affine9HexagonalEEEE18PrepareSendBuffersIS5_EEvRKSt3mapIiSt6vectorINS_12FabArrayBase10CopyComTagESaISC_EESt4lessIiESaISt4pairIKiSE_EEERPcRNS_6VectorISO_SaISO_EEERNSQ_ImSaImEEERNSQ_IiSaIiEEESZ_RNSQ_IPKSE_SaIS11_EEEi
FNDA:0,_ZN5amrex8FabArrayINS_7BaseFabIN5Eigen6MatrixIdLi2ELi2ELi0ELi2ELi2EEEEEE19ParallelCopyToGhostERKS6_iiiRKNS_7IntVectESB_RKNS_11PeriodicityE
FNDA:1754,_ZN5amrex8FabArrayINS_7BaseFabIN5Eigen6MatrixIdLi2ELi2ELi0ELi2ELi2EEEEEE19FillBoundary_finishIS4_S5_Li0EEEvv
FNDA:0,_ZNK5amrex8FabArrayINS_7BaseFabIN3Set7Matrix4ILi2ELi3EEEEEE18PrepareSendBuffersIS4_EEvRKSt3mapIiSt6vectorINS_12FabArrayBase10CopyComTagESaISB_EESt4lessIiESaISt4pairIKiSD_EEERPcRNS_6VectorISN_SaISN_EEERNSP_ImSaImEEERNSP_IiSaIiEEESY_RNSP_IPKSD_SaIS10_EEEi
FNDA:2080,_ZN5amrex8FabArrayINS_7BaseFabIN3Set7Matrix4ILi2ELi1EEEEEE19ParallelCopy_finishEv
FNDA:0,_ZN5amrex8FabArrayINS_7BaseFabIN5Model5Solid7Elastic17PseudoLinearCubicEEEE19ParallelCopy_nowaitERKS7_iiiRKNS_7IntVectESC_RKNS_11PeriodicityENS_12FabArrayBase4CpOpEPKNSG_3CPCEb
FNDA:0,_ZN5amrex8FabArrayINS_7BaseFabIN5Model5Solid7Elastic28PseudoLinearCubicPredeformedEEEE19ParallelCopy_finishEv
FNDA:3500,_ZN5amrex8FabArrayINS_7BaseFabIN3Set7Matrix4ILi2ELi1EEEEEE19FillBoundary_finishIS4_S5_Li0EEEvv
FNDA:148,_ZN5amrex8FabArrayINS_7BaseFabIN5Eigen6MatrixIdLi2ELi2ELi0ELi2ELi2EEEEEE19ParallelCopy_finishEv
FNDA:0,_ZN5amrex8FabArrayINS_7BaseFabIN5Eigen6MatrixIdLi2ELi2ELi0ELi2ELi2EEEEEE17FillBoundary_testEv
FNDA:14,_ZN5amrex8FabArrayINS_7BaseFabIN5Model5Solid7Elastic10NeoHookeanEEEE19FillBoundary_finishIS5_S6_Li0EEEvv
FNDA:358,_ZN5amrex8FabArrayINS_7BaseFabIN3Set7Matrix4ILi2ELi6EEEEEE19ParallelCopy_nowaitERKS6_iiiRKNS_7IntVectESB_RKNS_11PeriodicityENS_12FabArrayBase4CpOpEPKNSF_3CPCEb
FNDA:108283,_ZN5amrex8FabArrayINS_9FArrayBoxEE19ParallelCopy_nowaitERKS2_iiiRKNS_7IntVectES7_RKNS_11PeriodicityENS_12FabArrayBase4CpOpEPKNSB_3CPCEb
FNDA:0,_ZNK5amrex8FabArrayINS_7BaseFabIN5Model5Solid6Affine5CubicEEEE8PostRcvsIS5_EEvRKSt3mapIiSt6vectorINS_12FabArrayBase10CopyComTagESaISC_EESt4lessIiESaISt4pairIKiSE_EEERPcRNS_6VectorISO_SaISO_EEERNSQ_ImSaImEEERNSQ_IiSaIiEEESZ_ii
FNDA:3,_ZN5amrex8FabArrayINS_7BaseFabIN5Model5Solid6Affine2J2EEEE19ParallelCopy_nowaitERKS7_iiiRKNS_7IntVectESC_RKNS_11PeriodicityENS_12FabArrayBase4CpOpEPKNSG_3CPCEb
FNDA:0,_ZN5amrex8FabArrayINS_7BaseFabIN5Model5Solid6Linear5CubicEEEE17FillBoundary_testEv
FNDA:0,_ZNK5amrex8FabArrayINS_7BaseFabIN5Model5Solid6Affine5CubicEEEE18PrepareSendBuffersIS5_EEvRKSt3mapIiSt6vectorINS_12FabArrayBase10CopyComTagESaISC_EESt4lessIiESaISt4pairIKiSE_EEERPcRNS_6VectorISO_SaISO_EEERNSQ_ImSaImEEERNSQ_IiSaIiEEESZ_RNSQ_IPKSE_SaIS11_EEEi
FNDA:0,_ZN5amrex8FabArrayINS_7BaseFabIN5Model5Solid6Affine9HexagonalEEEE19ParallelCopy_finishEv
FNDA:0,_ZN5amrex8FabArrayINS_9IArrayBoxEE8PostSndsERKNS_6VectorIPcSaIS4_EEERKNS3_ImSaImEEERKNS3_IiSaIiEEERSE_i
FNDA:104,_ZN5amrex8FabArrayINS_7BaseFabIN5Eigen6MatrixIdLi2ELi1ELi0ELi2ELi1EEEEEE11FBEP_nowaitIS4_S5_Li0EEEviiRKNS_7IntVectERKNS_11PeriodicityEbbb
FNDA:0,_ZNK5amrex8FabArrayINS_7BaseFabIN5Model5Solid7Elastic28PseudoLinearCubicPredeformedEEEE8PostRcvsIS5_EEvRKSt3mapIiSt6vectorINS_12FabArrayBase10CopyComTagESaISC_EESt4lessIiESaISt4pairIKiSE_EEERPcRNS_6VectorISO_SaISO_EEERNSQ_ImSaImEEERNSQ_IiSaIiEEESZ_ii
FNDA:10212,_ZN5amrex8FabArrayINS_9IArrayBoxEE19ParallelCopy_nowaitERKS2_iiiRKNS_7IntVectES7_RKNS_11PeriodicityENS_12FabArrayBase4CpOpEPKNSB_3CPCEb
FNDA:156,_ZN5amrex8FabArrayINS_7BaseFabIN5Eigen6MatrixIdLi2ELi1ELi0ELi2ELi1EEEEEE19ParallelCopy_finishEv
FNDA:0,_ZNK5amrex8FabArrayINS_9IArrayBoxEE8PostRcvsIiEEvRKSt3mapIiSt6vectorINS_12FabArrayBase10CopyComTagESaIS7_EESt4lessIiESaISt4pairIKiS9_EEERPcRNS_6VectorISJ_SaISJ_EEERNSL_ImSaImEEERNSL_IiSaIiEEESU_ii
FNDA:0,_ZN5amrex8FabArrayINS_7BaseFabIN5Model5Solid6Linear19IsotropicDegradableEEEE19ParallelCopy_finishEv
FNDA:2,_ZN5amrex8FabArrayINS_7BaseFabIN5Model5Solid6Linear9IsotropicEEEE19ParallelCopy_finishEv
FNDA:0,_ZNK5amrex8FabArrayINS_7BaseFabIN3Set7Matrix4ILi2ELi1EEEEEE18PrepareSendBuffersIS4_EEvRKSt3mapIiSt6vectorINS_12FabArrayBase10CopyComTagESaISB_EESt4lessIiESaISt4pairIKiSD_EEERPcRNS_6VectorISN_SaISN_EEERNSP_ImSaImEEERNSP_IiSaIiEEESY_RNSP_IPKSD_SaIS10_EEEi
FNDA:358,_ZN5amrex8FabArrayINS_7BaseFabIN3Set7Matrix4ILi2ELi6EEEEEE19ParallelCopy_finishEv
FNDA:829179,_ZN5amrex8FabArrayINS_9FArrayBoxEE11FBEP_nowaitIdS1_Li0EEEviiRKNS_7IntVectERKNS_11PeriodicityEbbb
FNDA:0,_ZN5amrex8FabArrayINS_7BaseFabIN5Model5Solid6Linear9LaplacianEEEE19ParallelCopyToGhostERKS7_iiiRKNS_7IntVectESC_RKNS_11PeriodicityE
FNDA:0,_ZNK5amrex8FabArrayINS_7BaseFabIN5Model5Solid6Linear9LaplacianEEEE18PrepareSendBuffersIS5_EEvRKSt3mapIiSt6vectorINS_12FabArrayBase10CopyComTagESaISC_EESt4lessIiESaISt4pairIKiSE_EEERPcRNS_6VectorISO_SaISO_EEERNSQ_ImSaImEEERNSQ_IiSaIiEEESZ_RNSQ_IPKSE_SaIS11_EEEi
FNDA:0,_ZN5amrex8FabArrayINS_7BaseFabIN5Model5Solid6Linear5CubicEEEE19ParallelCopyToGhostERKS7_iiiRKNS_7IntVectESC_RKNS_11PeriodicityE
FNDA:0,_ZN5amrex8FabArrayINS_7BaseFabIdEEE11FBEP_nowaitIdS2_Li0EEEviiRKNS_7IntVectERKNS_11PeriodicityEbbb
FNDA:0,_ZN5amrex8FabArrayINS_7BaseFabIN5Model5Solid6Linear5CubicEEEE8PostSndsERKNS_6VectorIPcSaIS9_EEERKNS8_ImSaImEEERKNS8_IiSaIiEEERSJ_i
FNDA:40,_ZN5amrex8FabArrayINS_7BaseFabIN3Set7Matrix4ILi2ELi4EEEEEE12ParallelCopyERKS6_iiiRKNS_7IntVectESB_RKNS_11PeriodicityENS_12FabArrayBase4CpOpEPKNSF_3CPCE
FNDA:2080,_ZN5amrex8FabArrayINS_7BaseFabIN3Set7Matrix4ILi2ELi1EEEEEE19ParallelCopy_nowaitERKS6_iiiRKNS_7IntVectESB_RKNS_11PeriodicityENS_12FabArrayBase4CpOpEPKNSF_3CPCEb
FNDA:0,_ZN5amrex8FabArrayINS_7BaseFabIN5Model5Solid7Elastic17PseudoLinearCubicEEEE19FillBoundary_finishIS5_S6_Li0EEEvv
FNDA:0,_ZN5amrex8FabArrayINS_7BaseFabIN5Model5Solid7Elastic10NeoHookeanEEEE17FillBoundary_testEv
FNDA:0,_ZN5amrex8FabArrayINS_7BaseFabIN5Model5Solid7Elastic28PseudoLinearCubicPredeformedEEEE19ParallelCopyToGhostERKS7_iiiRKNS_7IntVectESC_RKNS_11PeriodicityE
FNDA:0,_ZN5amrex8FabArrayINS_7BaseFabIN5Model5Solid6Affine9HexagonalEEEE19ParallelCopy_nowaitERKS7_iiiRKNS_7IntVectESC_RKNS_11PeriodicityENS_12FabArrayBase4CpOpEPKNSG_3CPCEb
FNDA:148,_ZN5amrex8FabArrayINS_7BaseFabIN5Eigen6MatrixIdLi2ELi2ELi0ELi2ELi2EEEEEE12ParallelCopyERKS6_iiiRKNS_7IntVectESB_RKNS_11PeriodicityENS_12FabArrayBase4CpOpEPKNSF_3CPCE
FNDA:0,_ZN5amrex8FabArrayINS_7BaseFabIN5Model5Solid6Affine9HexagonalEEEE8PostSndsERKNS_6VectorIPcSaIS9_EEERKNS8_ImSaImEEERKNS8_IiSaIiEEERSJ_i
FNDA:8,_ZN5amrex8FabArrayINS_7BaseFabIN5Model5Solid6Affine5CubicEEEE19FillBoundary_finishIS5_S6_Li0EEEvv
FNDA:0,_ZN5amrex8FabArrayINS_7BaseFabIN5Model5Solid6Affine2J2EEEE8PostSndsERKNS_6VectorIPcSaIS9_EEERKNS8_ImSaImEEERKNS8_IiSaIiEEERSJ_i
FNDA:0,_ZNK5amrex8FabArrayINS_7BaseFabIN5Eigen6MatrixIdLi2ELi2ELi0ELi2ELi2EEEEEE8PostRcvsIS4_EEvRKSt3mapIiSt6vectorINS_12FabArrayBase10CopyComTagESaISB_EESt4lessIiESaISt4pairIKiSD_EEERPcRNS_6VectorISN_SaISN_EEERNSP_ImSaImEEERNSP_IiSaIiEEESY_ii
FNDA:0,_ZN5amrex8FabArrayINS_7BaseFabIN5Model5Solid6Affine9IsotropicEEEE17FillBoundary_testEv
FNDA:0,_ZNK5amrex8FabArrayINS_9FArrayBoxEE8PostRcvsIdEEvRKSt3mapIiSt6vectorINS_12FabArrayBase10CopyComTagESaIS7_EESt4lessIiESaISt4pairIKiS9_EEERPcRNS_6VectorISJ_SaISJ_EEERNSL_ImSaImEEERNSL_IiSaIiEEESU_ii
FNDA:0,_ZN5amrex8FabArrayINS_7BaseFabIN5Eigen6MatrixIdLi2ELi1ELi0ELi2ELi1EEEEEE8PostSndsERKNS_6VectorIPcSaIS8_EEERKNS7_ImSaImEEERKNS7_IiSaIiEEERSI_i
FNDA:0,_ZN5amrex8FabArrayINS_7BaseFabIN5Model5Solid6Linear5CubicEEEE19ParallelCopy_nowaitERKS7_iiiRKNS_7IntVectESC_RKNS_11PeriodicityENS_12FabArrayBase4CpOpEPKNSG_3CPCEb
FNDA:0,_ZN5amrex8FabArrayINS_7BaseFabIN5Model5Solid6Linear19IsotropicDegradableEEEE12ParallelCopyERKS7_iiiRKNS_7IntVectESC_RKNS_11PeriodicityENS_12FabArrayBase4CpOpEPKNSG_3CPCE
FNDA:3,_ZN5amrex8FabArrayINS_7BaseFabIN5Model5Solid7Elastic10NeoHookeanEEEE12ParallelCopyERKS7_iiiRKNS_7IntVectESC_RKNS_11PeriodicityENS_12FabArrayBase4CpOpEPKNSG_3CPCE
FNDA:0,_ZN5amrex8FabArrayINS_7BaseFabIN3Set7Matrix4ILi2ELi3EEEEEE8PostSndsERKNS_6VectorIPcSaIS8_EEERKNS7_ImSaImEEERKNS7_IiSaIiEEERSI_i
FNDA:0,_ZNK5amrex8FabArrayINS_7BaseFabIN3Set7Matrix4ILi2ELi6EEEEEE18PrepareSendBuffersIS4_EEvRKSt3mapIiSt6vectorINS_12FabArrayBase10CopyComTagESaISB_EESt4lessIiESaISt4pairIKiSD_EEERPcRNS_6VectorISN_SaISN_EEERNSP_ImSaImEEERNSP_IiSaIiEEESY_RNSP_IPKSD_SaIS10_EEEi
FNDA:0,_ZNK5amrex8FabArrayINS_7BaseFabIN3Set7Matrix4ILi2ELi1EEEEEE8PostRcvsIS4_EEvRKSt3mapIiSt6vectorINS_12FabArrayBase10CopyComTagESaISB_EESt4lessIiESaISt4pairIKiSD_EEERPcRNS_6VectorISN_SaISN_EEERNSP_ImSaImEEERNSP_IiSaIiEEESY_ii
FNDA:10212,_ZN5amrex8FabArrayINS_9IArrayBoxEE19ParallelCopy_finishEv
FNDA:3,_ZN5amrex8FabArrayINS_7BaseFabIN5Model5Solid7Elastic10NeoHookeanEEEE19ParallelCopy_finishEv
FNDA:0,_ZN5amrex8FabArrayINS_7BaseFabIN5Model5Solid6Linear5CubicEEEE12ParallelCopyERKS7_iiiRKNS_7IntVectESC_RKNS_11PeriodicityENS_12FabArrayBase4CpOpEPKNSG_3CPCE
FNDA:0,_ZNK5amrex8FabArrayINS_7BaseFabIdEEE8PostRcvsIdEEvRKSt3mapIiSt6vectorINS_12FabArrayBase10CopyComTagESaIS8_EESt4lessIiESaISt4pairIKiSA_EEERPcRNS_6VectorISK_SaISK_EEERNSM_ImSaImEEERNSM_IiSaIiEEESV_ii
FNDA:0,_ZN5amrex8FabArrayINS_7BaseFabIN3Set7Matrix4ILi2ELi3EEEEEE17FillBoundary_testEv
FNDA:0,_ZNK5amrex8FabArrayINS_7BaseFabIN5Eigen6MatrixIdLi2ELi1ELi0ELi2ELi1EEEEEE8PostRcvsIS4_EEvRKSt3mapIiSt6vectorINS_12FabArrayBase10CopyComTagESaISB_EESt4lessIiESaISt4pairIKiSD_EEERPcRNS_6VectorISN_SaISN_EEERNSP_ImSaImEEERNSP_IiSaIiEEESY_ii
FNDA:0,_ZN5amrex8FabArrayINS_7BaseFabIN5Model5Solid7Elastic17PseudoLinearCubicEEEE12ParallelCopyERKS7_iiiRKNS_7IntVectESC_RKNS_11PeriodicityENS_12FabArrayBase4CpOpEPKNSG_3CPCE
FNDA:0,_ZNK5amrex8FabArrayINS_7BaseFabIN5Model5Solid7Elastic10NeoHookeanEEEE8PostRcvsIS5_EEvRKSt3mapIiSt6vectorINS_12FabArrayBase10CopyComTagESaISC_EESt4lessIiESaISt4pairIKiSE_EEERPcRNS_6VectorISO_SaISO_EEERNSQ_ImSaImEEERNSQ_IiSaIiEEESZ_ii
FNDA:0,_ZN5amrex8FabArrayINS_7BaseFabIN5Model5Solid6Linear9IsotropicEEEE17FillBoundary_testEv
FNDA:0,_ZN5amrex8FabArrayINS_7BaseFabIN5Model5Solid6Linear19IsotropicDegradableEEEE19ParallelCopyToGhostERKS7_iiiRKNS_7IntVectESC_RKNS_11PeriodicityE
FNDA:2,_ZN5amrex8FabArrayINS_7BaseFabIN5Model5Solid6Linear9LaplacianEEEE11FBEP_nowaitIS5_S6_Li0EEEviiRKNS_7IntVectERKNS_11PeriodicityEbbb
FNDA:156,_ZN5amrex8FabArrayINS_7BaseFabIN5Eigen6MatrixIdLi2ELi1ELi0ELi2ELi1EEEEEE12ParallelCopyERKS6_iiiRKNS_7IntVectESB_RKNS_11PeriodicityENS_12FabArrayBase4CpOpEPKNSF_3CPCE
FNDA:3,_ZN5amrex8FabArrayINS_7BaseFabIN5Model5Solid6Affine2J2EEEE19ParallelCopy_finishEv
FNDA:1754,_ZN5amrex8FabArrayINS_7BaseFabIN5Eigen6MatrixIdLi2ELi2ELi0ELi2ELi2EEEEEE11FBEP_nowaitIS4_S5_Li0EEEviiRKNS_7IntVectERKNS_11PeriodicityEbbb
FNDA:0,_ZN5amrex8FabArrayINS_7BaseFabIN5Model5Solid6Affine5CubicEEEE17FillBoundary_testEv
FNDA:0,_ZNK5amrex8FabArrayINS_7BaseFabIN5Model5Solid7Elastic10NeoHookeanEEEE18PrepareSendBuffersIS5_EEvRKSt3mapIiSt6vectorINS_12FabArrayBase10CopyComTagESaISC_EESt4lessIiESaISt4pairIKiSE_EEERPcRNS_6VectorISO_SaISO_EEERNSQ_ImSaImEEERNSQ_IiSaIiEEESZ_RNSQ_IPKSE_SaIS11_EEEi
FNF:188
FNH:65
DA:8,834875
DA:20,834875
DA:21,0
DA:22,834875
DA:23,141437
DA:25,693438
DA:27,1669752
DA:29,834875
DA:31,834875
DA:36,834875
DA:37,834875
DA:55,66405
DA:58,66405
DA:67,0
DA:69,0
DA:70,0
DA:71,0
DA:73,0
DA:75,0
DA:78,0
DA:79,0
DA:80,0
DA:81,0
DA:82,0
DA:88,0
DA:89,0
DA:90,0
DA:92,0
DA:98,0
DA:99,0
DA:100,0
DA:101,0
DA:102,0
DA:103,0
DA:105,0
DA:107,0
DA:126,0
DA:130,0
DA:133,0
DA:138,0
DA:156,0
DA:159,0
DA:168,834875
DA:175,1669752
DA:177,0
DA:178,0
DA:179,0
DA:181,0
DA:182,0
DA:184,0
DA:186,0
DA:187,0
DA:191,0
DA:193,0
DA:194,0
DA:203,0
DA:225,0
DA:229,0
DA:231,0
DA:232,0
DA:236,0
DA:237,0
DA:238,0
DA:239,0
DA:240,0
DA:241,0
DA:244,0
DA:252,79343
DA:264,79343
DA:265,79343
DA:266,79343
DA:270,0
DA:280,0
DA:282,0
DA:283,0
DA:309,121408
DA:325,121408
DA:326,121408
DA:334,121408
DA:336,334184
DA:337,125685
DA:338,8554
DA:339,8
DA:340,242816
DA:347,0
DA:348,0
DA:349,0
DA:351,0
DA:354,0
DA:357,121408
DA:359,121408
DA:365,121408
DA:366,121408
DA:375,121408
DA:378,121408
DA:387,0
DA:389,0
DA:390,0
DA:391,0
DA:393,0
DA:398,0
DA:404,0
DA:405,0
DA:407,0
DA:409,0
DA:410,0
DA:411,0
DA:412,0
DA:413,0
DA:415,0
DA:416,0
DA:418,0
DA:419,0
DA:420,0
DA:425,0
DA:427,0
DA:428,0
DA:429,0
DA:430,0
DA:431,0
DA:437,0
DA:438,0
DA:439,0
DA:440,0
DA:442,0
DA:444,0
DA:445,0
DA:455,0
DA:459,0
DA:465,0
DA:475,0
DA:479,0
DA:481,0
DA:483,0
DA:484,0
DA:487,0
DA:488,0
DA:496,121408
DA:504,121408
DA:506,0
DA:508,0
DA:509,0
DA:511,0
DA:513,0
DA:514,0
DA:516,0
DA:518,0
DA:519,0
DA:523,0
DA:524,0
DA:525,0
DA:534,0
DA:545,0
DA:546,0
DA:549,0
DA:551,0
DA:552,0
DA:556,0
DA:557,0
DA:558,0
DA:559,0
DA:561,0
DA:562,0
DA:565,0
DA:635,0
DA:644,0
DA:645,0
DA:646,0
DA:647,0
DA:648,0
DA:649,0
DA:650,0
DA:651,0
DA:652,0
DA:653,0
DA:654,0
DA:655,0
DA:657,0
DA:658,0
DA:659,0
DA:661,0
DA:663,0
DA:664,0
DA:666,0
DA:669,0
DA:670,0
DA:673,0
DA:676,0
DA:677,0
DA:679,0
DA:680,0
DA:681,0
DA:682,0
DA:683,0
DA:686,0
DA:688,0
DA:689,0
DA:690,0
DA:693,0
DA:699,0
DA:705,0
DA:707,0
DA:708,0
DA:710,0
DA:711,0
DA:712,0
DA:713,0
DA:716,0
DA:736,0
DA:745,0
DA:746,0
DA:747,0
DA:748,0
DA:750,0
DA:751,0
DA:752,0
DA:754,0
DA:755,0
DA:757,0
DA:760,0
DA:761,0
DA:764,0
DA:767,0
DA:768,0
DA:770,0
DA:771,0
DA:772,0
DA:773,0
DA:776,0
DA:778,0
DA:780,0
DA:782,0
DA:786,0
DA:788,0
DA:790,0
DA:791,0
DA:793,0
DA:794,0
DA:795,0
DA:799,0
DA:831,0
DA:837,0
DA:839,0
LF:243
LH:35
end_of_record
TN:
SF:/home/brunnels/Research/alamo/ext/amrex/2d-coverage-g++-23.08/include/AMReX_FabFactory.H
FN:31,_ZN5amrex7FabInfo8SetAllocEb
FN:36,_ZN5amrex7FabInfo9SetSharedEb
FN:41,_ZN5amrex7FabInfo8SetArenaEPNS_5ArenaE
FN:51,_ZN5amrex10FabFactoryINS_7BaseFabIN5Model5Solid6Affine2J2EEEEC2Ev
FN:51,_ZN5amrex10FabFactoryINS_7BaseFabIN5Model5Solid6Linear5CubicEEEEC2Ev
FN:51,_ZN5amrex10FabFactoryINS_7BaseFabIN5Model5Solid6Linear9IsotropicEEEEC2Ev
FN:51,_ZN5amrex10FabFactoryINS_7BaseFabIN5Model5Solid6Linear9LaplacianEEEEC2Ev
FN:51,_ZN5amrex10FabFactoryINS_7BaseFabIN5Model5Solid6Linear19IsotropicDegradableEEEEC2Ev
FN:51,_ZN5amrex10FabFactoryINS_7BaseFabIN5Eigen6MatrixIdLi2ELi1ELi0ELi2ELi1EEEEEEC2Ev
FN:51,_ZN5amrex10FabFactoryINS_9FArrayBoxEEC2Ev
FN:51,_ZN5amrex10FabFactoryINS_7BaseFabIN3Set7Matrix4ILi2ELi1EEEEEEC2Ev
FN:51,_ZN5amrex10FabFactoryINS_7BaseFabIN5Model5Solid7Elastic17PseudoLinearCubicEEEEC2Ev
FN:51,_ZN5amrex10FabFactoryINS_7BaseFabIN3Set7Matrix4ILi2ELi4EEEEEEC2Ev
FN:51,_ZN5amrex10FabFactoryINS_7BaseFabIN3Set7Matrix4ILi2ELi6EEEEEEC2Ev
FN:51,_ZN5amrex10FabFactoryINS_9IArrayBoxEEC2Ev
FN:51,_ZN5amrex10FabFactoryINS_7BaseFabIN5Model5Solid7Elastic10NeoHookeanEEEEC2Ev
FN:51,_ZN5amrex10FabFactoryINS_7BaseFabIN5Model5Solid7Elastic28PseudoLinearCubicPredeformedEEEEC2Ev
FN:51,_ZN5amrex10FabFactoryINS_7BaseFabIN5Model5Solid6Affine5CubicEEEEC2Ev
FN:51,_ZN5amrex10FabFactoryINS_7BaseFabIN5Model5Solid6Affine9IsotropicEEEEC2Ev
FN:51,_ZN5amrex10FabFactoryINS_7BaseFabIN3Set7Matrix4ILi2ELi3EEEEEEC2Ev
FN:51,_ZN5amrex10FabFactoryINS_7BaseFabIN5Model5Solid6Affine9HexagonalEEEEC2Ev
FN:51,_ZN5amrex10FabFactoryINS_7BaseFabIN5Eigen6MatrixIdLi2ELi2ELi0ELi2ELi2EEEEEEC2Ev
FN:56,_ZN5amrex10FabFactoryINS_7BaseFabIN5Model5Solid6Affine5CubicEEEED2Ev
FN:56,_ZN5amrex10FabFactoryINS_7BaseFabIN3Set7Matrix4ILi2ELi3EEEEEED2Ev
FN:56,_ZN5amrex10FabFactoryINS_7BaseFabIN3Set7Matrix4ILi2ELi3EEEEEED0Ev
FN:56,_ZN5amrex10FabFactoryINS_7BaseFabIN5Model5Solid6Linear5CubicEEEED0Ev
FN:56,_ZN5amrex10FabFactoryINS_7BaseFabIN3Set7Matrix4ILi2ELi6EEEEEED0Ev
FN:56,_ZN5amrex10FabFactoryINS_7BaseFabIN5Model5Solid7Elastic17PseudoLinearCubicEEEED0Ev
FN:56,_ZN5amrex10FabFactoryINS_7BaseFabIN5Eigen6MatrixIdLi2ELi2ELi0ELi2ELi2EEEEEED2Ev
FN:56,_ZN5amrex10FabFactoryINS_7BaseFabIN5Model5Solid7Elastic28PseudoLinearCubicPredeformedEEEED0Ev
FN:56,_ZN5amrex10FabFactoryINS_7BaseFabIN5Model5Solid6Linear9LaplacianEEEED0Ev
FN:56,_ZN5amrex10FabFactoryINS_7BaseFabIN5Model5Solid7Elastic28PseudoLinearCubicPredeformedEEEED2Ev
FN:56,_ZN5amrex10FabFactoryINS_7BaseFabIN5Model5Solid6Affine2J2EEEED2Ev
FN:56,_ZN5amrex10FabFactoryINS_7BaseFabIN5Model5Solid6Linear19IsotropicDegradableEEEED0Ev
FN:56,_ZN5amrex10FabFactoryINS_7BaseFabIN3Set7Matrix4ILi2ELi1EEEEEED2Ev
FN:56,_ZN5amrex10FabFactoryINS_7BaseFabIN5Model5Solid7Elastic17PseudoLinearCubicEEEED2Ev
FN:56,_ZN5amrex10FabFactoryINS_7BaseFabIN5Model5Solid6Affine9HexagonalEEEED2Ev
FN:56,_ZN5amrex10FabFactoryINS_9IArrayBoxEED0Ev
FN:56,_ZN5amrex10FabFactoryINS_7BaseFabIN5Model5Solid7Elastic10NeoHookeanEEEED2Ev
FN:56,_ZN5amrex10FabFactoryINS_7BaseFabIN5Model5Solid6Affine9IsotropicEEEED0Ev
FN:56,_ZN5amrex10FabFactoryINS_7BaseFabIN3Set7Matrix4ILi2ELi6EEEEEED2Ev
FN:56,_ZN5amrex10FabFactoryINS_7BaseFabIN3Set7Matrix4ILi2ELi1EEEEEED0Ev
FN:56,_ZN5amrex10FabFactoryINS_7BaseFabIN3Set7Matrix4ILi2ELi4EEEEEED0Ev
FN:56,_ZN5amrex10FabFactoryINS_7BaseFabIN5Eigen6MatrixIdLi2ELi1ELi0ELi2ELi1EEEEEED0Ev
FN:56,_ZN5amrex10FabFactoryINS_7BaseFabIN5Model5Solid6Linear19IsotropicDegradableEEEED2Ev
FN:56,_ZN5amrex10FabFactoryINS_9IArrayBoxEED2Ev
FN:56,_ZN5amrex10FabFactoryINS_7BaseFabIN3Set7Matrix4ILi2ELi4EEEEEED2Ev
FN:56,_ZN5amrex10FabFactoryINS_7BaseFabIN5Model5Solid6Affine9HexagonalEEEED0Ev
FN:56,_ZN5amrex10FabFactoryINS_7BaseFabIN5Model5Solid6Linear5CubicEEEED2Ev
FN:56,_ZN5amrex10FabFactoryINS_9FArrayBoxEED0Ev
FN:56,_ZN5amrex10FabFactoryINS_7BaseFabIN5Model5Solid7Elastic10NeoHookeanEEEED0Ev
FN:56,_ZN5amrex10FabFactoryINS_7BaseFabIN5Eigen6MatrixIdLi2ELi1ELi0ELi2ELi1EEEEEED2Ev
FN:56,_ZN5amrex10FabFactoryINS_7BaseFabIN5Model5Solid6Linear9IsotropicEEEED2Ev
FN:56,_ZN5amrex10FabFactoryINS_7BaseFabIN5Model5Solid6Affine9IsotropicEEEED2Ev
FN:56,_ZN5amrex10FabFactoryINS_7BaseFabIN5Model5Solid6Affine5CubicEEEED0Ev
FN:56,_ZN5amrex10FabFactoryINS_9FArrayBoxEED2Ev
FN:56,_ZN5amrex10FabFactoryINS_7BaseFabIN5Model5Solid6Linear9LaplacianEEEED2Ev
FN:56,_ZN5amrex10FabFactoryINS_7BaseFabIN5Eigen6MatrixIdLi2ELi2ELi0ELi2ELi2EEEEEED0Ev
FN:56,_ZN5amrex10FabFactoryINS_7BaseFabIN5Model5Solid6Affine2J2EEEED0Ev
FN:56,_ZN5amrex10FabFactoryINS_7BaseFabIN5Model5Solid6Linear9IsotropicEEEED0Ev
FN:60,_ZNK5amrex10FabFactoryINS_9FArrayBoxEE12create_aliasERKS1_ii
FN:60,_ZNK5amrex10FabFactoryINS_7BaseFabIN3Set7Matrix4ILi2ELi1EEEEEE12create_aliasERKS5_ii
FN:60,_ZNK5amrex10FabFactoryINS_7BaseFabIN3Set7Matrix4ILi2ELi6EEEEEE12create_aliasERKS5_ii
FN:60,_ZNK5amrex10FabFactoryINS_7BaseFabIN5Eigen6MatrixIdLi2ELi2ELi0ELi2ELi2EEEEEE12create_aliasERKS5_ii
FN:60,_ZNK5amrex10FabFactoryINS_7BaseFabIN5Model5Solid6Linear19IsotropicDegradableEEEE12create_aliasERKS6_ii
FN:60,_ZNK5amrex10FabFactoryINS_7BaseFabIN5Model5Solid6Linear9LaplacianEEEE12create_aliasERKS6_ii
FN:60,_ZNK5amrex10FabFactoryINS_7BaseFabIN5Model5Solid7Elastic10NeoHookeanEEEE12create_aliasERKS6_ii
FN:60,_ZNK5amrex10FabFactoryINS_7BaseFabIN5Eigen6MatrixIdLi2ELi1ELi0ELi2ELi1EEEEEE12create_aliasERKS5_ii
FN:60,_ZNK5amrex10FabFactoryINS_7BaseFabIN3Set7Matrix4ILi2ELi4EEEEEE12create_aliasERKS5_ii
FN:60,_ZNK5amrex10FabFactoryINS_7BaseFabIN5Model5Solid6Affine2J2EEEE12create_aliasERKS6_ii
FN:60,_ZNK5amrex10FabFactoryINS_7BaseFabIN5Model5Solid7Elastic17PseudoLinearCubicEEEE12create_aliasERKS6_ii
FN:60,_ZNK5amrex10FabFactoryINS_9IArrayBoxEE12create_aliasERKS1_ii
FN:60,_ZNK5amrex10FabFactoryINS_7BaseFabIN5Model5Solid6Affine5CubicEEEE12create_aliasERKS6_ii
FN:60,_ZNK5amrex10FabFactoryINS_7BaseFabIN5Model5Solid7Elastic28PseudoLinearCubicPredeformedEEEE12create_aliasERKS6_ii
FN:60,_ZNK5amrex10FabFactoryINS_7BaseFabIN5Model5Solid6Linear9IsotropicEEEE12create_aliasERKS6_ii
FN:60,_ZNK5amrex10FabFactoryINS_7BaseFabIN5Model5Solid6Affine9IsotropicEEEE12create_aliasERKS6_ii
FN:60,_ZNK5amrex10FabFactoryINS_7BaseFabIN3Set7Matrix4ILi2ELi3EEEEEE12create_aliasERKS5_ii
FN:60,_ZNK5amrex10FabFactoryINS_7BaseFabIN5Model5Solid6Affine9HexagonalEEEE12create_aliasERKS6_ii
FN:60,_ZNK5amrex10FabFactoryINS_7BaseFabIN5Model5Solid6Linear5CubicEEEE12create_aliasERKS6_ii
FN:72,_ZNK5amrex17DefaultFabFactoryINS_7BaseFabIN5Eigen6MatrixIdLi2ELi2ELi0ELi2ELi2EEEEEE6createERKNS_3BoxEiRKNS_7FabInfoEi
FN:72,_ZNK5amrex17DefaultFabFactoryINS_7BaseFabIN5Model5Solid6Linear19IsotropicDegradableEEEE6createERKNS_3BoxEiRKNS_7FabInfoEi
FN:72,_ZNK5amrex17DefaultFabFactoryINS_7BaseFabIN3Set7Matrix4ILi2ELi6EEEEEE6createERKNS_3BoxEiRKNS_7FabInfoEi
FN:72,_ZNK5amrex17DefaultFabFactoryINS_7BaseFabIN3Set7Matrix4ILi2ELi3EEEEEE6createERKNS_3BoxEiRKNS_7FabInfoEi
FN:72,_ZNK5amrex17DefaultFabFactoryINS_7BaseFabIN5Model5Solid6Affine2J2EEEE6createERKNS_3BoxEiRKNS_7FabInfoEi
FN:72,_ZNK5amrex17DefaultFabFactoryINS_7BaseFabIN5Model5Solid6Linear5CubicEEEE6createERKNS_3BoxEiRKNS_7FabInfoEi
FN:72,_ZNK5amrex17DefaultFabFactoryINS_9IArrayBoxEE6createERKNS_3BoxEiRKNS_7FabInfoEi
FN:72,_ZNK5amrex17DefaultFabFactoryINS_7BaseFabIN5Model5Solid6Affine5CubicEEEE6createERKNS_3BoxEiRKNS_7FabInfoEi
FN:72,_ZNK5amrex17DefaultFabFactoryINS_7BaseFabIN3Set7Matrix4ILi2ELi1EEEEEE6createERKNS_3BoxEiRKNS_7FabInfoEi
FN:72,_ZNK5amrex17DefaultFabFactoryINS_9FArrayBoxEE6createERKNS_3BoxEiRKNS_7FabInfoEi
FN:72,_ZNK5amrex17DefaultFabFactoryINS_7BaseFabIN5Model5Solid7Elastic10NeoHookeanEEEE6createERKNS_3BoxEiRKNS_7FabInfoEi
FN:72,_ZNK5amrex17DefaultFabFactoryINS_7BaseFabIN5Model5Solid6Affine9HexagonalEEEE6createERKNS_3BoxEiRKNS_7FabInfoEi
FN:72,_ZNK5amrex17DefaultFabFactoryINS_7BaseFabIN5Model5Solid7Elastic28PseudoLinearCubicPredeformedEEEE6createERKNS_3BoxEiRKNS_7FabInfoEi
FN:72,_ZNK5amrex17DefaultFabFactoryINS_7BaseFabIN5Model5Solid7Elastic17PseudoLinearCubicEEEE6createERKNS_3BoxEiRKNS_7FabInfoEi
FN:72,_ZNK5amrex17DefaultFabFactoryINS_7BaseFabIN3Set7Matrix4ILi2ELi4EEEEEE6createERKNS_3BoxEiRKNS_7FabInfoEi
FN:72,_ZNK5amrex17DefaultFabFactoryINS_7BaseFabIN5Model5Solid6Linear9IsotropicEEEE6createERKNS_3BoxEiRKNS_7FabInfoEi
FN:72,_ZNK5amrex17DefaultFabFactoryINS_7BaseFabIN5Model5Solid6Linear9LaplacianEEEE6createERKNS_3BoxEiRKNS_7FabInfoEi
FN:72,_ZNK5amrex17DefaultFabFactoryINS_7BaseFabIN5Eigen6MatrixIdLi2ELi1ELi0ELi2ELi1EEEEEE6createERKNS_3BoxEiRKNS_7FabInfoEi
FN:72,_ZNK5amrex17DefaultFabFactoryINS_7BaseFabIN5Model5Solid6Affine9IsotropicEEEE6createERKNS_3BoxEiRKNS_7FabInfoEi
FN:78,_ZNK5amrex17DefaultFabFactoryINS_7BaseFabIN3Set7Matrix4ILi2ELi4EEEEEE12create_aliasERKS5_ii
FN:78,_ZNK5amrex17DefaultFabFactoryINS_7BaseFabIN5Model5Solid6Linear9IsotropicEEEE12create_aliasERKS6_ii
FN:78,_ZNK5amrex17DefaultFabFactoryINS_7BaseFabIN5Model5Solid6Linear19IsotropicDegradableEEEE12create_aliasERKS6_ii
FN:78,_ZNK5amrex17DefaultFabFactoryINS_7BaseFabIN5Model5Solid6Affine9IsotropicEEEE12create_aliasERKS6_ii
FN:78,_ZNK5amrex17DefaultFabFactoryINS_7BaseFabIN5Model5Solid6Affine2J2EEEE12create_aliasERKS6_ii
FN:78,_ZNK5amrex17DefaultFabFactoryINS_7BaseFabIN3Set7Matrix4ILi2ELi6EEEEEE12create_aliasERKS5_ii
FN:78,_ZNK5amrex17DefaultFabFactoryINS_7BaseFabIN5Eigen6MatrixIdLi2ELi1ELi0ELi2ELi1EEEEEE12create_aliasERKS5_ii
FN:78,_ZNK5amrex17DefaultFabFactoryINS_9IArrayBoxEE12create_aliasERKS1_ii
FN:78,_ZNK5amrex17DefaultFabFactoryINS_7BaseFabIN5Model5Solid6Linear9LaplacianEEEE12create_aliasERKS6_ii
FN:78,_ZNK5amrex17DefaultFabFactoryINS_7BaseFabIN3Set7Matrix4ILi2ELi1EEEEEE12create_aliasERKS5_ii
FN:78,_ZNK5amrex17DefaultFabFactoryINS_7BaseFabIN5Model5Solid7Elastic17PseudoLinearCubicEEEE12create_aliasERKS6_ii
FN:78,_ZNK5amrex17DefaultFabFactoryINS_7BaseFabIN5Model5Solid6Affine5CubicEEEE12create_aliasERKS6_ii
FN:78,_ZNK5amrex17DefaultFabFactoryINS_9FArrayBoxEE12create_aliasERKS1_ii
FN:78,_ZNK5amrex17DefaultFabFactoryINS_7BaseFabIN5Model5Solid6Linear5CubicEEEE12create_aliasERKS6_ii
FN:78,_ZNK5amrex17DefaultFabFactoryINS_7BaseFabIN5Eigen6MatrixIdLi2ELi2ELi0ELi2ELi2EEEEEE12create_aliasERKS5_ii
FN:78,_ZNK5amrex17DefaultFabFactoryINS_7BaseFabIN5Model5Solid7Elastic10NeoHookeanEEEE12create_aliasERKS6_ii
FN:78,_ZNK5amrex17DefaultFabFactoryINS_7BaseFabIN5Model5Solid7Elastic28PseudoLinearCubicPredeformedEEEE12create_aliasERKS6_ii
FN:78,_ZNK5amrex17DefaultFabFactoryINS_7BaseFabIN5Model5Solid6Affine9HexagonalEEEE12create_aliasERKS6_ii
FN:78,_ZNK5amrex17DefaultFabFactoryINS_7BaseFabIN3Set7Matrix4ILi2ELi3EEEEEE12create_aliasERKS5_ii
FN:83,_ZNK5amrex17DefaultFabFactoryINS_7BaseFabIN3Set7Matrix4ILi2ELi4EEEEEE7destroyEPS5_
FN:83,_ZNK5amrex17DefaultFabFactoryINS_7BaseFabIN5Model5Solid6Linear9IsotropicEEEE7destroyEPS6_
FN:83,_ZNK5amrex17DefaultFabFactoryINS_9FArrayBoxEE7destroyEPS1_
FN:83,_ZNK5amrex17DefaultFabFactoryINS_7BaseFabIN3Set7Matrix4ILi2ELi6EEEEEE7destroyEPS5_
FN:83,_ZNK5amrex17DefaultFabFactoryINS_7BaseFabIN5Model5Solid6Linear9LaplacianEEEE7destroyEPS6_
FN:83,_ZNK5amrex17DefaultFabFactoryINS_7BaseFabIN5Model5Solid6Affine9HexagonalEEEE7destroyEPS6_
FN:83,_ZNK5amrex17DefaultFabFactoryINS_7BaseFabIN5Model5Solid7Elastic10NeoHookeanEEEE7destroyEPS6_
FN:83,_ZNK5amrex17DefaultFabFactoryINS_7BaseFabIN5Eigen6MatrixIdLi2ELi2ELi0ELi2ELi2EEEEEE7destroyEPS5_
FN:83,_ZNK5amrex17DefaultFabFactoryINS_7BaseFabIN5Model5Solid6Affine2J2EEEE7destroyEPS6_
FN:83,_ZNK5amrex17DefaultFabFactoryINS_7BaseFabIN3Set7Matrix4ILi2ELi3EEEEEE7destroyEPS5_
FN:83,_ZNK5amrex17DefaultFabFactoryINS_9IArrayBoxEE7destroyEPS1_
FN:83,_ZNK5amrex17DefaultFabFactoryINS_7BaseFabIN5Eigen6MatrixIdLi2ELi1ELi0ELi2ELi1EEEEEE7destroyEPS5_
FN:83,_ZNK5amrex17DefaultFabFactoryINS_7BaseFabIN3Set7Matrix4ILi2ELi1EEEEEE7destroyEPS5_
FN:83,_ZNK5amrex17DefaultFabFactoryINS_7BaseFabIN5Model5Solid6Linear5CubicEEEE7destroyEPS6_
FN:83,_ZNK5amrex17DefaultFabFactoryINS_7BaseFabIN5Model5Solid6Affine5CubicEEEE7destroyEPS6_
FN:83,_ZNK5amrex17DefaultFabFactoryINS_7BaseFabIN5Model5Solid7Elastic17PseudoLinearCubicEEEE7destroyEPS6_
FN:83,_ZNK5amrex17DefaultFabFactoryINS_7BaseFabIN5Model5Solid7Elastic28PseudoLinearCubicPredeformedEEEE7destroyEPS6_
FN:83,_ZNK5amrex17DefaultFabFactoryINS_7BaseFabIN5Model5Solid6Affine9IsotropicEEEE7destroyEPS6_
FN:83,_ZNK5amrex17DefaultFabFactoryINS_7BaseFabIN5Model5Solid6Linear19IsotropicDegradableEEEE7destroyEPS6_
FN:89,_ZNK5amrex17DefaultFabFactoryINS_7BaseFabIN5Model5Solid6Affine5CubicEEEE5cloneEv
FN:89,_ZNK5amrex17DefaultFabFactoryINS_7BaseFabIN5Model5Solid6Linear9IsotropicEEEE5cloneEv
FN:89,_ZNK5amrex17DefaultFabFactoryINS_7BaseFabIN5Eigen6MatrixIdLi2ELi2ELi0ELi2ELi2EEEEEE5cloneEv
FN:89,_ZNK5amrex17DefaultFabFactoryINS_9IArrayBoxEE5cloneEv
FN:89,_ZNK5amrex17DefaultFabFactoryINS_7BaseFabIN5Model5Solid6Linear9LaplacianEEEE5cloneEv
FN:89,_ZNK5amrex17DefaultFabFactoryINS_7BaseFabIN5Model5Solid6Affine9IsotropicEEEE5cloneEv
FN:89,_ZNK5amrex17DefaultFabFactoryINS_7BaseFabIN5Model5Solid6Linear5CubicEEEE5cloneEv
FN:89,_ZNK5amrex17DefaultFabFactoryINS_7BaseFabIN5Model5Solid7Elastic10NeoHookeanEEEE5cloneEv
FN:89,_ZNK5amrex17DefaultFabFactoryINS_7BaseFabIN3Set7Matrix4ILi2ELi6EEEEEE5cloneEv
FN:89,_ZNK5amrex17DefaultFabFactoryINS_7BaseFabIN5Model5Solid6Linear19IsotropicDegradableEEEE5cloneEv
FN:89,_ZNK5amrex17DefaultFabFactoryINS_7BaseFabIN5Model5Solid6Affine2J2EEEE5cloneEv
FN:89,_ZNK5amrex17DefaultFabFactoryINS_9FArrayBoxEE5cloneEv
FN:89,_ZNK5amrex17DefaultFabFactoryINS_7BaseFabIN5Model5Solid6Affine9HexagonalEEEE5cloneEv
FN:89,_ZNK5amrex17DefaultFabFactoryINS_7BaseFabIN3Set7Matrix4ILi2ELi4EEEEEE5cloneEv
FN:89,_ZNK5amrex17DefaultFabFactoryINS_7BaseFabIN3Set7Matrix4ILi2ELi3EEEEEE5cloneEv
FN:89,_ZNK5amrex17DefaultFabFactoryINS_7BaseFabIN3Set7Matrix4ILi2ELi1EEEEEE5cloneEv
FN:89,_ZNK5amrex17DefaultFabFactoryINS_7BaseFabIN5Eigen6MatrixIdLi2ELi1ELi0ELi2ELi1EEEEEE5cloneEv
FN:89,_ZNK5amrex17DefaultFabFactoryINS_7BaseFabIN5Model5Solid7Elastic28PseudoLinearCubicPredeformedEEEE5cloneEv
FN:89,_ZNK5amrex17DefaultFabFactoryINS_7BaseFabIN5Model5Solid7Elastic17PseudoLinearCubicEEEE5cloneEv
FNDA:0,_ZN5amrex10FabFactoryINS_7BaseFabIN5Model5Solid6Linear9LaplacianEEEED0Ev
FNDA:0,_ZNK5amrex10FabFactoryINS_7BaseFabIN3Set7Matrix4ILi2ELi6EEEEEE12create_aliasERKS5_ii
FNDA:0,_ZN5amrex10FabFactoryINS_7BaseFabIN5Model5Solid7Elastic28PseudoLinearCubicPredeformedEEEED0Ev
FNDA:0,_ZNK5amrex17DefaultFabFactoryINS_7BaseFabIN5Model5Solid6Affine2J2EEEE12create_aliasERKS6_ii
FNDA:1078590,_ZN5amrex7FabInfo9SetSharedEb
FNDA:1,_ZNK5amrex17DefaultFabFactoryINS_7BaseFabIN5Model5Solid6Linear9LaplacianEEEE7destroyEPS6_
FNDA:0,_ZNK5amrex17DefaultFabFactoryINS_7BaseFabIN5Model5Solid6Affine9IsotropicEEEE12create_aliasERKS6_ii
FNDA:0,_ZNK5amrex17DefaultFabFactoryINS_7BaseFabIN5Model5Solid6Linear19IsotropicDegradableEEEE12create_aliasERKS6_ii
FNDA:0,_ZNK5amrex17DefaultFabFactoryINS_9IArrayBoxEE6createERKNS_3BoxEiRKNS_7FabInfoEi
FNDA:1078590,_ZN5amrex7FabInfo8SetAllocEb
FNDA:1280,_ZN5amrex10FabFactoryINS_7BaseFabIN5Eigen6MatrixIdLi2ELi2ELi0ELi2ELi2EEEEEED2Ev
FNDA:0,_ZNK5amrex17DefaultFabFactoryINS_7BaseFabIN5Model5Solid6Linear9IsotropicEEEE12create_aliasERKS6_ii
FNDA:0,_ZNK5amrex17DefaultFabFactoryINS_7BaseFabIN3Set7Matrix4ILi2ELi4EEEEEE12create_aliasERKS5_ii
FNDA:3,_ZN5amrex10FabFactoryINS_7BaseFabIN5Model5Solid6Linear9LaplacianEEEEC2Ev
FNDA:2,_ZNK5amrex17DefaultFabFactoryINS_7BaseFabIN5Model5Solid6Linear9LaplacianEEEE5cloneEv
FNDA:152,_ZNK5amrex17DefaultFabFactoryINS_7BaseFabIN5Model5Solid6Affine9IsotropicEEEE5cloneEv
FNDA:49,_ZN5amrex10FabFactoryINS_7BaseFabIN5Model5Solid6Linear9IsotropicEEEEC2Ev
FNDA:0,_ZN5amrex10FabFactoryINS_7BaseFabIN5Model5Solid7Elastic17PseudoLinearCubicEEEED0Ev
FNDA:0,_ZNK5amrex10FabFactoryINS_7BaseFabIN3Set7Matrix4ILi2ELi1EEEEEE12create_aliasERKS5_ii
FNDA:0,_ZNK5amrex17DefaultFabFactoryINS_9IArrayBoxEE5cloneEv
FNDA:1672,_ZNK5amrex17DefaultFabFactoryINS_7BaseFabIN3Set7Matrix4ILi2ELi6EEEEEE7destroyEPS5_
FNDA:0,_ZN5amrex10FabFactoryINS_7BaseFabIN5Model5Solid6Linear5CubicEEEEC2Ev
FNDA:0,_ZNK5amrex17DefaultFabFactoryINS_7BaseFabIN5Model5Solid6Linear5CubicEEEE6createERKNS_3BoxEiRKNS_7FabInfoEi
FNDA:0,_ZN5amrex10FabFactoryINS_7BaseFabIN3Set7Matrix4ILi2ELi6EEEEEED0Ev
FNDA:3624,_ZNK5amrex17DefaultFabFactoryINS_7BaseFabIN3Set7Matrix4ILi2ELi3EEEEEE6createERKNS_3BoxEiRKNS_7FabInfoEi
FNDA:33,_ZNK5amrex17DefaultFabFactoryINS_7BaseFabIN5Model5Solid6Affine2J2EEEE6createERKNS_3BoxEiRKNS_7FabInfoEi
FNDA:4501480,_ZNK5amrex17DefaultFabFactoryINS_9FArrayBoxEE7destroyEPS1_
FNDA:1672,_ZNK5amrex17DefaultFabFactoryINS_7BaseFabIN3Set7Matrix4ILi2ELi6EEEEEE6createERKNS_3BoxEiRKNS_7FabInfoEi
FNDA:0,_ZNK5amrex10FabFactoryINS_9FArrayBoxEE12create_aliasERKS1_ii
FNDA:850,_ZNK5amrex17DefaultFabFactoryINS_7BaseFabIN5Eigen6MatrixIdLi2ELi2ELi0ELi2ELi2EEEEEE5cloneEv
FNDA:22,_ZNK5amrex17DefaultFabFactoryINS_7BaseFabIN5Model5Solid6Affine5CubicEEEE5cloneEv
FNDA:106,_ZNK5amrex17DefaultFabFactoryINS_7BaseFabIN5Model5Solid6Linear9IsotropicEEEE7destroyEPS6_
FNDA:32,_ZNK5amrex17DefaultFabFactoryINS_7BaseFabIN5Model5Solid6Linear9IsotropicEEEE5cloneEv
FNDA:18,_ZN5amrex10FabFactoryINS_7BaseFabIN5Model5Solid6Affine2J2EEEEC2Ev
FNDA:0,_ZNK5amrex17DefaultFabFactoryINS_7BaseFabIN5Model5Solid6Linear19IsotropicDegradableEEEE6createERKNS_3BoxEiRKNS_7FabInfoEi
FNDA:0,_ZN5amrex10FabFactoryINS_7BaseFabIN5Model5Solid6Linear5CubicEEEED0Ev
FNDA:0,_ZN5amrex10FabFactoryINS_7BaseFabIN3Set7Matrix4ILi2ELi3EEEEEED0Ev
FNDA:28,_ZNK5amrex17DefaultFabFactoryINS_7BaseFabIN3Set7Matrix4ILi2ELi4EEEEEE7destroyEPS5_
FNDA:25666,_ZNK5amrex17DefaultFabFactoryINS_7BaseFabIN5Eigen6MatrixIdLi2ELi2ELi0ELi2ELi2EEEEEE6createERKNS_3BoxEiRKNS_7FabInfoEi
FNDA:33,_ZN5amrex10FabFactoryINS_7BaseFabIN5Model5Solid6Affine5CubicEEEED2Ev
FNDA:121,_ZN5amrex10FabFactoryINS_7BaseFabIN3Set7Matrix4ILi2ELi3EEEEEED2Ev
FNDA:80,_ZN5amrex10FabFactoryINS_7BaseFabIN3Set7Matrix4ILi2ELi4EEEEEEC2Ev
FNDA:0,_ZN5amrex10FabFactoryINS_9IArrayBoxEED0Ev
FNDA:0,_ZN5amrex10FabFactoryINS_7BaseFabIN5Model5Solid7Elastic17PseudoLinearCubicEEEEC2Ev
FNDA:0,_ZNK5amrex10FabFactoryINS_7BaseFabIN5Model5Solid7Elastic17PseudoLinearCubicEEEE12create_aliasERKS6_ii
FNDA:1078590,_ZN5amrex7FabInfo8SetArenaEPNS_5ArenaE
FNDA:0,_ZNK5amrex17DefaultFabFactoryINS_7BaseFabIN5Model5Solid6Linear19IsotropicDegradableEEEE5cloneEv
FNDA:0,_ZNK5amrex10FabFactoryINS_9IArrayBoxEE12create_aliasERKS1_ii
FNDA:0,_ZNK5amrex17DefaultFabFactoryINS_9IArrayBoxEE12create_aliasERKS1_ii
FNDA:0,_ZNK5amrex10FabFactoryINS_7BaseFabIN5Model5Solid6Affine2J2EEEE12create_aliasERKS6_ii
FNDA:4497610,_ZNK5amrex17DefaultFabFactoryINS_9FArrayBoxEE6createERKNS_3BoxEiRKNS_7FabInfoEi
FNDA:506,_ZNK5amrex17DefaultFabFactoryINS_7BaseFabIN3Set7Matrix4ILi2ELi6EEEEEE5cloneEv
FNDA:0,_ZNK5amrex17DefaultFabFactoryINS_7BaseFabIN5Eigen6MatrixIdLi2ELi1ELi0ELi2ELi1EEEEEE12create_aliasERKS5_ii
FNDA:0,_ZNK5amrex10FabFactoryINS_7BaseFabIN3Set7Matrix4ILi2ELi4EEEEEE12create_aliasERKS5_ii
FNDA:0,_ZN5amrex10FabFactoryINS_7BaseFabIN5Model5Solid6Affine9HexagonalEEEED2Ev
FNDA:0,_ZNK5amrex10FabFactoryINS_7BaseFabIN5Eigen6MatrixIdLi2ELi1ELi0ELi2ELi1EEEEEE12create_aliasERKS5_ii
FNDA:0,_ZN5amrex10FabFactoryINS_7BaseFabIN5Model5Solid7Elastic17PseudoLinearCubicEEEED2Ev
FNDA:4640,_ZN5amrex10FabFactoryINS_7BaseFabIN3Set7Matrix4ILi2ELi1EEEEEED2Ev
FNDA:0,_ZNK5amrex10FabFactoryINS_7BaseFabIN5Model5Solid7Elastic10NeoHookeanEEEE12create_aliasERKS6_ii
FNDA:1800,_ZNK5amrex17DefaultFabFactoryINS_7BaseFabIN3Set7Matrix4ILi2ELi1EEEEEE6createERKNS_3BoxEiRKNS_7FabInfoEi
FNDA:0,_ZNK5amrex17DefaultFabFactoryINS_7BaseFabIN3Set7Matrix4ILi2ELi6EEEEEE12create_aliasERKS5_ii
FNDA:4640,_ZN5amrex10FabFactoryINS_7BaseFabIN3Set7Matrix4ILi2ELi1EEEEEEC2Ev
FNDA:20,_ZNK5amrex17DefaultFabFactoryINS_7BaseFabIN5Model5Solid7Elastic10NeoHookeanEEEE5cloneEv
FNDA:1365830,_ZN5amrex10FabFactoryINS_9FArrayBoxEEC2Ev
FNDA:0,_ZNK5amrex10FabFactoryINS_7BaseFabIN5Model5Solid6Linear9LaplacianEEEE12create_aliasERKS6_ii
FNDA:0,_ZNK5amrex17DefaultFabFactoryINS_7BaseFabIN5Model5Solid6Affine9HexagonalEEEE7destroyEPS6_
FNDA:0,_ZNK5amrex10FabFactoryINS_7BaseFabIN5Model5Solid6Linear19IsotropicDegradableEEEE12create_aliasERKS6_ii
FNDA:3420,_ZNK5amrex17DefaultFabFactoryINS_7BaseFabIN5Model5Solid6Affine5CubicEEEE6createERKNS_3BoxEiRKNS_7FabInfoEi
FNDA:0,_ZN5amrex10FabFactoryINS_7BaseFabIN5Model5Solid6Linear19IsotropicDegradableEEEED0Ev
FNDA:804,_ZN5amrex10FabFactoryINS_7BaseFabIN5Eigen6MatrixIdLi2ELi1ELi0ELi2ELi1EEEEEEC2Ev
FNDA:18,_ZN5amrex10FabFactoryINS_7BaseFabIN5Model5Solid6Affine2J2EEEED2Ev
FNDA:0,_ZNK5amrex10FabFactoryINS_7BaseFabIN5Eigen6MatrixIdLi2ELi2ELi0ELi2ELi2EEEEEE12create_aliasERKS5_ii
FNDA:0,_ZN5amrex10FabFactoryINS_7BaseFabIN5Model5Solid6Linear19IsotropicDegradableEEEEC2Ev
FNDA:0,_ZNK5amrex17DefaultFabFactoryINS_7BaseFabIN5Model5Solid6Linear5CubicEEEE5cloneEv
FNDA:0,_ZN5amrex10FabFactoryINS_7BaseFabIN5Model5Solid7Elastic28PseudoLinearCubicPredeformedEEEED2Ev
FNDA:0,_ZN5amrex10FabFactoryINS_7BaseFabIN5Model5Solid7Elastic28PseudoLinearCubicPredeformedEEEEC2Ev
FNDA:0,_ZNK5amrex17DefaultFabFactoryINS_7BaseFabIN5Model5Solid6Linear5CubicEEEE12create_aliasERKS6_ii
FNDA:0,_ZNK5amrex10FabFactoryINS_7BaseFabIN3Set7Matrix4ILi2ELi3EEEEEE12create_aliasERKS5_ii
FNDA:34510,_ZN5amrex10FabFactoryINS_9IArrayBoxEED2Ev
FNDA:0,_ZNK5amrex10FabFactoryINS_7BaseFabIN5Model5Solid6Affine9IsotropicEEEE12create_aliasERKS6_ii
FNDA:0,_ZN5amrex10FabFactoryINS_7BaseFabIN5Model5Solid6Linear19IsotropicDegradableEEEED2Ev
FNDA:52,_ZNK5amrex17DefaultFabFactoryINS_7BaseFabIN3Set7Matrix4ILi2ELi4EEEEEE5cloneEv
FNDA:0,_ZNK5amrex10FabFactoryINS_7BaseFabIN5Model5Solid6Linear9IsotropicEEEE12create_aliasERKS6_ii
FNDA:1800,_ZNK5amrex17DefaultFabFactoryINS_7BaseFabIN3Set7Matrix4ILi2ELi1EEEEEE7destroyEPS5_
FNDA:3875,_ZNK5amrex17DefaultFabFactoryINS_9FArrayBoxEE12create_aliasERKS1_ii
FNDA:106,_ZNK5amrex17DefaultFabFactoryINS_7BaseFabIN5Model5Solid6Linear9IsotropicEEEE6createERKNS_3BoxEiRKNS_7FabInfoEi
FNDA:0,_ZN5amrex10FabFactoryINS_7BaseFabIN5Eigen6MatrixIdLi2ELi1ELi0ELi2ELi1EEEEEED0Ev
FNDA:0,_ZNK5amrex17DefaultFabFactoryINS_7BaseFabIN5Model5Solid6Affine9HexagonalEEEE5cloneEv
FNDA:1056220,_ZNK5amrex17DefaultFabFactoryINS_9FArrayBoxEE5cloneEv
FNDA:28,_ZNK5amrex17DefaultFabFactoryINS_7BaseFabIN3Set7Matrix4ILi2ELi4EEEEEE6createERKNS_3BoxEiRKNS_7FabInfoEi
FNDA:0,_ZNK5amrex17DefaultFabFactoryINS_7BaseFabIN5Model5Solid6Affine5CubicEEEE12create_aliasERKS6_ii
FNDA:0,_ZN5amrex10FabFactoryINS_7BaseFabIN3Set7Matrix4ILi2ELi4EEEEEED0Ev
FNDA:0,_ZNK5amrex10FabFactoryINS_7BaseFabIN5Model5Solid7Elastic28PseudoLinearCubicPredeformedEEEE12create_aliasERKS6_ii
FNDA:69645,_ZNK5amrex17DefaultFabFactoryINS_9IArrayBoxEE7destroyEPS1_
FNDA:27714,_ZNK5amrex17DefaultFabFactoryINS_7BaseFabIN5Eigen6MatrixIdLi2ELi1ELi0ELi2ELi1EEEEEE7destroyEPS5_
FNDA:0,_ZNK5amrex17DefaultFabFactoryINS_7BaseFabIN5Model5Solid7Elastic17PseudoLinearCubicEEEE12create_aliasERKS6_ii
FNDA:3624,_ZNK5amrex17DefaultFabFactoryINS_7BaseFabIN3Set7Matrix4ILi2ELi3EEEEEE7destroyEPS5_
FNDA:33,_ZNK5amrex17DefaultFabFactoryINS_7BaseFabIN5Model5Solid6Affine2J2EEEE7destroyEPS6_
FNDA:10212,_ZN5amrex10FabFactoryINS_9IArrayBoxEEC2Ev
FNDA:30,_ZN5amrex10FabFactoryINS_7BaseFabIN5Model5Solid7Elastic10NeoHookeanEEEEC2Ev
FNDA:11,_ZNK5amrex17DefaultFabFactoryINS_7BaseFabIN5Model5Solid6Affine2J2EEEE5cloneEv
FNDA:774,_ZN5amrex10FabFactoryINS_7BaseFabIN3Set7Matrix4ILi2ELi6EEEEEEC2Ev
FNDA:0,_ZNK5amrex10FabFactoryINS_7BaseFabIN5Model5Solid6Affine5CubicEEEE12create_aliasERKS6_ii
FNDA:0,_ZNK5amrex17DefaultFabFactoryINS_7BaseFabIN5Model5Solid7Elastic17PseudoLinearCubicEEEE6createERKNS_3BoxEiRKNS_7FabInfoEi
FNDA:0,_ZN5amrex10FabFactoryINS_7BaseFabIN3Set7Matrix4ILi2ELi1EEEEEED0Ev
FNDA:774,_ZN5amrex10FabFactoryINS_7BaseFabIN3Set7Matrix4ILi2ELi6EEEEEED2Ev
FNDA:0,_ZN5amrex10FabFactoryINS_7BaseFabIN5Model5Solid6Affine9IsotropicEEEED0Ev
FNDA:30,_ZN5amrex10FabFactoryINS_7BaseFabIN5Model5Solid7Elastic10NeoHookeanEEEED2Ev
FNDA:0,_ZNK5amrex17DefaultFabFactoryINS_7BaseFabIN3Set7Matrix4ILi2ELi1EEEEEE12create_aliasERKS5_ii
FNDA:25666,_ZNK5amrex17DefaultFabFactoryINS_7BaseFabIN5Eigen6MatrixIdLi2ELi2ELi0ELi2ELi2EEEEEE7destroyEPS5_
FNDA:0,_ZNK5amrex17DefaultFabFactoryINS_7BaseFabIN5Model5Solid6Linear9LaplacianEEEE12create_aliasERKS6_ii
FNDA:0,_ZNK5amrex17DefaultFabFactoryINS_7BaseFabIN5Model5Solid7Elastic28PseudoLinearCubicPredeformedEEEE6createERKNS_3BoxEiRKNS_7FabInfoEi
FNDA:0,_ZNK5amrex17DefaultFabFactoryINS_7BaseFabIN5Model5Solid6Affine9HexagonalEEEE6createERKNS_3BoxEiRKNS_7FabInfoEi
FNDA:48,_ZNK5amrex17DefaultFabFactoryINS_7BaseFabIN5Model5Solid7Elastic10NeoHookeanEEEE6createERKNS_3BoxEiRKNS_7FabInfoEi
FNDA:48,_ZNK5amrex17DefaultFabFactoryINS_7BaseFabIN5Model5Solid7Elastic10NeoHookeanEEEE7destroyEPS6_
FNDA:0,_ZN5amrex10FabFactoryINS_7BaseFabIN5Model5Solid6Linear9IsotropicEEEED0Ev
FNDA:1280,_ZN5amrex10FabFactoryINS_7BaseFabIN5Eigen6MatrixIdLi2ELi2ELi0ELi2ELi2EEEEEEC2Ev
FNDA:0,_ZNK5amrex17DefaultFabFactoryINS_7BaseFabIN5Model5Solid6Linear19IsotropicDegradableEEEE7destroyEPS6_
FNDA:0,_ZNK5amrex17DefaultFabFactoryINS_7BaseFabIN3Set7Matrix4ILi2ELi3EEEEEE12create_aliasERKS5_ii
FNDA:8486,_ZNK5amrex17DefaultFabFactoryINS_7BaseFabIN5Model5Solid6Affine9IsotropicEEEE7destroyEPS6_
FNDA:8486,_ZNK5amrex17DefaultFabFactoryINS_7BaseFabIN5Model5Solid6Affine9IsotropicEEEE6createERKNS_3BoxEiRKNS_7FabInfoEi
FNDA:0,_ZN5amrex10FabFactoryINS_7BaseFabIN5Model5Solid6Affine2J2EEEED0Ev
FNDA:0,_ZN5amrex10FabFactoryINS_7BaseFabIN5Eigen6MatrixIdLi2ELi2ELi0ELi2ELi2EEEEEED0Ev
FNDA:0,_ZNK5amrex17DefaultFabFactoryINS_7BaseFabIN5Model5Solid7Elastic17PseudoLinearCubicEEEE5cloneEv
FNDA:0,_ZNK5amrex17DefaultFabFactoryINS_7BaseFabIN5Model5Solid7Elastic28PseudoLinearCubicPredeformedEEEE7destroyEPS6_
FNDA:0,_ZN5amrex10FabFactoryINS_7BaseFabIN5Model5Solid6Affine9HexagonalEEEEC2Ev
FNDA:3,_ZN5amrex10FabFactoryINS_7BaseFabIN5Model5Solid6Linear9LaplacianEEEED2Ev
FNDA:0,_ZNK5amrex17DefaultFabFactoryINS_7BaseFabIN5Model5Solid6Affine9HexagonalEEEE12create_aliasERKS6_ii
FNDA:0,_ZNK5amrex17DefaultFabFactoryINS_7BaseFabIN5Model5Solid7Elastic17PseudoLinearCubicEEEE7destroyEPS6_
FNDA:2431950,_ZN5amrex10FabFactoryINS_9FArrayBoxEED2Ev
FNDA:0,_ZNK5amrex17DefaultFabFactoryINS_7BaseFabIN5Model5Solid7Elastic28PseudoLinearCubicPredeformedEEEE5cloneEv
FNDA:121,_ZN5amrex10FabFactoryINS_7BaseFabIN3Set7Matrix4ILi2ELi3EEEEEEC2Ev
FNDA:0,_ZN5amrex10FabFactoryINS_7BaseFabIN5Model5Solid6Affine5CubicEEEED0Ev
FNDA:228,_ZN5amrex10FabFactoryINS_7BaseFabIN5Model5Solid6Affine9IsotropicEEEED2Ev
FNDA:532,_ZNK5amrex17DefaultFabFactoryINS_7BaseFabIN5Eigen6MatrixIdLi2ELi1ELi0ELi2ELi1EEEEEE5cloneEv
FNDA:49,_ZN5amrex10FabFactoryINS_7BaseFabIN5Model5Solid6Linear9IsotropicEEEED2Ev
FNDA:0,_ZNK5amrex17DefaultFabFactoryINS_7BaseFabIN5Model5Solid7Elastic28PseudoLinearCubicPredeformedEEEE12create_aliasERKS6_ii
FNDA:27714,_ZNK5amrex17DefaultFabFactoryINS_7BaseFabIN5Eigen6MatrixIdLi2ELi1ELi0ELi2ELi1EEEEEE6createERKNS_3BoxEiRKNS_7FabInfoEi
FNDA:1,_ZNK5amrex17DefaultFabFactoryINS_7BaseFabIN5Model5Solid6Linear9LaplacianEEEE6createERKNS_3BoxEiRKNS_7FabInfoEi
FNDA:3040,_ZNK5amrex17DefaultFabFactoryINS_7BaseFabIN3Set7Matrix4ILi2ELi1EEEEEE5cloneEv
FNDA:3420,_ZNK5amrex17DefaultFabFactoryINS_7BaseFabIN5Model5Solid6Affine5CubicEEEE7destroyEPS6_
FNDA:0,_ZNK5amrex17DefaultFabFactoryINS_7BaseFabIN5Model5Solid6Linear5CubicEEEE7destroyEPS6_
FNDA:804,_ZN5amrex10FabFactoryINS_7BaseFabIN5Eigen6MatrixIdLi2ELi1ELi0ELi2ELi1EEEEEED2Ev
FNDA:0,_ZNK5amrex10FabFactoryINS_7BaseFabIN5Model5Solid6Linear5CubicEEEE12create_aliasERKS6_ii
FNDA:0,_ZNK5amrex17DefaultFabFactoryINS_7BaseFabIN5Model5Solid7Elastic10NeoHookeanEEEE12create_aliasERKS6_ii
FNDA:228,_ZN5amrex10FabFactoryINS_7BaseFabIN5Model5Solid6Affine9IsotropicEEEEC2Ev
FNDA:0,_ZN5amrex10FabFactoryINS_7BaseFabIN5Model5Solid7Elastic10NeoHookeanEEEED0Ev
FNDA:0,_ZNK5amrex17DefaultFabFactoryINS_7BaseFabIN5Eigen6MatrixIdLi2ELi2ELi0ELi2ELi2EEEEEE12create_aliasERKS5_ii
FNDA:0,_ZN5amrex10FabFactoryINS_9FArrayBoxEED0Ev
FNDA:0,_ZN5amrex10FabFactoryINS_7BaseFabIN5Model5Solid6Linear5CubicEEEED2Ev
FNDA:33,_ZN5amrex10FabFactoryINS_7BaseFabIN5Model5Solid6Affine5CubicEEEEC2Ev
FNDA:0,_ZN5amrex10FabFactoryINS_7BaseFabIN5Model5Solid6Affine9HexagonalEEEED0Ev
FNDA:80,_ZN5amrex10FabFactoryINS_7BaseFabIN3Set7Matrix4ILi2ELi4EEEEEED2Ev
FNDA:0,_ZNK5amrex10FabFactoryINS_7BaseFabIN5Model5Solid6Affine9HexagonalEEEE12create_aliasERKS6_ii
FNDA:79,_ZNK5amrex17DefaultFabFactoryINS_7BaseFabIN3Set7Matrix4ILi2ELi3EEEEEE5cloneEv
FNF:155
FNH:72
DA:31,1078590
DA:32,1078590
DA:33,1078590
DA:36,1078590
DA:37,1078590
DA:38,1078590
DA:41,1078590
DA:42,1078590
DA:43,1078590
DA:51,1384102
DA:56,2474520
DA:60,0
DA:72,4570208
DA:74,4570208
DA:78,3875
DA:80,3875
DA:83,4643723
DA:85,4643723
DA:86,4643723
DA:89,1061518
DA:90,1061518
LF:21
LH:20
end_of_record
TN:
SF:/home/brunnels/Research/alamo/ext/amrex/2d-coverage-g++-23.08/include/AMReX_FabSet.H
FN:60,_ZN5amrex7FabSetTINS_8MultiFabEED2Ev
FNDA:0,_ZN5amrex7FabSetTINS_8MultiFabEED2Ev
FNF:1
FNH:0
DA:60,0
LF:1
LH:0
end_of_record
TN:
SF:/home/brunnels/Research/alamo/ext/amrex/2d-coverage-g++-23.08/include/AMReX_FillPatchUtil.H
FN:35,_ZNK5amrex14NullInterpHookINS_7BaseFabIN5Model5Solid6Linear9IsotropicEEEEclIS6_Li0EEEvRS6_RKNS_3BoxEii
FN:35,_ZNK5amrex14NullInterpHookINS_7BaseFabIN5Model5Solid7Elastic10NeoHookeanEEEEclIS6_Li0EEEvRS6_RKNS_3BoxEii
FN:35,_ZNK5amrex14NullInterpHookINS_7BaseFabIN5Model5Solid6Affine9HexagonalEEEEclIS6_Li0EEEvRS6_RKNS_3BoxEii
FN:35,_ZNK5amrex14NullInterpHookINS_7BaseFabIN5Model5Solid6Affine9IsotropicEEEEclIS6_Li0EEEvRS6_RKNS_3BoxEii
FN:35,_ZNK5amrex14NullInterpHookINS_7BaseFabIN5Model5Solid6Linear9LaplacianEEEEclIS6_Li0EEEvRS6_RKNS_3BoxEii
FN:35,_ZNK5amrex14NullInterpHookINS_7BaseFabIN5Eigen6MatrixIdLi2ELi2ELi0ELi2ELi2EEEEEEclIS5_Li0EEEvRS5_RKNS_3BoxEii
FN:35,_ZNK5amrex14NullInterpHookINS_7BaseFabIN5Model5Solid7Elastic28PseudoLinearCubicPredeformedEEEEclIS6_Li0EEEvRS6_RKNS_3BoxEii
FN:35,_ZNK5amrex14NullInterpHookINS_7BaseFabIN5Model5Solid6Linear5CubicEEEEclIS6_Li0EEEvRS6_RKNS_3BoxEii
FN:35,_ZNK5amrex14NullInterpHookINS_7BaseFabIN5Model5Solid6Affine2J2EEEEclIS6_Li0EEEvRS6_RKNS_3BoxEii
FN:35,_ZNK5amrex14NullInterpHookINS_7BaseFabIN5Eigen6MatrixIdLi2ELi1ELi0ELi2ELi1EEEEEEclIS5_Li0EEEvRS5_RKNS_3BoxEii
FN:35,_ZNK5amrex14NullInterpHookINS_7BaseFabIN5Model5Solid6Affine5CubicEEEEclIS6_Li0EEEvRS6_RKNS_3BoxEii
FN:35,_ZNK5amrex14NullInterpHookINS_7BaseFabIN5Model5Solid7Elastic17PseudoLinearCubicEEEEclIS6_Li0EEEvRS6_RKNS_3BoxEii
FN:35,_ZNK5amrex14NullInterpHookINS_9FArrayBoxEEclIS1_Li0EEEvRS1_RKNS_3BoxEii
FN:35,_ZNK5amrex14NullInterpHookINS_7BaseFabIN5Model5Solid6Linear19IsotropicDegradableEEEEclIS6_Li0EEEvRS6_RKNS_3BoxEii
FNDA:0,_ZNK5amrex14NullInterpHookINS_7BaseFabIN5Model5Solid6Affine9HexagonalEEEEclIS6_Li0EEEvRS6_RKNS_3BoxEii
FNDA:52,_ZNK5amrex14NullInterpHookINS_7BaseFabIN5Model5Solid6Linear9IsotropicEEEEclIS6_Li0EEEvRS6_RKNS_3BoxEii
FNDA:30,_ZNK5amrex14NullInterpHookINS_7BaseFabIN5Model5Solid7Elastic10NeoHookeanEEEEclIS6_Li0EEEvRS6_RKNS_3BoxEii
FNDA:15060,_ZNK5amrex14NullInterpHookINS_7BaseFabIN5Eigen6MatrixIdLi2ELi2ELi0ELi2ELi2EEEEEEclIS5_Li0EEEvRS5_RKNS_3BoxEii
FNDA:6392,_ZNK5amrex14NullInterpHookINS_7BaseFabIN5Model5Solid6Affine9IsotropicEEEEclIS6_Li0EEEvRS6_RKNS_3BoxEii
FNDA:0,_ZNK5amrex14NullInterpHookINS_7BaseFabIN5Model5Solid6Linear9LaplacianEEEEclIS6_Li0EEEvRS6_RKNS_3BoxEii
FNDA:0,_ZNK5amrex14NullInterpHookINS_7BaseFabIN5Model5Solid6Linear5CubicEEEEclIS6_Li0EEEvRS6_RKNS_3BoxEii
FNDA:32,_ZNK5amrex14NullInterpHookINS_7BaseFabIN5Model5Solid6Affine2J2EEEEclIS6_Li0EEEvRS6_RKNS_3BoxEii
FNDA:16136,_ZNK5amrex14NullInterpHookINS_7BaseFabIN5Eigen6MatrixIdLi2ELi1ELi0ELi2ELi1EEEEEEclIS5_Li0EEEvRS5_RKNS_3BoxEii
FNDA:1024,_ZNK5amrex14NullInterpHookINS_7BaseFabIN5Model5Solid6Affine5CubicEEEEclIS6_Li0EEEvRS6_RKNS_3BoxEii
FNDA:0,_ZNK5amrex14NullInterpHookINS_7BaseFabIN5Model5Solid7Elastic28PseudoLinearCubicPredeformedEEEEclIS6_Li0EEEvRS6_RKNS_3BoxEii
FNDA:2491490,_ZNK5amrex14NullInterpHookINS_9FArrayBoxEEclIS1_Li0EEEvRS1_RKNS_3BoxEii
FNDA:0,_ZNK5amrex14NullInterpHookINS_7BaseFabIN5Model5Solid6Linear19IsotropicDegradableEEEEclIS6_Li0EEEvRS6_RKNS_3BoxEii
FNDA:0,_ZNK5amrex14NullInterpHookINS_7BaseFabIN5Model5Solid7Elastic17PseudoLinearCubicEEEEclIS6_Li0EEEvRS6_RKNS_3BoxEii
FNF:14
FNH:8
DA:35,2530216
LF:1
LH:1
end_of_record
TN:
SF:/home/brunnels/Research/alamo/ext/amrex/2d-coverage-g++-23.08/include/AMReX_FillPatchUtil_I.H
FN:10,_ZN5amrex6detail16call_interp_hookINS_14NullInterpHookINS_7BaseFabIN5Model5Solid6Affine9HexagonalEEEEENS_8FabArrayIS8_EEEEDTclfp_ixfp0_Li0EcvNS_3BoxE_Efp1_fp2_EERKT_RT0_ii
FN:10,_ZN5amrex6detail16call_interp_hookINS_14NullInterpHookINS_9FArrayBoxEEENS_8MultiFabEEEDTclfp_ixfp0_Li0EcvNS_3BoxE_Efp1_fp2_EERKT_RT0_ii
FN:10,_ZN5amrex6detail16call_interp_hookINS_14NullInterpHookINS_7BaseFabIN5Model5Solid6Linear19IsotropicDegradableEEEEENS_8FabArrayIS8_EEEEDTclfp_ixfp0_Li0EcvNS_3BoxE_Efp1_fp2_EERKT_RT0_ii
FN:10,_ZN5amrex6detail16call_interp_hookINS_14NullInterpHookINS_7BaseFabIN5Model5Solid7Elastic17PseudoLinearCubicEEEEENS_8FabArrayIS8_EEEEDTclfp_ixfp0_Li0EcvNS_3BoxE_Efp1_fp2_EERKT_RT0_ii
FN:10,_ZN5amrex6detail16call_interp_hookINS_14NullInterpHookINS_7BaseFabIN5Model5Solid7Elastic28PseudoLinearCubicPredeformedEEEEENS_8FabArrayIS8_EEEEDTclfp_ixfp0_Li0EcvNS_3BoxE_Efp1_fp2_EERKT_RT0_ii
FN:10,_ZN5amrex6detail16call_interp_hookINS_14NullInterpHookINS_7BaseFabIN5Eigen6MatrixIdLi2ELi2ELi0ELi2ELi2EEEEEEENS_8FabArrayIS7_EEEEDTclfp_ixfp0_Li0EcvNS_3BoxE_Efp1_fp2_EERKT_RT0_ii
FN:10,_ZN5amrex6detail16call_interp_hookINS_14NullInterpHookINS_7BaseFabIN5Model5Solid6Linear9IsotropicEEEEENS_8FabArrayIS8_EEEEDTclfp_ixfp0_Li0EcvNS_3BoxE_Efp1_fp2_EERKT_RT0_ii
FN:10,_ZN5amrex6detail16call_interp_hookINS_14NullInterpHookINS_7BaseFabIN5Model5Solid6Linear5CubicEEEEENS_8FabArrayIS8_EEEEDTclfp_ixfp0_Li0EcvNS_3BoxE_Efp1_fp2_EERKT_RT0_ii
FN:10,_ZN5amrex6detail16call_interp_hookINS_14NullInterpHookINS_7BaseFabIN5Model5Solid6Affine9IsotropicEEEEENS_8FabArrayIS8_EEEEDTclfp_ixfp0_Li0EcvNS_3BoxE_Efp1_fp2_EERKT_RT0_ii
FN:10,_ZN5amrex6detail16call_interp_hookINS_14NullInterpHookINS_7BaseFabIN5Model5Solid6Affine2J2EEEEENS_8FabArrayIS8_EEEEDTclfp_ixfp0_Li0EcvNS_3BoxE_Efp1_fp2_EERKT_RT0_ii
FN:10,_ZN5amrex6detail16call_interp_hookINS_14NullInterpHookINS_7BaseFabIN5Model5Solid6Affine5CubicEEEEENS_8FabArrayIS8_EEEEDTclfp_ixfp0_Li0EcvNS_3BoxE_Efp1_fp2_EERKT_RT0_ii
FN:10,_ZN5amrex6detail16call_interp_hookINS_14NullInterpHookINS_7BaseFabIN5Model5Solid6Linear9LaplacianEEEEENS_8FabArrayIS8_EEEEDTclfp_ixfp0_Li0EcvNS_3BoxE_Efp1_fp2_EERKT_RT0_ii
FN:10,_ZN5amrex6detail16call_interp_hookINS_14NullInterpHookINS_7BaseFabIN5Eigen6MatrixIdLi2ELi1ELi0ELi2ELi1EEEEEEENS_8FabArrayIS7_EEEEDTclfp_ixfp0_Li0EcvNS_3BoxE_Efp1_fp2_EERKT_RT0_ii
FN:10,_ZN5amrex6detail16call_interp_hookINS_14NullInterpHookINS_7BaseFabIN5Model5Solid7Elastic10NeoHookeanEEEEENS_8FabArrayIS8_EEEEDTclfp_ixfp0_Li0EcvNS_3BoxE_Efp1_fp2_EERKT_RT0_ii
FN:61,_ZN5amrex20FillPatchSingleLevelINS_8FabArrayINS_7BaseFabIN5Model5Solid6Affine2J2EEEEEN10Integrator5FieldIS6_E7EmptyBCEEENSt9enable_ifIXsrNS_10IsFabArrayIT_vEE5valueEvE4typeERSF_dRKNS_6VectorIPSF_SaISL_EEERKNSK_IdSaIdEEEiiiRKNS_8GeometryERT0_i
FN:61,_ZN5amrex20FillPatchSingleLevelINS_8FabArrayINS_7BaseFabIN5Model5Solid6Linear5CubicEEEEEN10Integrator5FieldIS6_E7EmptyBCEEENSt9enable_ifIXsrNS_10IsFabArrayIT_vEE5valueEvE4typeERSF_dRKNS_6VectorIPSF_SaISL_EEERKNSK_IdSaIdEEEiiiRKNS_8GeometryERT0_i
FN:61,_ZN5amrex20FillPatchSingleLevelINS_8FabArrayINS_7BaseFabIN5Eigen6MatrixIdLi2ELi1ELi0ELi2ELi1EEEEEEEN10Integrator5FieldIS5_E7EmptyBCEEENSt9enable_ifIXsrNS_10IsFabArrayIT_vEE5valueEvE4typeERSE_dRKNS_6VectorIPSE_SaISK_EEERKNSJ_IdSaIdEEEiiiRKNS_8GeometryERT0_i
FN:61,_ZN5amrex20FillPatchSingleLevelINS_8FabArrayINS_7BaseFabIN5Model5Solid7Elastic17PseudoLinearCubicEEEEEN10Integrator5FieldIS6_E7EmptyBCEEENSt9enable_ifIXsrNS_10IsFabArrayIT_vEE5valueEvE4typeERSF_dRKNS_6VectorIPSF_SaISL_EEERKNSK_IdSaIdEEEiiiRKNS_8GeometryERT0_i
FN:61,_ZN5amrex20FillPatchSingleLevelINS_8FabArrayINS_7BaseFabIN5Model5Solid6Affine9HexagonalEEEEEN2BC2BCIS6_EEEENSt9enable_ifIXsrNS_10IsFabArrayIT_vEE5valueEvE4typeERSE_dRKNS_6VectorIPSE_SaISK_EEERKNSJ_IdSaIdEEEiiiRKNS_8GeometryERT0_i
FN:61,_ZN5amrex20FillPatchSingleLevelINS_8FabArrayINS_7BaseFabIN5Model5Solid6Linear9IsotropicEEEEEN10Integrator5FieldIS6_E7EmptyBCEEENSt9enable_ifIXsrNS_10IsFabArrayIT_vEE5valueEvE4typeERSF_dRKNS_6VectorIPSF_SaISL_EEERKNSK_IdSaIdEEEiiiRKNS_8GeometryERT0_i
FN:61,_ZN5amrex20FillPatchSingleLevelINS_8FabArrayINS_7BaseFabIN5Model5Solid6Linear9LaplacianEEEEEN10Integrator5FieldIS6_E7EmptyBCEEENSt9enable_ifIXsrNS_10IsFabArrayIT_vEE5valueEvE4typeERSF_dRKNS_6VectorIPSF_SaISL_EEERKNSK_IdSaIdEEEiiiRKNS_8GeometryERT0_i
FN:61,_ZN5amrex20FillPatchSingleLevelINS_8FabArrayINS_7BaseFabIN5Model5Solid6Linear19IsotropicDegradableEEEEEN2BC2BCIS6_EEEENSt9enable_ifIXsrNS_10IsFabArrayIT_vEE5valueEvE4typeERSE_dRKNS_6VectorIPSE_SaISK_EEERKNSJ_IdSaIdEEEiiiRKNS_8GeometryERT0_i
FN:61,_ZN5amrex20FillPatchSingleLevelINS_8FabArrayINS_7BaseFabIN5Eigen6MatrixIdLi2ELi1ELi0ELi2ELi1EEEEEEEN2BC2BCIS5_EEEENSt9enable_ifIXsrNS_10IsFabArrayIT_vEE5valueEvE4typeERSD_dRKNS_6VectorIPSD_SaISJ_EEERKNSI_IdSaIdEEEiiiRKNS_8GeometryERT0_i
FN:61,_ZN5amrex20FillPatchSingleLevelINS_8FabArrayINS_7BaseFabIN5Model5Solid7Elastic28PseudoLinearCubicPredeformedEEEEEN10Integrator5FieldIS6_E7EmptyBCEEENSt9enable_ifIXsrNS_10IsFabArrayIT_vEE5valueEvE4typeERSF_dRKNS_6VectorIPSF_SaISL_EEERKNSK_IdSaIdEEEiiiRKNS_8GeometryERT0_i
FN:61,_ZN5amrex20FillPatchSingleLevelINS_8MultiFabEN2BC2BCIdEEEENSt9enable_ifIXsrNS_10IsFabArrayIT_vEE5valueEvE4typeERS7_dRKNS_6VectorIPS7_SaISD_EEERKNSC_IdSaIdEEEiiiRKNS_8GeometryERT0_i
FN:61,_ZN5amrex20FillPatchSingleLevelINS_8FabArrayINS_7BaseFabIN5Model5Solid6Affine9IsotropicEEEEEN2BC2BCIS6_EEEENSt9enable_ifIXsrNS_10IsFabArrayIT_vEE5valueEvE4typeERSE_dRKNS_6VectorIPSE_SaISK_EEERKNSJ_IdSaIdEEEiiiRKNS_8GeometryERT0_i
FN:61,_ZN5amrex20FillPatchSingleLevelINS_8FabArrayINS_7BaseFabIN5Model5Solid6Linear19IsotropicDegradableEEEEEN10Integrator5FieldIS6_E7EmptyBCEEENSt9enable_ifIXsrNS_10IsFabArrayIT_vEE5valueEvE4typeERSF_dRKNS_6VectorIPSF_SaISL_EEERKNSK_IdSaIdEEEiiiRKNS_8GeometryERT0_i
FN:61,_ZN5amrex20FillPatchSingleLevelINS_8FabArrayINS_7BaseFabIN5Model5Solid7Elastic10NeoHookeanEEEEEN10Integrator5FieldIS6_E7EmptyBCEEENSt9enable_ifIXsrNS_10IsFabArrayIT_vEE5valueEvE4typeERSF_dRKNS_6VectorIPSF_SaISL_EEERKNSK_IdSaIdEEEiiiRKNS_8GeometryERT0_i
FN:61,_ZN5amrex20FillPatchSingleLevelINS_8FabArrayINS_7BaseFabIN5Model5Solid6Linear9IsotropicEEEEEN2BC2BCIS6_EEEENSt9enable_ifIXsrNS_10IsFabArrayIT_vEE5valueEvE4typeERSE_dRKNS_6VectorIPSE_SaISK_EEERKNSJ_IdSaIdEEEiiiRKNS_8GeometryERT0_i
FN:61,_ZN5amrex20FillPatchSingleLevelINS_8FabArrayINS_7BaseFabIN5Model5Solid7Elastic10NeoHookeanEEEEEN2BC2BCIS6_EEEENSt9enable_ifIXsrNS_10IsFabArrayIT_vEE5valueEvE4typeERSE_dRKNS_6VectorIPSE_SaISK_EEERKNSJ_IdSaIdEEEiiiRKNS_8GeometryERT0_i
FN:61,_ZN5amrex20FillPatchSingleLevelINS_8FabArrayINS_7BaseFabIN5Model5Solid6Affine2J2EEEEEN2BC2BCIS6_EEEENSt9enable_ifIXsrNS_10IsFabArrayIT_vEE5valueEvE4typeERSE_dRKNS_6VectorIPSE_SaISK_EEERKNSJ_IdSaIdEEEiiiRKNS_8GeometryERT0_i
FN:61,_ZN5amrex20FillPatchSingleLevelINS_8FabArrayINS_7BaseFabIN5Model5Solid7Elastic17PseudoLinearCubicEEEEEN2BC2BCIS6_EEEENSt9enable_ifIXsrNS_10IsFabArrayIT_vEE5valueEvE4typeERSE_dRKNS_6VectorIPSE_SaISK_EEERKNSJ_IdSaIdEEEiiiRKNS_8GeometryERT0_i
FN:61,_ZN5amrex20FillPatchSingleLevelINS_8FabArrayINS_7BaseFabIN5Model5Solid6Linear5CubicEEEEEN2BC2BCIS6_EEEENSt9enable_ifIXsrNS_10IsFabArrayIT_vEE5valueEvE4typeERSE_dRKNS_6VectorIPSE_SaISK_EEERKNSJ_IdSaIdEEEiiiRKNS_8GeometryERT0_i
FN:61,_ZN5amrex20FillPatchSingleLevelINS_8FabArrayINS_7BaseFabIN5Model5Solid7Elastic28PseudoLinearCubicPredeformedEEEEEN2BC2BCIS6_EEEENSt9enable_ifIXsrNS_10IsFabArrayIT_vEE5valueEvE4typeERSE_dRKNS_6VectorIPSE_SaISK_EEERKNSJ_IdSaIdEEEiiiRKNS_8GeometryERT0_i
FN:61,_ZN5amrex20FillPatchSingleLevelINS_8FabArrayINS_7BaseFabIN5Model5Solid6Affine5CubicEEEEEN10Integrator5FieldIS6_E7EmptyBCEEENSt9enable_ifIXsrNS_10IsFabArrayIT_vEE5valueEvE4typeERSF_dRKNS_6VectorIPSF_SaISL_EEERKNSK_IdSaIdEEEiiiRKNS_8GeometryERT0_i
FN:61,_ZN5amrex20FillPatchSingleLevelINS_8FabArrayINS_7BaseFabIN5Model5Solid6Affine9HexagonalEEEEEN10Integrator5FieldIS6_E7EmptyBCEEENSt9enable_ifIXsrNS_10IsFabArrayIT_vEE5valueEvE4typeERSF_dRKNS_6VectorIPSF_SaISL_EEERKNSK_IdSaIdEEEiiiRKNS_8GeometryERT0_i
FN:61,_ZN5amrex20FillPatchSingleLevelINS_8FabArrayINS_7BaseFabIN5Eigen6MatrixIdLi2ELi2ELi0ELi2ELi2EEEEEEEN2BC2BCIS5_EEEENSt9enable_ifIXsrNS_10IsFabArrayIT_vEE5valueEvE4typeERSD_dRKNS_6VectorIPSD_SaISJ_EEERKNSI_IdSaIdEEEiiiRKNS_8GeometryERT0_i
FN:61,_ZN5amrex20FillPatchSingleLevelINS_8FabArrayINS_7BaseFabIN5Model5Solid6Affine5CubicEEEEEN2BC2BCIS6_EEEENSt9enable_ifIXsrNS_10IsFabArrayIT_vEE5valueEvE4typeERSE_dRKNS_6VectorIPSE_SaISK_EEERKNSJ_IdSaIdEEEiiiRKNS_8GeometryERT0_i
FN:61,_ZN5amrex20FillPatchSingleLevelINS_8FabArrayINS_7BaseFabIN5Eigen6MatrixIdLi2ELi2ELi0ELi2ELi2EEEEEEEN10Integrator5FieldIS5_E7EmptyBCEEENSt9enable_ifIXsrNS_10IsFabArrayIT_vEE5valueEvE4typeERSE_dRKNS_6VectorIPSE_SaISK_EEERKNSJ_IdSaIdEEEiiiRKNS_8GeometryERT0_i
FN:61,_ZN5amrex20FillPatchSingleLevelINS_8FabArrayINS_7BaseFabIN5Model5Solid6Affine9IsotropicEEEEEN10Integrator5FieldIS6_E7EmptyBCEEENSt9enable_ifIXsrNS_10IsFabArrayIT_vEE5valueEvE4typeERSF_dRKNS_6VectorIPSF_SaISL_EEERKNSK_IdSaIdEEEiiiRKNS_8GeometryERT0_i
FN:61,_ZN5amrex20FillPatchSingleLevelINS_8FabArrayINS_7BaseFabIN5Model5Solid6Linear9LaplacianEEEEEN2BC2BCIS6_EEEENSt9enable_ifIXsrNS_10IsFabArrayIT_vEE5valueEvE4typeERSE_dRKNS_6VectorIPSE_SaISK_EEERKNSJ_IdSaIdEEEiiiRKNS_8GeometryERT0_i
FN:73,_ZN5amrex20FillPatchSingleLevelINS_8FabArrayINS_7BaseFabIN5Model5Solid6Linear5CubicEEEEEN10Integrator5FieldIS6_E7EmptyBCEEENSt9enable_ifIXsrNS_10IsFabArrayIT_vEE5valueEvE4typeERSF_RKNS_7IntVectEdRKNS_6VectorIPSF_SaISO_EEERKNSN_IdSaIdEEEiiiRKNS_8GeometryERT0_i
FN:73,_ZN5amrex20FillPatchSingleLevelINS_8FabArrayINS_7BaseFabIN5Model5Solid7Elastic17PseudoLinearCubicEEEEEN10Integrator5FieldIS6_E7EmptyBCEEENSt9enable_ifIXsrNS_10IsFabArrayIT_vEE5valueEvE4typeERSF_RKNS_7IntVectEdRKNS_6VectorIPSF_SaISO_EEERKNSN_IdSaIdEEEiiiRKNS_8GeometryERT0_i
FN:73,_ZN5amrex20FillPatchSingleLevelINS_8FabArrayINS_7BaseFabIN5Model5Solid6Affine5CubicEEEEEN2BC2BCIS6_EEEENSt9enable_ifIXsrNS_10IsFabArrayIT_vEE5valueEvE4typeERSE_RKNS_7IntVectEdRKNS_6VectorIPSE_SaISN_EEERKNSM_IdSaIdEEEiiiRKNS_8GeometryERT0_i
FN:73,_ZN5amrex20FillPatchSingleLevelINS_8FabArrayINS_7BaseFabIN5Model5Solid6Linear9LaplacianEEEEEN10Integrator5FieldIS6_E7EmptyBCEEENSt9enable_ifIXsrNS_10IsFabArrayIT_vEE5valueEvE4typeERSF_RKNS_7IntVectEdRKNS_6VectorIPSF_SaISO_EEERKNSN_IdSaIdEEEiiiRKNS_8GeometryERT0_i
FN:73,_ZN5amrex20FillPatchSingleLevelINS_8FabArrayINS_7BaseFabIN5Eigen6MatrixIdLi2ELi1ELi0ELi2ELi1EEEEEEEN10Integrator5FieldIS5_E7EmptyBCEEENSt9enable_ifIXsrNS_10IsFabArrayIT_vEE5valueEvE4typeERSE_RKNS_7IntVectEdRKNS_6VectorIPSE_SaISN_EEERKNSM_IdSaIdEEEiiiRKNS_8GeometryERT0_i
FN:73,_ZN5amrex20FillPatchSingleLevelINS_8FabArrayINS_7BaseFabIN5Model5Solid7Elastic28PseudoLinearCubicPredeformedEEEEEN2BC2BCIS6_EEEENSt9enable_ifIXsrNS_10IsFabArrayIT_vEE5valueEvE4typeERSE_RKNS_7IntVectEdRKNS_6VectorIPSE_SaISN_EEERKNSM_IdSaIdEEEiiiRKNS_8GeometryERT0_i
FN:73,_ZN5amrex20FillPatchSingleLevelINS_8FabArrayINS_7BaseFabIN5Model5Solid7Elastic17PseudoLinearCubicEEEEEN2BC2BCIS6_EEEENSt9enable_ifIXsrNS_10IsFabArrayIT_vEE5valueEvE4typeERSE_RKNS_7IntVectEdRKNS_6VectorIPSE_SaISN_EEERKNSM_IdSaIdEEEiiiRKNS_8GeometryERT0_i
FN:73,_ZN5amrex20FillPatchSingleLevelINS_8FabArrayINS_7BaseFabIN5Model5Solid6Affine9IsotropicEEEEEN10Integrator5FieldIS6_E7EmptyBCEEENSt9enable_ifIXsrNS_10IsFabArrayIT_vEE5valueEvE4typeERSF_RKNS_7IntVectEdRKNS_6VectorIPSF_SaISO_EEERKNSN_IdSaIdEEEiiiRKNS_8GeometryERT0_i
FN:73,_ZN5amrex20FillPatchSingleLevelINS_8FabArrayINS_7BaseFabIN5Model5Solid7Elastic10NeoHookeanEEEEEN10Integrator5FieldIS6_E7EmptyBCEEENSt9enable_ifIXsrNS_10IsFabArrayIT_vEE5valueEvE4typeERSF_RKNS_7IntVectEdRKNS_6VectorIPSF_SaISO_EEERKNSN_IdSaIdEEEiiiRKNS_8GeometryERT0_i
FN:73,_ZN5amrex20FillPatchSingleLevelINS_8FabArrayINS_7BaseFabIN5Eigen6MatrixIdLi2ELi2ELi0ELi2ELi2EEEEEEEN2BC2BCIS5_EEEENSt9enable_ifIXsrNS_10IsFabArrayIT_vEE5valueEvE4typeERSD_RKNS_7IntVectEdRKNS_6VectorIPSD_SaISM_EEERKNSL_IdSaIdEEEiiiRKNS_8GeometryERT0_i
FN:73,_ZN5amrex20FillPatchSingleLevelINS_8FabArrayINS_7BaseFabIN5Model5Solid7Elastic10NeoHookeanEEEEEN2BC2BCIS6_EEEENSt9enable_ifIXsrNS_10IsFabArrayIT_vEE5valueEvE4typeERSE_RKNS_7IntVectEdRKNS_6VectorIPSE_SaISN_EEERKNSM_IdSaIdEEEiiiRKNS_8GeometryERT0_i
FN:73,_ZN5amrex20FillPatchSingleLevelINS_8FabArrayINS_7BaseFabIN5Eigen6MatrixIdLi2ELi2ELi0ELi2ELi2EEEEEEEN10Integrator5FieldIS5_E7EmptyBCEEENSt9enable_ifIXsrNS_10IsFabArrayIT_vEE5valueEvE4typeERSE_RKNS_7IntVectEdRKNS_6VectorIPSE_SaISN_EEERKNSM_IdSaIdEEEiiiRKNS_8GeometryERT0_i
FN:73,_ZN5amrex20FillPatchSingleLevelINS_8FabArrayINS_7BaseFabIN5Model5Solid6Linear9IsotropicEEEEEN10Integrator5FieldIS6_E7EmptyBCEEENSt9enable_ifIXsrNS_10IsFabArrayIT_vEE5valueEvE4typeERSF_RKNS_7IntVectEdRKNS_6VectorIPSF_SaISO_EEERKNSN_IdSaIdEEEiiiRKNS_8GeometryERT0_i
FN:73,_ZN5amrex20FillPatchSingleLevelINS_8FabArrayINS_7BaseFabIN5Model5Solid6Linear19IsotropicDegradableEEEEEN2BC2BCIS6_EEEENSt9enable_ifIXsrNS_10IsFabArrayIT_vEE5valueEvE4typeERSE_RKNS_7IntVectEdRKNS_6VectorIPSE_SaISN_EEERKNSM_IdSaIdEEEiiiRKNS_8GeometryERT0_i
FN:73,_ZN5amrex20FillPatchSingleLevelINS_8FabArrayINS_7BaseFabIN5Model5Solid6Affine2J2EEEEEN10Integrator5FieldIS6_E7EmptyBCEEENSt9enable_ifIXsrNS_10IsFabArrayIT_vEE5valueEvE4typeERSF_RKNS_7IntVectEdRKNS_6VectorIPSF_SaISO_EEERKNSN_IdSaIdEEEiiiRKNS_8GeometryERT0_i
FN:73,_ZN5amrex20FillPatchSingleLevelINS_8FabArrayINS_7BaseFabIN5Model5Solid6Linear19IsotropicDegradableEEEEEN10Integrator5FieldIS6_E7EmptyBCEEENSt9enable_ifIXsrNS_10IsFabArrayIT_vEE5valueEvE4typeERSF_RKNS_7IntVectEdRKNS_6VectorIPSF_SaISO_EEERKNSN_IdSaIdEEEiiiRKNS_8GeometryERT0_i
FN:73,_ZN5amrex20FillPatchSingleLevelINS_8FabArrayINS_7BaseFabIN5Eigen6MatrixIdLi2ELi1ELi0ELi2ELi1EEEEEEEN2BC2BCIS5_EEEENSt9enable_ifIXsrNS_10IsFabArrayIT_vEE5valueEvE4typeERSD_RKNS_7IntVectEdRKNS_6VectorIPSD_SaISM_EEERKNSL_IdSaIdEEEiiiRKNS_8GeometryERT0_i
FN:73,_ZN5amrex20FillPatchSingleLevelINS_8FabArrayINS_7BaseFabIN5Model5Solid6Linear5CubicEEEEEN2BC2BCIS6_EEEENSt9enable_ifIXsrNS_10IsFabArrayIT_vEE5valueEvE4typeERSE_RKNS_7IntVectEdRKNS_6VectorIPSE_SaISN_EEERKNSM_IdSaIdEEEiiiRKNS_8GeometryERT0_i
FN:73,_ZN5amrex20FillPatchSingleLevelINS_8FabArrayINS_7BaseFabIN5Model5Solid6Affine9HexagonalEEEEEN2BC2BCIS6_EEEENSt9enable_ifIXsrNS_10IsFabArrayIT_vEE5valueEvE4typeERSE_RKNS_7IntVectEdRKNS_6VectorIPSE_SaISN_EEERKNSM_IdSaIdEEEiiiRKNS_8GeometryERT0_i
FN:73,_ZN5amrex20FillPatchSingleLevelINS_8FabArrayINS_7BaseFabIN5Model5Solid6Affine5CubicEEEEEN10Integrator5FieldIS6_E7EmptyBCEEENSt9enable_ifIXsrNS_10IsFabArrayIT_vEE5valueEvE4typeERSF_RKNS_7IntVectEdRKNS_6VectorIPSF_SaISO_EEERKNSN_IdSaIdEEEiiiRKNS_8GeometryERT0_i
FN:73,_ZN5amrex20FillPatchSingleLevelINS_8FabArrayINS_7BaseFabIN5Model5Solid6Affine9IsotropicEEEEEN2BC2BCIS6_EEEENSt9enable_ifIXsrNS_10IsFabArrayIT_vEE5valueEvE4typeERSE_RKNS_7IntVectEdRKNS_6VectorIPSE_SaISN_EEERKNSM_IdSaIdEEEiiiRKNS_8GeometryERT0_i
FN:73,_ZN5amrex20FillPatchSingleLevelINS_8FabArrayINS_7BaseFabIN5Model5Solid6Linear9LaplacianEEEEEN2BC2BCIS6_EEEENSt9enable_ifIXsrNS_10IsFabArrayIT_vEE5valueEvE4typeERSE_RKNS_7IntVectEdRKNS_6VectorIPSE_SaISN_EEERKNSM_IdSaIdEEEiiiRKNS_8GeometryERT0_i
FN:73,_ZN5amrex20FillPatchSingleLevelINS_8FabArrayINS_7BaseFabIN5Model5Solid7Elastic28PseudoLinearCubicPredeformedEEEEEN10Integrator5FieldIS6_E7EmptyBCEEENSt9enable_ifIXsrNS_10IsFabArrayIT_vEE5valueEvE4typeERSF_RKNS_7IntVectEdRKNS_6VectorIPSF_SaISO_EEERKNSN_IdSaIdEEEiiiRKNS_8GeometryERT0_i
FN:73,_ZN5amrex20FillPatchSingleLevelINS_8FabArrayINS_7BaseFabIN5Model5Solid6Affine2J2EEEEEN2BC2BCIS6_EEEENSt9enable_ifIXsrNS_10IsFabArrayIT_vEE5valueEvE4typeERSE_RKNS_7IntVectEdRKNS_6VectorIPSE_SaISN_EEERKNSM_IdSaIdEEEiiiRKNS_8GeometryERT0_i
FN:73,_ZN5amrex20FillPatchSingleLevelINS_8FabArrayINS_7BaseFabIN5Model5Solid6Linear9IsotropicEEEEEN2BC2BCIS6_EEEENSt9enable_ifIXsrNS_10IsFabArrayIT_vEE5valueEvE4typeERSE_RKNS_7IntVectEdRKNS_6VectorIPSE_SaISN_EEERKNSM_IdSaIdEEEiiiRKNS_8GeometryERT0_i
FN:73,_ZN5amrex20FillPatchSingleLevelINS_8MultiFabEN2BC2BCIdEEEENSt9enable_ifIXsrNS_10IsFabArrayIT_vEE5valueEvE4typeERS7_RKNS_7IntVectEdRKNS_6VectorIPS7_SaISG_EEERKNSF_IdSaIdEEEiiiRKNS_8GeometryERT0_i
FN:73,_ZN5amrex20FillPatchSingleLevelINS_8FabArrayINS_7BaseFabIN5Model5Solid6Affine9HexagonalEEEEEN10Integrator5FieldIS6_E7EmptyBCEEENSt9enable_ifIXsrNS_10IsFabArrayIT_vEE5valueEvE4typeERSF_RKNS_7IntVectEdRKNS_6VectorIPSF_SaISO_EEERKNSN_IdSaIdEEEiiiRKNS_8GeometryERT0_i
FN:193,_ZN5amrex15FillPatchInterpINS_8FabArrayINS_7BaseFabIN5Model5Solid7Elastic17PseudoLinearCubicEEEEEN7Numeric12Interpolator12NodeBilinearIS6_EEEENSt9enable_ifIXaasrNS_10IsFabArrayIT_vEE5valuentsrSt7is_sameIT0_NS_14MFInterpolaterEE5valueEvE4typeERSF_iRKSF_iiRKNS_7IntVectERKNS_8GeometryESV_RKNS_3BoxESS_PSI_RKNS_6VectorINS_5BCRecESaIS11_EEEi
FN:193,_ZN5amrex15FillPatchInterpINS_8FabArrayINS_7BaseFabIN5Model5Solid6Affine9HexagonalEEEEEN7Numeric12Interpolator12NodeBilinearIS6_EEEENSt9enable_ifIXaasrNS_10IsFabArrayIT_vEE5valuentsrSt7is_sameIT0_NS_14MFInterpolaterEE5valueEvE4typeERSF_iRKSF_iiRKNS_7IntVectERKNS_8GeometryESV_RKNS_3BoxESS_PSI_RKNS_6VectorINS_5BCRecESaIS11_EEEi
FN:193,_ZN5amrex15FillPatchInterpINS_8FabArrayINS_7BaseFabIN5Model5Solid7Elastic28PseudoLinearCubicPredeformedEEEEEN7Numeric12Interpolator12NodeBilinearIS6_EEEENSt9enable_ifIXaasrNS_10IsFabArrayIT_vEE5valuentsrSt7is_sameIT0_NS_14MFInterpolaterEE5valueEvE4typeERSF_iRKSF_iiRKNS_7IntVectERKNS_8GeometryESV_RKNS_3BoxESS_PSI_RKNS_6VectorINS_5BCRecESaIS11_EEEi
FN:193,_ZN5amrex15FillPatchInterpINS_8FabArrayINS_7BaseFabIN5Model5Solid6Affine9IsotropicEEEEEN7Numeric12Interpolator12NodeBilinearIS6_EEEENSt9enable_ifIXaasrNS_10IsFabArrayIT_vEE5valuentsrSt7is_sameIT0_NS_14MFInterpolaterEE5valueEvE4typeERSF_iRKSF_iiRKNS_7IntVectERKNS_8GeometryESV_RKNS_3BoxESS_PSI_RKNS_6VectorINS_5BCRecESaIS11_EEEi
FN:193,_ZN5amrex15FillPatchInterpINS_8FabArrayINS_7BaseFabIN5Model5Solid6Affine2J2EEEEEN7Numeric12Interpolator12NodeBilinearIS6_EEEENSt9enable_ifIXaasrNS_10IsFabArrayIT_vEE5valuentsrSt7is_sameIT0_NS_14MFInterpolaterEE5valueEvE4typeERSF_iRKSF_iiRKNS_7IntVectERKNS_8GeometryESV_RKNS_3BoxESS_PSI_RKNS_6VectorINS_5BCRecESaIS11_EEEi
FN:193,_ZN5amrex15FillPatchInterpINS_8MultiFabENS_12InterpolaterEEENSt9enable_ifIXaasrNS_10IsFabArrayIT_vEE5valuentsrSt7is_sameIT0_NS_14MFInterpolaterEE5valueEvE4typeERS5_iRKS5_iiRKNS_7IntVectERKNS_8GeometryESL_RKNS_3BoxESI_PS8_RKNS_6VectorINS_5BCRecESaISR_EEEi
FN:193,_ZN5amrex15FillPatchInterpINS_8FabArrayINS_7BaseFabIN5Model5Solid6Linear5CubicEEEEEN7Numeric12Interpolator12NodeBilinearIS6_EEEENSt9enable_ifIXaasrNS_10IsFabArrayIT_vEE5valuentsrSt7is_sameIT0_NS_14MFInterpolaterEE5valueEvE4typeERSF_iRKSF_iiRKNS_7IntVectERKNS_8GeometryESV_RKNS_3BoxESS_PSI_RKNS_6VectorINS_5BCRecESaIS11_EEEi
FN:193,_ZN5amrex15FillPatchInterpINS_8FabArrayINS_7BaseFabIN5Model5Solid6Linear9LaplacianEEEEEN7Numeric12Interpolator12NodeBilinearIS6_EEEENSt9enable_ifIXaasrNS_10IsFabArrayIT_vEE5valuentsrSt7is_sameIT0_NS_14MFInterpolaterEE5valueEvE4typeERSF_iRKSF_iiRKNS_7IntVectERKNS_8GeometryESV_RKNS_3BoxESS_PSI_RKNS_6VectorINS_5BCRecESaIS11_EEEi
FN:193,_ZN5amrex15FillPatchInterpINS_8FabArrayINS_7BaseFabIN5Model5Solid6Linear19IsotropicDegradableEEEEEN7Numeric12Interpolator12NodeBilinearIS6_EEEENSt9enable_ifIXaasrNS_10IsFabArrayIT_vEE5valuentsrSt7is_sameIT0_NS_14MFInterpolaterEE5valueEvE4typeERSF_iRKSF_iiRKNS_7IntVectERKNS_8GeometryESV_RKNS_3BoxESS_PSI_RKNS_6VectorINS_5BCRecESaIS11_EEEi
FN:193,_ZN5amrex15FillPatchInterpINS_8FabArrayINS_7BaseFabIN5Eigen6MatrixIdLi2ELi2ELi0ELi2ELi2EEEEEEEN7Numeric12Interpolator12NodeBilinearIS5_EEEENSt9enable_ifIXaasrNS_10IsFabArrayIT_vEE5valuentsrSt7is_sameIT0_NS_14MFInterpolaterEE5valueEvE4typeERSE_iRKSE_iiRKNS_7IntVectERKNS_8GeometryESU_RKNS_3BoxESR_PSH_RKNS_6VectorINS_5BCRecESaIS10_EEEi
FN:193,_ZN5amrex15FillPatchInterpINS_8FabArrayINS_7BaseFabIN5Eigen6MatrixIdLi2ELi1ELi0ELi2ELi1EEEEEEEN7Numeric12Interpolator12NodeBilinearIS5_EEEENSt9enable_ifIXaasrNS_10IsFabArrayIT_vEE5valuentsrSt7is_sameIT0_NS_14MFInterpolaterEE5valueEvE4typeERSE_iRKSE_iiRKNS_7IntVectERKNS_8GeometryESU_RKNS_3BoxESR_PSH_RKNS_6VectorINS_5BCRecESaIS10_EEEi
FN:193,_ZN5amrex15FillPatchInterpINS_8FabArrayINS_7BaseFabIN5Model5Solid7Elastic10NeoHookeanEEEEEN7Numeric12Interpolator12NodeBilinearIS6_EEEENSt9enable_ifIXaasrNS_10IsFabArrayIT_vEE5valuentsrSt7is_sameIT0_NS_14MFInterpolaterEE5valueEvE4typeERSF_iRKSF_iiRKNS_7IntVectERKNS_8GeometryESV_RKNS_3BoxESS_PSI_RKNS_6VectorINS_5BCRecESaIS11_EEEi
FN:193,_ZN5amrex15FillPatchInterpINS_8FabArrayINS_7BaseFabIN5Model5Solid6Linear9IsotropicEEEEEN7Numeric12Interpolator12NodeBilinearIS6_EEEENSt9enable_ifIXaasrNS_10IsFabArrayIT_vEE5valuentsrSt7is_sameIT0_NS_14MFInterpolaterEE5valueEvE4typeERSF_iRKSF_iiRKNS_7IntVectERKNS_8GeometryESV_RKNS_3BoxESS_PSI_RKNS_6VectorINS_5BCRecESaIS11_EEEi
FN:193,_ZN5amrex15FillPatchInterpINS_8FabArrayINS_7BaseFabIN5Model5Solid6Affine5CubicEEEEEN7Numeric12Interpolator12NodeBilinearIS6_EEEENSt9enable_ifIXaasrNS_10IsFabArrayIT_vEE5valuentsrSt7is_sameIT0_NS_14MFInterpolaterEE5valueEvE4typeERSF_iRKSF_iiRKNS_7IntVectERKNS_8GeometryESV_RKNS_3BoxESS_PSI_RKNS_6VectorINS_5BCRecESaIS11_EEEi
FN:244,_ZN5amrex10InterpFaceINS_8FabArrayINS_7BaseFabIN5Model5Solid6Affine2J2EEEEENS_9iMultiFabEN7Numeric12Interpolator12NodeBilinearIS6_EEEENSt9enable_ifIXaasrNS_10IsFabArrayIT_vEE5valuentsrSt7is_sameIT1_NS_14MFInterpolaterEE5valueEvE4typeEPSJ_RKSG_iRSG_iiRKNS_7IntVectERKT0_RKNS_8GeometryES10_iNS_5RunOnERKNS_6VectorINS_5BCRecESaIS13_EEE
FN:244,_ZN5amrex10InterpFaceINS_8FabArrayINS_7BaseFabIN5Model5Solid6Linear9LaplacianEEEEENS_9iMultiFabEN7Numeric12Interpolator12NodeBilinearIS6_EEEENSt9enable_ifIXaasrNS_10IsFabArrayIT_vEE5valuentsrSt7is_sameIT1_NS_14MFInterpolaterEE5valueEvE4typeEPSJ_RKSG_iRSG_iiRKNS_7IntVectERKT0_RKNS_8GeometryES10_iNS_5RunOnERKNS_6VectorINS_5BCRecESaIS13_EEE
FN:244,_ZN5amrex10InterpFaceINS_8FabArrayINS_7BaseFabIN5Model5Solid6Affine9IsotropicEEEEENS_9iMultiFabEN7Numeric12Interpolator12NodeBilinearIS6_EEEENSt9enable_ifIXaasrNS_10IsFabArrayIT_vEE5valuentsrSt7is_sameIT1_NS_14MFInterpolaterEE5valueEvE4typeEPSJ_RKSG_iRSG_iiRKNS_7IntVectERKT0_RKNS_8GeometryES10_iNS_5RunOnERKNS_6VectorINS_5BCRecESaIS13_EEE
FN:244,_ZN5amrex10InterpFaceINS_8FabArrayINS_7BaseFabIN5Model5Solid6Affine9HexagonalEEEEENS_9iMultiFabEN7Numeric12Interpolator12NodeBilinearIS6_EEEENSt9enable_ifIXaasrNS_10IsFabArrayIT_vEE5valuentsrSt7is_sameIT1_NS_14MFInterpolaterEE5valueEvE4typeEPSJ_RKSG_iRSG_iiRKNS_7IntVectERKT0_RKNS_8GeometryES10_iNS_5RunOnERKNS_6VectorINS_5BCRecESaIS13_EEE
FN:244,_ZN5amrex10InterpFaceINS_8FabArrayINS_7BaseFabIN5Model5Solid6Linear5CubicEEEEENS_9iMultiFabEN7Numeric12Interpolator12NodeBilinearIS6_EEEENSt9enable_ifIXaasrNS_10IsFabArrayIT_vEE5valuentsrSt7is_sameIT1_NS_14MFInterpolaterEE5valueEvE4typeEPSJ_RKSG_iRSG_iiRKNS_7IntVectERKT0_RKNS_8GeometryES10_iNS_5RunOnERKNS_6VectorINS_5BCRecESaIS13_EEE
FN:244,_ZN5amrex10InterpFaceINS_8FabArrayINS_7BaseFabIN5Eigen6MatrixIdLi2ELi1ELi0ELi2ELi1EEEEEEENS_9iMultiFabEN7Numeric12Interpolator12NodeBilinearIS5_EEEENSt9enable_ifIXaasrNS_10IsFabArrayIT_vEE5valuentsrSt7is_sameIT1_NS_14MFInterpolaterEE5valueEvE4typeEPSI_RKSF_iRSF_iiRKNS_7IntVectERKT0_RKNS_8GeometryESZ_iNS_5RunOnERKNS_6VectorINS_5BCRecESaIS12_EEE
FN:244,_ZN5amrex10InterpFaceINS_8FabArrayINS_7BaseFabIN5Model5Solid6Linear19IsotropicDegradableEEEEENS_9iMultiFabEN7Numeric12Interpolator12NodeBilinearIS6_EEEENSt9enable_ifIXaasrNS_10IsFabArrayIT_vEE5valuentsrSt7is_sameIT1_NS_14MFInterpolaterEE5valueEvE4typeEPSJ_RKSG_iRSG_iiRKNS_7IntVectERKT0_RKNS_8GeometryES10_iNS_5RunOnERKNS_6VectorINS_5BCRecESaIS13_EEE
FN:244,_ZN5amrex10InterpFaceINS_8FabArrayINS_7BaseFabIN5Model5Solid7Elastic28PseudoLinearCubicPredeformedEEEEENS_9iMultiFabEN7Numeric12Interpolator12NodeBilinearIS6_EEEENSt9enable_ifIXaasrNS_10IsFabArrayIT_vEE5valuentsrSt7is_sameIT1_NS_14MFInterpolaterEE5valueEvE4typeEPSJ_RKSG_iRSG_iiRKNS_7IntVectERKT0_RKNS_8GeometryES10_iNS_5RunOnERKNS_6VectorINS_5BCRecESaIS13_EEE
FN:244,_ZN5amrex10InterpFaceINS_8FabArrayINS_7BaseFabIN5Model5Solid6Affine5CubicEEEEENS_9iMultiFabEN7Numeric12Interpolator12NodeBilinearIS6_EEEENSt9enable_ifIXaasrNS_10IsFabArrayIT_vEE5valuentsrSt7is_sameIT1_NS_14MFInterpolaterEE5valueEvE4typeEPSJ_RKSG_iRSG_iiRKNS_7IntVectERKT0_RKNS_8GeometryES10_iNS_5RunOnERKNS_6VectorINS_5BCRecESaIS13_EEE
FN:244,_ZN5amrex10InterpFaceINS_8MultiFabENS_9iMultiFabENS_12InterpolaterEEENSt9enable_ifIXaasrNS_10IsFabArrayIT_vEE5valuentsrSt7is_sameIT1_NS_14MFInterpolaterEE5valueEvE4typeEPS9_RKS6_iRS6_iiRKNS_7IntVectERKT0_RKNS_8GeometryESQ_iNS_5RunOnERKNS_6VectorINS_5BCRecESaIST_EEE
FN:244,_ZN5amrex10InterpFaceINS_8FabArrayINS_7BaseFabIN5Model5Solid6Linear9IsotropicEEEEENS_9iMultiFabEN7Numeric12Interpolator12NodeBilinearIS6_EEEENSt9enable_ifIXaasrNS_10IsFabArrayIT_vEE5valuentsrSt7is_sameIT1_NS_14MFInterpolaterEE5valueEvE4typeEPSJ_RKSG_iRSG_iiRKNS_7IntVectERKT0_RKNS_8GeometryES10_iNS_5RunOnERKNS_6VectorINS_5BCRecESaIS13_EEE
FN:244,_ZN5amrex10InterpFaceINS_8FabArrayINS_7BaseFabIN5Model5Solid7Elastic17PseudoLinearCubicEEEEENS_9iMultiFabEN7Numeric12Interpolator12NodeBilinearIS6_EEEENSt9enable_ifIXaasrNS_10IsFabArrayIT_vEE5valuentsrSt7is_sameIT1_NS_14MFInterpolaterEE5valueEvE4typeEPSJ_RKSG_iRSG_iiRKNS_7IntVectERKT0_RKNS_8GeometryES10_iNS_5RunOnERKNS_6VectorINS_5BCRecESaIS13_EEE
FN:244,_ZN5amrex10InterpFaceINS_8FabArrayINS_7BaseFabIN5Eigen6MatrixIdLi2ELi2ELi0ELi2ELi2EEEEEEENS_9iMultiFabEN7Numeric12Interpolator12NodeBilinearIS5_EEEENSt9enable_ifIXaasrNS_10IsFabArrayIT_vEE5valuentsrSt7is_sameIT1_NS_14MFInterpolaterEE5valueEvE4typeEPSI_RKSF_iRSF_iiRKNS_7IntVectERKT0_RKNS_8GeometryESZ_iNS_5RunOnERKNS_6VectorINS_5BCRecESaIS12_EEE
FN:244,_ZN5amrex10InterpFaceINS_8FabArrayINS_7BaseFabIN5Model5Solid7Elastic10NeoHookeanEEEEENS_9iMultiFabEN7Numeric12Interpolator12NodeBilinearIS6_EEEENSt9enable_ifIXaasrNS_10IsFabArrayIT_vEE5valuentsrSt7is_sameIT1_NS_14MFInterpolaterEE5valueEvE4typeEPSJ_RKSG_iRSG_iiRKNS_7IntVectERKT0_RKNS_8GeometryES10_iNS_5RunOnERKNS_6VectorINS_5BCRecESaIS13_EEE
FN:304,_ZN5amrex12_GLOBAL__N_118make_mf_crse_patchINS_8MultiFabELi0EEET_RKNS_12FabArrayBase6FPinfoEi
FN:315,_ZN5amrex12_GLOBAL__N_118make_mf_crse_patchINS_8MultiFabELi0EEET_RKNS_12FabArrayBase6FPinfoEiNS_9IndexTypeE
FN:326,_ZN5amrex12_GLOBAL__N_118make_mf_fine_patchINS_8MultiFabELi0EEET_RKNS_12FabArrayBase6FPinfoEi
FN:348,_ZN5amrex12_GLOBAL__N_121make_mf_refined_patchINS_8MultiFabELi0EEET_RKNS_12FabArrayBase6FPinfoEiNS_9IndexTypeENS_7IntVectE
FN:370,_ZN5amrex12_GLOBAL__N_119mf_set_domain_bndryINS_8MultiFabELi0EEEvRT_RKNS_8GeometryE
FN:382,_ZN5amrex12_GLOBAL__N_118make_mf_crse_patchINS_8FabArrayINS_7BaseFabIN5Model5Solid7Elastic17PseudoLinearCubicEEEEELi0EEET_RKNS_12FabArrayBase6FPinfoEi
FN:382,_ZN5amrex12_GLOBAL__N_118make_mf_crse_patchINS_8FabArrayINS_7BaseFabIN5Model5Solid6Linear19IsotropicDegradableEEEEELi0EEET_RKNS_12FabArrayBase6FPinfoEi
FN:382,_ZN5amrex12_GLOBAL__N_118make_mf_crse_patchINS_8FabArrayINS_7BaseFabIN5Model5Solid6Affine2J2EEEEELi0EEET_RKNS_12FabArrayBase6FPinfoEi
FN:382,_ZN5amrex12_GLOBAL__N_118make_mf_crse_patchINS_8FabArrayINS_7BaseFabIN5Model5Solid7Elastic28PseudoLinearCubicPredeformedEEEEELi0EEET_RKNS_12FabArrayBase6FPinfoEi
FN:382,_ZN5amrex12_GLOBAL__N_118make_mf_crse_patchINS_8FabArrayINS_7BaseFabIN5Eigen6MatrixIdLi2ELi1ELi0ELi2ELi1EEEEEEELi0EEET_RKNS_12FabArrayBase6FPinfoEi
FN:382,_ZN5amrex12_GLOBAL__N_118make_mf_crse_patchINS_8FabArrayINS_7BaseFabIN5Model5Solid6Affine9HexagonalEEEEELi0EEET_RKNS_12FabArrayBase6FPinfoEi
FN:382,_ZN5amrex12_GLOBAL__N_118make_mf_crse_patchINS_8FabArrayINS_7BaseFabIN5Model5Solid6Linear5CubicEEEEELi0EEET_RKNS_12FabArrayBase6FPinfoEi
FN:382,_ZN5amrex12_GLOBAL__N_118make_mf_crse_patchINS_8FabArrayINS_7BaseFabIN5Model5Solid6Linear9IsotropicEEEEELi0EEET_RKNS_12FabArrayBase6FPinfoEi
FN:382,_ZN5amrex12_GLOBAL__N_118make_mf_crse_patchINS_8FabArrayINS_7BaseFabIN5Model5Solid6Linear9LaplacianEEEEELi0EEET_RKNS_12FabArrayBase6FPinfoEi
FN:382,_ZN5amrex12_GLOBAL__N_118make_mf_crse_patchINS_8FabArrayINS_7BaseFabIN5Model5Solid7Elastic10NeoHookeanEEEEELi0EEET_RKNS_12FabArrayBase6FPinfoEi
FN:382,_ZN5amrex12_GLOBAL__N_118make_mf_crse_patchINS_8FabArrayINS_7BaseFabIN5Eigen6MatrixIdLi2ELi2ELi0ELi2ELi2EEEEEEELi0EEET_RKNS_12FabArrayBase6FPinfoEi
FN:382,_ZN5amrex12_GLOBAL__N_118make_mf_crse_patchINS_8FabArrayINS_7BaseFabIN5Model5Solid6Affine9IsotropicEEEEELi0EEET_RKNS_12FabArrayBase6FPinfoEi
FN:382,_ZN5amrex12_GLOBAL__N_118make_mf_crse_patchINS_8FabArrayINS_7BaseFabIN5Model5Solid6Affine5CubicEEEEELi0EEET_RKNS_12FabArrayBase6FPinfoEi
FN:391,_ZN5amrex12_GLOBAL__N_118make_mf_crse_patchINS_8FabArrayINS_7BaseFabIN5Model5Solid6Linear9IsotropicEEEEELi0EEET_RKNS_12FabArrayBase6FPinfoEiNS_9IndexTypeE
FN:391,_ZN5amrex12_GLOBAL__N_118make_mf_crse_patchINS_8FabArrayINS_7BaseFabIN5Model5Solid7Elastic17PseudoLinearCubicEEEEELi0EEET_RKNS_12FabArrayBase6FPinfoEiNS_9IndexTypeE
FN:391,_ZN5amrex12_GLOBAL__N_118make_mf_crse_patchINS_8FabArrayINS_7BaseFabIN5Model5Solid7Elastic28PseudoLinearCubicPredeformedEEEEELi0EEET_RKNS_12FabArrayBase6FPinfoEiNS_9IndexTypeE
FN:391,_ZN5amrex12_GLOBAL__N_118make_mf_crse_patchINS_8FabArrayINS_7BaseFabIN5Model5Solid6Affine2J2EEEEELi0EEET_RKNS_12FabArrayBase6FPinfoEiNS_9IndexTypeE
FN:391,_ZN5amrex12_GLOBAL__N_118make_mf_crse_patchINS_8FabArrayINS_7BaseFabIN5Eigen6MatrixIdLi2ELi1ELi0ELi2ELi1EEEEEEELi0EEET_RKNS_12FabArrayBase6FPinfoEiNS_9IndexTypeE
FN:391,_ZN5amrex12_GLOBAL__N_118make_mf_crse_patchINS_8FabArrayINS_7BaseFabIN5Model5Solid6Affine9HexagonalEEEEELi0EEET_RKNS_12FabArrayBase6FPinfoEiNS_9IndexTypeE
FN:391,_ZN5amrex12_GLOBAL__N_118make_mf_crse_patchINS_8FabArrayINS_7BaseFabIN5Model5Solid6Affine9IsotropicEEEEELi0EEET_RKNS_12FabArrayBase6FPinfoEiNS_9IndexTypeE
FN:391,_ZN5amrex12_GLOBAL__N_118make_mf_crse_patchINS_8FabArrayINS_7BaseFabIN5Model5Solid6Linear5CubicEEEEELi0EEET_RKNS_12FabArrayBase6FPinfoEiNS_9IndexTypeE
FN:391,_ZN5amrex12_GLOBAL__N_118make_mf_crse_patchINS_8FabArrayINS_7BaseFabIN5Model5Solid7Elastic10NeoHookeanEEEEELi0EEET_RKNS_12FabArrayBase6FPinfoEiNS_9IndexTypeE
FN:391,_ZN5amrex12_GLOBAL__N_118make_mf_crse_patchINS_8FabArrayINS_7BaseFabIN5Model5Solid6Linear19IsotropicDegradableEEEEELi0EEET_RKNS_12FabArrayBase6FPinfoEiNS_9IndexTypeE
FN:391,_ZN5amrex12_GLOBAL__N_118make_mf_crse_patchINS_8FabArrayINS_7BaseFabIN5Model5Solid6Linear9LaplacianEEEEELi0EEET_RKNS_12FabArrayBase6FPinfoEiNS_9IndexTypeE
FN:391,_ZN5amrex12_GLOBAL__N_118make_mf_crse_patchINS_8FabArrayINS_7BaseFabIN5Model5Solid6Affine5CubicEEEEELi0EEET_RKNS_12FabArrayBase6FPinfoEiNS_9IndexTypeE
FN:391,_ZN5amrex12_GLOBAL__N_118make_mf_crse_patchINS_8FabArrayINS_7BaseFabIN5Eigen6MatrixIdLi2ELi2ELi0ELi2ELi2EEEEEEELi0EEET_RKNS_12FabArrayBase6FPinfoEiNS_9IndexTypeE
FN:400,_ZN5amrex12_GLOBAL__N_118make_mf_fine_patchINS_8FabArrayINS_7BaseFabIN5Model5Solid7Elastic10NeoHookeanEEEEELi0EEET_RKNS_12FabArrayBase6FPinfoEi
FN:400,_ZN5amrex12_GLOBAL__N_118make_mf_fine_patchINS_8FabArrayINS_7BaseFabIN5Model5Solid7Elastic17PseudoLinearCubicEEEEELi0EEET_RKNS_12FabArrayBase6FPinfoEi
FN:400,_ZN5amrex12_GLOBAL__N_118make_mf_fine_patchINS_8FabArrayINS_7BaseFabIN5Model5Solid6Affine5CubicEEEEELi0EEET_RKNS_12FabArrayBase6FPinfoEi
FN:400,_ZN5amrex12_GLOBAL__N_118make_mf_fine_patchINS_8FabArrayINS_7BaseFabIN5Eigen6MatrixIdLi2ELi2ELi0ELi2ELi2EEEEEEELi0EEET_RKNS_12FabArrayBase6FPinfoEi
FN:400,_ZN5amrex12_GLOBAL__N_118make_mf_fine_patchINS_8FabArrayINS_7BaseFabIN5Model5Solid6Linear9LaplacianEEEEELi0EEET_RKNS_12FabArrayBase6FPinfoEi
FN:400,_ZN5amrex12_GLOBAL__N_118make_mf_fine_patchINS_8FabArrayINS_7BaseFabIN5Model5Solid6Linear9IsotropicEEEEELi0EEET_RKNS_12FabArrayBase6FPinfoEi
FN:400,_ZN5amrex12_GLOBAL__N_118make_mf_fine_patchINS_8FabArrayINS_7BaseFabIN5Model5Solid6Linear5CubicEEEEELi0EEET_RKNS_12FabArrayBase6FPinfoEi
FN:400,_ZN5amrex12_GLOBAL__N_118make_mf_fine_patchINS_8FabArrayINS_7BaseFabIN5Model5Solid6Affine9HexagonalEEEEELi0EEET_RKNS_12FabArrayBase6FPinfoEi
FN:400,_ZN5amrex12_GLOBAL__N_118make_mf_fine_patchINS_8FabArrayINS_7BaseFabIN5Eigen6MatrixIdLi2ELi1ELi0ELi2ELi1EEEEEEELi0EEET_RKNS_12FabArrayBase6FPinfoEi
FN:400,_ZN5amrex12_GLOBAL__N_118make_mf_fine_patchINS_8FabArrayINS_7BaseFabIN5Model5Solid6Affine2J2EEEEELi0EEET_RKNS_12FabArrayBase6FPinfoEi
FN:400,_ZN5amrex12_GLOBAL__N_118make_mf_fine_patchINS_8FabArrayINS_7BaseFabIN5Model5Solid6Affine9IsotropicEEEEELi0EEET_RKNS_12FabArrayBase6FPinfoEi
FN:400,_ZN5amrex12_GLOBAL__N_118make_mf_fine_patchINS_8FabArrayINS_7BaseFabIN5Model5Solid7Elastic28PseudoLinearCubicPredeformedEEEEELi0EEET_RKNS_12FabArrayBase6FPinfoEi
FN:400,_ZN5amrex12_GLOBAL__N_118make_mf_fine_patchINS_8FabArrayINS_7BaseFabIN5Model5Solid6Linear19IsotropicDegradableEEEEELi0EEET_RKNS_12FabArrayBase6FPinfoEi
FN:418,_ZN5amrex12_GLOBAL__N_121make_mf_refined_patchINS_8FabArrayINS_7BaseFabIN5Model5Solid6Affine2J2EEEEELi0EEET_RKNS_12FabArrayBase6FPinfoEiNS_9IndexTypeENS_7IntVectE
FN:418,_ZN5amrex12_GLOBAL__N_121make_mf_refined_patchINS_8FabArrayINS_7BaseFabIN5Model5Solid7Elastic28PseudoLinearCubicPredeformedEEEEELi0EEET_RKNS_12FabArrayBase6FPinfoEiNS_9IndexTypeENS_7IntVectE
FN:418,_ZN5amrex12_GLOBAL__N_121make_mf_refined_patchINS_8FabArrayINS_7BaseFabIN5Model5Solid6Affine5CubicEEEEELi0EEET_RKNS_12FabArrayBase6FPinfoEiNS_9IndexTypeENS_7IntVectE
FN:418,_ZN5amrex12_GLOBAL__N_121make_mf_refined_patchINS_8FabArrayINS_7BaseFabIN5Model5Solid7Elastic17PseudoLinearCubicEEEEELi0EEET_RKNS_12FabArrayBase6FPinfoEiNS_9IndexTypeENS_7IntVectE
FN:418,_ZN5amrex12_GLOBAL__N_121make_mf_refined_patchINS_8FabArrayINS_7BaseFabIN5Eigen6MatrixIdLi2ELi1ELi0ELi2ELi1EEEEEEELi0EEET_RKNS_12FabArrayBase6FPinfoEiNS_9IndexTypeENS_7IntVectE
FN:418,_ZN5amrex12_GLOBAL__N_121make_mf_refined_patchINS_8FabArrayINS_7BaseFabIN5Model5Solid6Linear9IsotropicEEEEELi0EEET_RKNS_12FabArrayBase6FPinfoEiNS_9IndexTypeENS_7IntVectE
FN:418,_ZN5amrex12_GLOBAL__N_121make_mf_refined_patchINS_8FabArrayINS_7BaseFabIN5Eigen6MatrixIdLi2ELi2ELi0ELi2ELi2EEEEEEELi0EEET_RKNS_12FabArrayBase6FPinfoEiNS_9IndexTypeENS_7IntVectE
FN:418,_ZN5amrex12_GLOBAL__N_121make_mf_refined_patchINS_8FabArrayINS_7BaseFabIN5Model5Solid6Linear9LaplacianEEEEELi0EEET_RKNS_12FabArrayBase6FPinfoEiNS_9IndexTypeENS_7IntVectE
FN:418,_ZN5amrex12_GLOBAL__N_121make_mf_refined_patchINS_8FabArrayINS_7BaseFabIN5Model5Solid6Linear19IsotropicDegradableEEEEELi0EEET_RKNS_12FabArrayBase6FPinfoEiNS_9IndexTypeENS_7IntVectE
FN:418,_ZN5amrex12_GLOBAL__N_121make_mf_refined_patchINS_8FabArrayINS_7BaseFabIN5Model5Solid7Elastic10NeoHookeanEEEEELi0EEET_RKNS_12FabArrayBase6FPinfoEiNS_9IndexTypeENS_7IntVectE
FN:418,_ZN5amrex12_GLOBAL__N_121make_mf_refined_patchINS_8FabArrayINS_7BaseFabIN5Model5Solid6Affine9IsotropicEEEEELi0EEET_RKNS_12FabArrayBase6FPinfoEiNS_9IndexTypeENS_7IntVectE
FN:418,_ZN5amrex12_GLOBAL__N_121make_mf_refined_patchINS_8FabArrayINS_7BaseFabIN5Model5Solid6Affine9HexagonalEEEEELi0EEET_RKNS_12FabArrayBase6FPinfoEiNS_9IndexTypeENS_7IntVectE
FN:418,_ZN5amrex12_GLOBAL__N_121make_mf_refined_patchINS_8FabArrayINS_7BaseFabIN5Model5Solid6Linear5CubicEEEEELi0EEET_RKNS_12FabArrayBase6FPinfoEiNS_9IndexTypeENS_7IntVectE
FN:427,_ZN5amrex12_GLOBAL__N_117make_mf_crse_maskINS_9iMultiFabELi0EEET_RKNS_12FabArrayBase6FPinfoEiNS_9IndexTypeENS_7IntVectE
FN:436,_ZN5amrex12_GLOBAL__N_119mf_set_domain_bndryINS_8FabArrayINS_7BaseFabIN5Model5Solid6Linear9LaplacianEEEEELi0EEEvRT_RKNS_8GeometryE
FN:436,_ZN5amrex12_GLOBAL__N_119mf_set_domain_bndryINS_8FabArrayINS_7BaseFabIN5Model5Solid6Linear19IsotropicDegradableEEEEELi0EEEvRT_RKNS_8GeometryE
FN:436,_ZN5amrex12_GLOBAL__N_119mf_set_domain_bndryINS_8FabArrayINS_7BaseFabIN5Eigen6MatrixIdLi2ELi1ELi0ELi2ELi1EEEEEEELi0EEEvRT_RKNS_8GeometryE
FN:436,_ZN5amrex12_GLOBAL__N_119mf_set_domain_bndryINS_8FabArrayINS_7BaseFabIN5Model5Solid7Elastic10NeoHookeanEEEEELi0EEEvRT_RKNS_8GeometryE
FN:436,_ZN5amrex12_GLOBAL__N_119mf_set_domain_bndryINS_8FabArrayINS_7BaseFabIN5Model5Solid7Elastic17PseudoLinearCubicEEEEELi0EEEvRT_RKNS_8GeometryE
FN:436,_ZN5amrex12_GLOBAL__N_119mf_set_domain_bndryINS_8FabArrayINS_7BaseFabIN5Model5Solid6Affine2J2EEEEELi0EEEvRT_RKNS_8GeometryE
FN:436,_ZN5amrex12_GLOBAL__N_119mf_set_domain_bndryINS_8FabArrayINS_7BaseFabIN5Model5Solid6Affine9HexagonalEEEEELi0EEEvRT_RKNS_8GeometryE
FN:436,_ZN5amrex12_GLOBAL__N_119mf_set_domain_bndryINS_8FabArrayINS_7BaseFabIN5Eigen6MatrixIdLi2ELi2ELi0ELi2ELi2EEEEEEELi0EEEvRT_RKNS_8GeometryE
FN:436,_ZN5amrex12_GLOBAL__N_119mf_set_domain_bndryINS_8FabArrayINS_7BaseFabIN5Model5Solid6Affine9IsotropicEEEEELi0EEEvRT_RKNS_8GeometryE
FN:436,_ZN5amrex12_GLOBAL__N_119mf_set_domain_bndryINS_8FabArrayINS_7BaseFabIN5Model5Solid6Linear5CubicEEEEELi0EEEvRT_RKNS_8GeometryE
FN:436,_ZN5amrex12_GLOBAL__N_119mf_set_domain_bndryINS_8FabArrayINS_7BaseFabIN5Model5Solid7Elastic28PseudoLinearCubicPredeformedEEEEELi0EEEvRT_RKNS_8GeometryE
FN:436,_ZN5amrex12_GLOBAL__N_119mf_set_domain_bndryINS_8FabArrayINS_7BaseFabIN5Model5Solid6Affine5CubicEEEEELi0EEEvRT_RKNS_8GeometryE
FN:436,_ZN5amrex12_GLOBAL__N_119mf_set_domain_bndryINS_8FabArrayINS_7BaseFabIN5Model5Solid6Linear9IsotropicEEEEELi0EEEvRT_RKNS_8GeometryE
FN:443,_ZN5amrex12_GLOBAL__N_123FillPatchTwoLevels_doitINS_8FabArrayINS_7BaseFabIN5Eigen6MatrixIdLi2ELi1ELi0ELi2ELi1EEEEEEEN10Integrator5FieldIS6_E7EmptyBCEN7Numeric12Interpolator12NodeBilinearIS6_EENS_14NullInterpHookIS7_EESI_EENSt9enable_ifIXsrNS_10IsFabArrayIT_vEE5valueEvE4typeERSL_RKNS_7IntVectEdRKNS_6VectorIPSL_SaISU_EEERKNST_IdSaIdEEESY_S12_iiiRKNS_8GeometryES15_RT0_iS17_iSS_PT1_RKNST_INS_5BCRecESaIS1A_EEEiRKT2_RKT3_PKNS_3EB210IndexSpaceE
FN:443,_ZN5amrex12_GLOBAL__N_123FillPatchTwoLevels_doitINS_8FabArrayINS_7BaseFabIN5Eigen6MatrixIdLi2ELi2ELi0ELi2ELi2EEEEEEEN10Integrator5FieldIS6_E7EmptyBCEN7Numeric12Interpolator12NodeBilinearIS6_EENS_14NullInterpHookIS7_EESI_EENSt9enable_ifIXsrNS_10IsFabArrayIT_vEE5valueEvE4typeERSL_RKNS_7IntVectEdRKNS_6VectorIPSL_SaISU_EEERKNST_IdSaIdEEESY_S12_iiiRKNS_8GeometryES15_RT0_iS17_iSS_PT1_RKNST_INS_5BCRecESaIS1A_EEEiRKT2_RKT3_PKNS_3EB210IndexSpaceE
FN:443,_ZN5amrex12_GLOBAL__N_123FillPatchTwoLevels_doitINS_8FabArrayINS_7BaseFabIN5Model5Solid7Elastic28PseudoLinearCubicPredeformedEEEEEN10Integrator5FieldIS7_E7EmptyBCEN7Numeric12Interpolator12NodeBilinearIS7_EENS_14NullInterpHookIS8_EESJ_EENSt9enable_ifIXsrNS_10IsFabArrayIT_vEE5valueEvE4typeERSM_RKNS_7IntVectEdRKNS_6VectorIPSM_SaISV_EEERKNSU_IdSaIdEEESZ_S13_iiiRKNS_8GeometryES16_RT0_iS18_iST_PT1_RKNSU_INS_5BCRecESaIS1B_EEEiRKT2_RKT3_PKNS_3EB210IndexSpaceE
FN:443,_ZN5amrex12_GLOBAL__N_123FillPatchTwoLevels_doitINS_8FabArrayINS_7BaseFabIN5Model5Solid7Elastic10NeoHookeanEEEEEN10Integrator5FieldIS7_E7EmptyBCEN7Numeric12Interpolator12NodeBilinearIS7_EENS_14NullInterpHookIS8_EESJ_EENSt9enable_ifIXsrNS_10IsFabArrayIT_vEE5valueEvE4typeERSM_RKNS_7IntVectEdRKNS_6VectorIPSM_SaISV_EEERKNSU_IdSaIdEEESZ_S13_iiiRKNS_8GeometryES16_RT0_iS18_iST_PT1_RKNSU_INS_5BCRecESaIS1B_EEEiRKT2_RKT3_PKNS_3EB210IndexSpaceE
FN:443,_ZN5amrex12_GLOBAL__N_123FillPatchTwoLevels_doitINS_8FabArrayINS_7BaseFabIN5Model5Solid6Linear9IsotropicEEEEEN10Integrator5FieldIS7_E7EmptyBCEN7Numeric12Interpolator12NodeBilinearIS7_EENS_14NullInterpHookIS8_EESJ_EENSt9enable_ifIXsrNS_10IsFabArrayIT_vEE5valueEvE4typeERSM_RKNS_7IntVectEdRKNS_6VectorIPSM_SaISV_EEERKNSU_IdSaIdEEESZ_S13_iiiRKNS_8GeometryES16_RT0_iS18_iST_PT1_RKNSU_INS_5BCRecESaIS1B_EEEiRKT2_RKT3_PKNS_3EB210IndexSpaceE
FN:443,_ZN5amrex12_GLOBAL__N_123FillPatchTwoLevels_doitINS_8FabArrayINS_7BaseFabIN5Model5Solid6Affine9IsotropicEEEEEN10Integrator5FieldIS7_E7EmptyBCEN7Numeric12Interpolator12NodeBilinearIS7_EENS_14NullInterpHookIS8_EESJ_EENSt9enable_ifIXsrNS_10IsFabArrayIT_vEE5valueEvE4typeERSM_RKNS_7IntVectEdRKNS_6VectorIPSM_SaISV_EEERKNSU_IdSaIdEEESZ_S13_iiiRKNS_8GeometryES16_RT0_iS18_iST_PT1_RKNSU_INS_5BCRecESaIS1B_EEEiRKT2_RKT3_PKNS_3EB210IndexSpaceE
FN:443,_ZN5amrex12_GLOBAL__N_123FillPatchTwoLevels_doitINS_8MultiFabEN2BC2BCIdEENS_12InterpolaterENS_14NullInterpHookINS_9FArrayBoxEEES9_EENSt9enable_ifIXsrNS_10IsFabArrayIT_vEE5valueEvE4typeERSC_RKNS_7IntVectEdRKNS_6VectorIPSC_SaISL_EEERKNSK_IdSaIdEEESP_ST_iiiRKNS_8GeometryESW_RT0_iSY_iSJ_PT1_RKNSK_INS_5BCRecESaIS11_EEEiRKT2_RKT3_PKNS_3EB210IndexSpaceE
FN:443,_ZN5amrex12_GLOBAL__N_123FillPatchTwoLevels_doitINS_8FabArrayINS_7BaseFabIN5Model5Solid6Linear19IsotropicDegradableEEEEEN10Integrator5FieldIS7_E7EmptyBCEN7Numeric12Interpolator12NodeBilinearIS7_EENS_14NullInterpHookIS8_EESJ_EENSt9enable_ifIXsrNS_10IsFabArrayIT_vEE5valueEvE4typeERSM_RKNS_7IntVectEdRKNS_6VectorIPSM_SaISV_EEERKNSU_IdSaIdEEESZ_S13_iiiRKNS_8GeometryES16_RT0_iS18_iST_PT1_RKNSU_INS_5BCRecESaIS1B_EEEiRKT2_RKT3_PKNS_3EB210IndexSpaceE
FN:443,_ZN5amrex12_GLOBAL__N_123FillPatchTwoLevels_doitINS_8FabArrayINS_7BaseFabIN5Model5Solid6Affine2J2EEEEEN10Integrator5FieldIS7_E7EmptyBCEN7Numeric12Interpolator12NodeBilinearIS7_EENS_14NullInterpHookIS8_EESJ_EENSt9enable_ifIXsrNS_10IsFabArrayIT_vEE5valueEvE4typeERSM_RKNS_7IntVectEdRKNS_6VectorIPSM_SaISV_EEERKNSU_IdSaIdEEESZ_S13_iiiRKNS_8GeometryES16_RT0_iS18_iST_PT1_RKNSU_INS_5BCRecESaIS1B_EEEiRKT2_RKT3_PKNS_3EB210IndexSpaceE
FN:443,_ZN5amrex12_GLOBAL__N_123FillPatchTwoLevels_doitINS_8FabArrayINS_7BaseFabIN5Model5Solid6Linear5CubicEEEEEN10Integrator5FieldIS7_E7EmptyBCEN7Numeric12Interpolator12NodeBilinearIS7_EENS_14NullInterpHookIS8_EESJ_EENSt9enable_ifIXsrNS_10IsFabArrayIT_vEE5valueEvE4typeERSM_RKNS_7IntVectEdRKNS_6VectorIPSM_SaISV_EEERKNSU_IdSaIdEEESZ_S13_iiiRKNS_8GeometryES16_RT0_iS18_iST_PT1_RKNSU_INS_5BCRecESaIS1B_EEEiRKT2_RKT3_PKNS_3EB210IndexSpaceE
FN:443,_ZN5amrex12_GLOBAL__N_123FillPatchTwoLevels_doitINS_8FabArrayINS_7BaseFabIN5Model5Solid6Linear9LaplacianEEEEEN10Integrator5FieldIS7_E7EmptyBCEN7Numeric12Interpolator12NodeBilinearIS7_EENS_14NullInterpHookIS8_EESJ_EENSt9enable_ifIXsrNS_10IsFabArrayIT_vEE5valueEvE4typeERSM_RKNS_7IntVectEdRKNS_6VectorIPSM_SaISV_EEERKNSU_IdSaIdEEESZ_S13_iiiRKNS_8GeometryES16_RT0_iS18_iST_PT1_RKNSU_INS_5BCRecESaIS1B_EEEiRKT2_RKT3_PKNS_3EB210IndexSpaceE
FN:443,_ZN5amrex12_GLOBAL__N_123FillPatchTwoLevels_doitINS_8FabArrayINS_7BaseFabIN5Model5Solid7Elastic17PseudoLinearCubicEEEEEN10Integrator5FieldIS7_E7EmptyBCEN7Numeric12Interpolator12NodeBilinearIS7_EENS_14NullInterpHookIS8_EESJ_EENSt9enable_ifIXsrNS_10IsFabArrayIT_vEE5valueEvE4typeERSM_RKNS_7IntVectEdRKNS_6VectorIPSM_SaISV_EEERKNSU_IdSaIdEEESZ_S13_iiiRKNS_8GeometryES16_RT0_iS18_iST_PT1_RKNSU_INS_5BCRecESaIS1B_EEEiRKT2_RKT3_PKNS_3EB210IndexSpaceE
FN:443,_ZN5amrex12_GLOBAL__N_123FillPatchTwoLevels_doitINS_8FabArrayINS_7BaseFabIN5Model5Solid6Affine5CubicEEEEEN10Integrator5FieldIS7_E7EmptyBCEN7Numeric12Interpolator12NodeBilinearIS7_EENS_14NullInterpHookIS8_EESJ_EENSt9enable_ifIXsrNS_10IsFabArrayIT_vEE5valueEvE4typeERSM_RKNS_7IntVectEdRKNS_6VectorIPSM_SaISV_EEERKNSU_IdSaIdEEESZ_S13_iiiRKNS_8GeometryES16_RT0_iS18_iST_PT1_RKNSU_INS_5BCRecESaIS1B_EEEiRKT2_RKT3_PKNS_3EB210IndexSpaceE
FN:443,_ZN5amrex12_GLOBAL__N_123FillPatchTwoLevels_doitINS_8FabArrayINS_7BaseFabIN5Model5Solid6Affine9HexagonalEEEEEN10Integrator5FieldIS7_E7EmptyBCEN7Numeric12Interpolator12NodeBilinearIS7_EENS_14NullInterpHookIS8_EESJ_EENSt9enable_ifIXsrNS_10IsFabArrayIT_vEE5valueEvE4typeERSM_RKNS_7IntVectEdRKNS_6VectorIPSM_SaISV_EEERKNSU_IdSaIdEEESZ_S13_iiiRKNS_8GeometryES16_RT0_iS18_iST_PT1_RKNSU_INS_5BCRecESaIS1B_EEEiRKT2_RKT3_PKNS_3EB210IndexSpaceE
FN:772,_ZN5amrex18FillPatchTwoLevelsINS_8FabArrayINS_7BaseFabIN5Model5Solid6Linear9IsotropicEEEEEN10Integrator5FieldIS6_E7EmptyBCEN7Numeric12Interpolator12NodeBilinearIS6_EENS_14NullInterpHookIS7_EESI_EENSt9enable_ifIXsrNS_10IsFabArrayIT_vEE5valueEvE4typeERSL_dRKNS_6VectorIPSL_SaISR_EEERKNSQ_IdSaIdEEESV_SZ_iiiRKNS_8GeometryES12_RT0_iS14_iRKNS_7IntVectEPT1_RKNSQ_INS_5BCRecESaIS1A_EEEiRKT2_RKT3_
FN:772,_ZN5amrex18FillPatchTwoLevelsINS_8MultiFabEN2BC2BCIdEENS_12InterpolaterENS_14NullInterpHookINS_9FArrayBoxEEES8_EENSt9enable_ifIXsrNS_10IsFabArrayIT_vEE5valueEvE4typeERSB_dRKNS_6VectorIPSB_SaISH_EEERKNSG_IdSaIdEEESL_SP_iiiRKNS_8GeometryESS_RT0_iSU_iRKNS_7IntVectEPT1_RKNSG_INS_5BCRecESaIS10_EEEiRKT2_RKT3_
FN:772,_ZN5amrex18FillPatchTwoLevelsINS_8FabArrayINS_7BaseFabIN5Eigen6MatrixIdLi2ELi2ELi0ELi2ELi2EEEEEEEN10Integrator5FieldIS5_E7EmptyBCEN7Numeric12Interpolator12NodeBilinearIS5_EENS_14NullInterpHookIS6_EESH_EENSt9enable_ifIXsrNS_10IsFabArrayIT_vEE5valueEvE4typeERSK_dRKNS_6VectorIPSK_SaISQ_EEERKNSP_IdSaIdEEESU_SY_iiiRKNS_8GeometryES11_RT0_iS13_iRKNS_7IntVectEPT1_RKNSP_INS_5BCRecESaIS19_EEEiRKT2_RKT3_
FN:772,_ZN5amrex18FillPatchTwoLevelsINS_8FabArrayINS_7BaseFabIN5Model5Solid7Elastic28PseudoLinearCubicPredeformedEEEEEN10Integrator5FieldIS6_E7EmptyBCEN7Numeric12Interpolator12NodeBilinearIS6_EENS_14NullInterpHookIS7_EESI_EENSt9enable_ifIXsrNS_10IsFabArrayIT_vEE5valueEvE4typeERSL_dRKNS_6VectorIPSL_SaISR_EEERKNSQ_IdSaIdEEESV_SZ_iiiRKNS_8GeometryES12_RT0_iS14_iRKNS_7IntVectEPT1_RKNSQ_INS_5BCRecESaIS1A_EEEiRKT2_RKT3_
FN:772,_ZN5amrex18FillPatchTwoLevelsINS_8FabArrayINS_7BaseFabIN5Eigen6MatrixIdLi2ELi1ELi0ELi2ELi1EEEEEEEN10Integrator5FieldIS5_E7EmptyBCEN7Numeric12Interpolator12NodeBilinearIS5_EENS_14NullInterpHookIS6_EESH_EENSt9enable_ifIXsrNS_10IsFabArrayIT_vEE5valueEvE4typeERSK_dRKNS_6VectorIPSK_SaISQ_EEERKNSP_IdSaIdEEESU_SY_iiiRKNS_8GeometryES11_RT0_iS13_iRKNS_7IntVectEPT1_RKNSP_INS_5BCRecESaIS19_EEEiRKT2_RKT3_
FN:772,_ZN5amrex18FillPatchTwoLevelsINS_8FabArrayINS_7BaseFabIN5Model5Solid6Linear9LaplacianEEEEEN10Integrator5FieldIS6_E7EmptyBCEN7Numeric12Interpolator12NodeBilinearIS6_EENS_14NullInterpHookIS7_EESI_EENSt9enable_ifIXsrNS_10IsFabArrayIT_vEE5valueEvE4typeERSL_dRKNS_6VectorIPSL_SaISR_EEERKNSQ_IdSaIdEEESV_SZ_iiiRKNS_8GeometryES12_RT0_iS14_iRKNS_7IntVectEPT1_RKNSQ_INS_5BCRecESaIS1A_EEEiRKT2_RKT3_
FN:772,_ZN5amrex18FillPatchTwoLevelsINS_8FabArrayINS_7BaseFabIN5Model5Solid6Affine9IsotropicEEEEEN10Integrator5FieldIS6_E7EmptyBCEN7Numeric12Interpolator12NodeBilinearIS6_EENS_14NullInterpHookIS7_EESI_EENSt9enable_ifIXsrNS_10IsFabArrayIT_vEE5valueEvE4typeERSL_dRKNS_6VectorIPSL_SaISR_EEERKNSQ_IdSaIdEEESV_SZ_iiiRKNS_8GeometryES12_RT0_iS14_iRKNS_7IntVectEPT1_RKNSQ_INS_5BCRecESaIS1A_EEEiRKT2_RKT3_
FN:772,_ZN5amrex18FillPatchTwoLevelsINS_8FabArrayINS_7BaseFabIN5Model5Solid6Linear5CubicEEEEEN10Integrator5FieldIS6_E7EmptyBCEN7Numeric12Interpolator12NodeBilinearIS6_EENS_14NullInterpHookIS7_EESI_EENSt9enable_ifIXsrNS_10IsFabArrayIT_vEE5valueEvE4typeERSL_dRKNS_6VectorIPSL_SaISR_EEERKNSQ_IdSaIdEEESV_SZ_iiiRKNS_8GeometryES12_RT0_iS14_iRKNS_7IntVectEPT1_RKNSQ_INS_5BCRecESaIS1A_EEEiRKT2_RKT3_
FN:772,_ZN5amrex18FillPatchTwoLevelsINS_8FabArrayINS_7BaseFabIN5Model5Solid6Affine5CubicEEEEEN10Integrator5FieldIS6_E7EmptyBCEN7Numeric12Interpolator12NodeBilinearIS6_EENS_14NullInterpHookIS7_EESI_EENSt9enable_ifIXsrNS_10IsFabArrayIT_vEE5valueEvE4typeERSL_dRKNS_6VectorIPSL_SaISR_EEERKNSQ_IdSaIdEEESV_SZ_iiiRKNS_8GeometryES12_RT0_iS14_iRKNS_7IntVectEPT1_RKNSQ_INS_5BCRecESaIS1A_EEEiRKT2_RKT3_
FN:772,_ZN5amrex18FillPatchTwoLevelsINS_8FabArrayINS_7BaseFabIN5Model5Solid7Elastic10NeoHookeanEEEEEN10Integrator5FieldIS6_E7EmptyBCEN7Numeric12Interpolator12NodeBilinearIS6_EENS_14NullInterpHookIS7_EESI_EENSt9enable_ifIXsrNS_10IsFabArrayIT_vEE5valueEvE4typeERSL_dRKNS_6VectorIPSL_SaISR_EEERKNSQ_IdSaIdEEESV_SZ_iiiRKNS_8GeometryES12_RT0_iS14_iRKNS_7IntVectEPT1_RKNSQ_INS_5BCRecESaIS1A_EEEiRKT2_RKT3_
FN:772,_ZN5amrex18FillPatchTwoLevelsINS_8FabArrayINS_7BaseFabIN5Model5Solid6Linear19IsotropicDegradableEEEEEN10Integrator5FieldIS6_E7EmptyBCEN7Numeric12Interpolator12NodeBilinearIS6_EENS_14NullInterpHookIS7_EESI_EENSt9enable_ifIXsrNS_10IsFabArrayIT_vEE5valueEvE4typeERSL_dRKNS_6VectorIPSL_SaISR_EEERKNSQ_IdSaIdEEESV_SZ_iiiRKNS_8GeometryES12_RT0_iS14_iRKNS_7IntVectEPT1_RKNSQ_INS_5BCRecESaIS1A_EEEiRKT2_RKT3_
FN:772,_ZN5amrex18FillPatchTwoLevelsINS_8FabArrayINS_7BaseFabIN5Model5Solid6Affine2J2EEEEEN10Integrator5FieldIS6_E7EmptyBCEN7Numeric12Interpolator12NodeBilinearIS6_EENS_14NullInterpHookIS7_EESI_EENSt9enable_ifIXsrNS_10IsFabArrayIT_vEE5valueEvE4typeERSL_dRKNS_6VectorIPSL_SaISR_EEERKNSQ_IdSaIdEEESV_SZ_iiiRKNS_8GeometryES12_RT0_iS14_iRKNS_7IntVectEPT1_RKNSQ_INS_5BCRecESaIS1A_EEEiRKT2_RKT3_
FN:772,_ZN5amrex18FillPatchTwoLevelsINS_8FabArrayINS_7BaseFabIN5Model5Solid7Elastic17PseudoLinearCubicEEEEEN10Integrator5FieldIS6_E7EmptyBCEN7Numeric12Interpolator12NodeBilinearIS6_EENS_14NullInterpHookIS7_EESI_EENSt9enable_ifIXsrNS_10IsFabArrayIT_vEE5valueEvE4typeERSL_dRKNS_6VectorIPSL_SaISR_EEERKNSQ_IdSaIdEEESV_SZ_iiiRKNS_8GeometryES12_RT0_iS14_iRKNS_7IntVectEPT1_RKNSQ_INS_5BCRecESaIS1A_EEEiRKT2_RKT3_
FN:772,_ZN5amrex18FillPatchTwoLevelsINS_8FabArrayINS_7BaseFabIN5Model5Solid6Affine9HexagonalEEEEEN10Integrator5FieldIS6_E7EmptyBCEN7Numeric12Interpolator12NodeBilinearIS6_EENS_14NullInterpHookIS7_EESI_EENSt9enable_ifIXsrNS_10IsFabArrayIT_vEE5valueEvE4typeERSL_dRKNS_6VectorIPSL_SaISR_EEERKNSQ_IdSaIdEEESV_SZ_iiiRKNS_8GeometryES12_RT0_iS14_iRKNS_7IntVectEPT1_RKNSQ_INS_5BCRecESaIS1A_EEEiRKT2_RKT3_
FN:934,_ZN5amrex21InterpFromCoarseLevelINS_8FabArrayINS_7BaseFabIN5Model5Solid6Affine9HexagonalEEEEEN10Integrator5FieldIS6_E7EmptyBCEN7Numeric12Interpolator12NodeBilinearIS6_EENS_14NullInterpHookIS7_EESI_EENSt9enable_ifIXsrNS_10IsFabArrayIT_vEE5valueEvE4typeERSL_dRKSL_iiiRKNS_8GeometryESU_RT0_iSW_iRKNS_7IntVectEPT1_RKNS_6VectorINS_5BCRecESaIS13_EEEiRKT2_RKT3_
FN:934,_ZN5amrex21InterpFromCoarseLevelINS_8MultiFabEN2BC2BCIdEENS_12InterpolaterENS_14NullInterpHookINS_9FArrayBoxEEES8_EENSt9enable_ifIXsrNS_10IsFabArrayIT_vEE5valueEvE4typeERSB_dRKSB_iiiRKNS_8GeometryESK_RT0_iSM_iRKNS_7IntVectEPT1_RKNS_6VectorINS_5BCRecESaIST_EEEiRKT2_RKT3_
FN:934,_ZN5amrex21InterpFromCoarseLevelINS_8FabArrayINS_7BaseFabIN5Model5Solid6Linear19IsotropicDegradableEEEEEN10Integrator5FieldIS6_E7EmptyBCEN7Numeric12Interpolator12NodeBilinearIS6_EENS_14NullInterpHookIS7_EESI_EENSt9enable_ifIXsrNS_10IsFabArrayIT_vEE5valueEvE4typeERSL_dRKSL_iiiRKNS_8GeometryESU_RT0_iSW_iRKNS_7IntVectEPT1_RKNS_6VectorINS_5BCRecESaIS13_EEEiRKT2_RKT3_
FN:934,_ZN5amrex21InterpFromCoarseLevelINS_8FabArrayINS_7BaseFabIN5Model5Solid7Elastic10NeoHookeanEEEEEN10Integrator5FieldIS6_E7EmptyBCEN7Numeric12Interpolator12NodeBilinearIS6_EENS_14NullInterpHookIS7_EESI_EENSt9enable_ifIXsrNS_10IsFabArrayIT_vEE5valueEvE4typeERSL_dRKSL_iiiRKNS_8GeometryESU_RT0_iSW_iRKNS_7IntVectEPT1_RKNS_6VectorINS_5BCRecESaIS13_EEEiRKT2_RKT3_
FN:934,_ZN5amrex21InterpFromCoarseLevelINS_8FabArrayINS_7BaseFabIN5Eigen6MatrixIdLi2ELi1ELi0ELi2ELi1EEEEEEEN10Integrator5FieldIS5_E7EmptyBCEN7Numeric12Interpolator12NodeBilinearIS5_EENS_14NullInterpHookIS6_EESH_EENSt9enable_ifIXsrNS_10IsFabArrayIT_vEE5valueEvE4typeERSK_dRKSK_iiiRKNS_8GeometryEST_RT0_iSV_iRKNS_7IntVectEPT1_RKNS_6VectorINS_5BCRecESaIS12_EEEiRKT2_RKT3_
FN:934,_ZN5amrex21InterpFromCoarseLevelINS_8FabArrayINS_7BaseFabIN5Model5Solid6Linear5CubicEEEEEN10Integrator5FieldIS6_E7EmptyBCEN7Numeric12Interpolator12NodeBilinearIS6_EENS_14NullInterpHookIS7_EESI_EENSt9enable_ifIXsrNS_10IsFabArrayIT_vEE5valueEvE4typeERSL_dRKSL_iiiRKNS_8GeometryESU_RT0_iSW_iRKNS_7IntVectEPT1_RKNS_6VectorINS_5BCRecESaIS13_EEEiRKT2_RKT3_
FN:934,_ZN5amrex21InterpFromCoarseLevelINS_8FabArrayINS_7BaseFabIN5Model5Solid7Elastic28PseudoLinearCubicPredeformedEEEEEN10Integrator5FieldIS6_E7EmptyBCEN7Numeric12Interpolator12NodeBilinearIS6_EENS_14NullInterpHookIS7_EESI_EENSt9enable_ifIXsrNS_10IsFabArrayIT_vEE5valueEvE4typeERSL_dRKSL_iiiRKNS_8GeometryESU_RT0_iSW_iRKNS_7IntVectEPT1_RKNS_6VectorINS_5BCRecESaIS13_EEEiRKT2_RKT3_
FN:934,_ZN5amrex21InterpFromCoarseLevelINS_8FabArrayINS_7BaseFabIN5Eigen6MatrixIdLi2ELi2ELi0ELi2ELi2EEEEEEEN10Integrator5FieldIS5_E7EmptyBCEN7Numeric12Interpolator12NodeBilinearIS5_EENS_14NullInterpHookIS6_EESH_EENSt9enable_ifIXsrNS_10IsFabArrayIT_vEE5valueEvE4typeERSK_dRKSK_iiiRKNS_8GeometryEST_RT0_iSV_iRKNS_7IntVectEPT1_RKNS_6VectorINS_5BCRecESaIS12_EEEiRKT2_RKT3_
FN:934,_ZN5amrex21InterpFromCoarseLevelINS_8FabArrayINS_7BaseFabIN5Model5Solid6Affine2J2EEEEEN10Integrator5FieldIS6_E7EmptyBCEN7Numeric12Interpolator12NodeBilinearIS6_EENS_14NullInterpHookIS7_EESI_EENSt9enable_ifIXsrNS_10IsFabArrayIT_vEE5valueEvE4typeERSL_dRKSL_iiiRKNS_8GeometryESU_RT0_iSW_iRKNS_7IntVectEPT1_RKNS_6VectorINS_5BCRecESaIS13_EEEiRKT2_RKT3_
FN:934,_ZN5amrex21InterpFromCoarseLevelINS_8FabArrayINS_7BaseFabIN5Model5Solid6Affine5CubicEEEEEN10Integrator5FieldIS6_E7EmptyBCEN7Numeric12Interpolator12NodeBilinearIS6_EENS_14NullInterpHookIS7_EESI_EENSt9enable_ifIXsrNS_10IsFabArrayIT_vEE5valueEvE4typeERSL_dRKSL_iiiRKNS_8GeometryESU_RT0_iSW_iRKNS_7IntVectEPT1_RKNS_6VectorINS_5BCRecESaIS13_EEEiRKT2_RKT3_
FN:934,_ZN5amrex21InterpFromCoarseLevelINS_8FabArrayINS_7BaseFabIN5Model5Solid7Elastic17PseudoLinearCubicEEEEEN10Integrator5FieldIS6_E7EmptyBCEN7Numeric12Interpolator12NodeBilinearIS6_EENS_14NullInterpHookIS7_EESI_EENSt9enable_ifIXsrNS_10IsFabArrayIT_vEE5valueEvE4typeERSL_dRKSL_iiiRKNS_8GeometryESU_RT0_iSW_iRKNS_7IntVectEPT1_RKNS_6VectorINS_5BCRecESaIS13_EEEiRKT2_RKT3_
FN:934,_ZN5amrex21InterpFromCoarseLevelINS_8FabArrayINS_7BaseFabIN5Model5Solid6Linear9LaplacianEEEEEN10Integrator5FieldIS6_E7EmptyBCEN7Numeric12Interpolator12NodeBilinearIS6_EENS_14NullInterpHookIS7_EESI_EENSt9enable_ifIXsrNS_10IsFabArrayIT_vEE5valueEvE4typeERSL_dRKSL_iiiRKNS_8GeometryESU_RT0_iSW_iRKNS_7IntVectEPT1_RKNS_6VectorINS_5BCRecESaIS13_EEEiRKT2_RKT3_
FN:934,_ZN5amrex21InterpFromCoarseLevelINS_8FabArrayINS_7BaseFabIN5Model5Solid6Linear9IsotropicEEEEEN10Integrator5FieldIS6_E7EmptyBCEN7Numeric12Interpolator12NodeBilinearIS6_EENS_14NullInterpHookIS7_EESI_EENSt9enable_ifIXsrNS_10IsFabArrayIT_vEE5valueEvE4typeERSL_dRKSL_iiiRKNS_8GeometryESU_RT0_iSW_iRKNS_7IntVectEPT1_RKNS_6VectorINS_5BCRecESaIS13_EEEiRKT2_RKT3_
FN:934,_ZN5amrex21InterpFromCoarseLevelINS_8FabArrayINS_7BaseFabIN5Model5Solid6Affine9IsotropicEEEEEN10Integrator5FieldIS6_E7EmptyBCEN7Numeric12Interpolator12NodeBilinearIS6_EENS_14NullInterpHookIS7_EESI_EENSt9enable_ifIXsrNS_10IsFabArrayIT_vEE5valueEvE4typeERSL_dRKSL_iiiRKNS_8GeometryESU_RT0_iSW_iRKNS_7IntVectEPT1_RKNS_6VectorINS_5BCRecESaIS13_EEEiRKT2_RKT3_
FN:970,_ZN5amrex21InterpFromCoarseLevelINS_8FabArrayINS_7BaseFabIN5Model5Solid6Linear5CubicEEEEEN10Integrator5FieldIS6_E7EmptyBCEN7Numeric12Interpolator12NodeBilinearIS6_EENS_14NullInterpHookIS7_EESI_EENSt9enable_ifIXsrNS_10IsFabArrayIT_vEE5valueEvE4typeERSL_RKNS_7IntVectEdRKSL_iiiRKNS_8GeometryESX_RT0_iSZ_iSS_PT1_RKNS_6VectorINS_5BCRecESaIS13_EEEiRKT2_RKT3_
FN:970,_ZN5amrex21InterpFromCoarseLevelINS_8FabArrayINS_7BaseFabIN5Model5Solid7Elastic28PseudoLinearCubicPredeformedEEEEEN10Integrator5FieldIS6_E7EmptyBCEN7Numeric12Interpolator12NodeBilinearIS6_EENS_14NullInterpHookIS7_EESI_EENSt9enable_ifIXsrNS_10IsFabArrayIT_vEE5valueEvE4typeERSL_RKNS_7IntVectEdRKSL_iiiRKNS_8GeometryESX_RT0_iSZ_iSS_PT1_RKNS_6VectorINS_5BCRecESaIS13_EEEiRKT2_RKT3_
FN:970,_ZN5amrex21InterpFromCoarseLevelINS_8FabArrayINS_7BaseFabIN5Model5Solid6Affine2J2EEEEEN10Integrator5FieldIS6_E7EmptyBCEN7Numeric12Interpolator12NodeBilinearIS6_EENS_14NullInterpHookIS7_EESI_EENSt9enable_ifIXsrNS_10IsFabArrayIT_vEE5valueEvE4typeERSL_RKNS_7IntVectEdRKSL_iiiRKNS_8GeometryESX_RT0_iSZ_iSS_PT1_RKNS_6VectorINS_5BCRecESaIS13_EEEiRKT2_RKT3_
FN:970,_ZN5amrex21InterpFromCoarseLevelINS_8FabArrayINS_7BaseFabIN5Eigen6MatrixIdLi2ELi1ELi0ELi2ELi1EEEEEEEN10Integrator5FieldIS5_E7EmptyBCEN7Numeric12Interpolator12NodeBilinearIS5_EENS_14NullInterpHookIS6_EESH_EENSt9enable_ifIXsrNS_10IsFabArrayIT_vEE5valueEvE4typeERSK_RKNS_7IntVectEdRKSK_iiiRKNS_8GeometryESW_RT0_iSY_iSR_PT1_RKNS_6VectorINS_5BCRecESaIS12_EEEiRKT2_RKT3_
FN:970,_ZN5amrex21InterpFromCoarseLevelINS_8FabArrayINS_7BaseFabIN5Eigen6MatrixIdLi2ELi2ELi0ELi2ELi2EEEEEEEN10Integrator5FieldIS5_E7EmptyBCEN7Numeric12Interpolator12NodeBilinearIS5_EENS_14NullInterpHookIS6_EESH_EENSt9enable_ifIXsrNS_10IsFabArrayIT_vEE5valueEvE4typeERSK_RKNS_7IntVectEdRKSK_iiiRKNS_8GeometryESW_RT0_iSY_iSR_PT1_RKNS_6VectorINS_5BCRecESaIS12_EEEiRKT2_RKT3_
FN:970,_ZN5amrex21InterpFromCoarseLevelINS_8FabArrayINS_7BaseFabIN5Model5Solid6Affine9IsotropicEEEEEN10Integrator5FieldIS6_E7EmptyBCEN7Numeric12Interpolator12NodeBilinearIS6_EENS_14NullInterpHookIS7_EESI_EENSt9enable_ifIXsrNS_10IsFabArrayIT_vEE5valueEvE4typeERSL_RKNS_7IntVectEdRKSL_iiiRKNS_8GeometryESX_RT0_iSZ_iSS_PT1_RKNS_6VectorINS_5BCRecESaIS13_EEEiRKT2_RKT3_
FN:970,_ZN5amrex21InterpFromCoarseLevelINS_8FabArrayINS_7BaseFabIN5Model5Solid7Elastic17PseudoLinearCubicEEEEEN10Integrator5FieldIS6_E7EmptyBCEN7Numeric12Interpolator12NodeBilinearIS6_EENS_14NullInterpHookIS7_EESI_EENSt9enable_ifIXsrNS_10IsFabArrayIT_vEE5valueEvE4typeERSL_RKNS_7IntVectEdRKSL_iiiRKNS_8GeometryESX_RT0_iSZ_iSS_PT1_RKNS_6VectorINS_5BCRecESaIS13_EEEiRKT2_RKT3_
FN:970,_ZN5amrex21InterpFromCoarseLevelINS_8FabArrayINS_7BaseFabIN5Model5Solid6Linear19IsotropicDegradableEEEEEN10Integrator5FieldIS6_E7EmptyBCEN7Numeric12Interpolator12NodeBilinearIS6_EENS_14NullInterpHookIS7_EESI_EENSt9enable_ifIXsrNS_10IsFabArrayIT_vEE5valueEvE4typeERSL_RKNS_7IntVectEdRKSL_iiiRKNS_8GeometryESX_RT0_iSZ_iSS_PT1_RKNS_6VectorINS_5BCRecESaIS13_EEEiRKT2_RKT3_
FN:970,_ZN5amrex21InterpFromCoarseLevelINS_8FabArrayINS_7BaseFabIN5Model5Solid6Affine5CubicEEEEEN10Integrator5FieldIS6_E7EmptyBCEN7Numeric12Interpolator12NodeBilinearIS6_EENS_14NullInterpHookIS7_EESI_EENSt9enable_ifIXsrNS_10IsFabArrayIT_vEE5valueEvE4typeERSL_RKNS_7IntVectEdRKSL_iiiRKNS_8GeometryESX_RT0_iSZ_iSS_PT1_RKNS_6VectorINS_5BCRecESaIS13_EEEiRKT2_RKT3_
FN:970,_ZN5amrex21InterpFromCoarseLevelINS_8FabArrayINS_7BaseFabIN5Model5Solid7Elastic10NeoHookeanEEEEEN10Integrator5FieldIS6_E7EmptyBCEN7Numeric12Interpolator12NodeBilinearIS6_EENS_14NullInterpHookIS7_EESI_EENSt9enable_ifIXsrNS_10IsFabArrayIT_vEE5valueEvE4typeERSL_RKNS_7IntVectEdRKSL_iiiRKNS_8GeometryESX_RT0_iSZ_iSS_PT1_RKNS_6VectorINS_5BCRecESaIS13_EEEiRKT2_RKT3_
FN:970,_ZN5amrex21InterpFromCoarseLevelINS_8FabArrayINS_7BaseFabIN5Model5Solid6Linear9IsotropicEEEEEN10Integrator5FieldIS6_E7EmptyBCEN7Numeric12Interpolator12NodeBilinearIS6_EENS_14NullInterpHookIS7_EESI_EENSt9enable_ifIXsrNS_10IsFabArrayIT_vEE5valueEvE4typeERSL_RKNS_7IntVectEdRKSL_iiiRKNS_8GeometryESX_RT0_iSZ_iSS_PT1_RKNS_6VectorINS_5BCRecESaIS13_EEEiRKT2_RKT3_
FN:970,_ZN5amrex21InterpFromCoarseLevelINS_8FabArrayINS_7BaseFabIN5Model5Solid6Affine9HexagonalEEEEEN10Integrator5FieldIS6_E7EmptyBCEN7Numeric12Interpolator12NodeBilinearIS6_EENS_14NullInterpHookIS7_EESI_EENSt9enable_ifIXsrNS_10IsFabArrayIT_vEE5valueEvE4typeERSL_RKNS_7IntVectEdRKSL_iiiRKNS_8GeometryESX_RT0_iSZ_iSS_PT1_RKNS_6VectorINS_5BCRecESaIS13_EEEiRKT2_RKT3_
FN:970,_ZN5amrex21InterpFromCoarseLevelINS_8MultiFabEN2BC2BCIdEENS_12InterpolaterENS_14NullInterpHookINS_9FArrayBoxEEES8_EENSt9enable_ifIXsrNS_10IsFabArrayIT_vEE5valueEvE4typeERSB_RKNS_7IntVectEdRKSB_iiiRKNS_8GeometryESN_RT0_iSP_iSI_PT1_RKNS_6VectorINS_5BCRecESaIST_EEEiRKT2_RKT3_
FN:970,_ZN5amrex21InterpFromCoarseLevelINS_8FabArrayINS_7BaseFabIN5Model5Solid6Linear9LaplacianEEEEEN10Integrator5FieldIS6_E7EmptyBCEN7Numeric12Interpolator12NodeBilinearIS6_EENS_14NullInterpHookIS7_EESI_EENSt9enable_ifIXsrNS_10IsFabArrayIT_vEE5valueEvE4typeERSL_RKNS_7IntVectEdRKSL_iiiRKNS_8GeometryESX_RT0_iSZ_iSS_PT1_RKNS_6VectorINS_5BCRecESaIS13_EEEiRKT2_RKT3_
FNDA:46,_ZN5amrex12_GLOBAL__N_118make_mf_crse_patchINS_8FabArrayINS_7BaseFabIN5Eigen6MatrixIdLi2ELi2ELi0ELi2ELi2EEEEEEELi0EEET_RKNS_12FabArrayBase6FPinfoEi
FNDA:12257,_ZN5amrex15FillPatchInterpINS_8MultiFabENS_12InterpolaterEEENSt9enable_ifIXaasrNS_10IsFabArrayIT_vEE5valuentsrSt7is_sameIT0_NS_14MFInterpolaterEE5valueEvE4typeERS5_iRKS5_iiRKNS_7IntVectERKNS_8GeometryESL_RKNS_3BoxESI_PS8_RKNS_6VectorINS_5BCRecESaISR_EEEi
FNDA:0,_ZN5amrex12_GLOBAL__N_123FillPatchTwoLevels_doitINS_8FabArrayINS_7BaseFabIN5Model5Solid6Linear9LaplacianEEEEEN10Integrator5FieldIS7_E7EmptyBCEN7Numeric12Interpolator12NodeBilinearIS7_EENS_14NullInterpHookIS8_EESJ_EENSt9enable_ifIXsrNS_10IsFabArrayIT_vEE5valueEvE4typeERSM_RKNS_7IntVectEdRKNS_6VectorIPSM_SaISV_EEERKNSU_IdSaIdEEESZ_S13_iiiRKNS_8GeometryES16_RT0_iS18_iST_PT1_RKNSU_INS_5BCRecESaIS1B_EEEiRKT2_RKT3_PKNS_3EB210IndexSpaceE
FNDA:0,_ZN5amrex12_GLOBAL__N_123FillPatchTwoLevels_doitINS_8FabArrayINS_7BaseFabIN5Model5Solid6Linear5CubicEEEEEN10Integrator5FieldIS7_E7EmptyBCEN7Numeric12Interpolator12NodeBilinearIS7_EENS_14NullInterpHookIS8_EESJ_EENSt9enable_ifIXsrNS_10IsFabArrayIT_vEE5valueEvE4typeERSM_RKNS_7IntVectEdRKNS_6VectorIPSM_SaISV_EEERKNSU_IdSaIdEEESZ_S13_iiiRKNS_8GeometryES16_RT0_iS18_iST_PT1_RKNSU_INS_5BCRecESaIS1B_EEEiRKT2_RKT3_PKNS_3EB210IndexSpaceE
FNDA:0,_ZN5amrex15FillPatchInterpINS_8FabArrayINS_7BaseFabIN5Model5Solid6Linear5CubicEEEEEN7Numeric12Interpolator12NodeBilinearIS6_EEEENSt9enable_ifIXaasrNS_10IsFabArrayIT_vEE5valuentsrSt7is_sameIT0_NS_14MFInterpolaterEE5valueEvE4typeERSF_iRKSF_iiRKNS_7IntVectERKNS_8GeometryESV_RKNS_3BoxESS_PSI_RKNS_6VectorINS_5BCRecESaIS11_EEEi
FNDA:0,_ZN5amrex12_GLOBAL__N_118make_mf_fine_patchINS_8FabArrayINS_7BaseFabIN5Model5Solid6Affine2J2EEEEELi0EEET_RKNS_12FabArrayBase6FPinfoEi
FNDA:60,_ZN5amrex12_GLOBAL__N_119mf_set_domain_bndryINS_8FabArrayINS_7BaseFabIN5Eigen6MatrixIdLi2ELi1ELi0ELi2ELi1EEEEEEELi0EEEvRT_RKNS_8GeometryE
FNDA:48,_ZN5amrex12_GLOBAL__N_118make_mf_fine_patchINS_8FabArrayINS_7BaseFabIN5Eigen6MatrixIdLi2ELi1ELi0ELi2ELi1EEEEEEELi0EEET_RKNS_12FabArrayBase6FPinfoEi
FNDA:0,_ZN5amrex20FillPatchSingleLevelINS_8FabArrayINS_7BaseFabIN5Eigen6MatrixIdLi2ELi1ELi0ELi2ELi1EEEEEEEN2BC2BCIS5_EEEENSt9enable_ifIXsrNS_10IsFabArrayIT_vEE5valueEvE4typeERSD_RKNS_7IntVectEdRKNS_6VectorIPSD_SaISM_EEERKNSL_IdSaIdEEEiiiRKNS_8GeometryERT0_i
FNDA:0,_ZN5amrex12_GLOBAL__N_118make_mf_crse_patchINS_8FabArrayINS_7BaseFabIN5Eigen6MatrixIdLi2ELi1ELi0ELi2ELi1EEEEEEELi0EEET_RKNS_12FabArrayBase6FPinfoEiNS_9IndexTypeE
FNDA:0,_ZN5amrex20FillPatchSingleLevelINS_8FabArrayINS_7BaseFabIN5Model5Solid6Linear5CubicEEEEEN2BC2BCIS6_EEEENSt9enable_ifIXsrNS_10IsFabArrayIT_vEE5valueEvE4typeERSE_RKNS_7IntVectEdRKNS_6VectorIPSE_SaISN_EEERKNSM_IdSaIdEEEiiiRKNS_8GeometryERT0_i
FNDA:0,_ZN5amrex20FillPatchSingleLevelINS_8FabArrayINS_7BaseFabIN5Model5Solid7Elastic10NeoHookeanEEEEEN2BC2BCIS6_EEEENSt9enable_ifIXsrNS_10IsFabArrayIT_vEE5valueEvE4typeERSE_dRKNS_6VectorIPSE_SaISK_EEERKNSJ_IdSaIdEEEiiiRKNS_8GeometryERT0_i
FNDA:0,_ZN5amrex20FillPatchSingleLevelINS_8FabArrayINS_7BaseFabIN5Model5Solid6Affine9HexagonalEEEEEN2BC2BCIS6_EEEENSt9enable_ifIXsrNS_10IsFabArrayIT_vEE5valueEvE4typeERSE_RKNS_7IntVectEdRKNS_6VectorIPSE_SaISN_EEERKNSM_IdSaIdEEEiiiRKNS_8GeometryERT0_i
FNDA:0,_ZN5amrex6detail16call_interp_hookINS_14NullInterpHookINS_7BaseFabIN5Model5Solid6Linear5CubicEEEEENS_8FabArrayIS8_EEEEDTclfp_ixfp0_Li0EcvNS_3BoxE_Efp1_fp2_EERKT_RT0_ii
FNDA:0,_ZN5amrex15FillPatchInterpINS_8FabArrayINS_7BaseFabIN5Model5Solid6Linear19IsotropicDegradableEEEEEN7Numeric12Interpolator12NodeBilinearIS6_EEEENSt9enable_ifIXaasrNS_10IsFabArrayIT_vEE5valuentsrSt7is_sameIT0_NS_14MFInterpolaterEE5valueEvE4typeERSF_iRKSF_iiRKNS_7IntVectERKNS_8GeometryESV_RKNS_3BoxESS_PSI_RKNS_6VectorINS_5BCRecESaIS11_EEEi
FNDA:10,_ZN5amrex21InterpFromCoarseLevelINS_8FabArrayINS_7BaseFabIN5Eigen6MatrixIdLi2ELi2ELi0ELi2ELi2EEEEEEEN10Integrator5FieldIS5_E7EmptyBCEN7Numeric12Interpolator12NodeBilinearIS5_EENS_14NullInterpHookIS6_EESH_EENSt9enable_ifIXsrNS_10IsFabArrayIT_vEE5valueEvE4typeERSK_dRKSK_iiiRKNS_8GeometryEST_RT0_iSV_iRKNS_7IntVectEPT1_RKNS_6VectorINS_5BCRecESaIS12_EEEiRKT2_RKT3_
FNDA:56,_ZN5amrex15FillPatchInterpINS_8FabArrayINS_7BaseFabIN5Eigen6MatrixIdLi2ELi2ELi0ELi2ELi2EEEEEEEN7Numeric12Interpolator12NodeBilinearIS5_EEEENSt9enable_ifIXaasrNS_10IsFabArrayIT_vEE5valuentsrSt7is_sameIT0_NS_14MFInterpolaterEE5valueEvE4typeERSE_iRKSE_iiRKNS_7IntVectERKNS_8GeometryESU_RKNS_3BoxESR_PSH_RKNS_6VectorINS_5BCRecESaIS10_EEEi
FNDA:3,_ZN5amrex12_GLOBAL__N_119mf_set_domain_bndryINS_8FabArrayINS_7BaseFabIN5Model5Solid6Affine2J2EEEEELi0EEEvRT_RKNS_8GeometryE
FNDA:0,_ZN5amrex20FillPatchSingleLevelINS_8FabArrayINS_7BaseFabIN5Model5Solid7Elastic17PseudoLinearCubicEEEEEN2BC2BCIS6_EEEENSt9enable_ifIXsrNS_10IsFabArrayIT_vEE5valueEvE4typeERSE_dRKNS_6VectorIPSE_SaISK_EEERKNSJ_IdSaIdEEEiiiRKNS_8GeometryERT0_i
FNDA:20,_ZN5amrex12_GLOBAL__N_118make_mf_fine_patchINS_8FabArrayINS_7BaseFabIN5Model5Solid6Affine9IsotropicEEEEELi0EEET_RKNS_12FabArrayBase6FPinfoEi
FNDA:20,_ZN5amrex12_GLOBAL__N_118make_mf_crse_patchINS_8FabArrayINS_7BaseFabIN5Model5Solid6Affine9IsotropicEEEEELi0EEET_RKNS_12FabArrayBase6FPinfoEi
FNDA:20,_ZN5amrex18FillPatchTwoLevelsINS_8FabArrayINS_7BaseFabIN5Model5Solid6Affine9IsotropicEEEEEN10Integrator5FieldIS6_E7EmptyBCEN7Numeric12Interpolator12NodeBilinearIS6_EENS_14NullInterpHookIS7_EESI_EENSt9enable_ifIXsrNS_10IsFabArrayIT_vEE5valueEvE4typeERSL_dRKNS_6VectorIPSL_SaISR_EEERKNSQ_IdSaIdEEESV_SZ_iiiRKNS_8GeometryES12_RT0_iS14_iRKNS_7IntVectEPT1_RKNSQ_INS_5BCRecESaIS1A_EEEiRKT2_RKT3_
FNDA:0,_ZN5amrex12_GLOBAL__N_119mf_set_domain_bndryINS_8FabArrayINS_7BaseFabIN5Model5Solid7Elastic17PseudoLinearCubicEEEEELi0EEEvRT_RKNS_8GeometryE
FNDA:1,_ZN5amrex12_GLOBAL__N_119mf_set_domain_bndryINS_8FabArrayINS_7BaseFabIN5Model5Solid7Elastic10NeoHookeanEEEEELi0EEEvRT_RKNS_8GeometryE
FNDA:0,_ZN5amrex15FillPatchInterpINS_8FabArrayINS_7BaseFabIN5Model5Solid6Linear9LaplacianEEEEEN7Numeric12Interpolator12NodeBilinearIS6_EEEENSt9enable_ifIXaasrNS_10IsFabArrayIT_vEE5valuentsrSt7is_sameIT0_NS_14MFInterpolaterEE5valueEvE4typeERSF_iRKSF_iiRKNS_7IntVectERKNS_8GeometryESV_RKNS_3BoxESS_PSI_RKNS_6VectorINS_5BCRecESaIS11_EEEi
FNDA:2,_ZN5amrex6detail16call_interp_hookINS_14NullInterpHookINS_7BaseFabIN5Model5Solid6Linear9IsotropicEEEEENS_8FabArrayIS8_EEEEDTclfp_ixfp0_Li0EcvNS_3BoxE_Efp1_fp2_EERKT_RT0_ii
FNDA:0,_ZN5amrex20FillPatchSingleLevelINS_8FabArrayINS_7BaseFabIN5Model5Solid6Affine2J2EEEEEN2BC2BCIS6_EEEENSt9enable_ifIXsrNS_10IsFabArrayIT_vEE5valueEvE4typeERSE_dRKNS_6VectorIPSE_SaISK_EEERKNSJ_IdSaIdEEEiiiRKNS_8GeometryERT0_i
FNDA:102,_ZN5amrex6detail16call_interp_hookINS_14NullInterpHookINS_7BaseFabIN5Eigen6MatrixIdLi2ELi2ELi0ELi2ELi2EEEEEEENS_8FabArrayIS7_EEEEDTclfp_ixfp0_Li0EcvNS_3BoxE_Efp1_fp2_EERKT_RT0_ii
FNDA:0,_ZN5amrex12_GLOBAL__N_118make_mf_crse_patchINS_8FabArrayINS_7BaseFabIN5Model5Solid6Linear5CubicEEEEELi0EEET_RKNS_12FabArrayBase6FPinfoEiNS_9IndexTypeE
FNDA:1,_ZN5amrex15FillPatchInterpINS_8FabArrayINS_7BaseFabIN5Model5Solid7Elastic10NeoHookeanEEEEEN7Numeric12Interpolator12NodeBilinearIS6_EEEENSt9enable_ifIXaasrNS_10IsFabArrayIT_vEE5valuentsrSt7is_sameIT0_NS_14MFInterpolaterEE5valueEvE4typeERSF_iRKSF_iiRKNS_7IntVectERKNS_8GeometryESV_RKNS_3BoxESS_PSI_RKNS_6VectorINS_5BCRecESaIS11_EEEi
FNDA:2,_ZN5amrex12_GLOBAL__N_123FillPatchTwoLevels_doitINS_8FabArrayINS_7BaseFabIN5Model5Solid6Affine5CubicEEEEEN10Integrator5FieldIS7_E7EmptyBCEN7Numeric12Interpolator12NodeBilinearIS7_EENS_14NullInterpHookIS8_EESJ_EENSt9enable_ifIXsrNS_10IsFabArrayIT_vEE5valueEvE4typeERSM_RKNS_7IntVectEdRKNS_6VectorIPSM_SaISV_EEERKNSU_IdSaIdEEESZ_S13_iiiRKNS_8GeometryES16_RT0_iS18_iST_PT1_RKNSU_INS_5BCRecESaIS1B_EEEiRKT2_RKT3_PKNS_3EB210IndexSpaceE
FNDA:0,_ZN5amrex12_GLOBAL__N_119mf_set_domain_bndryINS_8FabArrayINS_7BaseFabIN5Model5Solid6Affine9HexagonalEEEEELi0EEEvRT_RKNS_8GeometryE
FNDA:60,_ZN5amrex15FillPatchInterpINS_8FabArrayINS_7BaseFabIN5Eigen6MatrixIdLi2ELi1ELi0ELi2ELi1EEEEEEEN7Numeric12Interpolator12NodeBilinearIS5_EEEENSt9enable_ifIXaasrNS_10IsFabArrayIT_vEE5valuentsrSt7is_sameIT0_NS_14MFInterpolaterEE5valueEvE4typeERSE_iRKSE_iiRKNS_7IntVectERKNS_8GeometryESU_RKNS_3BoxESR_PSH_RKNS_6VectorINS_5BCRecESaIS10_EEEi
FNDA:0,_ZN5amrex18FillPatchTwoLevelsINS_8FabArrayINS_7BaseFabIN5Model5Solid6Linear5CubicEEEEEN10Integrator5FieldIS6_E7EmptyBCEN7Numeric12Interpolator12NodeBilinearIS6_EENS_14NullInterpHookIS7_EESI_EENSt9enable_ifIXsrNS_10IsFabArrayIT_vEE5valueEvE4typeERSL_dRKNS_6VectorIPSL_SaISR_EEERKNSQ_IdSaIdEEESV_SZ_iiiRKNS_8GeometryES12_RT0_iS14_iRKNS_7IntVectEPT1_RKNSQ_INS_5BCRecESaIS1A_EEEiRKT2_RKT3_
FNDA:0,_ZN5amrex12_GLOBAL__N_123FillPatchTwoLevels_doitINS_8FabArrayINS_7BaseFabIN5Model5Solid7Elastic17PseudoLinearCubicEEEEEN10Integrator5FieldIS7_E7EmptyBCEN7Numeric12Interpolator12NodeBilinearIS7_EENS_14NullInterpHookIS8_EESJ_EENSt9enable_ifIXsrNS_10IsFabArrayIT_vEE5valueEvE4typeERSM_RKNS_7IntVectEdRKNS_6VectorIPSM_SaISV_EEERKNSU_IdSaIdEEESZ_S13_iiiRKNS_8GeometryES16_RT0_iS18_iST_PT1_RKNSU_INS_5BCRecESaIS1B_EEEiRKT2_RKT3_PKNS_3EB210IndexSpaceE
FNDA:4,_ZN5amrex20FillPatchSingleLevelINS_8FabArrayINS_7BaseFabIN5Model5Solid6Affine5CubicEEEEEN10Integrator5FieldIS6_E7EmptyBCEEENSt9enable_ifIXsrNS_10IsFabArrayIT_vEE5valueEvE4typeERSF_RKNS_7IntVectEdRKNS_6VectorIPSF_SaISO_EEERKNSN_IdSaIdEEEiiiRKNS_8GeometryERT0_i
FNDA:20,_ZN5amrex12_GLOBAL__N_119mf_set_domain_bndryINS_8FabArrayINS_7BaseFabIN5Model5Solid6Affine9IsotropicEEEEELi0EEEvRT_RKNS_8GeometryE
FNDA:0,_ZN5amrex12_GLOBAL__N_121make_mf_refined_patchINS_8FabArrayINS_7BaseFabIN5Eigen6MatrixIdLi2ELi2ELi0ELi2ELi2EEEEEEELi0EEET_RKNS_12FabArrayBase6FPinfoEiNS_9IndexTypeENS_7IntVectE
FNDA:0,_ZN5amrex12_GLOBAL__N_118make_mf_crse_patchINS_8FabArrayINS_7BaseFabIN5Model5Solid6Affine9IsotropicEEEEELi0EEET_RKNS_12FabArrayBase6FPinfoEiNS_9IndexTypeE
FNDA:56,_ZN5amrex12_GLOBAL__N_119mf_set_domain_bndryINS_8FabArrayINS_7BaseFabIN5Eigen6MatrixIdLi2ELi2ELi0ELi2ELi2EEEEEEELi0EEEvRT_RKNS_8GeometryE
FNDA:0,_ZN5amrex12_GLOBAL__N_118make_mf_crse_patchINS_8FabArrayINS_7BaseFabIN5Model5Solid6Affine9HexagonalEEEEELi0EEET_RKNS_12FabArrayBase6FPinfoEiNS_9IndexTypeE
FNDA:0,_ZN5amrex20FillPatchSingleLevelINS_8FabArrayINS_7BaseFabIN5Model5Solid6Linear9LaplacianEEEEEN2BC2BCIS6_EEEENSt9enable_ifIXsrNS_10IsFabArrayIT_vEE5valueEvE4typeERSE_RKNS_7IntVectEdRKNS_6VectorIPSE_SaISN_EEERKNSM_IdSaIdEEEiiiRKNS_8GeometryERT0_i
FNDA:0,_ZN5amrex20FillPatchSingleLevelINS_8FabArrayINS_7BaseFabIN5Model5Solid6Affine9IsotropicEEEEEN2BC2BCIS6_EEEENSt9enable_ifIXsrNS_10IsFabArrayIT_vEE5valueEvE4typeERSE_RKNS_7IntVectEdRKNS_6VectorIPSE_SaISN_EEERKNSM_IdSaIdEEEiiiRKNS_8GeometryERT0_i
FNDA:12250,_ZN5amrex12_GLOBAL__N_118make_mf_crse_patchINS_8MultiFabELi0EEET_RKNS_12FabArrayBase6FPinfoEi
FNDA:40,_ZN5amrex6detail16call_interp_hookINS_14NullInterpHookINS_7BaseFabIN5Model5Solid6Affine9IsotropicEEEEENS_8FabArrayIS8_EEEEDTclfp_ixfp0_Li0EcvNS_3BoxE_Efp1_fp2_EERKT_RT0_ii
FNDA:0,_ZN5amrex20FillPatchSingleLevelINS_8FabArrayINS_7BaseFabIN5Model5Solid6Affine2J2EEEEEN2BC2BCIS6_EEEENSt9enable_ifIXsrNS_10IsFabArrayIT_vEE5valueEvE4typeERSE_RKNS_7IntVectEdRKNS_6VectorIPSE_SaISN_EEERKNSM_IdSaIdEEEiiiRKNS_8GeometryERT0_i
FNDA:0,_ZN5amrex20FillPatchSingleLevelINS_8FabArrayINS_7BaseFabIN5Model5Solid7Elastic28PseudoLinearCubicPredeformedEEEEEN10Integrator5FieldIS6_E7EmptyBCEEENSt9enable_ifIXsrNS_10IsFabArrayIT_vEE5valueEvE4typeERSF_RKNS_7IntVectEdRKNS_6VectorIPSF_SaISO_EEERKNSN_IdSaIdEEEiiiRKNS_8GeometryERT0_i
FNDA:0,_ZN5amrex21InterpFromCoarseLevelINS_8FabArrayINS_7BaseFabIN5Model5Solid6Linear19IsotropicDegradableEEEEEN10Integrator5FieldIS6_E7EmptyBCEN7Numeric12Interpolator12NodeBilinearIS6_EENS_14NullInterpHookIS7_EESI_EENSt9enable_ifIXsrNS_10IsFabArrayIT_vEE5valueEvE4typeERSL_RKNS_7IntVectEdRKSL_iiiRKNS_8GeometryESX_RT0_iSZ_iSS_PT1_RKNS_6VectorINS_5BCRecESaIS13_EEEiRKT2_RKT3_
FNDA:0,_ZN5amrex20FillPatchSingleLevelINS_8FabArrayINS_7BaseFabIN5Model5Solid6Linear5CubicEEEEEN2BC2BCIS6_EEEENSt9enable_ifIXsrNS_10IsFabArrayIT_vEE5valueEvE4typeERSE_dRKNS_6VectorIPSE_SaISK_EEERKNSJ_IdSaIdEEEiiiRKNS_8GeometryERT0_i
FNDA:2,_ZN5amrex18FillPatchTwoLevelsINS_8FabArrayINS_7BaseFabIN5Model5Solid6Affine5CubicEEEEEN10Integrator5FieldIS6_E7EmptyBCEN7Numeric12Interpolator12NodeBilinearIS6_EENS_14NullInterpHookIS7_EESI_EENSt9enable_ifIXsrNS_10IsFabArrayIT_vEE5valueEvE4typeERSL_dRKNS_6VectorIPSL_SaISR_EEERKNSQ_IdSaIdEEESV_SZ_iiiRKNS_8GeometryES12_RT0_iS14_iRKNS_7IntVectEPT1_RKNSQ_INS_5BCRecESaIS1A_EEEiRKT2_RKT3_
FNDA:2,_ZN5amrex12_GLOBAL__N_118make_mf_crse_patchINS_8FabArrayINS_7BaseFabIN5Model5Solid6Affine5CubicEEEEELi0EEET_RKNS_12FabArrayBase6FPinfoEi
FNDA:0,_ZN5amrex20FillPatchSingleLevelINS_8FabArrayINS_7BaseFabIN5Model5Solid7Elastic28PseudoLinearCubicPredeformedEEEEEN2BC2BCIS6_EEEENSt9enable_ifIXsrNS_10IsFabArrayIT_vEE5valueEvE4typeERSE_dRKNS_6VectorIPSE_SaISK_EEERKNSJ_IdSaIdEEEiiiRKNS_8GeometryERT0_i
FNDA:2,_ZN5amrex20FillPatchSingleLevelINS_8FabArrayINS_7BaseFabIN5Model5Solid6Affine5CubicEEEEEN10Integrator5FieldIS6_E7EmptyBCEEENSt9enable_ifIXsrNS_10IsFabArrayIT_vEE5valueEvE4typeERSF_dRKNS_6VectorIPSF_SaISL_EEERKNSK_IdSaIdEEEiiiRKNS_8GeometryERT0_i
FNDA:0,_ZN5amrex10InterpFaceINS_8FabArrayINS_7BaseFabIN5Model5Solid6Affine5CubicEEEEENS_9iMultiFabEN7Numeric12Interpolator12NodeBilinearIS6_EEEENSt9enable_ifIXaasrNS_10IsFabArrayIT_vEE5valuentsrSt7is_sameIT1_NS_14MFInterpolaterEE5valueEvE4typeEPSJ_RKSG_iRSG_iiRKNS_7IntVectERKT0_RKNS_8GeometryES10_iNS_5RunOnERKNS_6VectorINS_5BCRecESaIS13_EEE
FNDA:3,_ZN5amrex21InterpFromCoarseLevelINS_8FabArrayINS_7BaseFabIN5Model5Solid6Affine2J2EEEEEN10Integrator5FieldIS6_E7EmptyBCEN7Numeric12Interpolator12NodeBilinearIS6_EENS_14NullInterpHookIS7_EESI_EENSt9enable_ifIXsrNS_10IsFabArrayIT_vEE5valueEvE4typeERSL_dRKSL_iiiRKNS_8GeometryESU_RT0_iSW_iRKNS_7IntVectEPT1_RKNS_6VectorINS_5BCRecESaIS13_EEEiRKT2_RKT3_
FNDA:0,_ZN5amrex12_GLOBAL__N_123FillPatchTwoLevels_doitINS_8FabArrayINS_7BaseFabIN5Model5Solid6Affine9HexagonalEEEEEN10Integrator5FieldIS7_E7EmptyBCEN7Numeric12Interpolator12NodeBilinearIS7_EENS_14NullInterpHookIS8_EESJ_EENSt9enable_ifIXsrNS_10IsFabArrayIT_vEE5valueEvE4typeERSM_RKNS_7IntVectEdRKNS_6VectorIPSM_SaISV_EEERKNSU_IdSaIdEEESZ_S13_iiiRKNS_8GeometryES16_RT0_iS18_iST_PT1_RKNSU_INS_5BCRecESaIS1B_EEEiRKT2_RKT3_PKNS_3EB210IndexSpaceE
FNDA:0,_ZN5amrex21InterpFromCoarseLevelINS_8FabArrayINS_7BaseFabIN5Model5Solid6Affine5CubicEEEEEN10Integrator5FieldIS6_E7EmptyBCEN7Numeric12Interpolator12NodeBilinearIS6_EENS_14NullInterpHookIS7_EESI_EENSt9enable_ifIXsrNS_10IsFabArrayIT_vEE5valueEvE4typeERSL_RKNS_7IntVectEdRKSL_iiiRKNS_8GeometryESX_RT0_iSZ_iSS_PT1_RKNS_6VectorINS_5BCRecESaIS13_EEEiRKT2_RKT3_
FNDA:0,_ZN5amrex12_GLOBAL__N_118make_mf_crse_patchINS_8FabArrayINS_7BaseFabIN5Model5Solid6Linear19IsotropicDegradableEEEEELi0EEET_RKNS_12FabArrayBase6FPinfoEiNS_9IndexTypeE
FNDA:0,_ZN5amrex12_GLOBAL__N_118make_mf_crse_patchINS_8FabArrayINS_7BaseFabIN5Model5Solid7Elastic10NeoHookeanEEEEELi0EEET_RKNS_12FabArrayBase6FPinfoEiNS_9IndexTypeE
FNDA:0,_ZN5amrex10InterpFaceINS_8FabArrayINS_7BaseFabIN5Model5Solid6Linear19IsotropicDegradableEEEEENS_9iMultiFabEN7Numeric12Interpolator12NodeBilinearIS6_EEEENSt9enable_ifIXaasrNS_10IsFabArrayIT_vEE5valuentsrSt7is_sameIT1_NS_14MFInterpolaterEE5valueEvE4typeEPSJ_RKSG_iRSG_iiRKNS_7IntVectERKT0_RKNS_8GeometryES10_iNS_5RunOnERKNS_6VectorINS_5BCRecESaIS13_EEE
FNDA:0,_ZN5amrex12_GLOBAL__N_118make_mf_fine_patchINS_8FabArrayINS_7BaseFabIN5Model5Solid7Elastic28PseudoLinearCubicPredeformedEEEEELi0EEET_RKNS_12FabArrayBase6FPinfoEi
FNDA:0,_ZN5amrex12_GLOBAL__N_121make_mf_refined_patchINS_8FabArrayINS_7BaseFabIN5Model5Solid6Linear9LaplacianEEEEELi0EEET_RKNS_12FabArrayBase6FPinfoEiNS_9IndexTypeENS_7IntVectE
FNDA:0,_ZN5amrex10InterpFaceINS_8FabArrayINS_7BaseFabIN5Model5Solid7Elastic28PseudoLinearCubicPredeformedEEEEENS_9iMultiFabEN7Numeric12Interpolator12NodeBilinearIS6_EEEENSt9enable_ifIXaasrNS_10IsFabArrayIT_vEE5valuentsrSt7is_sameIT1_NS_14MFInterpolaterEE5valueEvE4typeEPSJ_RKSG_iRSG_iiRKNS_7IntVectERKT0_RKNS_8GeometryES10_iNS_5RunOnERKNS_6VectorINS_5BCRecESaIS13_EEE
FNDA:0,_ZN5amrex18FillPatchTwoLevelsINS_8FabArrayINS_7BaseFabIN5Model5Solid6Linear19IsotropicDegradableEEEEEN10Integrator5FieldIS6_E7EmptyBCEN7Numeric12Interpolator12NodeBilinearIS6_EENS_14NullInterpHookIS7_EESI_EENSt9enable_ifIXsrNS_10IsFabArrayIT_vEE5valueEvE4typeERSL_dRKNS_6VectorIPSL_SaISR_EEERKNSQ_IdSaIdEEESV_SZ_iiiRKNS_8GeometryES12_RT0_iS14_iRKNS_7IntVectEPT1_RKNSQ_INS_5BCRecESaIS1A_EEEiRKT2_RKT3_
FNDA:1,_ZN5amrex18FillPatchTwoLevelsINS_8FabArrayINS_7BaseFabIN5Model5Solid7Elastic10NeoHookeanEEEEEN10Integrator5FieldIS6_E7EmptyBCEN7Numeric12Interpolator12NodeBilinearIS6_EENS_14NullInterpHookIS7_EESI_EENSt9enable_ifIXsrNS_10IsFabArrayIT_vEE5valueEvE4typeERSL_dRKNS_6VectorIPSL_SaISR_EEERKNSQ_IdSaIdEEESV_SZ_iiiRKNS_8GeometryES12_RT0_iS14_iRKNS_7IntVectEPT1_RKNSQ_INS_5BCRecESaIS1A_EEEiRKT2_RKT3_
FNDA:0,_ZN5amrex18FillPatchTwoLevelsINS_8FabArrayINS_7BaseFabIN5Model5Solid7Elastic17PseudoLinearCubicEEEEEN10Integrator5FieldIS6_E7EmptyBCEN7Numeric12Interpolator12NodeBilinearIS6_EENS_14NullInterpHookIS7_EESI_EENSt9enable_ifIXsrNS_10IsFabArrayIT_vEE5valueEvE4typeERSL_dRKNS_6VectorIPSL_SaISR_EEERKNSQ_IdSaIdEEESV_SZ_iiiRKNS_8GeometryES12_RT0_iS14_iRKNS_7IntVectEPT1_RKNSQ_INS_5BCRecESaIS1A_EEEiRKT2_RKT3_
FNDA:0,_ZN5amrex12_GLOBAL__N_121make_mf_refined_patchINS_8FabArrayINS_7BaseFabIN5Model5Solid6Affine9IsotropicEEEEELi0EEET_RKNS_12FabArrayBase6FPinfoEiNS_9IndexTypeENS_7IntVectE
FNDA:4,_ZN5amrex6detail16call_interp_hookINS_14NullInterpHookINS_7BaseFabIN5Model5Solid6Affine5CubicEEEEENS_8FabArrayIS8_EEEEDTclfp_ixfp0_Li0EcvNS_3BoxE_Efp1_fp2_EERKT_RT0_ii
FNDA:0,_ZN5amrex21InterpFromCoarseLevelINS_8FabArrayINS_7BaseFabIN5Model5Solid6Affine5CubicEEEEEN10Integrator5FieldIS6_E7EmptyBCEN7Numeric12Interpolator12NodeBilinearIS6_EENS_14NullInterpHookIS7_EESI_EENSt9enable_ifIXsrNS_10IsFabArrayIT_vEE5valueEvE4typeERSL_dRKSL_iiiRKNS_8GeometryESU_RT0_iSW_iRKNS_7IntVectEPT1_RKNS_6VectorINS_5BCRecESaIS13_EEEiRKT2_RKT3_
FNDA:0,_ZN5amrex20FillPatchSingleLevelINS_8FabArrayINS_7BaseFabIN5Model5Solid6Linear9IsotropicEEEEEN2BC2BCIS6_EEEENSt9enable_ifIXsrNS_10IsFabArrayIT_vEE5valueEvE4typeERSE_RKNS_7IntVectEdRKNS_6VectorIPSE_SaISN_EEERKNSM_IdSaIdEEEiiiRKNS_8GeometryERT0_i
FNDA:0,_ZN5amrex10InterpFaceINS_8MultiFabENS_9iMultiFabENS_12InterpolaterEEENSt9enable_ifIXaasrNS_10IsFabArrayIT_vEE5valuentsrSt7is_sameIT1_NS_14MFInterpolaterEE5valueEvE4typeEPS9_RKS6_iRS6_iiRKNS_7IntVectERKT0_RKNS_8GeometryESQ_iNS_5RunOnERKNS_6VectorINS_5BCRecESaIST_EEE
FNDA:0,_ZN5amrex18FillPatchTwoLevelsINS_8FabArrayINS_7BaseFabIN5Model5Solid6Affine2J2EEEEEN10Integrator5FieldIS6_E7EmptyBCEN7Numeric12Interpolator12NodeBilinearIS6_EENS_14NullInterpHookIS7_EESI_EENSt9enable_ifIXsrNS_10IsFabArrayIT_vEE5valueEvE4typeERSL_dRKNS_6VectorIPSL_SaISR_EEERKNSQ_IdSaIdEEESV_SZ_iiiRKNS_8GeometryES12_RT0_iS14_iRKNS_7IntVectEPT1_RKNSQ_INS_5BCRecESaIS1A_EEEiRKT2_RKT3_
FNDA:0,_ZN5amrex20FillPatchSingleLevelINS_8FabArrayINS_7BaseFabIN5Model5Solid6Affine9HexagonalEEEEEN10Integrator5FieldIS6_E7EmptyBCEEENSt9enable_ifIXsrNS_10IsFabArrayIT_vEE5valueEvE4typeERSF_dRKNS_6VectorIPSF_SaISL_EEERKNSK_IdSaIdEEEiiiRKNS_8GeometryERT0_i
FNDA:0,_ZN5amrex12_GLOBAL__N_119mf_set_domain_bndryINS_8FabArrayINS_7BaseFabIN5Model5Solid6Linear5CubicEEEEELi0EEEvRT_RKNS_8GeometryE
FNDA:0,_ZN5amrex12_GLOBAL__N_121make_mf_refined_patchINS_8FabArrayINS_7BaseFabIN5Model5Solid6Linear19IsotropicDegradableEEEEELi0EEET_RKNS_12FabArrayBase6FPinfoEiNS_9IndexTypeENS_7IntVectE
FNDA:0,_ZN5amrex12_GLOBAL__N_121make_mf_refined_patchINS_8FabArrayINS_7BaseFabIN5Model5Solid7Elastic10NeoHookeanEEEEELi0EEET_RKNS_12FabArrayBase6FPinfoEiNS_9IndexTypeENS_7IntVectE
FNDA:3,_ZN5amrex6detail16call_interp_hookINS_14NullInterpHookINS_7BaseFabIN5Model5Solid6Affine2J2EEEEENS_8FabArrayIS8_EEEEDTclfp_ixfp0_Li0EcvNS_3BoxE_Efp1_fp2_EERKT_RT0_ii
FNDA:0,_ZN5amrex21InterpFromCoarseLevelINS_8FabArrayINS_7BaseFabIN5Model5Solid7Elastic10NeoHookeanEEEEEN10Integrator5FieldIS6_E7EmptyBCEN7Numeric12Interpolator12NodeBilinearIS6_EENS_14NullInterpHookIS7_EESI_EENSt9enable_ifIXsrNS_10IsFabArrayIT_vEE5valueEvE4typeERSL_RKNS_7IntVectEdRKSL_iiiRKNS_8GeometryESX_RT0_iSZ_iSS_PT1_RKNS_6VectorINS_5BCRecESaIS13_EEEiRKT2_RKT3_
FNDA:108,_ZN5amrex6detail16call_interp_hookINS_14NullInterpHookINS_7BaseFabIN5Eigen6MatrixIdLi2ELi1ELi0ELi2ELi1EEEEEEENS_8FabArrayIS7_EEEEDTclfp_ixfp0_Li0EcvNS_3BoxE_Efp1_fp2_EERKT_RT0_ii
FNDA:2,_ZN5amrex12_GLOBAL__N_119mf_set_domain_bndryINS_8FabArrayINS_7BaseFabIN5Model5Solid6Affine5CubicEEEEELi0EEEvRT_RKNS_8GeometryE
FNDA:0,_ZN5amrex21InterpFromCoarseLevelINS_8FabArrayINS_7BaseFabIN5Model5Solid6Linear9LaplacianEEEEEN10Integrator5FieldIS6_E7EmptyBCEN7Numeric12Interpolator12NodeBilinearIS6_EENS_14NullInterpHookIS7_EESI_EENSt9enable_ifIXsrNS_10IsFabArrayIT_vEE5valueEvE4typeERSL_dRKSL_iiiRKNS_8GeometryESU_RT0_iSW_iRKNS_7IntVectEPT1_RKNS_6VectorINS_5BCRecESaIS13_EEEiRKT2_RKT3_
FNDA:0,_ZN5amrex12_GLOBAL__N_121make_mf_refined_patchINS_8FabArrayINS_7BaseFabIN5Model5Solid6Affine9HexagonalEEEEELi0EEET_RKNS_12FabArrayBase6FPinfoEiNS_9IndexTypeENS_7IntVectE
FNDA:0,_ZN5amrex6detail16call_interp_hookINS_14NullInterpHookINS_7BaseFabIN5Model5Solid6Linear9LaplacianEEEEENS_8FabArrayIS8_EEEEDTclfp_ixfp0_Li0EcvNS_3BoxE_Efp1_fp2_EERKT_RT0_ii
FNDA:12250,_ZN5amrex12_GLOBAL__N_118make_mf_fine_patchINS_8MultiFabELi0EEET_RKNS_12FabArrayBase6FPinfoEi
FNDA:0,_ZN5amrex21InterpFromCoarseLevelINS_8FabArrayINS_7BaseFabIN5Model5Solid6Affine9HexagonalEEEEEN10Integrator5FieldIS6_E7EmptyBCEN7Numeric12Interpolator12NodeBilinearIS6_EENS_14NullInterpHookIS7_EESI_EENSt9enable_ifIXsrNS_10IsFabArrayIT_vEE5valueEvE4typeERSL_RKNS_7IntVectEdRKSL_iiiRKNS_8GeometryESX_RT0_iSZ_iSS_PT1_RKNS_6VectorINS_5BCRecESaIS13_EEEiRKT2_RKT3_
FNDA:0,_ZN5amrex10InterpFaceINS_8FabArrayINS_7BaseFabIN5Model5Solid7Elastic17PseudoLinearCubicEEEEENS_9iMultiFabEN7Numeric12Interpolator12NodeBilinearIS6_EEEENSt9enable_ifIXaasrNS_10IsFabArrayIT_vEE5valuentsrSt7is_sameIT1_NS_14MFInterpolaterEE5valueEvE4typeEPSJ_RKSG_iRSG_iiRKNS_7IntVectERKT0_RKNS_8GeometryES10_iNS_5RunOnERKNS_6VectorINS_5BCRecESaIS13_EEE
FNDA:0,_ZN5amrex12_GLOBAL__N_118make_mf_crse_patchINS_8FabArrayINS_7BaseFabIN5Eigen6MatrixIdLi2ELi2ELi0ELi2ELi2EEEEEEELi0EEET_RKNS_12FabArrayBase6FPinfoEiNS_9IndexTypeE
FNDA:0,_ZN5amrex12_GLOBAL__N_118make_mf_crse_patchINS_8FabArrayINS_7BaseFabIN5Model5Solid6Affine5CubicEEEEELi0EEET_RKNS_12FabArrayBase6FPinfoEiNS_9IndexTypeE
FNDA:0,_ZN5amrex12_GLOBAL__N_119mf_set_domain_bndryINS_8FabArrayINS_7BaseFabIN5Model5Solid7Elastic28PseudoLinearCubicPredeformedEEEEELi0EEEvRT_RKNS_8GeometryE
FNDA:0,_ZN5amrex12_GLOBAL__N_118make_mf_crse_patchINS_8FabArrayINS_7BaseFabIN5Model5Solid6Linear9LaplacianEEEEELi0EEET_RKNS_12FabArrayBase6FPinfoEiNS_9IndexTypeE
FNDA:2,_ZN5amrex21InterpFromCoarseLevelINS_8FabArrayINS_7BaseFabIN5Model5Solid6Linear9IsotropicEEEEEN10Integrator5FieldIS6_E7EmptyBCEN7Numeric12Interpolator12NodeBilinearIS6_EENS_14NullInterpHookIS7_EESI_EENSt9enable_ifIXsrNS_10IsFabArrayIT_vEE5valueEvE4typeERSL_RKNS_7IntVectEdRKSL_iiiRKNS_8GeometryESX_RT0_iSZ_iSS_PT1_RKNS_6VectorINS_5BCRecESaIS13_EEEiRKT2_RKT3_
FNDA:0,_ZN5amrex20FillPatchSingleLevelINS_8FabArrayINS_7BaseFabIN5Eigen6MatrixIdLi2ELi2ELi0ELi2ELi2EEEEEEEN2BC2BCIS5_EEEENSt9enable_ifIXsrNS_10IsFabArrayIT_vEE5valueEvE4typeERSD_dRKNS_6VectorIPSD_SaISJ_EEERKNSI_IdSaIdEEEiiiRKNS_8GeometryERT0_i
FNDA:0,_ZN5amrex21InterpFromCoarseLevelINS_8FabArrayINS_7BaseFabIN5Model5Solid7Elastic17PseudoLinearCubicEEEEEN10Integrator5FieldIS6_E7EmptyBCEN7Numeric12Interpolator12NodeBilinearIS6_EENS_14NullInterpHookIS7_EESI_EENSt9enable_ifIXsrNS_10IsFabArrayIT_vEE5valueEvE4typeERSL_dRKSL_iiiRKNS_8GeometryESU_RT0_iSW_iRKNS_7IntVectEPT1_RKNS_6VectorINS_5BCRecESaIS13_EEEiRKT2_RKT3_
FNDA:0,_ZN5amrex10InterpFaceINS_8FabArrayINS_7BaseFabIN5Model5Solid6Linear9IsotropicEEEEENS_9iMultiFabEN7Numeric12Interpolator12NodeBilinearIS6_EEEENSt9enable_ifIXaasrNS_10IsFabArrayIT_vEE5valuentsrSt7is_sameIT1_NS_14MFInterpolaterEE5valueEvE4typeEPSJ_RKSG_iRSG_iiRKNS_7IntVectERKT0_RKNS_8GeometryES10_iNS_5RunOnERKNS_6VectorINS_5BCRecESaIS13_EEE
FNDA:0,_ZN5amrex20FillPatchSingleLevelINS_8FabArrayINS_7BaseFabIN5Model5Solid6Affine9HexagonalEEEEEN10Integrator5FieldIS6_E7EmptyBCEEENSt9enable_ifIXsrNS_10IsFabArrayIT_vEE5valueEvE4typeERSF_RKNS_7IntVectEdRKNS_6VectorIPSF_SaISO_EEERKNSN_IdSaIdEEEiiiRKNS_8GeometryERT0_i
FNDA:25550,_ZN5amrex20FillPatchSingleLevelINS_8MultiFabEN2BC2BCIdEEEENSt9enable_ifIXsrNS_10IsFabArrayIT_vEE5valueEvE4typeERS7_RKNS_7IntVectEdRKNS_6VectorIPS7_SaISG_EEERKNSF_IdSaIdEEEiiiRKNS_8GeometryERT0_i
FNDA:2,_ZN5amrex15FillPatchInterpINS_8FabArrayINS_7BaseFabIN5Model5Solid6Affine5CubicEEEEEN7Numeric12Interpolator12NodeBilinearIS6_EEEENSt9enable_ifIXaasrNS_10IsFabArrayIT_vEE5valuentsrSt7is_sameIT0_NS_14MFInterpolaterEE5valueEvE4typeERSF_iRKSF_iiRKNS_7IntVectERKNS_8GeometryESV_RKNS_3BoxESS_PSI_RKNS_6VectorINS_5BCRecESaIS11_EEEi
FNDA:0,_ZN5amrex18FillPatchTwoLevelsINS_8FabArrayINS_7BaseFabIN5Model5Solid6Affine9HexagonalEEEEEN10Integrator5FieldIS6_E7EmptyBCEN7Numeric12Interpolator12NodeBilinearIS6_EENS_14NullInterpHookIS7_EESI_EENSt9enable_ifIXsrNS_10IsFabArrayIT_vEE5valueEvE4typeERSL_dRKNS_6VectorIPSL_SaISR_EEERKNSQ_IdSaIdEEESV_SZ_iiiRKNS_8GeometryES12_RT0_iS14_iRKNS_7IntVectEPT1_RKNSQ_INS_5BCRecESaIS1A_EEEiRKT2_RKT3_
FNDA:0,_ZN5amrex21InterpFromCoarseLevelINS_8FabArrayINS_7BaseFabIN5Model5Solid6Affine9IsotropicEEEEEN10Integrator5FieldIS6_E7EmptyBCEN7Numeric12Interpolator12NodeBilinearIS6_EENS_14NullInterpHookIS7_EESI_EENSt9enable_ifIXsrNS_10IsFabArrayIT_vEE5valueEvE4typeERSL_dRKSL_iiiRKNS_8GeometryESU_RT0_iSW_iRKNS_7IntVectEPT1_RKNS_6VectorINS_5BCRecESaIS13_EEEiRKT2_RKT3_
FNDA:0,_ZN5amrex10InterpFaceINS_8FabArrayINS_7BaseFabIN5Model5Solid7Elastic10NeoHookeanEEEEENS_9iMultiFabEN7Numeric12Interpolator12NodeBilinearIS6_EEEENSt9enable_ifIXaasrNS_10IsFabArrayIT_vEE5valuentsrSt7is_sameIT1_NS_14MFInterpolaterEE5valueEvE4typeEPSJ_RKSG_iRSG_iiRKNS_7IntVectERKT0_RKNS_8GeometryES10_iNS_5RunOnERKNS_6VectorINS_5BCRecESaIS13_EEE
FNDA:0,_ZN5amrex21InterpFromCoarseLevelINS_8FabArrayINS_7BaseFabIN5Model5Solid6Linear9LaplacianEEEEEN10Integrator5FieldIS6_E7EmptyBCEN7Numeric12Interpolator12NodeBilinearIS6_EENS_14NullInterpHookIS7_EESI_EENSt9enable_ifIXsrNS_10IsFabArrayIT_vEE5valueEvE4typeERSL_RKNS_7IntVectEdRKSL_iiiRKNS_8GeometryESX_RT0_iSZ_iSS_PT1_RKNS_6VectorINS_5BCRecESaIS13_EEEiRKT2_RKT3_
FNDA:0,_ZN5amrex10InterpFaceINS_8FabArrayINS_7BaseFabIN5Eigen6MatrixIdLi2ELi2ELi0ELi2ELi2EEEEEEENS_9iMultiFabEN7Numeric12Interpolator12NodeBilinearIS5_EEEENSt9enable_ifIXaasrNS_10IsFabArrayIT_vEE5valuentsrSt7is_sameIT1_NS_14MFInterpolaterEE5valueEvE4typeEPSI_RKSF_iRSF_iiRKNS_7IntVectERKT0_RKNS_8GeometryESZ_iNS_5RunOnERKNS_6VectorINS_5BCRecESaIS12_EEE
FNDA:0,_ZN5amrex20FillPatchSingleLevelINS_8FabArrayINS_7BaseFabIN5Model5Solid6Affine5CubicEEEEEN2BC2BCIS6_EEEENSt9enable_ifIXsrNS_10IsFabArrayIT_vEE5valueEvE4typeERSE_dRKNS_6VectorIPSE_SaISK_EEERKNSJ_IdSaIdEEEiiiRKNS_8GeometryERT0_i
FNDA:46,_ZN5amrex20FillPatchSingleLevelINS_8FabArrayINS_7BaseFabIN5Eigen6MatrixIdLi2ELi2ELi0ELi2ELi2EEEEEEEN10Integrator5FieldIS5_E7EmptyBCEEENSt9enable_ifIXsrNS_10IsFabArrayIT_vEE5valueEvE4typeERSE_dRKNS_6VectorIPSE_SaISK_EEERKNSJ_IdSaIdEEEiiiRKNS_8GeometryERT0_i
FNDA:12257,_ZN5amrex12_GLOBAL__N_119mf_set_domain_bndryINS_8MultiFabELi0EEEvRT_RKNS_8GeometryE
FNDA:7,_ZN5amrex21InterpFromCoarseLevelINS_8MultiFabEN2BC2BCIdEENS_12InterpolaterENS_14NullInterpHookINS_9FArrayBoxEEES8_EENSt9enable_ifIXsrNS_10IsFabArrayIT_vEE5valueEvE4typeERSB_RKNS_7IntVectEdRKSB_iiiRKNS_8GeometryESN_RT0_iSP_iSI_PT1_RKNS_6VectorINS_5BCRecESaIST_EEEiRKT2_RKT3_
FNDA:2,_ZN5amrex21InterpFromCoarseLevelINS_8FabArrayINS_7BaseFabIN5Model5Solid6Linear9IsotropicEEEEEN10Integrator5FieldIS6_E7EmptyBCEN7Numeric12Interpolator12NodeBilinearIS6_EENS_14NullInterpHookIS7_EESI_EENSt9enable_ifIXsrNS_10IsFabArrayIT_vEE5valueEvE4typeERSL_dRKSL_iiiRKNS_8GeometryESU_RT0_iSW_iRKNS_7IntVectEPT1_RKNS_6VectorINS_5BCRecESaIS13_EEEiRKT2_RKT3_
FNDA:0,_ZN5amrex20FillPatchSingleLevelINS_8FabArrayINS_7BaseFabIN5Model5Solid6Linear9LaplacianEEEEEN2BC2BCIS6_EEEENSt9enable_ifIXsrNS_10IsFabArrayIT_vEE5valueEvE4typeERSE_dRKNS_6VectorIPSE_SaISK_EEERKNSJ_IdSaIdEEEiiiRKNS_8GeometryERT0_i
FNDA:0,_ZN5amrex12_GLOBAL__N_118make_mf_fine_patchINS_8FabArrayINS_7BaseFabIN5Model5Solid6Linear19IsotropicDegradableEEEEELi0EEET_RKNS_12FabArrayBase6FPinfoEi
FNDA:2,_ZN5amrex15FillPatchInterpINS_8FabArrayINS_7BaseFabIN5Model5Solid6Linear9IsotropicEEEEEN7Numeric12Interpolator12NodeBilinearIS6_EEEENSt9enable_ifIXaasrNS_10IsFabArrayIT_vEE5valuentsrSt7is_sameIT0_NS_14MFInterpolaterEE5valueEvE4typeERSF_iRKSF_iiRKNS_7IntVectERKNS_8GeometryESV_RKNS_3BoxESS_PSI_RKNS_6VectorINS_5BCRecESaIS11_EEEi
FNDA:2,_ZN5amrex12_GLOBAL__N_119mf_set_domain_bndryINS_8FabArrayINS_7BaseFabIN5Model5Solid6Linear9IsotropicEEEEELi0EEEvRT_RKNS_8GeometryE
FNDA:20,_ZN5amrex20FillPatchSingleLevelINS_8FabArrayINS_7BaseFabIN5Model5Solid6Affine9IsotropicEEEEEN10Integrator5FieldIS6_E7EmptyBCEEENSt9enable_ifIXsrNS_10IsFabArrayIT_vEE5valueEvE4typeERSF_dRKNS_6VectorIPSF_SaISL_EEERKNSK_IdSaIdEEEiiiRKNS_8GeometryERT0_i
FNDA:0,_ZN5amrex12_GLOBAL__N_121make_mf_refined_patchINS_8FabArrayINS_7BaseFabIN5Model5Solid6Linear5CubicEEEEELi0EEET_RKNS_12FabArrayBase6FPinfoEiNS_9IndexTypeENS_7IntVectE
FNDA:2,_ZN5amrex6detail16call_interp_hookINS_14NullInterpHookINS_7BaseFabIN5Model5Solid7Elastic10NeoHookeanEEEEENS_8FabArrayIS8_EEEEDTclfp_ixfp0_Li0EcvNS_3BoxE_Efp1_fp2_EERKT_RT0_ii
FNDA:0,_ZN5amrex12_GLOBAL__N_118make_mf_crse_patchINS_8FabArrayINS_7BaseFabIN5Model5Solid6Linear19IsotropicDegradableEEEEELi0EEET_RKNS_12FabArrayBase6FPinfoEi
FNDA:0,_ZN5amrex12_GLOBAL__N_117make_mf_crse_maskINS_9iMultiFabELi0EEET_RKNS_12FabArrayBase6FPinfoEiNS_9IndexTypeENS_7IntVectE
FNDA:0,_ZN5amrex12_GLOBAL__N_118make_mf_crse_patchINS_8FabArrayINS_7BaseFabIN5Model5Solid7Elastic17PseudoLinearCubicEEEEELi0EEET_RKNS_12FabArrayBase6FPinfoEi
FNDA:0,_ZN5amrex12_GLOBAL__N_121make_mf_refined_patchINS_8FabArrayINS_7BaseFabIN5Model5Solid6Affine2J2EEEEELi0EEET_RKNS_12FabArrayBase6FPinfoEiNS_9IndexTypeENS_7IntVectE
FNDA:0,_ZN5amrex20FillPatchSingleLevelINS_8FabArrayINS_7BaseFabIN5Model5Solid6Affine2J2EEEEEN10Integrator5FieldIS6_E7EmptyBCEEENSt9enable_ifIXsrNS_10IsFabArrayIT_vEE5valueEvE4typeERSF_dRKNS_6VectorIPSF_SaISL_EEERKNSK_IdSaIdEEEiiiRKNS_8GeometryERT0_i
FNDA:0,_ZN5amrex18FillPatchTwoLevelsINS_8FabArrayINS_7BaseFabIN5Model5Solid6Linear9IsotropicEEEEEN10Integrator5FieldIS6_E7EmptyBCEN7Numeric12Interpolator12NodeBilinearIS6_EENS_14NullInterpHookIS7_EESI_EENSt9enable_ifIXsrNS_10IsFabArrayIT_vEE5valueEvE4typeERSL_dRKNS_6VectorIPSL_SaISR_EEERKNSQ_IdSaIdEEESV_SZ_iiiRKNS_8GeometryES12_RT0_iS14_iRKNS_7IntVectEPT1_RKNSQ_INS_5BCRecESaIS1A_EEEiRKT2_RKT3_
FNDA:0,_ZN5amrex6detail16call_interp_hookINS_14NullInterpHookINS_7BaseFabIN5Model5Solid6Affine9HexagonalEEEEENS_8FabArrayIS8_EEEEDTclfp_ixfp0_Li0EcvNS_3BoxE_Efp1_fp2_EERKT_RT0_ii
FNDA:0,_ZN5amrex12_GLOBAL__N_118make_mf_crse_patchINS_8FabArrayINS_7BaseFabIN5Model5Solid6Linear9IsotropicEEEEELi0EEET_RKNS_12FabArrayBase6FPinfoEiNS_9IndexTypeE
FNDA:24507,_ZN5amrex6detail16call_interp_hookINS_14NullInterpHookINS_9FArrayBoxEEENS_8MultiFabEEEDTclfp_ixfp0_Li0EcvNS_3BoxE_Efp1_fp2_EERKT_RT0_ii
FNDA:0,_ZN5amrex15FillPatchInterpINS_8FabArrayINS_7BaseFabIN5Model5Solid7Elastic17PseudoLinearCubicEEEEEN7Numeric12Interpolator12NodeBilinearIS6_EEEENSt9enable_ifIXaasrNS_10IsFabArrayIT_vEE5valuentsrSt7is_sameIT0_NS_14MFInterpolaterEE5valueEvE4typeERSF_iRKSF_iiRKNS_7IntVectERKNS_8GeometryESV_RKNS_3BoxESS_PSI_RKNS_6VectorINS_5BCRecESaIS11_EEEi
FNDA:0,_ZN5amrex20FillPatchSingleLevelINS_8FabArrayINS_7BaseFabIN5Model5Solid6Linear5CubicEEEEEN10Integrator5FieldIS6_E7EmptyBCEEENSt9enable_ifIXsrNS_10IsFabArrayIT_vEE5valueEvE4typeERSF_RKNS_7IntVectEdRKNS_6VectorIPSF_SaISO_EEERKNSN_IdSaIdEEEiiiRKNS_8GeometryERT0_i
FNDA:3,_ZN5amrex21InterpFromCoarseLevelINS_8FabArrayINS_7BaseFabIN5Model5Solid6Affine2J2EEEEEN10Integrator5FieldIS6_E7EmptyBCEN7Numeric12Interpolator12NodeBilinearIS6_EENS_14NullInterpHookIS7_EESI_EENSt9enable_ifIXsrNS_10IsFabArrayIT_vEE5valueEvE4typeERSL_RKNS_7IntVectEdRKSL_iiiRKNS_8GeometryESX_RT0_iSZ_iSS_PT1_RKNS_6VectorINS_5BCRecESaIS13_EEEiRKT2_RKT3_
FNDA:12250,_ZN5amrex18FillPatchTwoLevelsINS_8MultiFabEN2BC2BCIdEENS_12InterpolaterENS_14NullInterpHookINS_9FArrayBoxEEES8_EENSt9enable_ifIXsrNS_10IsFabArrayIT_vEE5valueEvE4typeERSB_dRKNS_6VectorIPSB_SaISH_EEERKNSG_IdSaIdEEESL_SP_iiiRKNS_8GeometryESS_RT0_iSU_iRKNS_7IntVectEPT1_RKNSG_INS_5BCRecESaIS10_EEEiRKT2_RKT3_
FNDA:0,_ZN5amrex21InterpFromCoarseLevelINS_8FabArrayINS_7BaseFabIN5Model5Solid7Elastic28PseudoLinearCubicPredeformedEEEEEN10Integrator5FieldIS6_E7EmptyBCEN7Numeric12Interpolator12NodeBilinearIS6_EENS_14NullInterpHookIS7_EESI_EENSt9enable_ifIXsrNS_10IsFabArrayIT_vEE5valueEvE4typeERSL_RKNS_7IntVectEdRKSL_iiiRKNS_8GeometryESX_RT0_iSZ_iSS_PT1_RKNS_6VectorINS_5BCRecESaIS13_EEEiRKT2_RKT3_
