TN:
SF:/home/brunnels/Research/alamo/ext/amrex/2d-coverage-g++-23.08/include/AMReX_FBI.H
FN:211,_ZN5amrex8FabArrayINS_7BaseFabIdEEE17FB_local_copy_cpuERKNS_12FabArrayBase2FBEii
FNDA:0,_ZN5amrex8FabArrayINS_7BaseFabIdEEE17FB_local_copy_cpuERKNS_12FabArrayBase2FBEii
FN:259,_ZZN5amrex8FabArrayINS_7BaseFabIdEEE17FB_local_copy_cpuERKNS_12FabArrayBase2FBEiiENKUliiiiE_clEiiii
FNDA:0,_ZZN5amrex8FabArrayINS_7BaseFabIdEEE17FB_local_copy_cpuERKNS_12FabArrayBase2FBEiiENKUliiiiE_clEiiii
FN:900,_ZN5amrex8FabArrayINS_7BaseFabIdEEE20pack_send_buffer_cpuIdEEvRKS3_iiRKNS_6VectorIPcSaIS8_EEERKNS7_ImSaImEEERKNS7_IPKSt6vectorINS_12FabArrayBase10CopyComTagESaISJ_EESaISN_EEE
FNDA:0,_ZN5amrex8FabArrayINS_7BaseFabIdEEE20pack_send_buffer_cpuIdEEvRKS3_iiRKNS_6VectorIPcSaIS8_EEERKNS7_ImSaImEEERKNS7_IPKSt6vectorINS_12FabArrayBase10CopyComTagESaISJ_EESaISN_EEE
FN:925,_ZZN5amrex8FabArrayINS_7BaseFabIdEEE20pack_send_buffer_cpuIdEEvRKS3_iiRKNS_6VectorIPcSaIS8_EEERKNS7_ImSaImEEERKNS7_IPKSt6vectorINS_12FabArrayBase10CopyComTagESaISJ_EESaISN_EEEENKUliiiiE_clEiiii
FNDA:0,_ZZN5amrex8FabArrayINS_7BaseFabIdEEE20pack_send_buffer_cpuIdEEvRKS3_iiRKNS_6VectorIPcSaIS8_EEERKNS7_ImSaImEEERKNS7_IPKSt6vectorINS_12FabArrayBase10CopyComTagESaISJ_EESaISN_EEEENKUliiiiE_clEiiii
FN:939,_ZN5amrex8FabArrayINS_7BaseFabIdEEE22unpack_recv_buffer_cpuIdEEvRS3_iiRKNS_6VectorIPcSaIS7_EEERKNS6_ImSaImEEERKNS6_IPKSt6vectorINS_12FabArrayBase10CopyComTagESaISI_EESaISM_EEENSH_4CpOpEb
FNDA:0,_ZN5amrex8FabArrayINS_7BaseFabIdEEE22unpack_recv_buffer_cpuIdEEvRS3_iiRKNS_6VectorIPcSaIS7_EEERKNS6_ImSaImEEERKNS6_IPKSt6vectorINS_12FabArrayBase10CopyComTagESaISI_EESaISM_EEENSH_4CpOpEb
FN:1011,_ZZN5amrex8FabArrayINS_7BaseFabIdEEE22unpack_recv_buffer_cpuIdEEvRS3_iiRKNS_6VectorIPcSaIS7_EEERKNS6_ImSaImEEERKNS6_IPKSt6vectorINS_12FabArrayBase10CopyComTagESaISI_EESaISM_EEENSH_4CpOpEbENKUliiiiE_clEiiii
FNDA:0,_ZZN5amrex8FabArrayINS_7BaseFabIdEEE22unpack_recv_buffer_cpuIdEEvRS3_iiRKNS_6VectorIPcSaIS7_EEERKNS6_ImSaImEEERKNS6_IPKSt6vectorINS_12FabArrayBase10CopyComTagESaISI_EESaISM_EEENSH_4CpOpEbENKUliiiiE_clEiiii
FN:1019,_ZZN5amrex8FabArrayINS_7BaseFabIdEEE22unpack_recv_buffer_cpuIdEEvRS3_iiRKNS_6VectorIPcSaIS7_EEERKNS6_ImSaImEEERKNS6_IPKSt6vectorINS_12FabArrayBase10CopyComTagESaISI_EESaISM_EEENSH_4CpOpEbENKUliiiiE0_clEiiii
FNDA:0,_ZZN5amrex8FabArrayINS_7BaseFabIdEEE22unpack_recv_buffer_cpuIdEEvRS3_iiRKNS_6VectorIPcSaIS7_EEERKNS6_ImSaImEEERKNS6_IPKSt6vectorINS_12FabArrayBase10CopyComTagESaISI_EESaISM_EEENSH_4CpOpEbENKUliiiiE0_clEiiii
DA:211,0
DA:213,0
DA:214,0
DA:215,0
DA:216,0
DA:217,0
DA:222,0
DA:224,0
DA:229,0
DA:230,0
DA:231,0
DA:236,0
DA:237,0
DA:239,0
DA:244,0
DA:245,0
DA:250,0
DA:252,0
DA:253,0
DA:254,0
DA:256,0
DA:257,0
DA:258,0
DA:259,0
DA:261,0
DA:900,0
DA:907,0
DA:908,0
DA:913,0
DA:915,0
DA:917,0
DA:918,0
DA:919,0
DA:921,0
DA:922,0
DA:924,0
DA:925,0
DA:927,0
DA:929,0
DA:939,0
DA:947,0
DA:948,0
DA:950,0
DA:955,0
DA:957,0
DA:959,0
DA:960,0
DA:961,0
DA:963,0
DA:964,0
DA:965,0
DA:967,0
DA:971,0
DA:973,0
DA:981,0
DA:982,0
DA:983,0
DA:985,0
DA:987,0
DA:988,0
DA:989,0
DA:991,0
DA:992,0
DA:1001,0
DA:1003,0
DA:1004,0
DA:1005,0
DA:1007,0
DA:1008,0
DA:1010,0
DA:1011,0
DA:1013,0
DA:1018,0
DA:1019,0
DA:1021,0
end_of_record
SF:/home/brunnels/Research/alamo/ext/amrex/2d-coverage-g++-23.08/include/AMReX_GpuLaunchFunctsC.H
FN:26,_ZN5amrex6detail6call_fIZN2BC8Constant12FillBoundaryERNS_7BaseFabIdEERKNS_3BoxEiiidNS2_11OrientationEPKNS_4MaskEEUliiiE_EEDTclfp_Li0ELi0ELi0EEERKT_iii
FNDA:302691000,_ZN5amrex6detail6call_fIZN2BC8Constant12FillBoundaryERNS_7BaseFabIdEERKNS_3BoxEiiidNS2_11OrientationEPKNS_4MaskEEUliiiE_EEDTclfp_Li0ELi0ELi0EEERKT_iii
FN:160,_ZN5amrex11ParallelForIZN2BC8Constant12FillBoundaryERNS_7BaseFabIdEERKNS_3BoxEiiidNS1_11OrientationEPKNS_4MaskEEUliiiE_EEvS8_OT_
FNDA:2216800,_ZN5amrex11ParallelForIZN2BC8Constant12FillBoundaryERNS_7BaseFabIdEERKNS_3BoxEiiidNS1_11OrientationEPKNS_4MaskEEUliiiE_EEvS8_OT_
DA:26,302691000
DA:29,302691000
DA:30,302691000
DA:160,2216800
DA:164,4433600
DA:165,21795800
DA:167,322270000
DA:168,302691000
DA:170,2216800
end_of_record
SF:/home/brunnels/Research/alamo/ext/amrex/2d-coverage-g++-23.08/include/AMReX_Vector.H
FN:34,_ZN5amrex6VectorIPKSt6vectorINS_12FabArrayBase10CopyComTagESaIS3_EESaIS7_EEixEm
FNDA:0,_ZN5amrex6VectorIPKSt6vectorINS_12FabArrayBase10CopyComTagESaIS3_EESaIS7_EEixEm
FN:34,_ZN5amrex6VectorINS_15ParallelContext5FrameESaIS2_EEixEm
FNDA:4111,_ZN5amrex6VectorINS_15ParallelContext5FrameESaIS2_EEixEm
FN:34,_ZN5amrex6VectorIiSaIiEEixEm
FNDA:4594070,_ZN5amrex6VectorIiSaIiEEixEm
FN:34,_ZN5amrex6VectorINSt7__cxx1112basic_stringIcSt11char_traitsIcESaIcEEESaIS6_EEixEm
FNDA:0,_ZN5amrex6VectorINSt7__cxx1112basic_stringIcSt11char_traitsIcESaIcEEESaIS6_EEixEm
FN:34,_ZN5amrex6VectorIdSaIdEEixEm
FNDA:871847,_ZN5amrex6VectorIdSaIdEEixEm
FN:34,_ZN5amrex6VectorImSaImEEixEm
FNDA:0,_ZN5amrex6VectorImSaImEEixEm
FN:34,_ZN5amrex6VectorINS0_INS_10FabCopyTagINS_7BaseFabIdEEEESaIS4_EEESaIS6_EEixEm
FNDA:0,_ZN5amrex6VectorINS0_INS_10FabCopyTagINS_7BaseFabIdEEEESaIS4_EEESaIS6_EEixEm
FN:34,_ZN5amrex6VectorIPcSaIS1_EEixEm
FNDA:0,_ZN5amrex6VectorIPcSaIS1_EEixEm
FN:34,_ZN5amrex6VectorINS0_INS_11VoidCopyTagESaIS1_EEESaIS3_EEixEm
FNDA:0,_ZN5amrex6VectorINS0_INS_11VoidCopyTagESaIS1_EEESaIS3_EEixEm
FN:40,_ZNK5amrex6VectorImSaImEEixEm
FNDA:0,_ZNK5amrex6VectorImSaImEEixEm
FN:40,_ZNK5amrex6VectorIPcSaIS1_EEixEm
FNDA:0,_ZNK5amrex6VectorIPcSaIS1_EEixEm
FN:40,_ZNK5amrex6VectorIPKSt6vectorINS_12FabArrayBase10CopyComTagESaIS3_EESaIS7_EEixEm
FNDA:0,_ZNK5amrex6VectorIPKSt6vectorINS_12FabArrayBase10CopyComTagESaIS3_EESaIS7_EEixEm
FN:40,_ZNK5amrex6VectorIiSaIiEEixEm
FNDA:29245800,_ZNK5amrex6VectorIiSaIiEEixEm
FN:51,_ZNK5amrex6VectorIPKSt6vectorINS_12FabArrayBase10CopyComTagESaIS3_EESaIS7_EE4sizeEv
FNDA:0,_ZNK5amrex6VectorIPKSt6vectorINS_12FabArrayBase10CopyComTagESaIS3_EESaIS7_EE4sizeEv
FN:51,_ZNK5amrex6VectorIdSaIdEE4sizeEv
FNDA:1108,_ZNK5amrex6VectorIdSaIdEE4sizeEv
FN:51,_ZNK5amrex6VectorImSaImEE4sizeEv
FNDA:0,_ZNK5amrex6VectorImSaImEE4sizeEv
FN:51,_ZNK5amrex6VectorIPcSaIS1_EE4sizeEv
FNDA:0,_ZNK5amrex6VectorIPcSaIS1_EE4sizeEv
FN:51,_ZNK5amrex6VectorIiSaIiEE4sizeEv
FNDA:1078590,_ZNK5amrex6VectorIiSaIiEE4sizeEv
DA:34,0
DA:37,0
DA:34,0
DA:37,0
DA:34,0
DA:37,0
DA:34,0
DA:37,0
DA:34,0
DA:37,0
DA:34,871847
DA:37,871847
DA:34,0
DA:37,0
DA:34,4594070
DA:37,4594070
DA:34,4111
DA:37,4111
DA:40,0
DA:43,0
DA:40,0
DA:43,0
DA:40,0
DA:43,0
DA:40,29245800
DA:43,29245800
DA:51,0
DA:51,0
DA:51,0
DA:51,1108
DA:51,1078590
end_of_record
SF:/home/brunnels/Research/alamo/ext/amrex/2d-coverage-g++-23.08/include/AMReX_FabArrayCommI.H
FN:8,_ZN5amrex8FabArrayINS_7BaseFabIdEEE11FBEP_nowaitIdS2_Li0EEEviiRKNS_7IntVectERKNS_11PeriodicityEbbb
FNDA:0,_ZN5amrex8FabArrayINS_7BaseFabIdEEE11FBEP_nowaitIdS2_Li0EEEviiRKNS_7IntVectERKNS_11PeriodicityEbbb
FN:168,_ZN5amrex8FabArrayINS_7BaseFabIdEEE19FillBoundary_finishIdS2_Li0EEEvv
FNDA:0,_ZN5amrex8FabArrayINS_7BaseFabIdEEE19FillBoundary_finishIdS2_Li0EEEvv
FN:635,_ZNK5amrex8FabArrayINS_7BaseFabIdEEE18PrepareSendBuffersIdEEvRKSt3mapIiSt6vectorINS_12FabArrayBase10CopyComTagESaIS8_EESt4lessIiESaISt4pairIKiSA_EEERPcRNS_6VectorISK_SaISK_EEERNSM_ImSaImEEERNSM_IiSaIiEEESV_RNSM_IPKSA_SaISX_EEEi
FNDA:0,_ZNK5amrex8FabArrayINS_7BaseFabIdEEE18PrepareSendBuffersIdEEvRKSt3mapIiSt6vectorINS_12FabArrayBase10CopyComTagESaIS8_EESt4lessIiESaISt4pairIKiSA_EEERPcRNS_6VectorISK_SaISK_EEERNSM_ImSaImEEERNSM_IiSaIiEEESV_RNSM_IPKSA_SaISX_EEEi
FN:699,_ZN5amrex8FabArrayINS_7BaseFabIdEEE8PostSndsERKNS_6VectorIPcSaIS5_EEERKNS4_ImSaImEEERKNS4_IiSaIiEEERSF_i
FNDA:0,_ZN5amrex8FabArrayINS_7BaseFabIdEEE8PostSndsERKNS_6VectorIPcSaIS5_EEERKNS4_ImSaImEEERKNS4_IiSaIiEEERSF_i
FN:736,_ZNK5amrex8FabArrayINS_7BaseFabIdEEE8PostRcvsIdEEvRKSt3mapIiSt6vectorINS_12FabArrayBase10CopyComTagESaIS8_EESt4lessIiESaISt4pairIKiSA_EEERPcRNS_6VectorISK_SaISK_EEERNSM_ImSaImEEERNSM_IiSaIiEEESV_ii
FNDA:0,_ZNK5amrex8FabArrayINS_7BaseFabIdEEE8PostRcvsIdEEvRKSt3mapIiSt6vectorINS_12FabArrayBase10CopyComTagESaIS8_EESt4lessIiESaISt4pairIKiSA_EEERPcRNS_6VectorISK_SaISK_EEERNSM_ImSaImEEERNSM_IiSaIiEEESV_ii
FN:831,_ZN5amrex8FabArrayINS_7BaseFabIdEEE17FillBoundary_testEv
FNDA:0,_ZN5amrex8FabArrayINS_7BaseFabIdEEE17FillBoundary_testEv
DA:8,0
DA:20,0
DA:21,0
DA:22,0
DA:23,0
DA:25,0
DA:27,0
DA:29,0
DA:31,0
DA:36,0
DA:37,0
DA:55,0
DA:58,0
DA:67,0
DA:69,0
DA:70,0
DA:71,0
DA:73,0
DA:75,0
DA:78,0
DA:79,0
DA:80,0
DA:81,0
DA:82,0
DA:88,0
DA:89,0
DA:90,0
DA:92,0
DA:98,0
DA:99,0
DA:100,0
DA:101,0
DA:102,0
DA:103,0
DA:105,0
DA:107,0
DA:126,0
DA:130,0
DA:133,0
DA:138,0
DA:156,0
DA:159,0
DA:168,0
DA:175,0
DA:177,0
DA:178,0
DA:179,0
DA:181,0
DA:182,0
DA:184,0
DA:186,0
DA:187,0
DA:191,0
DA:193,0
DA:194,0
DA:203,0
DA:225,0
DA:229,0
DA:231,0
DA:232,0
DA:236,0
DA:237,0
DA:238,0
DA:239,0
DA:240,0
DA:241,0
DA:244,0
DA:635,0
DA:644,0
DA:645,0
DA:646,0
DA:647,0
DA:648,0
DA:649,0
DA:650,0
DA:651,0
DA:652,0
DA:653,0
DA:654,0
DA:655,0
DA:657,0
DA:658,0
DA:659,0
DA:661,0
DA:663,0
DA:664,0
DA:666,0
DA:669,0
DA:670,0
DA:673,0
DA:676,0
DA:677,0
DA:679,0
DA:680,0
DA:681,0
DA:682,0
DA:683,0
DA:686,0
DA:688,0
DA:689,0
DA:690,0
DA:693,0
DA:699,0
DA:705,0
DA:707,0
DA:708,0
DA:710,0
DA:711,0
DA:712,0
DA:713,0
DA:716,0
DA:736,0
DA:745,0
DA:746,0
DA:747,0
DA:748,0
DA:750,0
DA:751,0
DA:752,0
DA:754,0
DA:755,0
DA:757,0
DA:760,0
DA:761,0
DA:764,0
DA:767,0
DA:768,0
DA:770,0
DA:771,0
DA:772,0
DA:773,0
DA:776,0
DA:778,0
DA:780,0
DA:782,0
DA:786,0
DA:788,0
DA:790,0
DA:791,0
DA:793,0
DA:794,0
DA:795,0
DA:799,0
DA:831,0
DA:837,0
DA:839,0
end_of_record
SF:/home/brunnels/Research/alamo/ext/amrex/2d-coverage-g++-23.08/include/AMReX_Box.H
FN:102,_ZNKR5amrex3Box8smallEndEv
FNDA:0,_ZNKR5amrex3Box8smallEndEv
FN:154,_ZNK5amrex3Box6lengthEi
FNDA:2572600000,_ZNK5amrex3Box6lengthEi
FN:213,_ZNK5amrex3Box2okEv
FNDA:1401330,_ZNK5amrex3Box2okEv
FN:340,_ZNK5amrex3Box6numPtsEv
FNDA:857541000,_ZNK5amrex3Box6numPtsEv
FN:598,_ZN5amrex3Box4growEi
FNDA:2636270,_ZN5amrex3Box4growEi
DA:102,0
DA:154,7717790000
DA:213,4204000
DA:340,857541000
DA:341,857541000
DA:598,7908810
DA:1594,157740000
DA:1608,59694300
DA:1622,102067000
DA:1636,102067000
end_of_record
SF:/home/brunnels/Research/alamo/src/BC/BC.H
FN:47,_ZN2BC2BCIdED0Ev
FNDA:0,_ZN2BC2BCIdED0Ev
FN:47,_ZN2BC2BCIdED2Ev
FNDA:17,_ZN2BC2BCIdED2Ev
FN:58,_ZN2BC2BCIdE12FillBoundaryERN5amrex8FabArrayINS2_7BaseFabIdEEEEiidi
FNDA:0,_ZN2BC2BCIdE12FillBoundaryERN5amrex8FabArrayINS2_7BaseFabIdEEEEiidi
FN:71,_ZN2BC2BCIdE12FillBoundaryERN5amrex8FabArrayINS2_7BaseFabIdEEEEiiRKNS2_7IntVectEdi
FNDA:0,_ZN2BC2BCIdE12FillBoundaryERN5amrex8FabArrayINS2_7BaseFabIdEEEEiiRKNS2_7IntVectEdi
FN:114,_ZN2BC2BCIdE10IsPeriodicEv
FNDA:0,_ZN2BC2BCIdE10IsPeriodicEv
FN:119,_ZNK2BC2BCIdE11PeriodicityEv
FNDA:0,_ZNK2BC2BCIdE11PeriodicityEv
FN:123,_ZN2BC2BCIdE11PeriodicityERKN5amrex3BoxE
FNDA:0,_ZN2BC2BCIdE11PeriodicityERKN5amrex3BoxE
DA:47,0
DA:47,17
DA:58,0
DA:62,0
DA:63,0
DA:65,0
DA:66,0
DA:67,0
DA:69,0
DA:71,0
DA:75,0
DA:76,0
DA:114,0
DA:116,0
DA:119,0
DA:120,0
DA:123,0
DA:124,0
end_of_record
SF:/home/brunnels/Research/alamo/ext/amrex/2d-coverage-g++-23.08/include/AMReX_Geometry.H
FN:210,_ZNK5amrex8Geometry6DomainEv
FNDA:3743760,_ZNK5amrex8Geometry6DomainEv
FN:317,_ZNK5amrex8Geometry10isPeriodicEi
FNDA:57745500,_ZNK5amrex8Geometry10isPeriodicEi
FN:341,_ZNK5amrex8Geometry11periodicityEv
FNDA:78256,_ZNK5amrex8Geometry11periodicityEv
FN:347,_ZNK5amrex8Geometry11periodicityERKNS_3BoxE
FNDA:0,_ZNK5amrex8Geometry11periodicityERKNS_3BoxE
DA:210,3743760
DA:317,57745500
DA:341,78256
DA:342,78256
DA:344,78256
DA:347,0
DA:349,0
DA:351,0
end_of_record
SF:/home/brunnels/Research/alamo/ext/amrex/2d-coverage-g++-23.08/include/AMReX_ParallelContext.H
FN:27,_ZNK5amrex15ParallelContext5Frame6MyProcEv
FNDA:13740,_ZNK5amrex15ParallelContext5Frame6MyProcEv
FN:28,_ZNK5amrex15ParallelContext5Frame6NProcsEv
FNDA:956520,_ZNK5amrex15ParallelContext5Frame6NProcsEv
FN:61,_ZN5amrex15ParallelContext9MyProcAllEv
FNDA:3874,_ZN5amrex15ParallelContext9MyProcAllEv
FN:70,_ZN5amrex15ParallelContext15CommunicatorSubEv
FNDA:12066,_ZN5amrex15ParallelContext15CommunicatorSubEv
FN:74,_ZN5amrex15ParallelContext9NProcsSubEv
FNDA:956283,_ZN5amrex15ParallelContext9NProcsSubEv
FN:93,_ZN5amrex15ParallelContext15get_inc_mpi_tagEv
FNDA:0,_ZN5amrex15ParallelContext15get_inc_mpi_tagEv
FN:98,_ZN5amrex15ParallelContext20global_to_local_rankEi
FNDA:0,_ZN5amrex15ParallelContext20global_to_local_rankEi
DA:27,13740
DA:28,956520
DA:61,3874
DA:70,12066
DA:74,956283
DA:93,0
DA:98,0
end_of_record
SF:/home/brunnels/Research/alamo/ext/amrex/2d-coverage-g++-23.08/include/AMReX_Array4.H
FN:85,_ZN5amrex6Array4IKdEC2EPS1_RKNS_4Dim3ES6_i
FNDA:19057200,_ZN5amrex6Array4IKdEC2EPS1_RKNS_4Dim3ES6_i
FN:85,_ZN5amrex6Array4IdEC2EPdRKNS_4Dim3ES5_i
FNDA:22626000,_ZN5amrex6Array4IdEC2EPdRKNS_4Dim3ES5_i
DA:85,19057200
DA:87,19057200
DA:88,19057200
DA:89,19057200
DA:92,19057200
DA:93,19057200
DA:85,22626000
DA:87,22626000
DA:88,22626000
DA:89,22626000
DA:92,22626000
DA:93,22626000
DA:143,902296000
DA:219,0
end_of_record
SF:/home/brunnels/Research/alamo/ext/amrex/2d-coverage-g++-23.08/include/AMReX_LayoutData.H
FN:17,_ZN5amrex10LayoutDataINS_6VectorINS_11VoidCopyTagESaIS2_EEEEC2Ev
FNDA:0,_ZN5amrex10LayoutDataINS_6VectorINS_11VoidCopyTagESaIS2_EEEEC2Ev
FN:19,_ZN5amrex10LayoutDataINS_6VectorINS_10FabCopyTagINS_7BaseFabIdEEEESaIS5_EEEEC2ERKNS_8BoxArrayERKNS_19DistributionMappingE
FNDA:0,_ZN5amrex10LayoutDataINS_6VectorINS_10FabCopyTagINS_7BaseFabIdEEEESaIS5_EEEEC2ERKNS_8BoxArrayERKNS_19DistributionMappingE
FN:25,_ZN5amrex10LayoutDataINS_6VectorINS_10FabCopyTagINS_7BaseFabIdEEEESaIS5_EEEE6defineERKNS_8BoxArrayERKNS_19DistributionMappingE
FNDA:0,_ZN5amrex10LayoutDataINS_6VectorINS_10FabCopyTagINS_7BaseFabIdEEEESaIS5_EEEE6defineERKNS_8BoxArrayERKNS_19DistributionMappingE
FN:25,_ZN5amrex10LayoutDataINS_6VectorINS_11VoidCopyTagESaIS2_EEEE6defineERKNS_8BoxArrayERKNS_19DistributionMappingE
FNDA:0,_ZN5amrex10LayoutDataINS_6VectorINS_11VoidCopyTagESaIS2_EEEE6defineERKNS_8BoxArrayERKNS_19DistributionMappingE
FN:34,_ZN5amrex10LayoutDataINS_6VectorINS_10FabCopyTagINS_7BaseFabIdEEEESaIS5_EEEED2Ev
FNDA:0,_ZN5amrex10LayoutDataINS_6VectorINS_10FabCopyTagINS_7BaseFabIdEEEESaIS5_EEEED2Ev
FN:34,_ZN5amrex10LayoutDataINS_6VectorINS_11VoidCopyTagESaIS2_EEEED2Ev
FNDA:0,_ZN5amrex10LayoutDataINS_6VectorINS_11VoidCopyTagESaIS2_EEEED2Ev
FN:84,_ZN5amrex10LayoutDataINS_6VectorINS_10FabCopyTagINS_7BaseFabIdEEEESaIS5_EEEEixERKNS_6MFIterE
FNDA:0,_ZN5amrex10LayoutDataINS_6VectorINS_10FabCopyTagINS_7BaseFabIdEEEESaIS5_EEEEixERKNS_6MFIterE
FN:84,_ZN5amrex10LayoutDataINS_6VectorINS_11VoidCopyTagESaIS2_EEEEixERKNS_6MFIterE
FNDA:0,_ZN5amrex10LayoutDataINS_6VectorINS_11VoidCopyTagESaIS2_EEEEixERKNS_6MFIterE
FN:101,_ZN5amrex10LayoutDataINS_6VectorINS_10FabCopyTagINS_7BaseFabIdEEEESaIS5_EEEEixEi
FNDA:0,_ZN5amrex10LayoutDataINS_6VectorINS_10FabCopyTagINS_7BaseFabIdEEEESaIS5_EEEEixEi
FN:101,_ZN5amrex10LayoutDataINS_6VectorINS_11VoidCopyTagESaIS2_EEEEixEi
FNDA:0,_ZN5amrex10LayoutDataINS_6VectorINS_11VoidCopyTagESaIS2_EEEEixEi
DA:17,0
DA:19,0
DA:21,0
DA:22,0
DA:23,0
DA:25,0
DA:28,0
DA:29,0
DA:30,0
DA:31,0
DA:32,0
DA:25,0
DA:28,0
DA:29,0
DA:30,0
DA:31,0
DA:32,0
DA:34,0
DA:34,0
DA:84,0
DA:86,0
DA:89,0
DA:84,0
DA:86,0
DA:89,0
DA:101,0
DA:103,0
DA:105,0
DA:101,0
DA:103,0
DA:105,0
end_of_record
SF:/home/brunnels/Research/alamo/ext/amrex/2d-coverage-g++-23.08/include/AMReX_Periodicity.H
FN:20,_ZN5amrex11PeriodicityC2ERKNS_7IntVectE
FNDA:78256,_ZN5amrex11PeriodicityC2ERKNS_7IntVectE
FN:22,_ZNK5amrex11Periodicity13isAnyPeriodicEv
FNDA:0,_ZNK5amrex11Periodicity13isAnyPeriodicEv
DA:20,78256
DA:22,0
DA:23,0
end_of_record
SF:/home/brunnels/Research/alamo/src/Numeric/Interpolator/Interpolator.H
FN:24,_ZN7Numeric12Interpolator12InterpolatorIdEC2Ev
FNDA:366,_ZN7Numeric12Interpolator12InterpolatorIdEC2Ev
DA:24,366
end_of_record
SF:/home/brunnels/Research/alamo/ext/amrex/2d-coverage-g++-23.08/include/AMReX_MFIter.H
FN:141,_ZNK5amrex6MFIter7isValidEv
FNDA:12984700,_ZNK5amrex6MFIter7isValidEv
FN:159,_ZNK5amrex6MFIter10LocalIndexEv
FNDA:17691400,_ZNK5amrex6MFIter10LocalIndexEv
DA:141,12984700
DA:159,17691400
end_of_record
SF:/home/brunnels/Research/alamo/src/Util/Util.H
FN:82,_ZN4Util5AbortIJA30_cEEEvNSt7__cxx1112basic_stringIcSt11char_traitsIcESaIcEEES7_iDpRKT_
FNDA:0,_ZN4Util5AbortIJA30_cEEEvNSt7__cxx1112basic_stringIcSt11char_traitsIcESaIcEEES7_iDpRKT_
FN:163,_ZN4Util7WarningIJA63_cEEEvNSt7__cxx1112basic_stringIcSt11char_traitsIcESaIcEEES7_iDpRKT_
FNDA:53,_ZN4Util7WarningIJA63_cEEEvNSt7__cxx1112basic_stringIcSt11char_traitsIcESaIcEEES7_iDpRKT_
DA:60,1340360
DA:62,0
DA:63,0
DA:64,0
DA:65,0
DA:66,0
DA:67,0
DA:70,0
DA:72,0
DA:73,0
DA:74,0
DA:76,0
DA:78,0
DA:82,0
DA:84,0
DA:86,0
DA:87,0
DA:88,0
DA:89,0
DA:90,0
DA:92,0
DA:94,0
DA:95,0
DA:97,0
DA:98,0
DA:100,0
DA:101,0
DA:163,53
DA:165,53
DA:167,106
DA:168,53
DA:169,53
DA:170,53
DA:171,106
DA:173,106
DA:175,53
DA:176,106
DA:178,53
DA:180,53
DA:182,53
end_of_record
SF:/home/brunnels/Research/alamo/ext/amrex/2d-coverage-g++-23.08/include/AMReX_BoxArray.H
FN:537,_ZN5amrex8BoxArrayD2Ev
FNDA:1240710,_ZN5amrex8BoxArrayD2Ev
FN:787,_ZN5amrex8BoxArray5RefIDC2Ev
FNDA:14719,_ZN5amrex8BoxArray5RefIDC2Ev
DA:537,1240710
DA:787,14719
end_of_record
SF:/home/brunnels/Research/alamo/ext/amrex/2d-coverage-g++-23.08/include/AMReX_CoordSys.H
FN:72,_ZNK5amrex8CoordSys8CellSizeEv
FNDA:6161440,_ZNK5amrex8CoordSys8CellSizeEv
DA:72,6161440
end_of_record
SF:/home/brunnels/Research/alamo/ext/amrex/2d-coverage-g++-23.08/include/AMReX_Loop.H
FN:201,_ZN5amrex19LoopConcurrentOnCpuIZNS_8FabArrayINS_7BaseFabIdEEE20pack_send_buffer_cpuIdEEvRKS4_iiRKNS_6VectorIPcSaIS9_EEERKNS8_ImSaImEEERKNS8_IPKSt6vectorINS_12FabArrayBase10CopyComTagESaISK_EESaISO_EEEEUliiiiE_EEvRKNS_3BoxEiOT_
FNDA:0,_ZN5amrex19LoopConcurrentOnCpuIZNS_8FabArrayINS_7BaseFabIdEEE20pack_send_buffer_cpuIdEEvRKS4_iiRKNS_6VectorIPcSaIS9_EEERKNS8_ImSaImEEERKNS8_IPKSt6vectorINS_12FabArrayBase10CopyComTagESaISK_EESaISO_EEEEUliiiiE_EEvRKNS_3BoxEiOT_
FN:201,_ZN5amrex19LoopConcurrentOnCpuIZNS_8FabArrayINS_7BaseFabIdEEE17FB_local_copy_cpuERKNS_12FabArrayBase2FBEiiEUliiiiE_EEvRKNS_3BoxEiOT_
FNDA:0,_ZN5amrex19LoopConcurrentOnCpuIZNS_8FabArrayINS_7BaseFabIdEEE17FB_local_copy_cpuERKNS_12FabArrayBase2FBEiiEUliiiiE_EEvRKNS_3BoxEiOT_
FN:201,_ZN5amrex19LoopConcurrentOnCpuIZNS_8FabArrayINS_7BaseFabIdEEE22unpack_recv_buffer_cpuIdEEvRS4_iiRKNS_6VectorIPcSaIS8_EEERKNS7_ImSaImEEERKNS7_IPKSt6vectorINS_12FabArrayBase10CopyComTagESaISJ_EESaISN_EEENSI_4CpOpEbEUliiiiE0_EEvRKNS_3BoxEiOT_
FNDA:0,_ZN5amrex19LoopConcurrentOnCpuIZNS_8FabArrayINS_7BaseFabIdEEE22unpack_recv_buffer_cpuIdEEvRS4_iiRKNS_6VectorIPcSaIS8_EEERKNS7_ImSaImEEERKNS7_IPKSt6vectorINS_12FabArrayBase10CopyComTagESaISJ_EESaISN_EEENSI_4CpOpEbEUliiiiE0_EEvRKNS_3BoxEiOT_
FN:201,_ZN5amrex19LoopConcurrentOnCpuIZNS_8FabArrayINS_7BaseFabIdEEE22unpack_recv_buffer_cpuIdEEvRS4_iiRKNS_6VectorIPcSaIS8_EEERKNS7_ImSaImEEERKNS7_IPKSt6vectorINS_12FabArrayBase10CopyComTagESaISJ_EESaISN_EEENSI_4CpOpEbEUliiiiE_EEvRKNS_3BoxEiOT_
FNDA:0,_ZN5amrex19LoopConcurrentOnCpuIZNS_8FabArrayINS_7BaseFabIdEEE22unpack_recv_buffer_cpuIdEEvRS4_iiRKNS_6VectorIPcSaIS8_EEERKNS7_ImSaImEEERKNS7_IPKSt6vectorINS_12FabArrayBase10CopyComTagESaISJ_EESaISN_EEENSI_4CpOpEbEUliiiiE_EEvRKNS_3BoxEiOT_
FN:201,_ZN5amrex19LoopConcurrentOnCpuIZNS_7BaseFabIdE4copyILNS_5RunOnE1EEERS2_RKS2_RKNS_3BoxEiSA_iiEUliiiiE_EEvSA_iOT_
FNDA:16340900,_ZN5amrex19LoopConcurrentOnCpuIZNS_7BaseFabIdE4copyILNS_5RunOnE1EEERS2_RKS2_RKNS_3BoxEiSA_iiEUliiiiE_EEvSA_iOT_
FN:201,_ZN5amrex19LoopConcurrentOnCpuIZNS_7BaseFabIdE10addFromMemILNS_5RunOnE1EdEEmRKNS_3BoxEiiPKvEUliiiiE_EEvS7_iOT_
FNDA:0,_ZN5amrex19LoopConcurrentOnCpuIZNS_7BaseFabIdE10addFromMemILNS_5RunOnE1EdEEmRKNS_3BoxEiiPKvEUliiiiE_EEvS7_iOT_
FN:201,_ZN5amrex19LoopConcurrentOnCpuIZNS_7BaseFabIdE11copyFromMemILNS_5RunOnE1EdEEmRKNS_3BoxEiiPKvEUliiiiE_EEvS7_iOT_
FNDA:0,_ZN5amrex19LoopConcurrentOnCpuIZNS_7BaseFabIdE11copyFromMemILNS_5RunOnE1EdEEmRKNS_3BoxEiiPKvEUliiiiE_EEvS7_iOT_
DA:201,0
DA:205,0
DA:206,0
DA:207,0
DA:209,0
DA:210,0
DA:212,0
DA:201,0
DA:205,0
DA:206,0
DA:207,0
DA:209,0
DA:210,0
DA:212,0
DA:201,0
DA:205,0
DA:206,0
DA:207,0
DA:209,0
DA:210,0
DA:212,0
DA:201,0
DA:205,0
DA:206,0
DA:207,0
DA:209,0
DA:210,0
DA:212,0
DA:201,16340900
DA:205,46794400
DA:206,60906900
DA:207,139199000
DA:209,553788000
DA:210,445042000
DA:212,16340900
DA:201,0
DA:205,0
DA:206,0
DA:207,0
DA:209,0
DA:210,0
DA:212,0
DA:201,0
DA:205,0
DA:206,0
DA:207,0
DA:209,0
DA:210,0
DA:212,0
end_of_record
SF:/home/brunnels/Research/alamo/src/BC/Constant.cpp
FN:7,_ZN2BC8ConstantC2EiN5amrex6VectorINSt7__cxx1112basic_stringIcSt11char_traitsIcESaIcEEESaIS8_EEESA_NS2_IdSaIdEEESC_SC_SC_
FNDA:0,_ZN2BC8ConstantC2EiN5amrex6VectorINSt7__cxx1112basic_stringIcSt11char_traitsIcESaIcEEESaIS8_EEESA_NS2_IdSaIdEEESC_SC_SC_
FN:59,_ZN2BC8Constant12FillBoundaryERN5amrex7BaseFabIdEERKNS1_3BoxEiiidNS_11OrientationEPKNS1_4MaskE
FNDA:1340360,_ZN2BC8Constant12FillBoundaryERN5amrex7BaseFabIdEERKNS1_3BoxEiiidNS_11OrientationEPKNS1_4MaskE
FN:75,_ZZN2BC8Constant12FillBoundaryERN5amrex7BaseFabIdEERKNS1_3BoxEiiidNS_11OrientationEPKNS1_4MaskEENKUliiiE_clEiii
FNDA:302691000,_ZZN2BC8Constant12FillBoundaryERN5amrex7BaseFabIdEERKNS1_3BoxEiiidNS_11OrientationEPKNS1_4MaskEENKUliiiE_clEiii
FN:174,_ZN2BC8Constant8GetBCRecEv
FNDA:9108,_ZN2BC8Constant8GetBCRecEv
FN:183,_ZN2BC8Constant10IsPeriodicEv
FNDA:0,_ZN2BC8Constant10IsPeriodicEv
FN:189,_ZNK2BC8Constant11PeriodicityEv
FNDA:0,_ZNK2BC8Constant11PeriodicityEv
FN:195,_ZN2BC8Constant11PeriodicityERKN5amrex3BoxE
FNDA:0,_ZN2BC8Constant11PeriodicityERKN5amrex3BoxE
DA:7,0
DA:15,0
DA:20,0
DA:22,0
DA:24,0
DA:25,0
DA:26,0
DA:27,0
DA:34,0
DA:35,0
DA:36,0
DA:37,0
DA:43,0
DA:45,0
DA:46,0
DA:47,0
DA:48,0
DA:54,0
DA:59,1340360
DA:64,1340360
DA:66,2680730
DA:68,1340360
DA:69,1340360
DA:70,4021090
DA:72,1340360
DA:74,3557160
DA:75,2216800
DA:77,302691000
DA:78,908073000
DA:82,302691000
DA:84,4675140
DA:85,8146230
DA:86,602024
DA:87,922992
DA:88,294360
DA:89,0
DA:90,294360
DA:91,0
DA:92,294360
DA:94,0
DA:96,298016000
DA:98,858804
DA:99,789448
DA:100,464080
DA:101,1053840
DA:102,112800
DA:103,0
DA:104,112800
DA:105,0
DA:106,112800
DA:108,0
DA:111,297157000
DA:113,4198820
DA:114,6662060
DA:115,867796
DA:116,2151590
DA:117,150600
DA:118,0
DA:119,150600
DA:120,0
DA:121,150600
DA:123,0
DA:125,292958000
DA:127,1055840
DA:128,633324
DA:129,739180
DA:130,2014740
DA:131,67600
DA:132,0
DA:133,67600
DA:134,0
DA:135,67600
DA:137,0
DA:170,302691000
DA:171,1340360
DA:174,9108
DA:176,9108
DA:177,9108
DA:179,9108
DA:183,0
DA:185,0
DA:187,0
DA:189,0
DA:191,0
DA:193,0
DA:195,0
DA:196,0
DA:198,0
end_of_record
SF:/home/brunnels/Research/alamo/ext/amrex/2d-coverage-g++-23.08/include/AMReX_FabArrayBase.H
FN:39,_ZN5amrex12FabArrayBaseC2Ev
FNDA:14719,_ZN5amrex12FabArrayBaseC2Ev
FN:40,_ZN5amrex12FabArrayBaseD2Ev
FNDA:1162440,_ZN5amrex12FabArrayBaseD2Ev
FN:68,_ZNK5amrex12FabArrayBase5nGrowEi
FNDA:2070560,_ZNK5amrex12FabArrayBase5nGrowEi
FN:73,_ZNK5amrex12FabArrayBase5nCompEv
FNDA:1163620,_ZNK5amrex12FabArrayBase5nCompEv
FN:85,_ZNK5amrex12FabArrayBase8boxArrayEv
FNDA:551328,_ZNK5amrex12FabArrayBase8boxArrayEv
FN:103,_ZNK5amrex12FabArrayBase10local_sizeEv
FNDA:0,_ZNK5amrex12FabArrayBase10local_sizeEv
FN:109,_ZNK5amrex12FabArrayBase10localindexEi
FNDA:33769700,_ZNK5amrex12FabArrayBase10localindexEi
FN:121,_ZNK5amrex12FabArrayBase15DistributionMapEv
FNDA:393155,_ZNK5amrex12FabArrayBase15DistributionMapEv
FN:221,_ZN5amrex12FabArrayBase5BDKeyC2Ev
FNDA:14719,_ZN5amrex12FabArrayBase5BDKeyC2Ev
DA:39,14719
DA:40,1162440
DA:68,4141130
DA:73,1163620
DA:85,551328
DA:103,0
DA:109,33769700
DA:111,33769700
DA:112,33769700
DA:113,33769700
DA:116,0
DA:121,393155
DA:221,14719
end_of_record
SF:/home/brunnels/Research/alamo/ext/amrex/2d-coverage-g++-23.08/include/AMReX_IntVect.H
FN:87,_ZN5amrex7IntVectC2Ev
FNDA:29438,_ZN5amrex7IntVectC2Ev
FN:96,_ZN5amrex7IntVectC2Eii
FNDA:347260000,_ZN5amrex7IntVectC2Eii
FN:100,_ZN5amrex7IntVectC2Ei
FNDA:2061650,_ZN5amrex7IntVectC2Ei
DA:87,29438
DA:96,347260000
DA:100,2061650
DA:134,0
DA:169,0
DA:196,1796200000
DA:200,5428310000
DA:327,4204000
DA:399,0
DA:476,5272540
DA:493,0
end_of_record
SF:/home/brunnels/Research/alamo/src/Util/Color.H
end_of_record
SF:/home/brunnels/Research/alamo/ext/amrex/2d-coverage-g++-23.08/include/AMReX_BCRec.H
FN:40,_ZN5amrex5BCRecC2EPKiS2_
FNDA:9108,_ZN5amrex5BCRecC2EPKiS2_
DA:40,9108
DA:41,9108
DA:42,9108
DA:43,9108
end_of_record
SF:/home/brunnels/Research/alamo/ext/amrex/2d-coverage-g++-23.08/include/AMReX_IndexType.H
DA:69,1401330
end_of_record
SF:/home/brunnels/Research/alamo/ext/amrex/2d-coverage-g++-23.08/include/AMReX_BaseFab.H
FN:278,_ZNK5amrex7BaseFabIdE5nCompEv
FNDA:4897520,_ZNK5amrex7BaseFabIdE5nCompEv
FN:1851,_ZN5amrex7BaseFabIdE4copyILNS_5RunOnE1EEERS1_RKS1_RKNS_3BoxEiS9_ii
FNDA:16340900,_ZN5amrex7BaseFabIdE4copyILNS_5RunOnE1EEERS1_RKS1_RKNS_3BoxEiS9_ii
FN:1867,_ZZN5amrex7BaseFabIdE4copyILNS_5RunOnE1EEERS1_RKS1_RKNS_3BoxEiS9_iiENKUliiiiE_clEiiii
FNDA:445042000,_ZZN5amrex7BaseFabIdE4copyILNS_5RunOnE1EEERS1_RKS1_RKNS_3BoxEiS9_iiENKUliiiiE_clEiiii
FN:2175,_ZN5amrex7BaseFabIdE11copyFromMemILNS_5RunOnE1EdEEmRKNS_3BoxEiiPKv
FNDA:0,_ZN5amrex7BaseFabIdE11copyFromMemILNS_5RunOnE1EdEEmRKNS_3BoxEiiPKv
FN:2188,_ZZN5amrex7BaseFabIdE11copyFromMemILNS_5RunOnE1EdEEmRKNS_3BoxEiiPKvENKUliiiiE_clEiiii
FNDA:0,_ZZN5amrex7BaseFabIdE11copyFromMemILNS_5RunOnE1EdEEmRKNS_3BoxEiiPKvENKUliiiiE_clEiiii
FN:2203,_ZN5amrex7BaseFabIdE10addFromMemILNS_5RunOnE1EdEEmRKNS_3BoxEiiPKv
FNDA:0,_ZN5amrex7BaseFabIdE10addFromMemILNS_5RunOnE1EdEEmRKNS_3BoxEiiPKv
FN:2216,_ZZN5amrex7BaseFabIdE10addFromMemILNS_5RunOnE1EdEEmRKNS_3BoxEiiPKvENKUliiiiE_clEiiii
FNDA:0,_ZZN5amrex7BaseFabIdE10addFromMemILNS_5RunOnE1EdEEmRKNS_3BoxEiiPKvENKUliiiiE_clEiiii
DA:90,68044500
DA:278,4897520
DA:382,0
DA:400,19021700
DA:418,16340900
DA:1851,16340900
DA:1861,16340900
DA:1862,16340900
DA:1865,16340900
DA:1867,906426000
DA:1872,16340900
DA:2175,0
DA:2183,0
DA:2185,0
DA:2186,0
DA:2187,0
DA:2188,0
DA:2192,0
DA:2196,0
DA:2203,0
DA:2211,0
DA:2213,0
DA:2214,0
DA:2215,0
DA:2216,0
DA:2220,0
DA:2224,0
end_of_record
SF:/home/brunnels/Research/alamo/ext/amrex/2d-coverage-g++-23.08/include/AMReX_DistributionMapping.H
FN:67,_ZN5amrex19DistributionMappingD2Ev
FNDA:1163020,_ZN5amrex19DistributionMappingD2Ev
FN:363,_ZN5amrex19DistributionMapping5RefIDC2Ev
FNDA:14719,_ZN5amrex19DistributionMapping5RefIDC2Ev
DA:67,1163020
DA:363,14719
end_of_record
SF:/home/brunnels/Research/alamo/ext/amrex/2d-coverage-g++-23.08/include/AMReX.H
DA:107,16340900
end_of_record
SF:/home/brunnels/Research/alamo/ext/amrex/2d-coverage-g++-23.08/include/AMReX_Arena.H
FN:18,_ZN5amrex12aligned_sizeEmm
FNDA:0,_ZN5amrex12aligned_sizeEmm
DA:18,0
DA:20,0
end_of_record
SF:/home/brunnels/Research/alamo/src/Numeric/Interpolator/Linear.H
FN:56,_ZN7Numeric12Interpolator6LinearIdED2Ev
FNDA:224,_ZN7Numeric12Interpolator6LinearIdED2Ev
FN:57,_ZN7Numeric12Interpolator6LinearIdEC2ERKd
FNDA:170,_ZN7Numeric12Interpolator6LinearIdEC2ERKd
FN:114,_ZNK7Numeric12Interpolator6LinearIdEclEd
FNDA:10182400,_ZNK7Numeric12Interpolator6LinearIdEclEd
DA:56,224
DA:57,170
DA:58,170
DA:59,170
DA:60,170
DA:61,170
DA:114,10182400
DA:117,10182400
DA:120,1480
DA:122,0
DA:125,1480
DA:126,1480
DA:127,1480
DA:129,1480
DA:130,1480
DA:131,1480
DA:132,1480
DA:136,1480
DA:138,1480
DA:140,1480
DA:141,1480
DA:142,1480
DA:149,0
end_of_record
SF:/home/brunnels/Research/alamo/ext/amrex/2d-coverage-g++-23.08/include/AMReX_ParallelDescriptor.H
FN:74,_ZNK5amrex18ParallelDescriptor7Message3reqEv
FNDA:0,_ZNK5amrex18ParallelDescriptor7Message3reqEv
FN:125,_ZN5amrex18ParallelDescriptor6MyProcEv
FNDA:3874,_ZN5amrex18ParallelDescriptor6MyProcEv
FN:266,_ZN5amrex18ParallelDescriptor17IOProcessorNumberEv
FNDA:3908,_ZN5amrex18ParallelDescriptor17IOProcessorNumberEv
FN:275,_ZN5amrex18ParallelDescriptor11IOProcessorEv
FNDA:3874,_ZN5amrex18ParallelDescriptor11IOProcessorEv
FN:613,_ZN5amrex18ParallelDescriptor6SeqNumEv
FNDA:0,_ZN5amrex18ParallelDescriptor6SeqNumEv
DA:74,0
DA:125,3874
DA:127,3874
DA:266,3908
DA:268,3908
DA:275,3874
DA:277,3874
DA:613,0
end_of_record
SF:/home/brunnels/Research/alamo/ext/amrex/2d-coverage-g++-23.08/include/AMReX_FabArray.H
FN:475,_ZN5amrex8FabArrayINS_7BaseFabIdEEEixERKNS_6MFIterE
FNDA:0,_ZN5amrex8FabArrayINS_7BaseFabIdEEEixERKNS_6MFIterE
FN:487,_ZN5amrex8FabArrayINS_7BaseFabIdEEEixEi
FNDA:0,_ZN5amrex8FabArrayINS_7BaseFabIdEEEixEi
FN:490,_ZN5amrex8FabArrayINS_7BaseFabIdEEE3getEi
FNDA:0,_ZN5amrex8FabArrayINS_7BaseFabIdEEE3getEi
FN:1456,_ZN5amrex8FabArrayINS_7BaseFabIdEEE6fabPtrERKNS_6MFIterE
FNDA:0,_ZN5amrex8FabArrayINS_7BaseFabIdEEE6fabPtrERKNS_6MFIterE
FN:1476,_ZN5amrex8FabArrayINS_7BaseFabIdEEE6fabPtrEi
FNDA:0,_ZN5amrex8FabArrayINS_7BaseFabIdEEE6fabPtrEi
FN:1485,_ZNK5amrex8FabArrayINS_7BaseFabIdEEE6fabPtrEi
FNDA:0,_ZNK5amrex8FabArrayINS_7BaseFabIdEEE6fabPtrEi
FN:1527,_ZN5amrex8FabArrayINS_7BaseFabIdEEE5arrayIS2_Li0EEENS_6Array4IdEERKNS_6MFIterE
FNDA:0,_ZN5amrex8FabArrayINS_7BaseFabIdEEE5arrayIS2_Li0EEENS_6Array4IdEERKNS_6MFIterE
FN:1535,_ZNK5amrex8FabArrayINS_7BaseFabIdEEE5arrayIS2_Li0EEENS_6Array4IKdEEi
FNDA:0,_ZNK5amrex8FabArrayINS_7BaseFabIdEEE5arrayIS2_Li0EEENS_6Array4IKdEEi
FN:3001,_ZN5amrex8FabArrayINS_7BaseFabIdEEE12FillBoundaryIdEEvRKNS_11PeriodicityEb
FNDA:0,_ZN5amrex8FabArrayINS_7BaseFabIdEEE12FillBoundaryIdEEvRKNS_11PeriodicityEb
FN:3317,_ZN5amrex8FabArrayINS_7BaseFabIdEEE19FillBoundary_nowaitIdEEviiRKNS_7IntVectERKNS_11PeriodicityEb
FNDA:0,_ZN5amrex8FabArrayINS_7BaseFabIdEEE19FillBoundary_nowaitIdEEviiRKNS_7IntVectERKNS_11PeriodicityEb
DA:475,0
DA:487,0
DA:490,0
DA:1456,0
DA:1460,0
DA:1461,0
DA:1476,0
DA:1478,0
DA:1480,0
DA:1485,0
DA:1487,0
DA:1489,0
DA:1527,0
DA:1529,0
DA:1535,0
DA:1537,0
DA:3001,0
DA:3004,0
DA:3005,0
DA:3006,0
DA:3008,0
DA:3317,0
DA:3320,0
DA:3321,0
end_of_record
SF:/home/brunnels/Research/alamo/src/BC/Constant.H
FN:119,_ZN2BC8ConstantD0Ev
FNDA:0,_ZN2BC8ConstantD0Ev
FN:119,_ZN2BC8ConstantD2Ev
FNDA:0,_ZN2BC8ConstantD2Ev
DA:119,0
DA:119,0
end_of_record
TN:
SF:/home/brunnels/Research/alamo/src/BC/BC.cpp
FN:7,_ZN2BC6BCUtil10ReadStringENSt7__cxx1112basic_stringIcSt11char_traitsIcESaIcEEE
FNDA:0,_ZN2BC6BCUtil10ReadStringENSt7__cxx1112basic_stringIcSt11char_traitsIcESaIcEEE
FN:39,_ZN2BC6BCUtil10IsPeriodicEi
FNDA:625360,_ZN2BC6BCUtil10IsPeriodicEi
FN:48,_ZN2BC6BCUtil9IsNeumannEi
FNDA:2673080,_ZN2BC6BCUtil9IsNeumannEi
FN:55,_ZN2BC6BCUtil11IsDirichletEi
FNDA:10788600,_ZN2BC6BCUtil11IsDirichletEi
FN:61,_ZN2BC6BCUtil13IsReflectEvenEi
FNDA:625360,_ZN2BC6BCUtil13IsReflectEvenEi
FN:66,_ZN2BC6BCUtil12IsReflectOddEi
FNDA:625360,_ZN2BC6BCUtil12IsReflectOddEi
DA:7,0
DA:10,0
DA:11,0
DA:12,0
DA:13,0
DA:14,0
DA:15,0
DA:16,0
DA:17,0
DA:18,0
DA:19,0
DA:20,0
DA:21,0
DA:22,0
DA:23,0
DA:26,0
DA:27,0
DA:28,0
DA:29,0
DA:30,0
DA:31,0
DA:32,0
DA:33,0
DA:34,0
DA:35,0
DA:36,0
DA:37,0
DA:39,625360
DA:42,625360
DA:43,625360
DA:44,625360
DA:45,625360
DA:46,0
DA:48,2673080
DA:52,2673080
DA:53,625360
DA:55,10788600
DA:57,10788600
DA:58,10788600
DA:59,2673080
DA:61,625360
DA:63,625360
DA:64,625360
DA:66,625360
DA:68,625360
DA:69,625360
end_of_record
SF:/home/brunnels/Research/alamo/ext/amrex/2d-coverage-g++-23.08/include/AMReX_ParallelDescriptor.H
end_of_record
SF:/home/brunnels/Research/alamo/src/Util/Color.H
end_of_record
TN:
SF:/home/brunnels/Research/alamo/ext/amrex/2d-coverage-g++-23.08/include/AMReX_ParallelReduce.H
FN:36,_ZN5amrex6detail6ReduceIdEEvNS0_8ReduceOpEPT_iii
FNDA:0,_ZN5amrex6detail6ReduceIdEEvNS0_8ReduceOpEPT_iii
FN:58,_ZN5amrex6detail6ReduceIdEEvNS0_8ReduceOpERKNS_6VectorISt17reference_wrapperIT_ESaIS6_EEEii
FNDA:0,_ZN5amrex6detail6ReduceIdEEvNS0_8ReduceOpERKNS_6VectorISt17reference_wrapperIT_ESaIS6_EEEii
FN:186,_ZN5amrex17ParallelAllReduce3MaxIdEEvNS_6VectorISt17reference_wrapperIT_ESaIS5_EEEi
FNDA:0,_ZN5amrex17ParallelAllReduce3MaxIdEEvNS_6VectorISt17reference_wrapperIT_ESaIS5_EEEi
FN:298,_ZN5amrex14ParallelReduce3MaxIdEEvPT_iii
FNDA:0,_ZN5amrex14ParallelReduce3MaxIdEEvPT_iii
DA:36,0
DA:38,0
DA:39,0
DA:41,0
DA:45,0
DA:47,0
DA:50,0
DA:58,0
DA:61,0
DA:62,0
DA:63,0
DA:64,0
DA:66,0
DA:186,0
DA:187,0
DA:188,0
DA:298,0
DA:299,0
DA:300,0
end_of_record
SF:/home/brunnels/Research/alamo/src/Model/Interface/GB/Read.H
FN:34,_ZN5Model9Interface2GB4ReadC2ERN2IO9ParmParseENSt7__cxx1112basic_stringIcSt11char_traitsIcESaIcEEE
FNDA:0,_ZN5Model9Interface2GB4ReadC2ERN2IO9ParmParseENSt7__cxx1112basic_stringIcSt11char_traitsIcESaIcEEE
FN:40,_ZN5Model9Interface2GB4Read6DefineENSt7__cxx1112basic_stringIcSt11char_traitsIcESaIcEEE
FNDA:0,_ZN5Model9Interface2GB4Read6DefineENSt7__cxx1112basic_stringIcSt11char_traitsIcESaIcEEE
FN:71,_ZNK5Model9Interface2GB4Read1WEd
FNDA:0,_ZNK5Model9Interface2GB4Read1WEd
FN:75,_ZNK5Model9Interface2GB4Read2DWEd
FNDA:0,_ZNK5Model9Interface2GB4Read2DWEd
FN:79,_ZNK5Model9Interface2GB4Read3DDWEd
FNDA:0,_ZNK5Model9Interface2GB4Read3DDWEd
FN:88,_ZN5Model9Interface2GB4Read5ParseERS2_RN5amrex9ParmParseE
FNDA:0,_ZN5Model9Interface2GB4Read5ParseERS2_RN5amrex9ParmParseE
DA:34,0
DA:40,0
DA:42,0
DA:43,0
DA:44,0
DA:45,0
DA:46,0
DA:48,0
DA:49,0
DA:50,0
DA:52,0
DA:54,0
DA:55,0
DA:56,0
DA:58,0
DA:59,0
DA:60,0
DA:62,0
DA:64,0
DA:65,0
DA:66,0
DA:67,0
DA:69,0
DA:70,0
DA:71,0
DA:73,0
DA:75,0
DA:77,0
DA:79,0
DA:81,0
DA:88,0
DA:90,0
DA:91,0
DA:92,0
DA:93,0
end_of_record
SF:/home/brunnels/Research/alamo/ext/amrex/2d-coverage-g++-23.08/include/AMReX_Orientation.H
FN:84,_ZNK5amrex11Orientation8coordDirEv
FNDA:0,_ZNK5amrex11Orientation8coordDirEv
FN:90,_ZNK5amrex11Orientation5isLowEv
FNDA:0,_ZNK5amrex11Orientation5isLowEv
DA:84,0
DA:90,0
end_of_record
SF:/home/brunnels/Research/alamo/src/Model/Solid/Affine/Isotropic.H
FN:18,_ZN5Model5Solid6Affine9IsotropicC2Ev
FNDA:0,_ZN5Model5Solid6Affine9IsotropicC2Ev
FN:25,_ZN5Model5Solid6Affine9Isotropic6DefineEddN5Eigen6MatrixIdLi2ELi2ELi0ELi2ELi2EEE
FNDA:0,_ZN5Model5Solid6Affine9Isotropic6DefineEddN5Eigen6MatrixIdLi2ELi2ELi0ELi2ELi2EEE
FN:36,_ZNK5Model5Solid6Affine9Isotropic1WERKN5Eigen6MatrixIdLi2ELi2ELi0ELi2ELi2EEE
FNDA:0,_ZNK5Model5Solid6Affine9Isotropic1WERKN5Eigen6MatrixIdLi2ELi2ELi0ELi2ELi2EEE
FN:40,_ZNK5Model5Solid6Affine9Isotropic2DWERKN5Eigen6MatrixIdLi2ELi2ELi0ELi2ELi2EEE
FNDA:0,_ZNK5Model5Solid6Affine9Isotropic2DWERKN5Eigen6MatrixIdLi2ELi2ELi0ELi2ELi2EEE
FN:44,_ZNK5Model5Solid6Affine9Isotropic3DDWERKN5Eigen6MatrixIdLi2ELi2ELi0ELi2ELi2EEE
FNDA:0,_ZNK5Model5Solid6Affine9Isotropic3DDWERKN5Eigen6MatrixIdLi2ELi2ELi0ELi2ELi2EEE
FN:48,_ZNK5Model5Solid6Affine9Isotropic5PrintERSo
FNDA:0,_ZNK5Model5Solid6Affine9Isotropic5PrintERSo
FN:52,_ZN5Model5Solid6Affine9Isotropic11ContainsNanEv
FNDA:0,_ZN5Model5Solid6Affine9Isotropic11ContainsNanEv
FN:59,_ZN5Model5Solid6Affine9Isotropic4ZeroEv
FNDA:0,_ZN5Model5Solid6Affine9Isotropic4ZeroEv
FN:77,_ZN5Model5Solid6Affine9Isotropic5ParseERS2_RN2IO9ParmParseE
FNDA:0,_ZN5Model5Solid6Affine9Isotropic5ParseERS2_RN2IO9ParmParseE
FN:149,_ZNK3Set5FieldIN5Model5Solid6Affine9IsotropicEE5NCompEv
FNDA:0,_ZNK3Set5FieldIN5Model5Solid6Affine9IsotropicEE5NCompEv
FN:154,_ZNK3Set5FieldIN5Model5Solid6Affine9IsotropicEE4NameB5cxx11Ei
FNDA:0,_ZNK3Set5FieldIN5Model5Solid6Affine9IsotropicEE4NameB5cxx11Ei
FN:177,_ZNK3Set5FieldIN5Model5Solid6Affine9IsotropicEE4CopyEiRN5amrex8MultiFabEii
FNDA:0,_ZNK3Set5FieldIN5Model5Solid6Affine9IsotropicEE4CopyEiRN5amrex8MultiFabEii
FN:188,_ZZNK3Set5FieldIN5Model5Solid6Affine9IsotropicEE4CopyEiRN5amrex8MultiFabEiiENKUliiiE_clEiii
FNDA:0,_ZZNK3Set5FieldIN5Model5Solid6Affine9IsotropicEE4CopyEiRN5amrex8MultiFabEiiENKUliiiE_clEiii
DA:18,0
DA:25,0
DA:27,0
DA:28,0
DA:29,0
DA:36,0
DA:38,0
DA:40,0
DA:42,0
DA:44,0
DA:46,0
DA:48,0
DA:50,0
DA:51,0
DA:52,0
DA:54,0
DA:55,0
DA:56,0
DA:59,0
DA:61,0
DA:62,0
DA:63,0
DA:64,0
DA:65,0
DA:66,0
DA:77,0
DA:79,0
DA:80,0
DA:81,0
DA:83,0
DA:84,0
DA:86,0
DA:89,0
DA:90,0
DA:91,0
DA:92,0
DA:94,0
DA:97,0
DA:98,0
DA:99,0
DA:101,0
DA:104,0
DA:105,0
DA:106,0
DA:108,0
DA:111,0
DA:112,0
DA:113,0
DA:115,0
DA:118,0
DA:119,0
DA:120,0
DA:122,0
DA:125,0
DA:126,0
DA:127,0
DA:131,0
DA:133,0
DA:135,0
DA:137,0
DA:138,0
DA:149,0
DA:151,0
DA:154,0
DA:156,0
DA:157,0
DA:159,0
DA:160,0
DA:161,0
DA:162,0
DA:174,0
DA:177,0
DA:179,0
DA:181,0
DA:182,0
DA:184,0
DA:185,0
DA:186,0
DA:188,0
DA:189,0
DA:190,0
DA:192,0
DA:193,0
DA:194,0
DA:195,0
DA:207,0
DA:211,0
end_of_record
SF:/home/brunnels/Research/alamo/src/Model/Interface/GB/SH.H
FN:40,_ZN5Model9Interface2GB2SHC2ERN2IO9ParmParseENSt7__cxx1112basic_stringIcSt11char_traitsIcESaIcEEE
FNDA:0,_ZN5Model9Interface2GB2SHC2ERN2IO9ParmParseENSt7__cxx1112basic_stringIcSt11char_traitsIcESaIcEEE
FN:58,_ZNK5Model9Interface2GB2SH1WEdd
FNDA:0,_ZNK5Model9Interface2GB2SH1WEdd
FN:68,_ZNK5Model9Interface2GB2SH1WERKN5Eigen6MatrixIdLi2ELi1ELi0ELi2ELi1EEE
FNDA:0,_ZNK5Model9Interface2GB2SH1WERKN5Eigen6MatrixIdLi2ELi1ELi0ELi2ELi1EEE
FN:75,_ZNK5Model9Interface2GB2SH2DWERKN5Eigen6MatrixIdLi2ELi1ELi0ELi2ELi1EEES7_
FNDA:0,_ZNK5Model9Interface2GB2SH2DWERKN5Eigen6MatrixIdLi2ELi1ELi0ELi2ELi1EEES7_
FN:80,_ZNK5Model9Interface2GB2SH3DDWERKN5Eigen6MatrixIdLi2ELi1ELi0ELi2ELi1EEES7_
FNDA:0,_ZNK5Model9Interface2GB2SH3DDWERKN5Eigen6MatrixIdLi2ELi1ELi0ELi2ELi1EEES7_
FN:87,_ZNK5Model9Interface2GB2SH1WEd
FNDA:0,_ZNK5Model9Interface2GB2SH1WEd
FN:88,_ZNK5Model9Interface2GB2SH2DWEd
FNDA:0,_ZNK5Model9Interface2GB2SH2DWEd
FN:89,_ZNK5Model9Interface2GB2SH3DDWEd
FNDA:0,_ZNK5Model9Interface2GB2SH3DDWEd
FN:95,_ZN5Model9Interface2GB2SH5ParseERS2_RN5amrex9ParmParseE
FNDA:0,_ZN5Model9Interface2GB2SH5ParseERS2_RN5amrex9ParmParseE
DA:40,0
DA:58,0
DA:60,0
DA:68,0
DA:70,0
DA:71,0
DA:72,0
DA:73,0
DA:75,0
DA:77,0
DA:78,0
DA:80,0
DA:82,0
DA:83,0
DA:87,0
DA:88,0
DA:89,0
DA:95,0
DA:97,0
DA:98,0
DA:99,0
DA:100,0
DA:101,0
DA:102,0
DA:104,0
DA:105,0
DA:106,0
DA:107,0
DA:108,0
DA:109,0
end_of_record
SF:/home/brunnels/Research/alamo/src/IO/ParmParse.H
FN:23,_ZN2IO9ParmParseC2ENSt7__cxx1112basic_stringIcSt11char_traitsIcESaIcEEE
FNDA:0,_ZN2IO9ParmParseC2ENSt7__cxx1112basic_stringIcSt11char_traitsIcESaIcEEE
FN:24,_ZN2IO9ParmParseC2Ev
FNDA:0,_ZN2IO9ParmParseC2Ev
FN:25,_ZNK2IO9ParmParse9getPrefixB5cxx11Ev
FNDA:0,_ZNK2IO9ParmParse9getPrefixB5cxx11Ev
FN:26,_ZN2IO9ParmParse6ignoreENSt7__cxx1112basic_stringIcSt11char_traitsIcESaIcEEE
FNDA:0,_ZN2IO9ParmParse6ignoreENSt7__cxx1112basic_stringIcSt11char_traitsIcESaIcEEE
FN:30,_ZN2IO9ParmParse8queryarrENSt7__cxx1112basic_stringIcSt11char_traitsIcESaIcEEERN5Eigen6MatrixIdLi2ELi1ELi0ELi2ELi1EEE
FNDA:0,_ZN2IO9ParmParse8queryarrENSt7__cxx1112basic_stringIcSt11char_traitsIcESaIcEEERN5Eigen6MatrixIdLi2ELi1ELi0ELi2ELi1EEE
FN:41,_ZN2IO9ParmParse8queryarrENSt7__cxx1112basic_stringIcSt11char_traitsIcESaIcEEERN5Eigen6MatrixIdLi2ELi2ELi0ELi2ELi2EEE
FNDA:0,_ZN2IO9ParmParse8queryarrENSt7__cxx1112basic_stringIcSt11char_traitsIcESaIcEEERN5Eigen6MatrixIdLi2ELi2ELi0ELi2ELi2EEE
FN:78,_ZN2IO9ParmParse15AnyUnusedInputsEv
FNDA:0,_ZN2IO9ParmParse15AnyUnusedInputsEv
FN:110,_ZN2IO9ParmParse6prefixB5cxx11Ev
FNDA:0,_ZN2IO9ParmParse6prefixB5cxx11Ev
FN:117,_ZN2IO9ParmParse10queryclassIN10Integrator4Base9MechanicsIN5Model5Solid6Affine9HexagonalEEEEEvNSt7__cxx1112basic_stringIcSt11char_traitsIcESaIcEEEPT_
FNDA:0,_ZN2IO9ParmParse10queryclassIN10Integrator4Base9MechanicsIN5Model5Solid6Affine9HexagonalEEEEEvNSt7__cxx1112basic_stringIcSt11char_traitsIcESaIcEEEPT_
FN:117,_ZN2IO9ParmParse10queryclassIN10Integrator4Base9MechanicsIN5Model5Solid6Affine5CubicEEEEEvNSt7__cxx1112basic_stringIcSt11char_traitsIcESaIcEEEPT_
FNDA:0,_ZN2IO9ParmParse10queryclassIN10Integrator4Base9MechanicsIN5Model5Solid6Affine5CubicEEEEEvNSt7__cxx1112basic_stringIcSt11char_traitsIcESaIcEEEPT_
FN:117,_ZN2IO9ParmParse10queryclassIN10Integrator14HeatConductionEEEvNSt7__cxx1112basic_stringIcSt11char_traitsIcESaIcEEEPT_
FNDA:0,_ZN2IO9ParmParse10queryclassIN10Integrator14HeatConductionEEEvNSt7__cxx1112basic_stringIcSt11char_traitsIcESaIcEEEPT_
FN:117,_ZN2IO9ParmParse10queryclassIN10Integrator9MechanicsIN5Model5Solid6Affine9IsotropicEEEEEvNSt7__cxx1112basic_stringIcSt11char_traitsIcESaIcEEEPT_
FNDA:0,_ZN2IO9ParmParse10queryclassIN10Integrator9MechanicsIN5Model5Solid6Affine9IsotropicEEEEEvNSt7__cxx1112basic_stringIcSt11char_traitsIcESaIcEEEPT_
FN:126,_ZN2IO9ParmParse10queryclassIN2IC18TabulatedInterfaceEEEvNSt7__cxx1112basic_stringIcSt11char_traitsIcESaIcEEERT_
FNDA:0,_ZN2IO9ParmParse10queryclassIN2IC18TabulatedInterfaceEEEvNSt7__cxx1112basic_stringIcSt11char_traitsIcESaIcEEERT_
FN:126,_ZN2IO9ParmParse10queryclassIN2IC5NotchEEEvNSt7__cxx1112basic_stringIcSt11char_traitsIcESaIcEEERT_
FNDA:0,_ZN2IO9ParmParse10queryclassIN2IC5NotchEEEvNSt7__cxx1112basic_stringIcSt11char_traitsIcESaIcEEERT_
FN:126,_ZN2IO9ParmParse10queryclassIN2IC18PerturbedInterfaceEEEvNSt7__cxx1112basic_stringIcSt11char_traitsIcESaIcEEERT_
FNDA:0,_ZN2IO9ParmParse10queryclassIN2IC18PerturbedInterfaceEEEvNSt7__cxx1112basic_stringIcSt11char_traitsIcESaIcEEERT_
FN:126,_ZN2IO9ParmParse10queryclassIN5Model9Interface2GB3SinEEEvNSt7__cxx1112basic_stringIcSt11char_traitsIcESaIcEEERT_
FNDA:0,_ZN2IO9ParmParse10queryclassIN5Model9Interface2GB3SinEEEvNSt7__cxx1112basic_stringIcSt11char_traitsIcESaIcEEERT_
FN:126,_ZN2IO9ParmParse10queryclassIN5Model9Interface2GB6AbsSinEEEvNSt7__cxx1112basic_stringIcSt11char_traitsIcESaIcEEERT_
FNDA:0,_ZN2IO9ParmParse10queryclassIN5Model9Interface2GB6AbsSinEEEvNSt7__cxx1112basic_stringIcSt11char_traitsIcESaIcEEERT_
FN:126,_ZN2IO9ParmParse10queryclassIN5Model9Interface2GB4ReadEEEvNSt7__cxx1112basic_stringIcSt11char_traitsIcESaIcEEERT_
FNDA:0,_ZN2IO9ParmParse10queryclassIN5Model9Interface2GB4ReadEEEvNSt7__cxx1112basic_stringIcSt11char_traitsIcESaIcEEERT_
FN:126,_ZN2IO9ParmParse10queryclassIN5Model9Interface2GB2SHEEEvNSt7__cxx1112basic_stringIcSt11char_traitsIcESaIcEEERT_
FNDA:0,_ZN2IO9ParmParse10queryclassIN5Model9Interface2GB2SHEEEvNSt7__cxx1112basic_stringIcSt11char_traitsIcESaIcEEERT_
FN:126,_ZN2IO9ParmParse10queryclassIN2IC8LaminateEEEvNSt7__cxx1112basic_stringIcSt11char_traitsIcESaIcEEERT_
FNDA:0,_ZN2IO9ParmParse10queryclassIN2IC8LaminateEEEvNSt7__cxx1112basic_stringIcSt11char_traitsIcESaIcEEERT_
FN:126,_ZN2IO9ParmParse10queryclassIN5Model9Interface5Crack8ConstantEEEvNSt7__cxx1112basic_stringIcSt11char_traitsIcESaIcEEERT_
FNDA:0,_ZN2IO9ParmParse10queryclassIN5Model9Interface5Crack8ConstantEEEvNSt7__cxx1112basic_stringIcSt11char_traitsIcESaIcEEERT_
FN:126,_ZN2IO9ParmParse10queryclassIN6Solver8Nonlocal6NewtonIN5Model5Solid6Linear19IsotropicDegradableEEEEEvNSt7__cxx1112basic_stringIcSt11char_traitsIcESaIcEEERT_
FNDA:0,_ZN2IO9ParmParse10queryclassIN6Solver8Nonlocal6NewtonIN5Model5Solid6Linear19IsotropicDegradableEEEEEvNSt7__cxx1112basic_stringIcSt11char_traitsIcESaIcEEERT_
FN:126,_ZN2IO9ParmParse10queryclassIN2BC4StepEEEvNSt7__cxx1112basic_stringIcSt11char_traitsIcESaIcEEERT_
FNDA:0,_ZN2IO9ParmParse10queryclassIN2BC4StepEEEvNSt7__cxx1112basic_stringIcSt11char_traitsIcESaIcEEERT_
FN:126,_ZN2IO9ParmParse10queryclassIN2IC7VoronoiEEEvNSt7__cxx1112basic_stringIcSt11char_traitsIcESaIcEEERT_
FNDA:0,_ZN2IO9ParmParse10queryclassIN2IC7VoronoiEEEvNSt7__cxx1112basic_stringIcSt11char_traitsIcESaIcEEERT_
FN:126,_ZN2IO9ParmParse10queryclassIN2IC7EllipseEEEvNSt7__cxx1112basic_stringIcSt11char_traitsIcESaIcEEERT_
FNDA:4,_ZN2IO9ParmParse10queryclassIN2IC7EllipseEEEvNSt7__cxx1112basic_stringIcSt11char_traitsIcESaIcEEERT_
FN:126,_ZN2IO9ParmParse10queryclassIN2IC4TrigEEEvNSt7__cxx1112basic_stringIcSt11char_traitsIcESaIcEEERT_
FNDA:0,_ZN2IO9ParmParse10queryclassIN2IC4TrigEEEvNSt7__cxx1112basic_stringIcSt11char_traitsIcESaIcEEERT_
FN:126,_ZN2IO9ParmParse10queryclassIN2BC8Operator7Elastic10ExpressionEEEvNSt7__cxx1112basic_stringIcSt11char_traitsIcESaIcEEERT_
FNDA:0,_ZN2IO9ParmParse10queryclassIN2BC8Operator7Elastic10ExpressionEEEvNSt7__cxx1112basic_stringIcSt11char_traitsIcESaIcEEERT_
FN:126,_ZN2IO9ParmParse10queryclassIN2BC8Operator7Elastic11TensionTestEEEvNSt7__cxx1112basic_stringIcSt11char_traitsIcESaIcEEERT_
FNDA:0,_ZN2IO9ParmParse10queryclassIN2BC8Operator7Elastic11TensionTestEEEvNSt7__cxx1112basic_stringIcSt11char_traitsIcESaIcEEERT_
FN:126,_ZN2IO9ParmParse10queryclassIN2BC8Operator7Elastic8ConstantEEEvNSt7__cxx1112basic_stringIcSt11char_traitsIcESaIcEEERT_
FNDA:0,_ZN2IO9ParmParse10queryclassIN2BC8Operator7Elastic8ConstantEEEvNSt7__cxx1112basic_stringIcSt11char_traitsIcESaIcEEERT_
FN:126,_ZN2IO9ParmParse10queryclassIN2IC3BMPEEEvNSt7__cxx1112basic_stringIcSt11char_traitsIcESaIcEEERT_
FNDA:1,_ZN2IO9ParmParse10queryclassIN2IC3BMPEEEvNSt7__cxx1112basic_stringIcSt11char_traitsIcESaIcEEERT_
FN:126,_ZN2IO9ParmParse10queryclassIN2IC10ExpressionEEEvNSt7__cxx1112basic_stringIcSt11char_traitsIcESaIcEEERT_
FNDA:0,_ZN2IO9ParmParse10queryclassIN2IC10ExpressionEEEvNSt7__cxx1112basic_stringIcSt11char_traitsIcESaIcEEERT_
FN:126,_ZN2IO9ParmParse10queryclassIN2IC8ConstantEEEvNSt7__cxx1112basic_stringIcSt11char_traitsIcESaIcEEERT_
FNDA:0,_ZN2IO9ParmParse10queryclassIN2IC8ConstantEEEvNSt7__cxx1112basic_stringIcSt11char_traitsIcESaIcEEERT_
FN:126,_ZN2IO9ParmParse10queryclassIN2IC6SphereEEEvNSt7__cxx1112basic_stringIcSt11char_traitsIcESaIcEEERT_
FNDA:0,_ZN2IO9ParmParse10queryclassIN2IC6SphereEEEvNSt7__cxx1112basic_stringIcSt11char_traitsIcESaIcEEERT_
FN:126,_ZN2IO9ParmParse10queryclassIN2BC8ConstantEEEvNSt7__cxx1112basic_stringIcSt11char_traitsIcESaIcEEERT_
FNDA:0,_ZN2IO9ParmParse10queryclassIN2BC8ConstantEEEvNSt7__cxx1112basic_stringIcSt11char_traitsIcESaIcEEERT_
FN:126,_ZN2IO9ParmParse10queryclassIN5Model5Solid6Linear19IsotropicDegradableEEEvNSt7__cxx1112basic_stringIcSt11char_traitsIcESaIcEEERT_
FNDA:0,_ZN2IO9ParmParse10queryclassIN5Model5Solid6Linear19IsotropicDegradableEEEvNSt7__cxx1112basic_stringIcSt11char_traitsIcESaIcEEERT_
FN:126,_ZN2IO9ParmParse10queryclassIN6Solver8Nonlocal6NewtonIN5Model5Solid6Affine2J2EEEEEvNSt7__cxx1112basic_stringIcSt11char_traitsIcESaIcEEERT_
FNDA:1,_ZN2IO9ParmParse10queryclassIN6Solver8Nonlocal6NewtonIN5Model5Solid6Affine2J2EEEEEvNSt7__cxx1112basic_stringIcSt11char_traitsIcESaIcEEERT_
FN:126,_ZN2IO9ParmParse10queryclassIN6Solver8Nonlocal6NewtonIN5Model5Solid7Elastic28PseudoLinearCubicPredeformedEEEEEvNSt7__cxx1112basic_stringIcSt11char_traitsIcESaIcEEERT_
FNDA:0,_ZN2IO9ParmParse10queryclassIN6Solver8Nonlocal6NewtonIN5Model5Solid7Elastic28PseudoLinearCubicPredeformedEEEEEvNSt7__cxx1112basic_stringIcSt11char_traitsIcESaIcEEERT_
FN:126,_ZN2IO9ParmParse10queryclassIN6Solver8Nonlocal6NewtonIN5Model5Solid7Elastic17PseudoLinearCubicEEEEEvNSt7__cxx1112basic_stringIcSt11char_traitsIcESaIcEEERT_
FNDA:0,_ZN2IO9ParmParse10queryclassIN6Solver8Nonlocal6NewtonIN5Model5Solid7Elastic17PseudoLinearCubicEEEEEvNSt7__cxx1112basic_stringIcSt11char_traitsIcESaIcEEERT_
FN:126,_ZN2IO9ParmParse10queryclassIN6Solver8Nonlocal6NewtonIN5Model5Solid7Elastic10NeoHookeanEEEEEvNSt7__cxx1112basic_stringIcSt11char_traitsIcESaIcEEERT_
FNDA:3,_ZN2IO9ParmParse10queryclassIN6Solver8Nonlocal6NewtonIN5Model5Solid7Elastic10NeoHookeanEEEEEvNSt7__cxx1112basic_stringIcSt11char_traitsIcESaIcEEERT_
FN:126,_ZN2IO9ParmParse10queryclassIN6Solver8Nonlocal6NewtonIN5Model5Solid6Linear9LaplacianEEEEEvNSt7__cxx1112basic_stringIcSt11char_traitsIcESaIcEEERT_
FNDA:1,_ZN2IO9ParmParse10queryclassIN6Solver8Nonlocal6NewtonIN5Model5Solid6Linear9LaplacianEEEEEvNSt7__cxx1112basic_stringIcSt11char_traitsIcESaIcEEERT_
FN:126,_ZN2IO9ParmParse10queryclassIN6Solver8Nonlocal6NewtonIN5Model5Solid6Affine9HexagonalEEEEEvNSt7__cxx1112basic_stringIcSt11char_traitsIcESaIcEEERT_
FNDA:0,_ZN2IO9ParmParse10queryclassIN6Solver8Nonlocal6NewtonIN5Model5Solid6Affine9HexagonalEEEEEvNSt7__cxx1112basic_stringIcSt11char_traitsIcESaIcEEERT_
FN:126,_ZN2IO9ParmParse10queryclassIN6Solver8Nonlocal6NewtonIN5Model5Solid6Affine5CubicEEEEEvNSt7__cxx1112basic_stringIcSt11char_traitsIcESaIcEEERT_
FNDA:0,_ZN2IO9ParmParse10queryclassIN6Solver8Nonlocal6NewtonIN5Model5Solid6Affine5CubicEEEEEvNSt7__cxx1112basic_stringIcSt11char_traitsIcESaIcEEERT_
FN:126,_ZN2IO9ParmParse10queryclassIN6Solver8Nonlocal6NewtonIN5Model5Solid6Linear5CubicEEEEEvNSt7__cxx1112basic_stringIcSt11char_traitsIcESaIcEEERT_
FNDA:0,_ZN2IO9ParmParse10queryclassIN6Solver8Nonlocal6NewtonIN5Model5Solid6Linear5CubicEEEEEvNSt7__cxx1112basic_stringIcSt11char_traitsIcESaIcEEERT_
FN:126,_ZN2IO9ParmParse10queryclassIN6Solver8Nonlocal6NewtonIN5Model5Solid6Linear9IsotropicEEEEEvNSt7__cxx1112basic_stringIcSt11char_traitsIcESaIcEEERT_
FNDA:2,_ZN2IO9ParmParse10queryclassIN6Solver8Nonlocal6NewtonIN5Model5Solid6Linear9IsotropicEEEEEvNSt7__cxx1112basic_stringIcSt11char_traitsIcESaIcEEERT_
FN:126,_ZN2IO9ParmParse10queryclassIN6Solver8Nonlocal6NewtonIN5Model5Solid6Affine9IsotropicEEEEEvNSt7__cxx1112basic_stringIcSt11char_traitsIcESaIcEEERT_
FNDA:0,_ZN2IO9ParmParse10queryclassIN6Solver8Nonlocal6NewtonIN5Model5Solid6Affine9IsotropicEEEEEvNSt7__cxx1112basic_stringIcSt11char_traitsIcESaIcEEERT_
FN:126,_ZN2IO9ParmParse10queryclassIN7Numeric12Interpolator6LinearIdEEEEvNSt7__cxx1112basic_stringIcSt11char_traitsIcESaIcEEERT_
FNDA:2,_ZN2IO9ParmParse10queryclassIN7Numeric12Interpolator6LinearIdEEEEvNSt7__cxx1112basic_stringIcSt11char_traitsIcESaIcEEERT_
FN:126,_ZN2IO9ParmParse10queryclassIN5Model5Solid6Affine2J2EEEvNSt7__cxx1112basic_stringIcSt11char_traitsIcESaIcEEERT_
FNDA:1,_ZN2IO9ParmParse10queryclassIN5Model5Solid6Affine2J2EEEvNSt7__cxx1112basic_stringIcSt11char_traitsIcESaIcEEERT_
FN:126,_ZN2IO9ParmParse10queryclassIN5Model5Solid7Elastic28PseudoLinearCubicPredeformedEEEvNSt7__cxx1112basic_stringIcSt11char_traitsIcESaIcEEERT_
FNDA:0,_ZN2IO9ParmParse10queryclassIN5Model5Solid7Elastic28PseudoLinearCubicPredeformedEEEvNSt7__cxx1112basic_stringIcSt11char_traitsIcESaIcEEERT_
FN:126,_ZN2IO9ParmParse10queryclassIN5Model5Solid7Elastic17PseudoLinearCubicEEEvNSt7__cxx1112basic_stringIcSt11char_traitsIcESaIcEEERT_
FNDA:0,_ZN2IO9ParmParse10queryclassIN5Model5Solid7Elastic17PseudoLinearCubicEEEvNSt7__cxx1112basic_stringIcSt11char_traitsIcESaIcEEERT_
FN:126,_ZN2IO9ParmParse10queryclassIN5Model5Solid7Elastic10NeoHookeanEEEvNSt7__cxx1112basic_stringIcSt11char_traitsIcESaIcEEERT_
FNDA:4,_ZN2IO9ParmParse10queryclassIN5Model5Solid7Elastic10NeoHookeanEEEvNSt7__cxx1112basic_stringIcSt11char_traitsIcESaIcEEERT_
FN:126,_ZN2IO9ParmParse10queryclassIN5Model5Solid6Linear9LaplacianEEEvNSt7__cxx1112basic_stringIcSt11char_traitsIcESaIcEEERT_
FNDA:1,_ZN2IO9ParmParse10queryclassIN5Model5Solid6Linear9LaplacianEEEvNSt7__cxx1112basic_stringIcSt11char_traitsIcESaIcEEERT_
FN:126,_ZN2IO9ParmParse10queryclassIN5Model5Solid6Affine9HexagonalEEEvNSt7__cxx1112basic_stringIcSt11char_traitsIcESaIcEEERT_
FNDA:0,_ZN2IO9ParmParse10queryclassIN5Model5Solid6Affine9HexagonalEEEvNSt7__cxx1112basic_stringIcSt11char_traitsIcESaIcEEERT_
FN:126,_ZN2IO9ParmParse10queryclassIN5Model5Solid6Affine5CubicEEEvNSt7__cxx1112basic_stringIcSt11char_traitsIcESaIcEEERT_
FNDA:0,_ZN2IO9ParmParse10queryclassIN5Model5Solid6Affine5CubicEEEvNSt7__cxx1112basic_stringIcSt11char_traitsIcESaIcEEERT_
FN:126,_ZN2IO9ParmParse10queryclassIN5Model5Solid6Linear5CubicEEEvNSt7__cxx1112basic_stringIcSt11char_traitsIcESaIcEEERT_
FNDA:0,_ZN2IO9ParmParse10queryclassIN5Model5Solid6Linear5CubicEEEvNSt7__cxx1112basic_stringIcSt11char_traitsIcESaIcEEERT_
FN:126,_ZN2IO9ParmParse10queryclassIN5Model5Solid6Linear9IsotropicEEEvNSt7__cxx1112basic_stringIcSt11char_traitsIcESaIcEEERT_
FNDA:2,_ZN2IO9ParmParse10queryclassIN5Model5Solid6Linear9IsotropicEEEvNSt7__cxx1112basic_stringIcSt11char_traitsIcESaIcEEERT_
FN:126,_ZN2IO9ParmParse10queryclassIN5Model5Solid6Affine9IsotropicEEEvNSt7__cxx1112basic_stringIcSt11char_traitsIcESaIcEEERT_
FNDA:0,_ZN2IO9ParmParse10queryclassIN5Model5Solid6Affine9IsotropicEEEvNSt7__cxx1112basic_stringIcSt11char_traitsIcESaIcEEERT_
FN:126,_ZN2IO9ParmParse10queryclassIN2IC9EllipsoidEEEvNSt7__cxx1112basic_stringIcSt11char_traitsIcESaIcEEERT_
FNDA:0,_ZN2IO9ParmParse10queryclassIN2IC9EllipsoidEEEvNSt7__cxx1112basic_stringIcSt11char_traitsIcESaIcEEERT_
FN:142,_ZN2IO9ParmParse10queryclassIN10Integrator24PhaseFieldMicrostructureIN5Model5Solid6Affine9HexagonalEEEEEvRT_
FNDA:0,_ZN2IO9ParmParse10queryclassIN10Integrator24PhaseFieldMicrostructureIN5Model5Solid6Affine9HexagonalEEEEEvRT_
FN:142,_ZN2IO9ParmParse10queryclassIN10Integrator24PhaseFieldMicrostructureIN5Model5Solid6Affine5CubicEEEEEvRT_
FNDA:0,_ZN2IO9ParmParse10queryclassIN10Integrator24PhaseFieldMicrostructureIN5Model5Solid6Affine5CubicEEEEEvRT_
FN:142,_ZN2IO9ParmParse10queryclassIN8Operator7ElasticILi6EEEEEvRT_
FNDA:0,_ZN2IO9ParmParse10queryclassIN8Operator7ElasticILi6EEEEEvRT_
FN:142,_ZN2IO9ParmParse10queryclassIN8Operator7ElasticILi3EEEEEvRT_
FNDA:0,_ZN2IO9ParmParse10queryclassIN8Operator7ElasticILi3EEEEEvRT_
FN:142,_ZN2IO9ParmParse10queryclassIN8Operator7ElasticILi1EEEEEvRT_
FNDA:120,_ZN2IO9ParmParse10queryclassIN8Operator7ElasticILi1EEEEEvRT_
FN:142,_ZN2IO9ParmParse10queryclassIN8Operator7ElasticILi4EEEEEvRT_
FNDA:1,_ZN2IO9ParmParse10queryclassIN8Operator7ElasticILi4EEEEEvRT_
DA:23,0
DA:24,0
DA:25,0
DA:26,0
DA:28,0
DA:29,0
DA:30,0
DA:32,0
DA:33,0
DA:34,0
DA:36,0
DA:38,0
DA:39,0
DA:41,0
DA:43,0
DA:44,0
DA:45,0
DA:48,0
DA:49,0
DA:50,0
DA:58,0
DA:61,0
DA:62,0
DA:73,0
DA:75,0
DA:78,0
DA:80,0
DA:81,0
DA:82,0
DA:83,0
DA:85,0
DA:87,0
DA:88,0
DA:91,0
DA:110,0
DA:112,0
DA:117,0
DA:119,0
DA:120,0
DA:121,0
DA:122,0
DA:123,0
DA:124,0
DA:117,0
DA:119,0
DA:120,0
DA:121,0
DA:122,0
DA:123,0
DA:124,0
DA:117,0
DA:119,0
DA:120,0
DA:121,0
DA:122,0
DA:123,0
DA:124,0
DA:117,0
DA:119,0
DA:120,0
DA:121,0
DA:122,0
DA:123,0
DA:124,0
DA:126,0
DA:128,0
DA:129,0
DA:130,0
DA:131,0
DA:132,0
DA:133,0
DA:126,0
DA:128,0
DA:129,0
DA:130,0
DA:131,0
DA:132,0
DA:133,0
DA:126,0
DA:128,0
DA:129,0
DA:130,0
DA:131,0
DA:132,0
DA:133,0
DA:126,0
DA:128,0
DA:129,0
DA:130,0
DA:131,0
DA:132,0
DA:133,0
DA:126,0
DA:128,0
DA:129,0
DA:130,0
DA:131,0
DA:132,0
DA:133,0
DA:126,0
DA:128,0
DA:129,0
DA:130,0
DA:131,0
DA:132,0
DA:133,0
DA:126,0
DA:128,0
DA:129,0
DA:130,0
DA:131,0
DA:132,0
DA:133,0
DA:126,0
DA:128,0
DA:129,0
DA:130,0
DA:131,0
DA:132,0
DA:133,0
DA:126,0
DA:128,0
DA:129,0
DA:130,0
DA:131,0
DA:132,0
DA:133,0
DA:126,0
DA:128,0
DA:129,0
DA:130,0
DA:131,0
DA:132,0
DA:133,0
DA:126,0
DA:128,0
DA:129,0
DA:130,0
DA:131,0
DA:132,0
DA:133,0
DA:126,0
DA:128,0
DA:129,0
DA:130,0
DA:131,0
DA:132,0
DA:133,0
DA:126,0
DA:128,0
DA:129,0
DA:130,0
DA:131,0
DA:132,0
DA:133,0
DA:126,4
DA:128,4
DA:129,4
DA:130,4
DA:131,0
DA:132,4
DA:133,4
DA:126,0
DA:128,0
DA:129,0
DA:130,0
DA:131,0
DA:132,0
DA:133,0
DA:126,0
DA:128,0
DA:129,0
DA:130,0
DA:131,0
DA:132,0
DA:133,0
DA:126,0
DA:128,0
DA:129,0
DA:130,0
DA:131,0
DA:132,0
DA:133,0
DA:126,0
DA:128,0
DA:129,0
DA:130,0
DA:131,0
DA:132,0
DA:133,0
DA:126,1
DA:128,1
DA:129,1
DA:130,1
DA:131,0
DA:132,1
DA:133,1
DA:126,0
DA:128,0
DA:129,0
DA:130,0
DA:131,0
DA:132,0
DA:133,0
DA:126,0
DA:128,0
DA:129,0
DA:130,0
DA:131,0
DA:132,0
DA:133,0
DA:126,0
DA:128,0
DA:129,0
DA:130,0
DA:131,0
DA:132,0
DA:133,0
DA:126,0
DA:128,0
DA:129,0
DA:130,0
DA:131,0
DA:132,0
DA:133,0
DA:126,1
DA:128,1
DA:129,1
DA:130,1
DA:131,0
DA:132,1
DA:133,1
DA:126,0
DA:128,0
DA:129,0
DA:130,0
DA:131,0
DA:132,0
DA:133,0
DA:126,0
DA:128,0
DA:129,0
DA:130,0
DA:131,0
DA:132,0
DA:133,0
DA:126,3
DA:128,3
DA:129,3
DA:130,3
DA:131,0
DA:132,3
DA:133,3
DA:126,1
DA:128,1
DA:129,1
DA:130,1
DA:131,0
DA:132,1
DA:133,1
DA:126,0
DA:128,0
DA:129,0
DA:130,0
DA:131,0
DA:132,0
DA:133,0
DA:126,0
DA:128,0
DA:129,0
DA:130,0
DA:131,0
DA:132,0
DA:133,0
DA:126,0
DA:128,0
DA:129,0
DA:130,0
DA:131,0
DA:132,0
DA:133,0
DA:126,2
DA:128,2
DA:129,2
DA:130,2
DA:131,0
DA:132,2
DA:133,2
DA:126,0
DA:128,0
DA:129,0
DA:130,0
DA:131,0
DA:132,0
DA:133,0
DA:126,2
DA:128,2
DA:129,2
DA:130,2
DA:131,0
DA:132,2
DA:133,2
DA:126,1
DA:128,1
DA:129,1
DA:130,1
DA:131,0
DA:132,1
DA:133,1
DA:126,0
DA:128,0
DA:129,0
DA:130,0
DA:131,0
DA:132,0
DA:133,0
DA:126,0
DA:128,0
DA:129,0
DA:130,0
DA:131,0
DA:132,0
DA:133,0
DA:126,4
DA:128,4
DA:129,4
DA:130,4
DA:131,0
DA:132,4
DA:133,4
DA:126,1
DA:128,1
DA:129,1
DA:130,1
DA:131,0
DA:132,1
DA:133,1
DA:126,0
DA:128,0
DA:129,0
DA:130,0
DA:131,0
DA:132,0
DA:133,0
DA:126,0
DA:128,0
DA:129,0
DA:130,0
DA:131,0
DA:132,0
DA:133,0
DA:126,0
DA:128,0
DA:129,0
DA:130,0
DA:131,0
DA:132,0
DA:133,0
DA:126,2
DA:128,2
DA:129,2
DA:130,2
DA:131,0
DA:132,2
DA:133,2
DA:126,0
DA:128,0
DA:129,0
DA:130,0
DA:131,0
DA:132,0
DA:133,0
DA:126,0
DA:128,0
DA:129,0
DA:130,0
DA:131,0
DA:132,0
DA:133,0
DA:142,0
DA:144,0
DA:145,0
DA:146,0
DA:147,0
DA:142,1
DA:144,1
DA:145,1
DA:146,0
DA:147,1
DA:142,120
DA:144,120
DA:145,120
DA:146,0
DA:147,120
DA:142,0
DA:144,0
DA:145,0
DA:146,0
DA:147,0
DA:142,0
DA:144,0
DA:145,0
DA:146,0
DA:147,0
DA:142,0
DA:144,0
DA:145,0
DA:146,0
DA:147,0
end_of_record
SF:/home/brunnels/Research/alamo/ext/amrex/2d-coverage-g++-23.08/include/AMReX_FabFactory.H
FN:31,_ZN5amrex7FabInfo8SetAllocEb
FNDA:0,_ZN5amrex7FabInfo8SetAllocEb
FN:36,_ZN5amrex7FabInfo9SetSharedEb
FNDA:0,_ZN5amrex7FabInfo9SetSharedEb
FN:41,_ZN5amrex7FabInfo8SetArenaEPNS_5ArenaE
FNDA:0,_ZN5amrex7FabInfo8SetArenaEPNS_5ArenaE
FN:51,_ZN5amrex10FabFactoryINS_7BaseFabIN5Model5Solid6Affine2J2EEEEC2Ev
FNDA:18,_ZN5amrex10FabFactoryINS_7BaseFabIN5Model5Solid6Affine2J2EEEEC2Ev
FN:51,_ZN5amrex10FabFactoryINS_7BaseFabIN5Model5Solid6Linear19IsotropicDegradableEEEEC2Ev
FNDA:0,_ZN5amrex10FabFactoryINS_7BaseFabIN5Model5Solid6Linear19IsotropicDegradableEEEEC2Ev
FN:51,_ZN5amrex10FabFactoryINS_7BaseFabIN5Model5Solid7Elastic28PseudoLinearCubicPredeformedEEEEC2Ev
FNDA:0,_ZN5amrex10FabFactoryINS_7BaseFabIN5Model5Solid7Elastic28PseudoLinearCubicPredeformedEEEEC2Ev
FN:51,_ZN5amrex10FabFactoryINS_7BaseFabIN5Model5Solid7Elastic17PseudoLinearCubicEEEEC2Ev
FNDA:0,_ZN5amrex10FabFactoryINS_7BaseFabIN5Model5Solid7Elastic17PseudoLinearCubicEEEEC2Ev
FN:51,_ZN5amrex10FabFactoryINS_7BaseFabIN5Model5Solid7Elastic10NeoHookeanEEEEC2Ev
FNDA:30,_ZN5amrex10FabFactoryINS_7BaseFabIN5Model5Solid7Elastic10NeoHookeanEEEEC2Ev
FN:51,_ZN5amrex10FabFactoryINS_7BaseFabIN5Model5Solid6Linear9LaplacianEEEEC2Ev
FNDA:3,_ZN5amrex10FabFactoryINS_7BaseFabIN5Model5Solid6Linear9LaplacianEEEEC2Ev
FN:51,_ZN5amrex10FabFactoryINS_7BaseFabIN5Model5Solid6Affine9HexagonalEEEEC2Ev
FNDA:0,_ZN5amrex10FabFactoryINS_7BaseFabIN5Model5Solid6Affine9HexagonalEEEEC2Ev
FN:51,_ZN5amrex10FabFactoryINS_7BaseFabIN5Model5Solid6Affine5CubicEEEEC2Ev
FNDA:0,_ZN5amrex10FabFactoryINS_7BaseFabIN5Model5Solid6Affine5CubicEEEEC2Ev
FN:51,_ZN5amrex10FabFactoryINS_7BaseFabIN5Model5Solid6Linear5CubicEEEEC2Ev
FNDA:0,_ZN5amrex10FabFactoryINS_7BaseFabIN5Model5Solid6Linear5CubicEEEEC2Ev
FN:51,_ZN5amrex10FabFactoryINS_7BaseFabIN5Model5Solid6Linear9IsotropicEEEEC2Ev
FNDA:49,_ZN5amrex10FabFactoryINS_7BaseFabIN5Model5Solid6Linear9IsotropicEEEEC2Ev
FN:51,_ZN5amrex10FabFactoryINS_7BaseFabIN5Model5Solid6Affine9IsotropicEEEEC2Ev
FNDA:0,_ZN5amrex10FabFactoryINS_7BaseFabIN5Model5Solid6Affine9IsotropicEEEEC2Ev
FN:51,_ZN5amrex10FabFactoryINS_7BaseFabIN5Eigen6MatrixIdLi2ELi1ELi0ELi2ELi1EEEEEEC2Ev
FNDA:0,_ZN5amrex10FabFactoryINS_7BaseFabIN5Eigen6MatrixIdLi2ELi1ELi0ELi2ELi1EEEEEEC2Ev
FN:51,_ZN5amrex10FabFactoryINS_7BaseFabIN3Set7Matrix4ILi2ELi3EEEEEEC2Ev
FNDA:0,_ZN5amrex10FabFactoryINS_7BaseFabIN3Set7Matrix4ILi2ELi3EEEEEEC2Ev
FN:51,_ZN5amrex10FabFactoryINS_7BaseFabIN3Set7Matrix4ILi2ELi4EEEEEEC2Ev
FNDA:0,_ZN5amrex10FabFactoryINS_7BaseFabIN3Set7Matrix4ILi2ELi4EEEEEEC2Ev
FN:51,_ZN5amrex10FabFactoryINS_7BaseFabIN3Set7Matrix4ILi2ELi1EEEEEEC2Ev
FNDA:0,_ZN5amrex10FabFactoryINS_7BaseFabIN3Set7Matrix4ILi2ELi1EEEEEEC2Ev
FN:51,_ZN5amrex10FabFactoryINS_9FArrayBoxEEC2Ev
FNDA:0,_ZN5amrex10FabFactoryINS_9FArrayBoxEEC2Ev
FN:51,_ZN5amrex10FabFactoryINS_9IArrayBoxEEC2Ev
FNDA:0,_ZN5amrex10FabFactoryINS_9IArrayBoxEEC2Ev
FN:51,_ZN5amrex10FabFactoryINS_7BaseFabIN5Eigen6MatrixIdLi2ELi2ELi0ELi2ELi2EEEEEEC2Ev
FNDA:0,_ZN5amrex10FabFactoryINS_7BaseFabIN5Eigen6MatrixIdLi2ELi2ELi0ELi2ELi2EEEEEEC2Ev
FN:51,_ZN5amrex10FabFactoryINS_7BaseFabIN3Set7Matrix4ILi2ELi6EEEEEEC2Ev
FNDA:0,_ZN5amrex10FabFactoryINS_7BaseFabIN3Set7Matrix4ILi2ELi6EEEEEEC2Ev
FN:56,_ZN5amrex10FabFactoryINS_7BaseFabIN3Set7Matrix4ILi2ELi6EEEEEED0Ev
FNDA:0,_ZN5amrex10FabFactoryINS_7BaseFabIN3Set7Matrix4ILi2ELi6EEEEEED0Ev
FN:56,_ZN5amrex10FabFactoryINS_7BaseFabIN3Set7Matrix4ILi2ELi1EEEEEED2Ev
FNDA:0,_ZN5amrex10FabFactoryINS_7BaseFabIN3Set7Matrix4ILi2ELi1EEEEEED2Ev
FN:56,_ZN5amrex10FabFactoryINS_7BaseFabIN3Set7Matrix4ILi2ELi1EEEEEED0Ev
FNDA:0,_ZN5amrex10FabFactoryINS_7BaseFabIN3Set7Matrix4ILi2ELi1EEEEEED0Ev
FN:56,_ZN5amrex10FabFactoryINS_9FArrayBoxEED2Ev
FNDA:0,_ZN5amrex10FabFactoryINS_9FArrayBoxEED2Ev
FN:56,_ZN5amrex10FabFactoryINS_7BaseFabIN3Set7Matrix4ILi2ELi4EEEEEED2Ev
FNDA:0,_ZN5amrex10FabFactoryINS_7BaseFabIN3Set7Matrix4ILi2ELi4EEEEEED2Ev
FN:56,_ZN5amrex10FabFactoryINS_7BaseFabIN3Set7Matrix4ILi2ELi4EEEEEED0Ev
FNDA:0,_ZN5amrex10FabFactoryINS_7BaseFabIN3Set7Matrix4ILi2ELi4EEEEEED0Ev
FN:56,_ZN5amrex10FabFactoryINS_9FArrayBoxEED0Ev
FNDA:0,_ZN5amrex10FabFactoryINS_9FArrayBoxEED0Ev
FN:56,_ZN5amrex10FabFactoryINS_7BaseFabIN3Set7Matrix4ILi2ELi3EEEEEED2Ev
FNDA:0,_ZN5amrex10FabFactoryINS_7BaseFabIN3Set7Matrix4ILi2ELi3EEEEEED2Ev
FN:56,_ZN5amrex10FabFactoryINS_7BaseFabIN5Eigen6MatrixIdLi2ELi1ELi0ELi2ELi1EEEEEED0Ev
FNDA:0,_ZN5amrex10FabFactoryINS_7BaseFabIN5Eigen6MatrixIdLi2ELi1ELi0ELi2ELi1EEEEEED0Ev
FN:56,_ZN5amrex10FabFactoryINS_7BaseFabIN5Eigen6MatrixIdLi2ELi1ELi0ELi2ELi1EEEEEED2Ev
FNDA:0,_ZN5amrex10FabFactoryINS_7BaseFabIN5Eigen6MatrixIdLi2ELi1ELi0ELi2ELi1EEEEEED2Ev
FN:56,_ZN5amrex10FabFactoryINS_7BaseFabIN5Model5Solid6Linear19IsotropicDegradableEEEED2Ev
FNDA:0,_ZN5amrex10FabFactoryINS_7BaseFabIN5Model5Solid6Linear19IsotropicDegradableEEEED2Ev
FN:56,_ZN5amrex10FabFactoryINS_7BaseFabIN3Set7Matrix4ILi2ELi6EEEEEED2Ev
FNDA:0,_ZN5amrex10FabFactoryINS_7BaseFabIN3Set7Matrix4ILi2ELi6EEEEEED2Ev
FN:56,_ZN5amrex10FabFactoryINS_7BaseFabIN5Eigen6MatrixIdLi2ELi2ELi0ELi2ELi2EEEEEED0Ev
FNDA:0,_ZN5amrex10FabFactoryINS_7BaseFabIN5Eigen6MatrixIdLi2ELi2ELi0ELi2ELi2EEEEEED0Ev
FN:56,_ZN5amrex10FabFactoryINS_7BaseFabIN5Eigen6MatrixIdLi2ELi2ELi0ELi2ELi2EEEEEED2Ev
FNDA:0,_ZN5amrex10FabFactoryINS_7BaseFabIN5Eigen6MatrixIdLi2ELi2ELi0ELi2ELi2EEEEEED2Ev
FN:56,_ZN5amrex10FabFactoryINS_9IArrayBoxEED0Ev
FNDA:0,_ZN5amrex10FabFactoryINS_9IArrayBoxEED0Ev
FN:56,_ZN5amrex10FabFactoryINS_9IArrayBoxEED2Ev
FNDA:0,_ZN5amrex10FabFactoryINS_9IArrayBoxEED2Ev
FN:56,_ZN5amrex10FabFactoryINS_7BaseFabIN3Set7Matrix4ILi2ELi3EEEEEED0Ev
FNDA:0,_ZN5amrex10FabFactoryINS_7BaseFabIN3Set7Matrix4ILi2ELi3EEEEEED0Ev
FN:56,_ZN5amrex10FabFactoryINS_7BaseFabIN5Model5Solid6Linear9LaplacianEEEED2Ev
FNDA:3,_ZN5amrex10FabFactoryINS_7BaseFabIN5Model5Solid6Linear9LaplacianEEEED2Ev
FN:56,_ZN5amrex10FabFactoryINS_7BaseFabIN5Model5Solid6Linear19IsotropicDegradableEEEED0Ev
FNDA:0,_ZN5amrex10FabFactoryINS_7BaseFabIN5Model5Solid6Linear19IsotropicDegradableEEEED0Ev
FN:56,_ZN5amrex10FabFactoryINS_7BaseFabIN5Model5Solid6Affine9IsotropicEEEED2Ev
FNDA:0,_ZN5amrex10FabFactoryINS_7BaseFabIN5Model5Solid6Affine9IsotropicEEEED2Ev
FN:56,_ZN5amrex10FabFactoryINS_7BaseFabIN5Model5Solid6Affine9IsotropicEEEED0Ev
FNDA:0,_ZN5amrex10FabFactoryINS_7BaseFabIN5Model5Solid6Affine9IsotropicEEEED0Ev
FN:56,_ZN5amrex10FabFactoryINS_7BaseFabIN5Model5Solid6Affine5CubicEEEED2Ev
FNDA:0,_ZN5amrex10FabFactoryINS_7BaseFabIN5Model5Solid6Affine5CubicEEEED2Ev
FN:56,_ZN5amrex10FabFactoryINS_7BaseFabIN5Model5Solid6Affine5CubicEEEED0Ev
FNDA:0,_ZN5amrex10FabFactoryINS_7BaseFabIN5Model5Solid6Affine5CubicEEEED0Ev
FN:56,_ZN5amrex10FabFactoryINS_7BaseFabIN5Model5Solid6Affine9HexagonalEEEED2Ev
FNDA:0,_ZN5amrex10FabFactoryINS_7BaseFabIN5Model5Solid6Affine9HexagonalEEEED2Ev
FN:56,_ZN5amrex10FabFactoryINS_7BaseFabIN5Model5Solid6Affine9HexagonalEEEED0Ev
FNDA:0,_ZN5amrex10FabFactoryINS_7BaseFabIN5Model5Solid6Affine9HexagonalEEEED0Ev
FN:56,_ZN5amrex10FabFactoryINS_7BaseFabIN5Model5Solid6Linear9IsotropicEEEED2Ev
FNDA:49,_ZN5amrex10FabFactoryINS_7BaseFabIN5Model5Solid6Linear9IsotropicEEEED2Ev
FN:56,_ZN5amrex10FabFactoryINS_7BaseFabIN5Model5Solid6Linear9IsotropicEEEED0Ev
FNDA:0,_ZN5amrex10FabFactoryINS_7BaseFabIN5Model5Solid6Linear9IsotropicEEEED0Ev
FN:56,_ZN5amrex10FabFactoryINS_7BaseFabIN5Model5Solid6Linear5CubicEEEED2Ev
FNDA:0,_ZN5amrex10FabFactoryINS_7BaseFabIN5Model5Solid6Linear5CubicEEEED2Ev
FN:56,_ZN5amrex10FabFactoryINS_7BaseFabIN5Model5Solid6Linear5CubicEEEED0Ev
FNDA:0,_ZN5amrex10FabFactoryINS_7BaseFabIN5Model5Solid6Linear5CubicEEEED0Ev
FN:56,_ZN5amrex10FabFactoryINS_7BaseFabIN5Model5Solid6Affine2J2EEEED0Ev
FNDA:0,_ZN5amrex10FabFactoryINS_7BaseFabIN5Model5Solid6Affine2J2EEEED0Ev
FN:56,_ZN5amrex10FabFactoryINS_7BaseFabIN5Model5Solid6Linear9LaplacianEEEED0Ev
FNDA:0,_ZN5amrex10FabFactoryINS_7BaseFabIN5Model5Solid6Linear9LaplacianEEEED0Ev
FN:56,_ZN5amrex10FabFactoryINS_7BaseFabIN5Model5Solid7Elastic10NeoHookeanEEEED2Ev
FNDA:30,_ZN5amrex10FabFactoryINS_7BaseFabIN5Model5Solid7Elastic10NeoHookeanEEEED2Ev
FN:56,_ZN5amrex10FabFactoryINS_7BaseFabIN5Model5Solid7Elastic10NeoHookeanEEEED0Ev
FNDA:0,_ZN5amrex10FabFactoryINS_7BaseFabIN5Model5Solid7Elastic10NeoHookeanEEEED0Ev
FN:56,_ZN5amrex10FabFactoryINS_7BaseFabIN5Model5Solid7Elastic17PseudoLinearCubicEEEED2Ev
FNDA:0,_ZN5amrex10FabFactoryINS_7BaseFabIN5Model5Solid7Elastic17PseudoLinearCubicEEEED2Ev
FN:56,_ZN5amrex10FabFactoryINS_7BaseFabIN5Model5Solid7Elastic17PseudoLinearCubicEEEED0Ev
FNDA:0,_ZN5amrex10FabFactoryINS_7BaseFabIN5Model5Solid7Elastic17PseudoLinearCubicEEEED0Ev
FN:56,_ZN5amrex10FabFactoryINS_7BaseFabIN5Model5Solid7Elastic28PseudoLinearCubicPredeformedEEEED2Ev
FNDA:0,_ZN5amrex10FabFactoryINS_7BaseFabIN5Model5Solid7Elastic28PseudoLinearCubicPredeformedEEEED2Ev
FN:56,_ZN5amrex10FabFactoryINS_7BaseFabIN5Model5Solid7Elastic28PseudoLinearCubicPredeformedEEEED0Ev
FNDA:0,_ZN5amrex10FabFactoryINS_7BaseFabIN5Model5Solid7Elastic28PseudoLinearCubicPredeformedEEEED0Ev
FN:56,_ZN5amrex10FabFactoryINS_7BaseFabIN5Model5Solid6Affine2J2EEEED2Ev
FNDA:18,_ZN5amrex10FabFactoryINS_7BaseFabIN5Model5Solid6Affine2J2EEEED2Ev
FN:60,_ZNK5amrex10FabFactoryINS_7BaseFabIN3Set7Matrix4ILi2ELi6EEEEEE12create_aliasERKS5_ii
FNDA:0,_ZNK5amrex10FabFactoryINS_7BaseFabIN3Set7Matrix4ILi2ELi6EEEEEE12create_aliasERKS5_ii
FN:60,_ZNK5amrex10FabFactoryINS_7BaseFabIN5Eigen6MatrixIdLi2ELi2ELi0ELi2ELi2EEEEEE12create_aliasERKS5_ii
FNDA:0,_ZNK5amrex10FabFactoryINS_7BaseFabIN5Eigen6MatrixIdLi2ELi2ELi0ELi2ELi2EEEEEE12create_aliasERKS5_ii
FN:60,_ZNK5amrex10FabFactoryINS_9IArrayBoxEE12create_aliasERKS1_ii
FNDA:0,_ZNK5amrex10FabFactoryINS_9IArrayBoxEE12create_aliasERKS1_ii
FN:60,_ZNK5amrex10FabFactoryINS_7BaseFabIN5Eigen6MatrixIdLi2ELi1ELi0ELi2ELi1EEEEEE12create_aliasERKS5_ii
FNDA:0,_ZNK5amrex10FabFactoryINS_7BaseFabIN5Eigen6MatrixIdLi2ELi1ELi0ELi2ELi1EEEEEE12create_aliasERKS5_ii
FN:60,_ZNK5amrex10FabFactoryINS_7BaseFabIN5Model5Solid6Linear19IsotropicDegradableEEEE12create_aliasERKS6_ii
FNDA:0,_ZNK5amrex10FabFactoryINS_7BaseFabIN5Model5Solid6Linear19IsotropicDegradableEEEE12create_aliasERKS6_ii
FN:60,_ZNK5amrex10FabFactoryINS_7BaseFabIN5Model5Solid6Affine9IsotropicEEEE12create_aliasERKS6_ii
FNDA:0,_ZNK5amrex10FabFactoryINS_7BaseFabIN5Model5Solid6Affine9IsotropicEEEE12create_aliasERKS6_ii
FN:60,_ZNK5amrex10FabFactoryINS_7BaseFabIN5Model5Solid6Affine5CubicEEEE12create_aliasERKS6_ii
FNDA:0,_ZNK5amrex10FabFactoryINS_7BaseFabIN5Model5Solid6Affine5CubicEEEE12create_aliasERKS6_ii
FN:60,_ZNK5amrex10FabFactoryINS_7BaseFabIN5Model5Solid6Affine9HexagonalEEEE12create_aliasERKS6_ii
FNDA:0,_ZNK5amrex10FabFactoryINS_7BaseFabIN5Model5Solid6Affine9HexagonalEEEE12create_aliasERKS6_ii
FN:60,_ZNK5amrex10FabFactoryINS_7BaseFabIN5Model5Solid6Linear9IsotropicEEEE12create_aliasERKS6_ii
FNDA:0,_ZNK5amrex10FabFactoryINS_7BaseFabIN5Model5Solid6Linear9IsotropicEEEE12create_aliasERKS6_ii
FN:60,_ZNK5amrex10FabFactoryINS_7BaseFabIN5Model5Solid6Linear5CubicEEEE12create_aliasERKS6_ii
FNDA:0,_ZNK5amrex10FabFactoryINS_7BaseFabIN5Model5Solid6Linear5CubicEEEE12create_aliasERKS6_ii
FN:60,_ZNK5amrex10FabFactoryINS_7BaseFabIN5Model5Solid6Linear9LaplacianEEEE12create_aliasERKS6_ii
FNDA:0,_ZNK5amrex10FabFactoryINS_7BaseFabIN5Model5Solid6Linear9LaplacianEEEE12create_aliasERKS6_ii
FN:60,_ZNK5amrex10FabFactoryINS_7BaseFabIN5Model5Solid7Elastic10NeoHookeanEEEE12create_aliasERKS6_ii
FNDA:0,_ZNK5amrex10FabFactoryINS_7BaseFabIN5Model5Solid7Elastic10NeoHookeanEEEE12create_aliasERKS6_ii
FN:60,_ZNK5amrex10FabFactoryINS_7BaseFabIN5Model5Solid7Elastic17PseudoLinearCubicEEEE12create_aliasERKS6_ii
FNDA:0,_ZNK5amrex10FabFactoryINS_7BaseFabIN5Model5Solid7Elastic17PseudoLinearCubicEEEE12create_aliasERKS6_ii
FN:60,_ZNK5amrex10FabFactoryINS_7BaseFabIN5Model5Solid7Elastic28PseudoLinearCubicPredeformedEEEE12create_aliasERKS6_ii
FNDA:0,_ZNK5amrex10FabFactoryINS_7BaseFabIN5Model5Solid7Elastic28PseudoLinearCubicPredeformedEEEE12create_aliasERKS6_ii
FN:60,_ZNK5amrex10FabFactoryINS_7BaseFabIN5Model5Solid6Affine2J2EEEE12create_aliasERKS6_ii
FNDA:0,_ZNK5amrex10FabFactoryINS_7BaseFabIN5Model5Solid6Affine2J2EEEE12create_aliasERKS6_ii
FN:60,_ZNK5amrex10FabFactoryINS_7BaseFabIN3Set7Matrix4ILi2ELi3EEEEEE12create_aliasERKS5_ii
FNDA:0,_ZNK5amrex10FabFactoryINS_7BaseFabIN3Set7Matrix4ILi2ELi3EEEEEE12create_aliasERKS5_ii
FN:60,_ZNK5amrex10FabFactoryINS_9FArrayBoxEE12create_aliasERKS1_ii
FNDA:0,_ZNK5amrex10FabFactoryINS_9FArrayBoxEE12create_aliasERKS1_ii
FN:60,_ZNK5amrex10FabFactoryINS_7BaseFabIN3Set7Matrix4ILi2ELi4EEEEEE12create_aliasERKS5_ii
FNDA:0,_ZNK5amrex10FabFactoryINS_7BaseFabIN3Set7Matrix4ILi2ELi4EEEEEE12create_aliasERKS5_ii
FN:60,_ZNK5amrex10FabFactoryINS_7BaseFabIN3Set7Matrix4ILi2ELi1EEEEEE12create_aliasERKS5_ii
FNDA:0,_ZNK5amrex10FabFactoryINS_7BaseFabIN3Set7Matrix4ILi2ELi1EEEEEE12create_aliasERKS5_ii
FN:72,_ZNK5amrex17DefaultFabFactoryINS_7BaseFabIN3Set7Matrix4ILi2ELi6EEEEEE6createERKNS_3BoxEiRKNS_7FabInfoEi
FNDA:0,_ZNK5amrex17DefaultFabFactoryINS_7BaseFabIN3Set7Matrix4ILi2ELi6EEEEEE6createERKNS_3BoxEiRKNS_7FabInfoEi
FN:72,_ZNK5amrex17DefaultFabFactoryINS_7BaseFabIN5Model5Solid7Elastic10NeoHookeanEEEE6createERKNS_3BoxEiRKNS_7FabInfoEi
FNDA:48,_ZNK5amrex17DefaultFabFactoryINS_7BaseFabIN5Model5Solid7Elastic10NeoHookeanEEEE6createERKNS_3BoxEiRKNS_7FabInfoEi
FN:72,_ZNK5amrex17DefaultFabFactoryINS_7BaseFabIN3Set7Matrix4ILi2ELi3EEEEEE6createERKNS_3BoxEiRKNS_7FabInfoEi
FNDA:0,_ZNK5amrex17DefaultFabFactoryINS_7BaseFabIN3Set7Matrix4ILi2ELi3EEEEEE6createERKNS_3BoxEiRKNS_7FabInfoEi
FN:72,_ZNK5amrex17DefaultFabFactoryINS_7BaseFabIN3Set7Matrix4ILi2ELi4EEEEEE6createERKNS_3BoxEiRKNS_7FabInfoEi
FNDA:0,_ZNK5amrex17DefaultFabFactoryINS_7BaseFabIN3Set7Matrix4ILi2ELi4EEEEEE6createERKNS_3BoxEiRKNS_7FabInfoEi
FN:72,_ZNK5amrex17DefaultFabFactoryINS_7BaseFabIN3Set7Matrix4ILi2ELi1EEEEEE6createERKNS_3BoxEiRKNS_7FabInfoEi
FNDA:0,_ZNK5amrex17DefaultFabFactoryINS_7BaseFabIN3Set7Matrix4ILi2ELi1EEEEEE6createERKNS_3BoxEiRKNS_7FabInfoEi
FN:72,_ZNK5amrex17DefaultFabFactoryINS_7BaseFabIN5Model5Solid6Linear9LaplacianEEEE6createERKNS_3BoxEiRKNS_7FabInfoEi
FNDA:1,_ZNK5amrex17DefaultFabFactoryINS_7BaseFabIN5Model5Solid6Linear9LaplacianEEEE6createERKNS_3BoxEiRKNS_7FabInfoEi
FN:72,_ZNK5amrex17DefaultFabFactoryINS_7BaseFabIN5Model5Solid6Linear19IsotropicDegradableEEEE6createERKNS_3BoxEiRKNS_7FabInfoEi
FNDA:0,_ZNK5amrex17DefaultFabFactoryINS_7BaseFabIN5Model5Solid6Linear19IsotropicDegradableEEEE6createERKNS_3BoxEiRKNS_7FabInfoEi
FN:72,_ZNK5amrex17DefaultFabFactoryINS_7BaseFabIN5Eigen6MatrixIdLi2ELi1ELi0ELi2ELi1EEEEEE6createERKNS_3BoxEiRKNS_7FabInfoEi
FNDA:0,_ZNK5amrex17DefaultFabFactoryINS_7BaseFabIN5Eigen6MatrixIdLi2ELi1ELi0ELi2ELi1EEEEEE6createERKNS_3BoxEiRKNS_7FabInfoEi
FN:72,_ZNK5amrex17DefaultFabFactoryINS_7BaseFabIN5Model5Solid6Affine9HexagonalEEEE6createERKNS_3BoxEiRKNS_7FabInfoEi
FNDA:0,_ZNK5amrex17DefaultFabFactoryINS_7BaseFabIN5Model5Solid6Affine9HexagonalEEEE6createERKNS_3BoxEiRKNS_7FabInfoEi
FN:72,_ZNK5amrex17DefaultFabFactoryINS_7BaseFabIN5Model5Solid6Affine9IsotropicEEEE6createERKNS_3BoxEiRKNS_7FabInfoEi
FNDA:0,_ZNK5amrex17DefaultFabFactoryINS_7BaseFabIN5Model5Solid6Affine9IsotropicEEEE6createERKNS_3BoxEiRKNS_7FabInfoEi
FN:72,_ZNK5amrex17DefaultFabFactoryINS_7BaseFabIN5Model5Solid6Affine5CubicEEEE6createERKNS_3BoxEiRKNS_7FabInfoEi
FNDA:0,_ZNK5amrex17DefaultFabFactoryINS_7BaseFabIN5Model5Solid6Affine5CubicEEEE6createERKNS_3BoxEiRKNS_7FabInfoEi
FN:72,_ZNK5amrex17DefaultFabFactoryINS_7BaseFabIN5Model5Solid6Linear9IsotropicEEEE6createERKNS_3BoxEiRKNS_7FabInfoEi
FNDA:106,_ZNK5amrex17DefaultFabFactoryINS_7BaseFabIN5Model5Solid6Linear9IsotropicEEEE6createERKNS_3BoxEiRKNS_7FabInfoEi
FN:72,_ZNK5amrex17DefaultFabFactoryINS_7BaseFabIN5Model5Solid6Linear5CubicEEEE6createERKNS_3BoxEiRKNS_7FabInfoEi
FNDA:0,_ZNK5amrex17DefaultFabFactoryINS_7BaseFabIN5Model5Solid6Linear5CubicEEEE6createERKNS_3BoxEiRKNS_7FabInfoEi
FN:72,_ZNK5amrex17DefaultFabFactoryINS_7BaseFabIN5Model5Solid7Elastic17PseudoLinearCubicEEEE6createERKNS_3BoxEiRKNS_7FabInfoEi
FNDA:0,_ZNK5amrex17DefaultFabFactoryINS_7BaseFabIN5Model5Solid7Elastic17PseudoLinearCubicEEEE6createERKNS_3BoxEiRKNS_7FabInfoEi
FN:72,_ZNK5amrex17DefaultFabFactoryINS_9FArrayBoxEE6createERKNS_3BoxEiRKNS_7FabInfoEi
FNDA:0,_ZNK5amrex17DefaultFabFactoryINS_9FArrayBoxEE6createERKNS_3BoxEiRKNS_7FabInfoEi
FN:72,_ZNK5amrex17DefaultFabFactoryINS_7BaseFabIN5Model5Solid6Affine2J2EEEE6createERKNS_3BoxEiRKNS_7FabInfoEi
FNDA:33,_ZNK5amrex17DefaultFabFactoryINS_7BaseFabIN5Model5Solid6Affine2J2EEEE6createERKNS_3BoxEiRKNS_7FabInfoEi
FN:72,_ZNK5amrex17DefaultFabFactoryINS_9IArrayBoxEE6createERKNS_3BoxEiRKNS_7FabInfoEi
FNDA:0,_ZNK5amrex17DefaultFabFactoryINS_9IArrayBoxEE6createERKNS_3BoxEiRKNS_7FabInfoEi
FN:72,_ZNK5amrex17DefaultFabFactoryINS_7BaseFabIN5Model5Solid7Elastic28PseudoLinearCubicPredeformedEEEE6createERKNS_3BoxEiRKNS_7FabInfoEi
FNDA:0,_ZNK5amrex17DefaultFabFactoryINS_7BaseFabIN5Model5Solid7Elastic28PseudoLinearCubicPredeformedEEEE6createERKNS_3BoxEiRKNS_7FabInfoEi
FN:72,_ZNK5amrex17DefaultFabFactoryINS_7BaseFabIN5Eigen6MatrixIdLi2ELi2ELi0ELi2ELi2EEEEEE6createERKNS_3BoxEiRKNS_7FabInfoEi
FNDA:0,_ZNK5amrex17DefaultFabFactoryINS_7BaseFabIN5Eigen6MatrixIdLi2ELi2ELi0ELi2ELi2EEEEEE6createERKNS_3BoxEiRKNS_7FabInfoEi
FN:78,_ZNK5amrex17DefaultFabFactoryINS_7BaseFabIN5Model5Solid6Affine9HexagonalEEEE12create_aliasERKS6_ii
FNDA:0,_ZNK5amrex17DefaultFabFactoryINS_7BaseFabIN5Model5Solid6Affine9HexagonalEEEE12create_aliasERKS6_ii
FN:78,_ZNK5amrex17DefaultFabFactoryINS_7BaseFabIN3Set7Matrix4ILi2ELi6EEEEEE12create_aliasERKS5_ii
FNDA:0,_ZNK5amrex17DefaultFabFactoryINS_7BaseFabIN3Set7Matrix4ILi2ELi6EEEEEE12create_aliasERKS5_ii
FN:78,_ZNK5amrex17DefaultFabFactoryINS_7BaseFabIN5Model5Solid6Linear5CubicEEEE12create_aliasERKS6_ii
FNDA:0,_ZNK5amrex17DefaultFabFactoryINS_7BaseFabIN5Model5Solid6Linear5CubicEEEE12create_aliasERKS6_ii
FN:78,_ZNK5amrex17DefaultFabFactoryINS_7BaseFabIN5Model5Solid6Linear9IsotropicEEEE12create_aliasERKS6_ii
FNDA:0,_ZNK5amrex17DefaultFabFactoryINS_7BaseFabIN5Model5Solid6Linear9IsotropicEEEE12create_aliasERKS6_ii
FN:78,_ZNK5amrex17DefaultFabFactoryINS_9FArrayBoxEE12create_aliasERKS1_ii
FNDA:0,_ZNK5amrex17DefaultFabFactoryINS_9FArrayBoxEE12create_aliasERKS1_ii
FN:78,_ZNK5amrex17DefaultFabFactoryINS_7BaseFabIN5Model5Solid6Affine2J2EEEE12create_aliasERKS6_ii
FNDA:0,_ZNK5amrex17DefaultFabFactoryINS_7BaseFabIN5Model5Solid6Affine2J2EEEE12create_aliasERKS6_ii
FN:78,_ZNK5amrex17DefaultFabFactoryINS_7BaseFabIN5Model5Solid6Affine5CubicEEEE12create_aliasERKS6_ii
FNDA:0,_ZNK5amrex17DefaultFabFactoryINS_7BaseFabIN5Model5Solid6Affine5CubicEEEE12create_aliasERKS6_ii
FN:78,_ZNK5amrex17DefaultFabFactoryINS_7BaseFabIN5Model5Solid6Affine9IsotropicEEEE12create_aliasERKS6_ii
FNDA:0,_ZNK5amrex17DefaultFabFactoryINS_7BaseFabIN5Model5Solid6Affine9IsotropicEEEE12create_aliasERKS6_ii
FN:78,_ZNK5amrex17DefaultFabFactoryINS_7BaseFabIN3Set7Matrix4ILi2ELi3EEEEEE12create_aliasERKS5_ii
FNDA:0,_ZNK5amrex17DefaultFabFactoryINS_7BaseFabIN3Set7Matrix4ILi2ELi3EEEEEE12create_aliasERKS5_ii
FN:78,_ZNK5amrex17DefaultFabFactoryINS_9IArrayBoxEE12create_aliasERKS1_ii
FNDA:0,_ZNK5amrex17DefaultFabFactoryINS_9IArrayBoxEE12create_aliasERKS1_ii
FN:78,_ZNK5amrex17DefaultFabFactoryINS_7BaseFabIN5Eigen6MatrixIdLi2ELi1ELi0ELi2ELi1EEEEEE12create_aliasERKS5_ii
FNDA:0,_ZNK5amrex17DefaultFabFactoryINS_7BaseFabIN5Eigen6MatrixIdLi2ELi1ELi0ELi2ELi1EEEEEE12create_aliasERKS5_ii
FN:78,_ZNK5amrex17DefaultFabFactoryINS_7BaseFabIN5Model5Solid7Elastic17PseudoLinearCubicEEEE12create_aliasERKS6_ii
FNDA:0,_ZNK5amrex17DefaultFabFactoryINS_7BaseFabIN5Model5Solid7Elastic17PseudoLinearCubicEEEE12create_aliasERKS6_ii
FN:78,_ZNK5amrex17DefaultFabFactoryINS_7BaseFabIN5Model5Solid6Linear19IsotropicDegradableEEEE12create_aliasERKS6_ii
FNDA:0,_ZNK5amrex17DefaultFabFactoryINS_7BaseFabIN5Model5Solid6Linear19IsotropicDegradableEEEE12create_aliasERKS6_ii
FN:78,_ZNK5amrex17DefaultFabFactoryINS_7BaseFabIN5Model5Solid7Elastic28PseudoLinearCubicPredeformedEEEE12create_aliasERKS6_ii
FNDA:0,_ZNK5amrex17DefaultFabFactoryINS_7BaseFabIN5Model5Solid7Elastic28PseudoLinearCubicPredeformedEEEE12create_aliasERKS6_ii
FN:78,_ZNK5amrex17DefaultFabFactoryINS_7BaseFabIN5Model5Solid7Elastic10NeoHookeanEEEE12create_aliasERKS6_ii
FNDA:0,_ZNK5amrex17DefaultFabFactoryINS_7BaseFabIN5Model5Solid7Elastic10NeoHookeanEEEE12create_aliasERKS6_ii
FN:78,_ZNK5amrex17DefaultFabFactoryINS_7BaseFabIN5Model5Solid6Linear9LaplacianEEEE12create_aliasERKS6_ii
FNDA:0,_ZNK5amrex17DefaultFabFactoryINS_7BaseFabIN5Model5Solid6Linear9LaplacianEEEE12create_aliasERKS6_ii
FN:78,_ZNK5amrex17DefaultFabFactoryINS_7BaseFabIN3Set7Matrix4ILi2ELi1EEEEEE12create_aliasERKS5_ii
FNDA:0,_ZNK5amrex17DefaultFabFactoryINS_7BaseFabIN3Set7Matrix4ILi2ELi1EEEEEE12create_aliasERKS5_ii
FN:78,_ZNK5amrex17DefaultFabFactoryINS_7BaseFabIN5Eigen6MatrixIdLi2ELi2ELi0ELi2ELi2EEEEEE12create_aliasERKS5_ii
FNDA:0,_ZNK5amrex17DefaultFabFactoryINS_7BaseFabIN5Eigen6MatrixIdLi2ELi2ELi0ELi2ELi2EEEEEE12create_aliasERKS5_ii
FN:78,_ZNK5amrex17DefaultFabFactoryINS_7BaseFabIN3Set7Matrix4ILi2ELi4EEEEEE12create_aliasERKS5_ii
FNDA:0,_ZNK5amrex17DefaultFabFactoryINS_7BaseFabIN3Set7Matrix4ILi2ELi4EEEEEE12create_aliasERKS5_ii
FN:83,_ZNK5amrex17DefaultFabFactoryINS_7BaseFabIN5Model5Solid6Affine9HexagonalEEEE7destroyEPS6_
FNDA:0,_ZNK5amrex17DefaultFabFactoryINS_7BaseFabIN5Model5Solid6Affine9HexagonalEEEE7destroyEPS6_
FN:83,_ZNK5amrex17DefaultFabFactoryINS_7BaseFabIN5Model5Solid7Elastic10NeoHookeanEEEE7destroyEPS6_
FNDA:48,_ZNK5amrex17DefaultFabFactoryINS_7BaseFabIN5Model5Solid7Elastic10NeoHookeanEEEE7destroyEPS6_
FN:83,_ZNK5amrex17DefaultFabFactoryINS_7BaseFabIN5Model5Solid7Elastic28PseudoLinearCubicPredeformedEEEE7destroyEPS6_
FNDA:0,_ZNK5amrex17DefaultFabFactoryINS_7BaseFabIN5Model5Solid7Elastic28PseudoLinearCubicPredeformedEEEE7destroyEPS6_
FN:83,_ZNK5amrex17DefaultFabFactoryINS_7BaseFabIN5Model5Solid6Affine5CubicEEEE7destroyEPS6_
FNDA:0,_ZNK5amrex17DefaultFabFactoryINS_7BaseFabIN5Model5Solid6Affine5CubicEEEE7destroyEPS6_
FN:83,_ZNK5amrex17DefaultFabFactoryINS_7BaseFabIN5Model5Solid7Elastic17PseudoLinearCubicEEEE7destroyEPS6_
FNDA:0,_ZNK5amrex17DefaultFabFactoryINS_7BaseFabIN5Model5Solid7Elastic17PseudoLinearCubicEEEE7destroyEPS6_
FN:83,_ZNK5amrex17DefaultFabFactoryINS_7BaseFabIN5Model5Solid6Linear9LaplacianEEEE7destroyEPS6_
FNDA:1,_ZNK5amrex17DefaultFabFactoryINS_7BaseFabIN5Model5Solid6Linear9LaplacianEEEE7destroyEPS6_
FN:83,_ZNK5amrex17DefaultFabFactoryINS_7BaseFabIN5Model5Solid6Linear5CubicEEEE7destroyEPS6_
FNDA:0,_ZNK5amrex17DefaultFabFactoryINS_7BaseFabIN5Model5Solid6Linear5CubicEEEE7destroyEPS6_
FN:83,_ZNK5amrex17DefaultFabFactoryINS_7BaseFabIN5Model5Solid6Affine2J2EEEE7destroyEPS6_
FNDA:33,_ZNK5amrex17DefaultFabFactoryINS_7BaseFabIN5Model5Solid6Affine2J2EEEE7destroyEPS6_
FN:83,_ZNK5amrex17DefaultFabFactoryINS_7BaseFabIN5Model5Solid6Linear9IsotropicEEEE7destroyEPS6_
FNDA:106,_ZNK5amrex17DefaultFabFactoryINS_7BaseFabIN5Model5Solid6Linear9IsotropicEEEE7destroyEPS6_
FN:83,_ZNK5amrex17DefaultFabFactoryINS_9IArrayBoxEE7destroyEPS1_
FNDA:0,_ZNK5amrex17DefaultFabFactoryINS_9IArrayBoxEE7destroyEPS1_
FN:83,_ZNK5amrex17DefaultFabFactoryINS_9FArrayBoxEE7destroyEPS1_
FNDA:0,_ZNK5amrex17DefaultFabFactoryINS_9FArrayBoxEE7destroyEPS1_
FN:83,_ZNK5amrex17DefaultFabFactoryINS_7BaseFabIN5Eigen6MatrixIdLi2ELi2ELi0ELi2ELi2EEEEEE7destroyEPS5_
FNDA:0,_ZNK5amrex17DefaultFabFactoryINS_7BaseFabIN5Eigen6MatrixIdLi2ELi2ELi0ELi2ELi2EEEEEE7destroyEPS5_
FN:83,_ZNK5amrex17DefaultFabFactoryINS_7BaseFabIN3Set7Matrix4ILi2ELi6EEEEEE7destroyEPS5_
FNDA:0,_ZNK5amrex17DefaultFabFactoryINS_7BaseFabIN3Set7Matrix4ILi2ELi6EEEEEE7destroyEPS5_
FN:83,_ZNK5amrex17DefaultFabFactoryINS_7BaseFabIN3Set7Matrix4ILi2ELi3EEEEEE7destroyEPS5_
FNDA:0,_ZNK5amrex17DefaultFabFactoryINS_7BaseFabIN3Set7Matrix4ILi2ELi3EEEEEE7destroyEPS5_
FN:83,_ZNK5amrex17DefaultFabFactoryINS_7BaseFabIN3Set7Matrix4ILi2ELi4EEEEEE7destroyEPS5_
FNDA:0,_ZNK5amrex17DefaultFabFactoryINS_7BaseFabIN3Set7Matrix4ILi2ELi4EEEEEE7destroyEPS5_
FN:83,_ZNK5amrex17DefaultFabFactoryINS_7BaseFabIN3Set7Matrix4ILi2ELi1EEEEEE7destroyEPS5_
FNDA:0,_ZNK5amrex17DefaultFabFactoryINS_7BaseFabIN3Set7Matrix4ILi2ELi1EEEEEE7destroyEPS5_
FN:83,_ZNK5amrex17DefaultFabFactoryINS_7BaseFabIN5Model5Solid6Linear19IsotropicDegradableEEEE7destroyEPS6_
FNDA:0,_ZNK5amrex17DefaultFabFactoryINS_7BaseFabIN5Model5Solid6Linear19IsotropicDegradableEEEE7destroyEPS6_
FN:83,_ZNK5amrex17DefaultFabFactoryINS_7BaseFabIN5Eigen6MatrixIdLi2ELi1ELi0ELi2ELi1EEEEEE7destroyEPS5_
FNDA:0,_ZNK5amrex17DefaultFabFactoryINS_7BaseFabIN5Eigen6MatrixIdLi2ELi1ELi0ELi2ELi1EEEEEE7destroyEPS5_
FN:83,_ZNK5amrex17DefaultFabFactoryINS_7BaseFabIN5Model5Solid6Affine9IsotropicEEEE7destroyEPS6_
FNDA:0,_ZNK5amrex17DefaultFabFactoryINS_7BaseFabIN5Model5Solid6Affine9IsotropicEEEE7destroyEPS6_
FN:89,_ZNK5amrex17DefaultFabFactoryINS_7BaseFabIN5Model5Solid6Affine2J2EEEE5cloneEv
FNDA:11,_ZNK5amrex17DefaultFabFactoryINS_7BaseFabIN5Model5Solid6Affine2J2EEEE5cloneEv
FN:89,_ZNK5amrex17DefaultFabFactoryINS_7BaseFabIN5Model5Solid6Linear19IsotropicDegradableEEEE5cloneEv
FNDA:0,_ZNK5amrex17DefaultFabFactoryINS_7BaseFabIN5Model5Solid6Linear19IsotropicDegradableEEEE5cloneEv
FN:89,_ZNK5amrex17DefaultFabFactoryINS_9IArrayBoxEE5cloneEv
FNDA:0,_ZNK5amrex17DefaultFabFactoryINS_9IArrayBoxEE5cloneEv
FN:89,_ZNK5amrex17DefaultFabFactoryINS_7BaseFabIN5Model5Solid6Linear9IsotropicEEEE5cloneEv
FNDA:32,_ZNK5amrex17DefaultFabFactoryINS_7BaseFabIN5Model5Solid6Linear9IsotropicEEEE5cloneEv
FN:89,_ZNK5amrex17DefaultFabFactoryINS_7BaseFabIN5Model5Solid7Elastic28PseudoLinearCubicPredeformedEEEE5cloneEv
FNDA:0,_ZNK5amrex17DefaultFabFactoryINS_7BaseFabIN5Model5Solid7Elastic28PseudoLinearCubicPredeformedEEEE5cloneEv
FN:89,_ZNK5amrex17DefaultFabFactoryINS_7BaseFabIN5Model5Solid6Linear5CubicEEEE5cloneEv
FNDA:0,_ZNK5amrex17DefaultFabFactoryINS_7BaseFabIN5Model5Solid6Linear5CubicEEEE5cloneEv
FN:89,_ZNK5amrex17DefaultFabFactoryINS_9FArrayBoxEE5cloneEv
FNDA:0,_ZNK5amrex17DefaultFabFactoryINS_9FArrayBoxEE5cloneEv
FN:89,_ZNK5amrex17DefaultFabFactoryINS_7BaseFabIN5Eigen6MatrixIdLi2ELi2ELi0ELi2ELi2EEEEEE5cloneEv
FNDA:0,_ZNK5amrex17DefaultFabFactoryINS_7BaseFabIN5Eigen6MatrixIdLi2ELi2ELi0ELi2ELi2EEEEEE5cloneEv
FN:89,_ZNK5amrex17DefaultFabFactoryINS_7BaseFabIN5Model5Solid7Elastic17PseudoLinearCubicEEEE5cloneEv
FNDA:0,_ZNK5amrex17DefaultFabFactoryINS_7BaseFabIN5Model5Solid7Elastic17PseudoLinearCubicEEEE5cloneEv
FN:89,_ZNK5amrex17DefaultFabFactoryINS_7BaseFabIN5Model5Solid6Affine9IsotropicEEEE5cloneEv
FNDA:0,_ZNK5amrex17DefaultFabFactoryINS_7BaseFabIN5Model5Solid6Affine9IsotropicEEEE5cloneEv
FN:89,_ZNK5amrex17DefaultFabFactoryINS_7BaseFabIN3Set7Matrix4ILi2ELi6EEEEEE5cloneEv
FNDA:0,_ZNK5amrex17DefaultFabFactoryINS_7BaseFabIN3Set7Matrix4ILi2ELi6EEEEEE5cloneEv
FN:89,_ZNK5amrex17DefaultFabFactoryINS_7BaseFabIN5Model5Solid7Elastic10NeoHookeanEEEE5cloneEv
FNDA:20,_ZNK5amrex17DefaultFabFactoryINS_7BaseFabIN5Model5Solid7Elastic10NeoHookeanEEEE5cloneEv
FN:89,_ZNK5amrex17DefaultFabFactoryINS_7BaseFabIN5Eigen6MatrixIdLi2ELi1ELi0ELi2ELi1EEEEEE5cloneEv
FNDA:0,_ZNK5amrex17DefaultFabFactoryINS_7BaseFabIN5Eigen6MatrixIdLi2ELi1ELi0ELi2ELi1EEEEEE5cloneEv
FN:89,_ZNK5amrex17DefaultFabFactoryINS_7BaseFabIN3Set7Matrix4ILi2ELi3EEEEEE5cloneEv
FNDA:0,_ZNK5amrex17DefaultFabFactoryINS_7BaseFabIN3Set7Matrix4ILi2ELi3EEEEEE5cloneEv
FN:89,_ZNK5amrex17DefaultFabFactoryINS_7BaseFabIN5Model5Solid6Affine5CubicEEEE5cloneEv
FNDA:0,_ZNK5amrex17DefaultFabFactoryINS_7BaseFabIN5Model5Solid6Affine5CubicEEEE5cloneEv
FN:89,_ZNK5amrex17DefaultFabFactoryINS_7BaseFabIN5Model5Solid6Linear9LaplacianEEEE5cloneEv
FNDA:2,_ZNK5amrex17DefaultFabFactoryINS_7BaseFabIN5Model5Solid6Linear9LaplacianEEEE5cloneEv
FN:89,_ZNK5amrex17DefaultFabFactoryINS_7BaseFabIN3Set7Matrix4ILi2ELi4EEEEEE5cloneEv
FNDA:0,_ZNK5amrex17DefaultFabFactoryINS_7BaseFabIN3Set7Matrix4ILi2ELi4EEEEEE5cloneEv
FN:89,_ZNK5amrex17DefaultFabFactoryINS_7BaseFabIN3Set7Matrix4ILi2ELi1EEEEEE5cloneEv
FNDA:0,_ZNK5amrex17DefaultFabFactoryINS_7BaseFabIN3Set7Matrix4ILi2ELi1EEEEEE5cloneEv
FN:89,_ZNK5amrex17DefaultFabFactoryINS_7BaseFabIN5Model5Solid6Affine9HexagonalEEEE5cloneEv
FNDA:0,_ZNK5amrex17DefaultFabFactoryINS_7BaseFabIN5Model5Solid6Affine9HexagonalEEEE5cloneEv
DA:31,0
DA:32,0
DA:33,0
DA:36,0
DA:37,0
DA:38,0
DA:41,0
DA:42,0
DA:43,0
DA:51,0
DA:51,0
DA:51,0
DA:51,0
DA:51,0
DA:51,18
DA:51,0
DA:51,0
DA:51,30
DA:51,3
DA:51,0
DA:51,0
DA:51,0
DA:51,49
DA:51,0
DA:51,0
DA:51,0
DA:51,0
DA:51,0
DA:56,0
DA:56,0
DA:56,0
DA:56,0
DA:56,0
DA:56,0
DA:56,0
DA:56,0
DA:56,0
DA:56,0
DA:56,49
DA:56,0
DA:56,0
DA:56,0
DA:56,0
DA:56,0
DA:56,0
DA:56,0
DA:56,0
DA:56,0
DA:56,0
DA:56,0
DA:56,0
DA:56,0
DA:56,0
DA:56,0
DA:56,18
DA:56,0
DA:56,0
DA:56,0
DA:56,0
DA:56,0
DA:56,30
DA:56,0
DA:56,3
DA:56,0
DA:56,0
DA:56,0
DA:60,0
DA:60,0
DA:60,0
DA:60,0
DA:60,0
DA:60,0
DA:60,0
DA:60,0
DA:60,0
DA:60,0
DA:60,0
DA:60,0
DA:60,0
DA:60,0
DA:60,0
DA:60,0
DA:60,0
DA:60,0
DA:60,0
DA:72,0
DA:74,0
DA:72,0
DA:74,0
DA:72,0
DA:74,0
DA:72,0
DA:74,0
DA:72,0
DA:74,0
DA:72,0
DA:74,0
DA:72,0
DA:74,0
DA:72,0
DA:74,0
DA:72,0
DA:74,0
DA:72,0
DA:74,0
DA:72,33
DA:74,33
DA:72,106
DA:74,106
DA:72,0
DA:74,0
DA:72,0
DA:74,0
DA:72,0
DA:74,0
DA:72,1
DA:74,1
DA:72,48
DA:74,48
DA:72,0
DA:74,0
DA:72,0
DA:74,0
DA:78,0
DA:80,0
DA:78,0
DA:80,0
DA:78,0
DA:80,0
DA:78,0
DA:80,0
DA:78,0
DA:80,0
DA:78,0
DA:80,0
DA:78,0
DA:80,0
DA:78,0
DA:80,0
DA:78,0
DA:80,0
DA:78,0
DA:80,0
DA:78,0
DA:80,0
DA:78,0
DA:80,0
DA:78,0
DA:80,0
DA:78,0
DA:80,0
DA:78,0
DA:80,0
DA:78,0
DA:80,0
DA:78,0
DA:80,0
DA:78,0
DA:80,0
DA:78,0
DA:80,0
DA:83,0
DA:85,0
DA:86,0
DA:83,0
DA:85,0
DA:86,0
DA:83,0
DA:85,0
DA:86,0
DA:83,0
DA:85,0
DA:86,0
DA:83,0
DA:85,0
DA:86,0
DA:83,0
DA:85,0
DA:86,0
DA:83,0
DA:85,0
DA:86,0
DA:83,0
DA:85,0
DA:86,0
DA:83,0
DA:85,0
DA:86,0
DA:83,0
DA:85,0
DA:86,0
DA:83,33
DA:85,33
DA:86,33
DA:83,106
DA:85,106
DA:86,106
DA:83,0
DA:85,0
DA:86,0
DA:83,0
DA:85,0
DA:86,0
DA:83,0
DA:85,0
DA:86,0
DA:83,1
DA:85,1
DA:86,1
DA:83,48
DA:85,48
DA:86,48
DA:83,0
DA:85,0
DA:86,0
DA:83,0
DA:85,0
DA:86,0
DA:89,0
DA:90,0
DA:89,0
DA:90,0
DA:89,0
DA:90,0
DA:89,0
DA:90,0
DA:89,0
DA:90,0
DA:89,0
DA:90,0
DA:89,0
DA:90,0
DA:89,0
DA:90,0
DA:89,0
DA:90,0
DA:89,0
DA:90,0
DA:89,11
DA:90,11
DA:89,32
DA:90,32
DA:89,0
DA:90,0
DA:89,0
DA:90,0
DA:89,0
DA:90,0
DA:89,2
DA:90,2
DA:89,20
DA:90,20
DA:89,0
DA:90,0
DA:89,0
DA:90,0
end_of_record
SF:/home/brunnels/Research/alamo/ext/amrex/2d-coverage-g++-23.08/include/AMReX_FabArray.H
FN:57,_ZN5amrex11nBytesOwnedIN5Model5Solid6Affine9HexagonalEEElRKNS_7BaseFabIT_EE
FNDA:0,_ZN5amrex11nBytesOwnedIN5Model5Solid6Affine9HexagonalEEElRKNS_7BaseFabIT_EE
FN:57,_ZN5amrex11nBytesOwnedIN3Set7Matrix4ILi2ELi4EEEEElRKNS_7BaseFabIT_EE
FNDA:0,_ZN5amrex11nBytesOwnedIN3Set7Matrix4ILi2ELi4EEEEElRKNS_7BaseFabIT_EE
FN:57,_ZN5amrex11nBytesOwnedIN3Set7Matrix4ILi2ELi3EEEEElRKNS_7BaseFabIT_EE
FNDA:0,_ZN5amrex11nBytesOwnedIN3Set7Matrix4ILi2ELi3EEEEElRKNS_7BaseFabIT_EE
FN:57,_ZN5amrex11nBytesOwnedIN3Set7Matrix4ILi2ELi1EEEEElRKNS_7BaseFabIT_EE
FNDA:0,_ZN5amrex11nBytesOwnedIN3Set7Matrix4ILi2ELi1EEEEElRKNS_7BaseFabIT_EE
FN:57,_ZN5amrex11nBytesOwnedIN3Set7Matrix4ILi2ELi6EEEEElRKNS_7BaseFabIT_EE
FNDA:0,_ZN5amrex11nBytesOwnedIN3Set7Matrix4ILi2ELi6EEEEElRKNS_7BaseFabIT_EE
FN:57,_ZN5amrex11nBytesOwnedIiEElRKNS_7BaseFabIT_EE
FNDA:0,_ZN5amrex11nBytesOwnedIiEElRKNS_7BaseFabIT_EE
FN:57,_ZN5amrex11nBytesOwnedIN5Eigen6MatrixIdLi2ELi2ELi0ELi2ELi2EEEEElRKNS_7BaseFabIT_EE
FNDA:0,_ZN5amrex11nBytesOwnedIN5Eigen6MatrixIdLi2ELi2ELi0ELi2ELi2EEEEElRKNS_7BaseFabIT_EE
FN:57,_ZN5amrex11nBytesOwnedIdEElRKNS_7BaseFabIT_EE
FNDA:0,_ZN5amrex11nBytesOwnedIdEElRKNS_7BaseFabIT_EE
FN:57,_ZN5amrex11nBytesOwnedIN5Eigen6MatrixIdLi2ELi1ELi0ELi2ELi1EEEEElRKNS_7BaseFabIT_EE
FNDA:0,_ZN5amrex11nBytesOwnedIN5Eigen6MatrixIdLi2ELi1ELi0ELi2ELi1EEEEElRKNS_7BaseFabIT_EE
FN:57,_ZN5amrex11nBytesOwnedIN5Model5Solid6Affine5CubicEEElRKNS_7BaseFabIT_EE
FNDA:0,_ZN5amrex11nBytesOwnedIN5Model5Solid6Affine5CubicEEElRKNS_7BaseFabIT_EE
FN:57,_ZN5amrex11nBytesOwnedIN5Model5Solid6Affine2J2EEElRKNS_7BaseFabIT_EE
FNDA:66,_ZN5amrex11nBytesOwnedIN5Model5Solid6Affine2J2EEElRKNS_7BaseFabIT_EE
FN:57,_ZN5amrex11nBytesOwnedIN5Model5Solid6Linear19IsotropicDegradableEEElRKNS_7BaseFabIT_EE
FNDA:0,_ZN5amrex11nBytesOwnedIN5Model5Solid6Linear19IsotropicDegradableEEElRKNS_7BaseFabIT_EE
FN:57,_ZN5amrex11nBytesOwnedIN5Model5Solid6Affine9IsotropicEEElRKNS_7BaseFabIT_EE
FNDA:0,_ZN5amrex11nBytesOwnedIN5Model5Solid6Affine9IsotropicEEElRKNS_7BaseFabIT_EE
FN:57,_ZN5amrex11nBytesOwnedIN5Model5Solid7Elastic28PseudoLinearCubicPredeformedEEElRKNS_7BaseFabIT_EE
FNDA:0,_ZN5amrex11nBytesOwnedIN5Model5Solid7Elastic28PseudoLinearCubicPredeformedEEElRKNS_7BaseFabIT_EE
FN:57,_ZN5amrex11nBytesOwnedIN5Model5Solid7Elastic17PseudoLinearCubicEEElRKNS_7BaseFabIT_EE
FNDA:0,_ZN5amrex11nBytesOwnedIN5Model5Solid7Elastic17PseudoLinearCubicEEElRKNS_7BaseFabIT_EE
FN:57,_ZN5amrex11nBytesOwnedIN5Model5Solid6Linear9IsotropicEEElRKNS_7BaseFabIT_EE
FNDA:212,_ZN5amrex11nBytesOwnedIN5Model5Solid6Linear9IsotropicEEElRKNS_7BaseFabIT_EE
FN:57,_ZN5amrex11nBytesOwnedIN5Model5Solid7Elastic10NeoHookeanEEElRKNS_7BaseFabIT_EE
FNDA:96,_ZN5amrex11nBytesOwnedIN5Model5Solid7Elastic10NeoHookeanEEElRKNS_7BaseFabIT_EE
FN:57,_ZN5amrex11nBytesOwnedIN5Model5Solid6Linear5CubicEEElRKNS_7BaseFabIT_EE
FNDA:0,_ZN5amrex11nBytesOwnedIN5Model5Solid6Linear5CubicEEElRKNS_7BaseFabIT_EE
FN:57,_ZN5amrex11nBytesOwnedIN5Model5Solid6Linear9LaplacianEEElRKNS_7BaseFabIT_EE
FNDA:2,_ZN5amrex11nBytesOwnedIN5Model5Solid6Linear9LaplacianEEElRKNS_7BaseFabIT_EE
FN:121,_ZN5amrex6MFInfo8SetAllocEb
FNDA:0,_ZN5amrex6MFInfo8SetAllocEb
FN:233,_ZN5amrex4CopyINS_7BaseFabIN5Model5Solid6Linear5CubicEEES6_Li0EEEvRNS_8FabArrayIT_EERKNS7_IT0_EEiiiRKNS_7IntVectE
FNDA:0,_ZN5amrex4CopyINS_7BaseFabIN5Model5Solid6Linear5CubicEEES6_Li0EEEvRNS_8FabArrayIT_EERKNS7_IT0_EEiiiRKNS_7IntVectE
FN:233,_ZN5amrex4CopyINS_7BaseFabIN5Model5Solid6Affine9IsotropicEEES6_Li0EEEvRNS_8FabArrayIT_EERKNS7_IT0_EEiiiRKNS_7IntVectE
FNDA:0,_ZN5amrex4CopyINS_7BaseFabIN5Model5Solid6Affine9IsotropicEEES6_Li0EEEvRNS_8FabArrayIT_EERKNS7_IT0_EEiiiRKNS_7IntVectE
FN:233,_ZN5amrex4CopyINS_7BaseFabIN5Model5Solid6Affine2J2EEES6_Li0EEEvRNS_8FabArrayIT_EERKNS7_IT0_EEiiiRKNS_7IntVectE
FNDA:0,_ZN5amrex4CopyINS_7BaseFabIN5Model5Solid6Affine2J2EEES6_Li0EEEvRNS_8FabArrayIT_EERKNS7_IT0_EEiiiRKNS_7IntVectE
FN:233,_ZN5amrex4CopyINS_7BaseFabIN5Model5Solid7Elastic28PseudoLinearCubicPredeformedEEES6_Li0EEEvRNS_8FabArrayIT_EERKNS7_IT0_EEiiiRKNS_7IntVectE
FNDA:0,_ZN5amrex4CopyINS_7BaseFabIN5Model5Solid7Elastic28PseudoLinearCubicPredeformedEEES6_Li0EEEvRNS_8FabArrayIT_EERKNS7_IT0_EEiiiRKNS_7IntVectE
FN:233,_ZN5amrex4CopyINS_7BaseFabIN5Model5Solid6Linear9IsotropicEEES6_Li0EEEvRNS_8FabArrayIT_EERKNS7_IT0_EEiiiRKNS_7IntVectE
FNDA:0,_ZN5amrex4CopyINS_7BaseFabIN5Model5Solid6Linear9IsotropicEEES6_Li0EEEvRNS_8FabArrayIT_EERKNS7_IT0_EEiiiRKNS_7IntVectE
FN:233,_ZN5amrex4CopyINS_7BaseFabIN5Eigen6MatrixIdLi2ELi2ELi0ELi2ELi2EEEEES5_Li0EEEvRNS_8FabArrayIT_EERKNS6_IT0_EEiiiRKNS_7IntVectE
FNDA:0,_ZN5amrex4CopyINS_7BaseFabIN5Eigen6MatrixIdLi2ELi2ELi0ELi2ELi2EEEEES5_Li0EEEvRNS_8FabArrayIT_EERKNS6_IT0_EEiiiRKNS_7IntVectE
FN:233,_ZN5amrex4CopyINS_7BaseFabIN5Model5Solid7Elastic17PseudoLinearCubicEEES6_Li0EEEvRNS_8FabArrayIT_EERKNS7_IT0_EEiiiRKNS_7IntVectE
FNDA:0,_ZN5amrex4CopyINS_7BaseFabIN5Model5Solid7Elastic17PseudoLinearCubicEEES6_Li0EEEvRNS_8FabArrayIT_EERKNS7_IT0_EEiiiRKNS_7IntVectE
FN:233,_ZN5amrex4CopyINS_7BaseFabIN5Eigen6MatrixIdLi2ELi1ELi0ELi2ELi1EEEEES5_Li0EEEvRNS_8FabArrayIT_EERKNS6_IT0_EEiiiRKNS_7IntVectE
FNDA:0,_ZN5amrex4CopyINS_7BaseFabIN5Eigen6MatrixIdLi2ELi1ELi0ELi2ELi1EEEEES5_Li0EEEvRNS_8FabArrayIT_EERKNS6_IT0_EEiiiRKNS_7IntVectE
FN:233,_ZN5amrex4CopyINS_7BaseFabIN5Model5Solid7Elastic10NeoHookeanEEES6_Li0EEEvRNS_8FabArrayIT_EERKNS7_IT0_EEiiiRKNS_7IntVectE
FNDA:0,_ZN5amrex4CopyINS_7BaseFabIN5Model5Solid7Elastic10NeoHookeanEEES6_Li0EEEvRNS_8FabArrayIT_EERKNS7_IT0_EEiiiRKNS_7IntVectE
FN:233,_ZN5amrex4CopyINS_7BaseFabIN5Model5Solid6Affine5CubicEEES6_Li0EEEvRNS_8FabArrayIT_EERKNS7_IT0_EEiiiRKNS_7IntVectE
FNDA:0,_ZN5amrex4CopyINS_7BaseFabIN5Model5Solid6Affine5CubicEEES6_Li0EEEvRNS_8FabArrayIT_EERKNS7_IT0_EEiiiRKNS_7IntVectE
FN:233,_ZN5amrex4CopyINS_7BaseFabIN5Model5Solid6Linear19IsotropicDegradableEEES6_Li0EEEvRNS_8FabArrayIT_EERKNS7_IT0_EEiiiRKNS_7IntVectE
FNDA:0,_ZN5amrex4CopyINS_7BaseFabIN5Model5Solid6Linear19IsotropicDegradableEEES6_Li0EEEvRNS_8FabArrayIT_EERKNS7_IT0_EEiiiRKNS_7IntVectE
FN:233,_ZN5amrex4CopyINS_7BaseFabIN5Model5Solid6Linear9LaplacianEEES6_Li0EEEvRNS_8FabArrayIT_EERKNS7_IT0_EEiiiRKNS_7IntVectE
FNDA:0,_ZN5amrex4CopyINS_7BaseFabIN5Model5Solid6Linear9LaplacianEEES6_Li0EEEvRNS_8FabArrayIT_EERKNS7_IT0_EEiiiRKNS_7IntVectE
FN:233,_ZN5amrex4CopyINS_9FArrayBoxES1_Li0EEEvRNS_8FabArrayIT_EERKNS2_IT0_EEiiiRKNS_7IntVectE
FNDA:0,_ZN5amrex4CopyINS_9FArrayBoxES1_Li0EEEvRNS_8FabArrayIT_EERKNS2_IT0_EEiiiRKNS_7IntVectE
FN:233,_ZN5amrex4CopyINS_7BaseFabIN5Model5Solid6Affine9HexagonalEEES6_Li0EEEvRNS_8FabArrayIT_EERKNS7_IT0_EEiiiRKNS_7IntVectE
FNDA:0,_ZN5amrex4CopyINS_7BaseFabIN5Model5Solid6Affine9HexagonalEEES6_Li0EEEvRNS_8FabArrayIT_EERKNS7_IT0_EEiiiRKNS_7IntVectE
FN:282,_ZN5amrex3AddINS_7BaseFabIN5Model5Solid6Linear19IsotropicDegradableEEEvEEvRNS_8FabArrayIT_EERKS9_iiiRKNS_7IntVectE
FNDA:0,_ZN5amrex3AddINS_7BaseFabIN5Model5Solid6Linear19IsotropicDegradableEEEvEEvRNS_8FabArrayIT_EERKS9_iiiRKNS_7IntVectE
FN:282,_ZN5amrex3AddINS_7BaseFabIN5Eigen6MatrixIdLi2ELi1ELi0ELi2ELi1EEEEEvEEvRNS_8FabArrayIT_EERKS8_iiiRKNS_7IntVectE
FNDA:0,_ZN5amrex3AddINS_7BaseFabIN5Eigen6MatrixIdLi2ELi1ELi0ELi2ELi1EEEEEvEEvRNS_8FabArrayIT_EERKS8_iiiRKNS_7IntVectE
FN:282,_ZN5amrex3AddINS_7BaseFabIN5Eigen6MatrixIdLi2ELi2ELi0ELi2ELi2EEEEEvEEvRNS_8FabArrayIT_EERKS8_iiiRKNS_7IntVectE
FNDA:0,_ZN5amrex3AddINS_7BaseFabIN5Eigen6MatrixIdLi2ELi2ELi0ELi2ELi2EEEEEvEEvRNS_8FabArrayIT_EERKS8_iiiRKNS_7IntVectE
FN:282,_ZN5amrex3AddINS_7BaseFabIN5Model5Solid6Linear9LaplacianEEEvEEvRNS_8FabArrayIT_EERKS9_iiiRKNS_7IntVectE
FNDA:0,_ZN5amrex3AddINS_7BaseFabIN5Model5Solid6Linear9LaplacianEEEvEEvRNS_8FabArrayIT_EERKS9_iiiRKNS_7IntVectE
FN:282,_ZN5amrex3AddINS_7BaseFabIN5Model5Solid6Affine9IsotropicEEEvEEvRNS_8FabArrayIT_EERKS9_iiiRKNS_7IntVectE
FNDA:0,_ZN5amrex3AddINS_7BaseFabIN5Model5Solid6Affine9IsotropicEEEvEEvRNS_8FabArrayIT_EERKS9_iiiRKNS_7IntVectE
FN:282,_ZN5amrex3AddINS_7BaseFabIN5Model5Solid6Linear9IsotropicEEEvEEvRNS_8FabArrayIT_EERKS9_iiiRKNS_7IntVectE
FNDA:0,_ZN5amrex3AddINS_7BaseFabIN5Model5Solid6Linear9IsotropicEEEvEEvRNS_8FabArrayIT_EERKS9_iiiRKNS_7IntVectE
FN:282,_ZN5amrex3AddINS_7BaseFabIN5Model5Solid6Affine2J2EEEvEEvRNS_8FabArrayIT_EERKS9_iiiRKNS_7IntVectE
FNDA:0,_ZN5amrex3AddINS_7BaseFabIN5Model5Solid6Affine2J2EEEvEEvRNS_8FabArrayIT_EERKS9_iiiRKNS_7IntVectE
FN:282,_ZN5amrex3AddINS_7BaseFabIN5Model5Solid7Elastic28PseudoLinearCubicPredeformedEEEvEEvRNS_8FabArrayIT_EERKS9_iiiRKNS_7IntVectE
FNDA:0,_ZN5amrex3AddINS_7BaseFabIN5Model5Solid7Elastic28PseudoLinearCubicPredeformedEEEvEEvRNS_8FabArrayIT_EERKS9_iiiRKNS_7IntVectE
FN:282,_ZN5amrex3AddINS_7BaseFabIN5Model5Solid6Linear5CubicEEEvEEvRNS_8FabArrayIT_EERKS9_iiiRKNS_7IntVectE
FNDA:0,_ZN5amrex3AddINS_7BaseFabIN5Model5Solid6Linear5CubicEEEvEEvRNS_8FabArrayIT_EERKS9_iiiRKNS_7IntVectE
FN:282,_ZN5amrex3AddINS_7BaseFabIN5Model5Solid7Elastic17PseudoLinearCubicEEEvEEvRNS_8FabArrayIT_EERKS9_iiiRKNS_7IntVectE
FNDA:0,_ZN5amrex3AddINS_7BaseFabIN5Model5Solid7Elastic17PseudoLinearCubicEEEvEEvRNS_8FabArrayIT_EERKS9_iiiRKNS_7IntVectE
FN:282,_ZN5amrex3AddINS_7BaseFabIN5Model5Solid6Affine5CubicEEEvEEvRNS_8FabArrayIT_EERKS9_iiiRKNS_7IntVectE
FNDA:0,_ZN5amrex3AddINS_7BaseFabIN5Model5Solid6Affine5CubicEEEvEEvRNS_8FabArrayIT_EERKS9_iiiRKNS_7IntVectE
FN:282,_ZN5amrex3AddINS_7BaseFabIN5Model5Solid7Elastic10NeoHookeanEEEvEEvRNS_8FabArrayIT_EERKS9_iiiRKNS_7IntVectE
FNDA:0,_ZN5amrex3AddINS_7BaseFabIN5Model5Solid7Elastic10NeoHookeanEEEvEEvRNS_8FabArrayIT_EERKS9_iiiRKNS_7IntVectE
FN:282,_ZN5amrex3AddINS_7BaseFabIN5Model5Solid6Affine9HexagonalEEEvEEvRNS_8FabArrayIT_EERKS9_iiiRKNS_7IntVectE
FNDA:0,_ZN5amrex3AddINS_7BaseFabIN5Model5Solid6Affine9HexagonalEEEvEEvRNS_8FabArrayIT_EERKS9_iiiRKNS_7IntVectE
FN:421,_ZNK5amrex8FabArrayINS_7BaseFabIN5Model5Solid7Elastic10NeoHookeanEEEE7FactoryEv
FNDA:0,_ZNK5amrex8FabArrayINS_7BaseFabIN5Model5Solid7Elastic10NeoHookeanEEEE7FactoryEv
FN:421,_ZNK5amrex8FabArrayINS_7BaseFabIN5Model5Solid6Linear9IsotropicEEEE7FactoryEv
FNDA:0,_ZNK5amrex8FabArrayINS_7BaseFabIN5Model5Solid6Linear9IsotropicEEEE7FactoryEv
FN:421,_ZNK5amrex8FabArrayINS_7BaseFabIN5Model5Solid6Linear5CubicEEEE7FactoryEv
FNDA:0,_ZNK5amrex8FabArrayINS_7BaseFabIN5Model5Solid6Linear5CubicEEEE7FactoryEv
FN:421,_ZNK5amrex8FabArrayINS_7BaseFabIN5Eigen6MatrixIdLi2ELi1ELi0ELi2ELi1EEEEEE7FactoryEv
FNDA:0,_ZNK5amrex8FabArrayINS_7BaseFabIN5Eigen6MatrixIdLi2ELi1ELi0ELi2ELi1EEEEEE7FactoryEv
FN:421,_ZNK5amrex8FabArrayINS_7BaseFabIN5Model5Solid6Affine5CubicEEEE7FactoryEv
FNDA:0,_ZNK5amrex8FabArrayINS_7BaseFabIN5Model5Solid6Affine5CubicEEEE7FactoryEv
FN:421,_ZNK5amrex8FabArrayINS_7BaseFabIN5Model5Solid6Affine9HexagonalEEEE7FactoryEv
FNDA:0,_ZNK5amrex8FabArrayINS_7BaseFabIN5Model5Solid6Affine9HexagonalEEEE7FactoryEv
FN:421,_ZNK5amrex8FabArrayINS_7BaseFabIN5Model5Solid6Linear9LaplacianEEEE7FactoryEv
FNDA:0,_ZNK5amrex8FabArrayINS_7BaseFabIN5Model5Solid6Linear9LaplacianEEEE7FactoryEv
FN:421,_ZNK5amrex8FabArrayINS_7BaseFabIN5Eigen6MatrixIdLi2ELi2ELi0ELi2ELi2EEEEEE7FactoryEv
FNDA:0,_ZNK5amrex8FabArrayINS_7BaseFabIN5Eigen6MatrixIdLi2ELi2ELi0ELi2ELi2EEEEEE7FactoryEv
FN:421,_ZNK5amrex8FabArrayINS_7BaseFabIN5Model5Solid7Elastic17PseudoLinearCubicEEEE7FactoryEv
FNDA:0,_ZNK5amrex8FabArrayINS_7BaseFabIN5Model5Solid7Elastic17PseudoLinearCubicEEEE7FactoryEv
FN:421,_ZNK5amrex8FabArrayINS_7BaseFabIN5Model5Solid7Elastic28PseudoLinearCubicPredeformedEEEE7FactoryEv
FNDA:0,_ZNK5amrex8FabArrayINS_7BaseFabIN5Model5Solid7Elastic28PseudoLinearCubicPredeformedEEEE7FactoryEv
FN:421,_ZNK5amrex8FabArrayINS_7BaseFabIN5Model5Solid6Affine2J2EEEE7FactoryEv
FNDA:0,_ZNK5amrex8FabArrayINS_7BaseFabIN5Model5Solid6Affine2J2EEEE7FactoryEv
FN:421,_ZNK5amrex8FabArrayINS_7BaseFabIN5Model5Solid6Affine9IsotropicEEEE7FactoryEv
FNDA:0,_ZNK5amrex8FabArrayINS_7BaseFabIN5Model5Solid6Affine9IsotropicEEEE7FactoryEv
FN:421,_ZNK5amrex8FabArrayINS_7BaseFabIN5Model5Solid6Linear19IsotropicDegradableEEEE7FactoryEv
FNDA:0,_ZNK5amrex8FabArrayINS_7BaseFabIN5Model5Solid6Linear19IsotropicDegradableEEEE7FactoryEv
FN:469,_ZNK5amrex8FabArrayINS_7BaseFabIN5Model5Solid6Linear9LaplacianEEEEixERKNS_6MFIterE
FNDA:0,_ZNK5amrex8FabArrayINS_7BaseFabIN5Model5Solid6Linear9LaplacianEEEEixERKNS_6MFIterE
FN:469,_ZNK5amrex8FabArrayINS_7BaseFabIN5Model5Solid6Affine9HexagonalEEEEixERKNS_6MFIterE
FNDA:0,_ZNK5amrex8FabArrayINS_7BaseFabIN5Model5Solid6Affine9HexagonalEEEEixERKNS_6MFIterE
FN:469,_ZNK5amrex8FabArrayINS_7BaseFabIN5Model5Solid6Affine5CubicEEEEixERKNS_6MFIterE
FNDA:0,_ZNK5amrex8FabArrayINS_7BaseFabIN5Model5Solid6Affine5CubicEEEEixERKNS_6MFIterE
FN:469,_ZNK5amrex8FabArrayINS_7BaseFabIN5Model5Solid6Linear5CubicEEEEixERKNS_6MFIterE
FNDA:0,_ZNK5amrex8FabArrayINS_7BaseFabIN5Model5Solid6Linear5CubicEEEEixERKNS_6MFIterE
FN:469,_ZNK5amrex8FabArrayINS_7BaseFabIN5Model5Solid7Elastic10NeoHookeanEEEEixERKNS_6MFIterE
FNDA:15,_ZNK5amrex8FabArrayINS_7BaseFabIN5Model5Solid7Elastic10NeoHookeanEEEEixERKNS_6MFIterE
FN:469,_ZNK5amrex8FabArrayINS_7BaseFabIN5Model5Solid6Linear9IsotropicEEEEixERKNS_6MFIterE
FNDA:26,_ZNK5amrex8FabArrayINS_7BaseFabIN5Model5Solid6Linear9IsotropicEEEEixERKNS_6MFIterE
FN:469,_ZNK5amrex8FabArrayINS_7BaseFabIN5Model5Solid7Elastic17PseudoLinearCubicEEEEixERKNS_6MFIterE
FNDA:0,_ZNK5amrex8FabArrayINS_7BaseFabIN5Model5Solid7Elastic17PseudoLinearCubicEEEEixERKNS_6MFIterE
FN:469,_ZNK5amrex8FabArrayINS_7BaseFabIN5Model5Solid6Affine9IsotropicEEEEixERKNS_6MFIterE
FNDA:0,_ZNK5amrex8FabArrayINS_7BaseFabIN5Model5Solid6Affine9IsotropicEEEEixERKNS_6MFIterE
FN:469,_ZNK5amrex8FabArrayINS_7BaseFabIN5Eigen6MatrixIdLi2ELi2ELi0ELi2ELi2EEEEEEixERKNS_6MFIterE
FNDA:0,_ZNK5amrex8FabArrayINS_7BaseFabIN5Eigen6MatrixIdLi2ELi2ELi0ELi2ELi2EEEEEEixERKNS_6MFIterE
FN:469,_ZNK5amrex8FabArrayINS_7BaseFabIN5Model5Solid7Elastic28PseudoLinearCubicPredeformedEEEEixERKNS_6MFIterE
FNDA:0,_ZNK5amrex8FabArrayINS_7BaseFabIN5Model5Solid7Elastic28PseudoLinearCubicPredeformedEEEEixERKNS_6MFIterE
FN:469,_ZNK5amrex8FabArrayINS_9IArrayBoxEEixERKNS_6MFIterE
FNDA:0,_ZNK5amrex8FabArrayINS_9IArrayBoxEEixERKNS_6MFIterE
FN:469,_ZNK5amrex8FabArrayINS_7BaseFabIN5Model5Solid6Affine2J2EEEEixERKNS_6MFIterE
FNDA:16,_ZNK5amrex8FabArrayINS_7BaseFabIN5Model5Solid6Affine2J2EEEEixERKNS_6MFIterE
FN:469,_ZNK5amrex8FabArrayINS_7BaseFabIN5Eigen6MatrixIdLi2ELi1ELi0ELi2ELi1EEEEEEixERKNS_6MFIterE
FNDA:0,_ZNK5amrex8FabArrayINS_7BaseFabIN5Eigen6MatrixIdLi2ELi1ELi0ELi2ELi1EEEEEEixERKNS_6MFIterE
FN:469,_ZNK5amrex8FabArrayINS_7BaseFabIN5Model5Solid6Linear19IsotropicDegradableEEEEixERKNS_6MFIterE
FNDA:0,_ZNK5amrex8FabArrayINS_7BaseFabIN5Model5Solid6Linear19IsotropicDegradableEEEEixERKNS_6MFIterE
FN:475,_ZN5amrex8FabArrayINS_7BaseFabIN5Model5Solid6Linear19IsotropicDegradableEEEEixERKNS_6MFIterE
FNDA:0,_ZN5amrex8FabArrayINS_7BaseFabIN5Model5Solid6Linear19IsotropicDegradableEEEEixERKNS_6MFIterE
FN:475,_ZN5amrex8FabArrayINS_7BaseFabIdEEEixERKNS_6MFIterE
FNDA:0,_ZN5amrex8FabArrayINS_7BaseFabIdEEEixERKNS_6MFIterE
FN:475,_ZN5amrex8FabArrayINS_7BaseFabIN5Eigen6MatrixIdLi2ELi1ELi0ELi2ELi1EEEEEEixERKNS_6MFIterE
FNDA:0,_ZN5amrex8FabArrayINS_7BaseFabIN5Eigen6MatrixIdLi2ELi1ELi0ELi2ELi1EEEEEEixERKNS_6MFIterE
FN:475,_ZN5amrex8FabArrayINS_7BaseFabIN5Eigen6MatrixIdLi2ELi2ELi0ELi2ELi2EEEEEEixERKNS_6MFIterE
FNDA:0,_ZN5amrex8FabArrayINS_7BaseFabIN5Eigen6MatrixIdLi2ELi2ELi0ELi2ELi2EEEEEEixERKNS_6MFIterE
FN:475,_ZN5amrex8FabArrayINS_7BaseFabIN5Model5Solid6Affine9IsotropicEEEEixERKNS_6MFIterE
FNDA:0,_ZN5amrex8FabArrayINS_7BaseFabIN5Model5Solid6Affine9IsotropicEEEEixERKNS_6MFIterE
FN:475,_ZN5amrex8FabArrayINS_7BaseFabIN5Model5Solid6Linear9IsotropicEEEEixERKNS_6MFIterE
FNDA:78,_ZN5amrex8FabArrayINS_7BaseFabIN5Model5Solid6Linear9IsotropicEEEEixERKNS_6MFIterE
FN:475,_ZN5amrex8FabArrayINS_7BaseFabIN5Model5Solid6Linear5CubicEEEEixERKNS_6MFIterE
FNDA:0,_ZN5amrex8FabArrayINS_7BaseFabIN5Model5Solid6Linear5CubicEEEEixERKNS_6MFIterE
FN:475,_ZN5amrex8FabArrayINS_7BaseFabIN5Model5Solid6Affine5CubicEEEEixERKNS_6MFIterE
FNDA:0,_ZN5amrex8FabArrayINS_7BaseFabIN5Model5Solid6Affine5CubicEEEEixERKNS_6MFIterE
FN:475,_ZN5amrex8FabArrayINS_7BaseFabIN5Model5Solid6Affine2J2EEEEixERKNS_6MFIterE
FNDA:48,_ZN5amrex8FabArrayINS_7BaseFabIN5Model5Solid6Affine2J2EEEEixERKNS_6MFIterE
FN:475,_ZN5amrex8FabArrayINS_7BaseFabIN5Model5Solid6Affine9HexagonalEEEEixERKNS_6MFIterE
FNDA:0,_ZN5amrex8FabArrayINS_7BaseFabIN5Model5Solid6Affine9HexagonalEEEEixERKNS_6MFIterE
FN:475,_ZN5amrex8FabArrayINS_7BaseFabIN5Model5Solid7Elastic28PseudoLinearCubicPredeformedEEEEixERKNS_6MFIterE
FNDA:0,_ZN5amrex8FabArrayINS_7BaseFabIN5Model5Solid7Elastic28PseudoLinearCubicPredeformedEEEEixERKNS_6MFIterE
FN:475,_ZN5amrex8FabArrayINS_7BaseFabIN5Model5Solid6Linear9LaplacianEEEEixERKNS_6MFIterE
FNDA:0,_ZN5amrex8FabArrayINS_7BaseFabIN5Model5Solid6Linear9LaplacianEEEEixERKNS_6MFIterE
FN:475,_ZN5amrex8FabArrayINS_7BaseFabIN5Model5Solid7Elastic17PseudoLinearCubicEEEEixERKNS_6MFIterE
FNDA:0,_ZN5amrex8FabArrayINS_7BaseFabIN5Model5Solid7Elastic17PseudoLinearCubicEEEEixERKNS_6MFIterE
FN:475,_ZN5amrex8FabArrayINS_7BaseFabIN5Model5Solid7Elastic10NeoHookeanEEEEixERKNS_6MFIterE
FNDA:45,_ZN5amrex8FabArrayINS_7BaseFabIN5Model5Solid7Elastic10NeoHookeanEEEEixERKNS_6MFIterE
FN:478,_ZN5amrex8FabArrayINS_9FArrayBoxEE3getERKNS_6MFIterE
FNDA:0,_ZN5amrex8FabArrayINS_9FArrayBoxEE3getERKNS_6MFIterE
FN:481,_ZNK5amrex8FabArrayINS_7BaseFabIN5Eigen6MatrixIdLi2ELi1ELi0ELi2ELi1EEEEEEixEi
FNDA:0,_ZNK5amrex8FabArrayINS_7BaseFabIN5Eigen6MatrixIdLi2ELi1ELi0ELi2ELi1EEEEEEixEi
FN:481,_ZNK5amrex8FabArrayINS_7BaseFabIN5Model5Solid6Affine9IsotropicEEEEixEi
FNDA:0,_ZNK5amrex8FabArrayINS_7BaseFabIN5Model5Solid6Affine9IsotropicEEEEixEi
FN:481,_ZNK5amrex8FabArrayINS_7BaseFabIN5Model5Solid6Linear9LaplacianEEEEixEi
FNDA:0,_ZNK5amrex8FabArrayINS_7BaseFabIN5Model5Solid6Linear9LaplacianEEEEixEi
FN:481,_ZNK5amrex8FabArrayINS_7BaseFabIN5Eigen6MatrixIdLi2ELi2ELi0ELi2ELi2EEEEEEixEi
FNDA:0,_ZNK5amrex8FabArrayINS_7BaseFabIN5Eigen6MatrixIdLi2ELi2ELi0ELi2ELi2EEEEEEixEi
FN:481,_ZNK5amrex8FabArrayINS_7BaseFabIN5Model5Solid7Elastic28PseudoLinearCubicPredeformedEEEEixEi
FNDA:0,_ZNK5amrex8FabArrayINS_7BaseFabIN5Model5Solid7Elastic28PseudoLinearCubicPredeformedEEEEixEi
FN:481,_ZNK5amrex8FabArrayINS_7BaseFabIN5Model5Solid6Affine9HexagonalEEEEixEi
FNDA:0,_ZNK5amrex8FabArrayINS_7BaseFabIN5Model5Solid6Affine9HexagonalEEEEixEi
FN:481,_ZNK5amrex8FabArrayINS_7BaseFabIN5Model5Solid7Elastic10NeoHookeanEEEEixEi
FNDA:36,_ZNK5amrex8FabArrayINS_7BaseFabIN5Model5Solid7Elastic10NeoHookeanEEEEixEi
FN:481,_ZNK5amrex8FabArrayINS_7BaseFabIN5Model5Solid6Affine5CubicEEEEixEi
FNDA:0,_ZNK5amrex8FabArrayINS_7BaseFabIN5Model5Solid6Affine5CubicEEEEixEi
FN:481,_ZNK5amrex8FabArrayINS_7BaseFabIN5Model5Solid6Linear19IsotropicDegradableEEEEixEi
FNDA:0,_ZNK5amrex8FabArrayINS_7BaseFabIN5Model5Solid6Linear19IsotropicDegradableEEEEixEi
FN:481,_ZNK5amrex8FabArrayINS_7BaseFabIN5Model5Solid7Elastic17PseudoLinearCubicEEEEixEi
FNDA:0,_ZNK5amrex8FabArrayINS_7BaseFabIN5Model5Solid7Elastic17PseudoLinearCubicEEEEixEi
FN:481,_ZNK5amrex8FabArrayINS_7BaseFabIN5Model5Solid6Affine2J2EEEEixEi
FNDA:27,_ZNK5amrex8FabArrayINS_7BaseFabIN5Model5Solid6Affine2J2EEEEixEi
FN:481,_ZNK5amrex8FabArrayINS_7BaseFabIN5Model5Solid6Linear9IsotropicEEEEixEi
FNDA:37,_ZNK5amrex8FabArrayINS_7BaseFabIN5Model5Solid6Linear9IsotropicEEEEixEi
FN:481,_ZNK5amrex8FabArrayINS_7BaseFabIN5Model5Solid6Linear5CubicEEEEixEi
FNDA:0,_ZNK5amrex8FabArrayINS_7BaseFabIN5Model5Solid6Linear5CubicEEEEixEi
FN:487,_ZN5amrex8FabArrayINS_9IArrayBoxEEixEi
FNDA:0,_ZN5amrex8FabArrayINS_9IArrayBoxEEixEi
FN:487,_ZN5amrex8FabArrayINS_7BaseFabIN5Model5Solid7Elastic17PseudoLinearCubicEEEEixEi
FNDA:0,_ZN5amrex8FabArrayINS_7BaseFabIN5Model5Solid7Elastic17PseudoLinearCubicEEEEixEi
FN:487,_ZN5amrex8FabArrayINS_7BaseFabIN5Eigen6MatrixIdLi2ELi1ELi0ELi2ELi1EEEEEEixEi
FNDA:0,_ZN5amrex8FabArrayINS_7BaseFabIN5Eigen6MatrixIdLi2ELi1ELi0ELi2ELi1EEEEEEixEi
FN:487,_ZN5amrex8FabArrayINS_7BaseFabIdEEEixEi
FNDA:0,_ZN5amrex8FabArrayINS_7BaseFabIdEEEixEi
FN:487,_ZN5amrex8FabArrayINS_7BaseFabIN5Model5Solid7Elastic10NeoHookeanEEEEixEi
FNDA:0,_ZN5amrex8FabArrayINS_7BaseFabIN5Model5Solid7Elastic10NeoHookeanEEEEixEi
FN:487,_ZN5amrex8FabArrayINS_7BaseFabIN5Model5Solid6Affine2J2EEEEixEi
FNDA:0,_ZN5amrex8FabArrayINS_7BaseFabIN5Model5Solid6Affine2J2EEEEixEi
FN:487,_ZN5amrex8FabArrayINS_7BaseFabIN5Model5Solid7Elastic28PseudoLinearCubicPredeformedEEEEixEi
FNDA:0,_ZN5amrex8FabArrayINS_7BaseFabIN5Model5Solid7Elastic28PseudoLinearCubicPredeformedEEEEixEi
FN:487,_ZN5amrex8FabArrayINS_7BaseFabIN5Model5Solid6Linear9IsotropicEEEEixEi
FNDA:0,_ZN5amrex8FabArrayINS_7BaseFabIN5Model5Solid6Linear9IsotropicEEEEixEi
FN:487,_ZN5amrex8FabArrayINS_7BaseFabIN5Model5Solid6Linear5CubicEEEEixEi
FNDA:0,_ZN5amrex8FabArrayINS_7BaseFabIN5Model5Solid6Linear5CubicEEEEixEi
FN:487,_ZN5amrex8FabArrayINS_7BaseFabIN5Model5Solid6Affine5CubicEEEEixEi
FNDA:0,_ZN5amrex8FabArrayINS_7BaseFabIN5Model5Solid6Affine5CubicEEEEixEi
FN:487,_ZN5amrex8FabArrayINS_7BaseFabIN5Model5Solid6Linear9LaplacianEEEEixEi
FNDA:0,_ZN5amrex8FabArrayINS_7BaseFabIN5Model5Solid6Linear9LaplacianEEEEixEi
FN:487,_ZN5amrex8FabArrayINS_7BaseFabIN5Model5Solid6Affine9HexagonalEEEEixEi
FNDA:0,_ZN5amrex8FabArrayINS_7BaseFabIN5Model5Solid6Affine9HexagonalEEEEixEi
FN:487,_ZN5amrex8FabArrayINS_7BaseFabIN3Set7Matrix4ILi2ELi4EEEEEEixEi
FNDA:0,_ZN5amrex8FabArrayINS_7BaseFabIN3Set7Matrix4ILi2ELi4EEEEEEixEi
FN:487,_ZN5amrex8FabArrayINS_7BaseFabIN5Model5Solid6Linear19IsotropicDegradableEEEEixEi
FNDA:0,_ZN5amrex8FabArrayINS_7BaseFabIN5Model5Solid6Linear19IsotropicDegradableEEEEixEi
FN:487,_ZN5amrex8FabArrayINS_7BaseFabIN3Set7Matrix4ILi2ELi3EEEEEEixEi
FNDA:0,_ZN5amrex8FabArrayINS_7BaseFabIN3Set7Matrix4ILi2ELi3EEEEEEixEi
FN:487,_ZN5amrex8FabArrayINS_7BaseFabIN3Set7Matrix4ILi2ELi6EEEEEEixEi
FNDA:0,_ZN5amrex8FabArrayINS_7BaseFabIN3Set7Matrix4ILi2ELi6EEEEEEixEi
FN:487,_ZN5amrex8FabArrayINS_7BaseFabIN5Model5Solid6Affine9IsotropicEEEEixEi
FNDA:0,_ZN5amrex8FabArrayINS_7BaseFabIN5Model5Solid6Affine9IsotropicEEEEixEi
FN:487,_ZN5amrex8FabArrayINS_9FArrayBoxEEixEi
FNDA:0,_ZN5amrex8FabArrayINS_9FArrayBoxEEixEi
FN:487,_ZN5amrex8FabArrayINS_7BaseFabIN5Eigen6MatrixIdLi2ELi2ELi0ELi2ELi2EEEEEEixEi
FNDA:0,_ZN5amrex8FabArrayINS_7BaseFabIN5Eigen6MatrixIdLi2ELi2ELi0ELi2ELi2EEEEEEixEi
FN:487,_ZN5amrex8FabArrayINS_7BaseFabIN3Set7Matrix4ILi2ELi1EEEEEEixEi
FNDA:0,_ZN5amrex8FabArrayINS_7BaseFabIN3Set7Matrix4ILi2ELi1EEEEEEixEi
FN:490,_ZN5amrex8FabArrayINS_9FArrayBoxEE3getEi
FNDA:0,_ZN5amrex8FabArrayINS_9FArrayBoxEE3getEi
FN:490,_ZN5amrex8FabArrayINS_7BaseFabIN3Set7Matrix4ILi2ELi1EEEEEE3getEi
FNDA:0,_ZN5amrex8FabArrayINS_7BaseFabIN3Set7Matrix4ILi2ELi1EEEEEE3getEi
FN:490,_ZN5amrex8FabArrayINS_7BaseFabIN5Model5Solid7Elastic17PseudoLinearCubicEEEE3getEi
FNDA:0,_ZN5amrex8FabArrayINS_7BaseFabIN5Model5Solid7Elastic17PseudoLinearCubicEEEE3getEi
FN:490,_ZN5amrex8FabArrayINS_7BaseFabIN5Model5Solid6Affine9IsotropicEEEE3getEi
FNDA:0,_ZN5amrex8FabArrayINS_7BaseFabIN5Model5Solid6Affine9IsotropicEEEE3getEi
FN:490,_ZN5amrex8FabArrayINS_7BaseFabIN5Model5Solid7Elastic10NeoHookeanEEEE3getEi
FNDA:336,_ZN5amrex8FabArrayINS_7BaseFabIN5Model5Solid7Elastic10NeoHookeanEEEE3getEi
FN:490,_ZN5amrex8FabArrayINS_7BaseFabIN5Model5Solid7Elastic28PseudoLinearCubicPredeformedEEEE3getEi
FNDA:0,_ZN5amrex8FabArrayINS_7BaseFabIN5Model5Solid7Elastic28PseudoLinearCubicPredeformedEEEE3getEi
FN:490,_ZN5amrex8FabArrayINS_7BaseFabIN5Model5Solid6Linear19IsotropicDegradableEEEE3getEi
FNDA:0,_ZN5amrex8FabArrayINS_7BaseFabIN5Model5Solid6Linear19IsotropicDegradableEEEE3getEi
FN:490,_ZN5amrex8FabArrayINS_7BaseFabIN5Model5Solid6Linear9LaplacianEEEE3getEi
FNDA:0,_ZN5amrex8FabArrayINS_7BaseFabIN5Model5Solid6Linear9LaplacianEEEE3getEi
FN:490,_ZN5amrex8FabArrayINS_7BaseFabIN5Model5Solid6Affine9HexagonalEEEE3getEi
FNDA:0,_ZN5amrex8FabArrayINS_7BaseFabIN5Model5Solid6Affine9HexagonalEEEE3getEi
FN:490,_ZN5amrex8FabArrayINS_7BaseFabIN5Model5Solid6Affine5CubicEEEE3getEi
FNDA:0,_ZN5amrex8FabArrayINS_7BaseFabIN5Model5Solid6Affine5CubicEEEE3getEi
FN:490,_ZN5amrex8FabArrayINS_7BaseFabIN3Set7Matrix4ILi2ELi4EEEEEE3getEi
FNDA:0,_ZN5amrex8FabArrayINS_7BaseFabIN3Set7Matrix4ILi2ELi4EEEEEE3getEi
FN:490,_ZN5amrex8FabArrayINS_7BaseFabIN3Set7Matrix4ILi2ELi3EEEEEE3getEi
FNDA:0,_ZN5amrex8FabArrayINS_7BaseFabIN3Set7Matrix4ILi2ELi3EEEEEE3getEi
FN:490,_ZN5amrex8FabArrayINS_7BaseFabIN5Model5Solid6Affine2J2EEEE3getEi
FNDA:27,_ZN5amrex8FabArrayINS_7BaseFabIN5Model5Solid6Affine2J2EEEE3getEi
FN:490,_ZN5amrex8FabArrayINS_7BaseFabIN5Model5Solid6Linear9IsotropicEEEE3getEi
FNDA:1309,_ZN5amrex8FabArrayINS_7BaseFabIN5Model5Solid6Linear9IsotropicEEEE3getEi
FN:490,_ZN5amrex8FabArrayINS_7BaseFabIN5Model5Solid6Linear5CubicEEEE3getEi
FNDA:0,_ZN5amrex8FabArrayINS_7BaseFabIN5Model5Solid6Linear5CubicEEEE3getEi
FN:490,_ZN5amrex8FabArrayINS_7BaseFabIN3Set7Matrix4ILi2ELi6EEEEEE3getEi
FNDA:0,_ZN5amrex8FabArrayINS_7BaseFabIN3Set7Matrix4ILi2ELi6EEEEEE3getEi
FN:490,_ZN5amrex8FabArrayINS_7BaseFabIN5Eigen6MatrixIdLi2ELi1ELi0ELi2ELi1EEEEEE3getEi
FNDA:0,_ZN5amrex8FabArrayINS_7BaseFabIN5Eigen6MatrixIdLi2ELi1ELi0ELi2ELi1EEEEEE3getEi
FN:490,_ZN5amrex8FabArrayINS_7BaseFabIdEEE3getEi
FNDA:0,_ZN5amrex8FabArrayINS_7BaseFabIdEEE3getEi
FN:490,_ZN5amrex8FabArrayINS_7BaseFabIN5Eigen6MatrixIdLi2ELi2ELi0ELi2ELi2EEEEEE3getEi
FNDA:0,_ZN5amrex8FabArrayINS_7BaseFabIN5Eigen6MatrixIdLi2ELi2ELi0ELi2ELi2EEEEEE3getEi
FN:774,_ZN5amrex8FabArrayINS_7BaseFabIN5Model5Solid6Linear9LaplacianEEEE12ParallelCopyERKS7_iiiRKNS_11PeriodicityENS_12FabArrayBase4CpOpE
FNDA:0,_ZN5amrex8FabArrayINS_7BaseFabIN5Model5Solid6Linear9LaplacianEEEE12ParallelCopyERKS7_iiiRKNS_11PeriodicityENS_12FabArrayBase4CpOpE
FN:774,_ZN5amrex8FabArrayINS_7BaseFabIN5Eigen6MatrixIdLi2ELi1ELi0ELi2ELi1EEEEEE12ParallelCopyERKS6_iiiRKNS_11PeriodicityENS_12FabArrayBase4CpOpE
FNDA:0,_ZN5amrex8FabArrayINS_7BaseFabIN5Eigen6MatrixIdLi2ELi1ELi0ELi2ELi1EEEEEE12ParallelCopyERKS6_iiiRKNS_11PeriodicityENS_12FabArrayBase4CpOpE
FN:774,_ZN5amrex8FabArrayINS_7BaseFabIN5Model5Solid6Affine2J2EEEE12ParallelCopyERKS7_iiiRKNS_11PeriodicityENS_12FabArrayBase4CpOpE
FNDA:3,_ZN5amrex8FabArrayINS_7BaseFabIN5Model5Solid6Affine2J2EEEE12ParallelCopyERKS7_iiiRKNS_11PeriodicityENS_12FabArrayBase4CpOpE
FN:774,_ZN5amrex8FabArrayINS_7BaseFabIN5Model5Solid6Linear19IsotropicDegradableEEEE12ParallelCopyERKS7_iiiRKNS_11PeriodicityENS_12FabArrayBase4CpOpE
FNDA:0,_ZN5amrex8FabArrayINS_7BaseFabIN5Model5Solid6Linear19IsotropicDegradableEEEE12ParallelCopyERKS7_iiiRKNS_11PeriodicityENS_12FabArrayBase4CpOpE
FN:774,_ZN5amrex8FabArrayINS_7BaseFabIN5Model5Solid6Affine9HexagonalEEEE12ParallelCopyERKS7_iiiRKNS_11PeriodicityENS_12FabArrayBase4CpOpE
FNDA:0,_ZN5amrex8FabArrayINS_7BaseFabIN5Model5Solid6Affine9HexagonalEEEE12ParallelCopyERKS7_iiiRKNS_11PeriodicityENS_12FabArrayBase4CpOpE
FN:774,_ZN5amrex8FabArrayINS_7BaseFabIN5Model5Solid6Affine5CubicEEEE12ParallelCopyERKS7_iiiRKNS_11PeriodicityENS_12FabArrayBase4CpOpE
FNDA:0,_ZN5amrex8FabArrayINS_7BaseFabIN5Model5Solid6Affine5CubicEEEE12ParallelCopyERKS7_iiiRKNS_11PeriodicityENS_12FabArrayBase4CpOpE
FN:774,_ZN5amrex8FabArrayINS_7BaseFabIN5Model5Solid7Elastic28PseudoLinearCubicPredeformedEEEE12ParallelCopyERKS7_iiiRKNS_11PeriodicityENS_12FabArrayBase4CpOpE
FNDA:0,_ZN5amrex8FabArrayINS_7BaseFabIN5Model5Solid7Elastic28PseudoLinearCubicPredeformedEEEE12ParallelCopyERKS7_iiiRKNS_11PeriodicityENS_12FabArrayBase4CpOpE
FN:774,_ZN5amrex8FabArrayINS_7BaseFabIN5Eigen6MatrixIdLi2ELi2ELi0ELi2ELi2EEEEEE12ParallelCopyERKS6_iiiRKNS_11PeriodicityENS_12FabArrayBase4CpOpE
FNDA:0,_ZN5amrex8FabArrayINS_7BaseFabIN5Eigen6MatrixIdLi2ELi2ELi0ELi2ELi2EEEEEE12ParallelCopyERKS6_iiiRKNS_11PeriodicityENS_12FabArrayBase4CpOpE
FN:774,_ZN5amrex8FabArrayINS_7BaseFabIN5Model5Solid6Affine9IsotropicEEEE12ParallelCopyERKS7_iiiRKNS_11PeriodicityENS_12FabArrayBase4CpOpE
FNDA:0,_ZN5amrex8FabArrayINS_7BaseFabIN5Model5Solid6Affine9IsotropicEEEE12ParallelCopyERKS7_iiiRKNS_11PeriodicityENS_12FabArrayBase4CpOpE
FN:774,_ZN5amrex8FabArrayINS_7BaseFabIN5Model5Solid7Elastic17PseudoLinearCubicEEEE12ParallelCopyERKS7_iiiRKNS_11PeriodicityENS_12FabArrayBase4CpOpE
FNDA:0,_ZN5amrex8FabArrayINS_7BaseFabIN5Model5Solid7Elastic17PseudoLinearCubicEEEE12ParallelCopyERKS7_iiiRKNS_11PeriodicityENS_12FabArrayBase4CpOpE
FN:774,_ZN5amrex8FabArrayINS_7BaseFabIN5Model5Solid6Linear5CubicEEEE12ParallelCopyERKS7_iiiRKNS_11PeriodicityENS_12FabArrayBase4CpOpE
FNDA:0,_ZN5amrex8FabArrayINS_7BaseFabIN5Model5Solid6Linear5CubicEEEE12ParallelCopyERKS7_iiiRKNS_11PeriodicityENS_12FabArrayBase4CpOpE
FN:774,_ZN5amrex8FabArrayINS_7BaseFabIN5Model5Solid6Linear9IsotropicEEEE12ParallelCopyERKS7_iiiRKNS_11PeriodicityENS_12FabArrayBase4CpOpE
FNDA:2,_ZN5amrex8FabArrayINS_7BaseFabIN5Model5Solid6Linear9IsotropicEEEE12ParallelCopyERKS7_iiiRKNS_11PeriodicityENS_12FabArrayBase4CpOpE
FN:774,_ZN5amrex8FabArrayINS_7BaseFabIN5Model5Solid7Elastic10NeoHookeanEEEE12ParallelCopyERKS7_iiiRKNS_11PeriodicityENS_12FabArrayBase4CpOpE
FNDA:0,_ZN5amrex8FabArrayINS_7BaseFabIN5Model5Solid7Elastic10NeoHookeanEEEE12ParallelCopyERKS7_iiiRKNS_11PeriodicityENS_12FabArrayBase4CpOpE
FN:823,_ZN5amrex8FabArrayINS_7BaseFabIN5Model5Solid7Elastic28PseudoLinearCubicPredeformedEEEE12ParallelCopyERKS7_iiiiiRKNS_11PeriodicityENS_12FabArrayBase4CpOpE
FNDA:0,_ZN5amrex8FabArrayINS_7BaseFabIN5Model5Solid7Elastic28PseudoLinearCubicPredeformedEEEE12ParallelCopyERKS7_iiiiiRKNS_11PeriodicityENS_12FabArrayBase4CpOpE
FN:823,_ZN5amrex8FabArrayINS_7BaseFabIN5Model5Solid6Affine2J2EEEE12ParallelCopyERKS7_iiiiiRKNS_11PeriodicityENS_12FabArrayBase4CpOpE
FNDA:3,_ZN5amrex8FabArrayINS_7BaseFabIN5Model5Solid6Affine2J2EEEE12ParallelCopyERKS7_iiiiiRKNS_11PeriodicityENS_12FabArrayBase4CpOpE
FN:823,_ZN5amrex8FabArrayINS_7BaseFabIN5Model5Solid7Elastic10NeoHookeanEEEE12ParallelCopyERKS7_iiiiiRKNS_11PeriodicityENS_12FabArrayBase4CpOpE
FNDA:0,_ZN5amrex8FabArrayINS_7BaseFabIN5Model5Solid7Elastic10NeoHookeanEEEE12ParallelCopyERKS7_iiiiiRKNS_11PeriodicityENS_12FabArrayBase4CpOpE
FN:823,_ZN5amrex8FabArrayINS_7BaseFabIN5Model5Solid6Linear5CubicEEEE12ParallelCopyERKS7_iiiiiRKNS_11PeriodicityENS_12FabArrayBase4CpOpE
FNDA:0,_ZN5amrex8FabArrayINS_7BaseFabIN5Model5Solid6Linear5CubicEEEE12ParallelCopyERKS7_iiiiiRKNS_11PeriodicityENS_12FabArrayBase4CpOpE
FN:823,_ZN5amrex8FabArrayINS_7BaseFabIN5Model5Solid6Linear19IsotropicDegradableEEEE12ParallelCopyERKS7_iiiiiRKNS_11PeriodicityENS_12FabArrayBase4CpOpE
FNDA:0,_ZN5amrex8FabArrayINS_7BaseFabIN5Model5Solid6Linear19IsotropicDegradableEEEE12ParallelCopyERKS7_iiiiiRKNS_11PeriodicityENS_12FabArrayBase4CpOpE
FN:823,_ZN5amrex8FabArrayINS_7BaseFabIN5Eigen6MatrixIdLi2ELi1ELi0ELi2ELi1EEEEEE12ParallelCopyERKS6_iiiiiRKNS_11PeriodicityENS_12FabArrayBase4CpOpE
FNDA:0,_ZN5amrex8FabArrayINS_7BaseFabIN5Eigen6MatrixIdLi2ELi1ELi0ELi2ELi1EEEEEE12ParallelCopyERKS6_iiiiiRKNS_11PeriodicityENS_12FabArrayBase4CpOpE
FN:823,_ZN5amrex8FabArrayINS_7BaseFabIN5Eigen6MatrixIdLi2ELi2ELi0ELi2ELi2EEEEEE12ParallelCopyERKS6_iiiiiRKNS_11PeriodicityENS_12FabArrayBase4CpOpE
FNDA:0,_ZN5amrex8FabArrayINS_7BaseFabIN5Eigen6MatrixIdLi2ELi2ELi0ELi2ELi2EEEEEE12ParallelCopyERKS6_iiiiiRKNS_11PeriodicityENS_12FabArrayBase4CpOpE
FN:823,_ZN5amrex8FabArrayINS_7BaseFabIN5Model5Solid6Affine9IsotropicEEEE12ParallelCopyERKS7_iiiiiRKNS_11PeriodicityENS_12FabArrayBase4CpOpE
FNDA:0,_ZN5amrex8FabArrayINS_7BaseFabIN5Model5Solid6Affine9IsotropicEEEE12ParallelCopyERKS7_iiiiiRKNS_11PeriodicityENS_12FabArrayBase4CpOpE
FN:823,_ZN5amrex8FabArrayINS_7BaseFabIN5Model5Solid6Linear9IsotropicEEEE12ParallelCopyERKS7_iiiiiRKNS_11PeriodicityENS_12FabArrayBase4CpOpE
FNDA:2,_ZN5amrex8FabArrayINS_7BaseFabIN5Model5Solid6Linear9IsotropicEEEE12ParallelCopyERKS7_iiiiiRKNS_11PeriodicityENS_12FabArrayBase4CpOpE
FN:823,_ZN5amrex8FabArrayINS_7BaseFabIN5Model5Solid7Elastic17PseudoLinearCubicEEEE12ParallelCopyERKS7_iiiiiRKNS_11PeriodicityENS_12FabArrayBase4CpOpE
FNDA:0,_ZN5amrex8FabArrayINS_7BaseFabIN5Model5Solid7Elastic17PseudoLinearCubicEEEE12ParallelCopyERKS7_iiiiiRKNS_11PeriodicityENS_12FabArrayBase4CpOpE
FN:823,_ZN5amrex8FabArrayINS_7BaseFabIN5Model5Solid6Affine5CubicEEEE12ParallelCopyERKS7_iiiiiRKNS_11PeriodicityENS_12FabArrayBase4CpOpE
FNDA:0,_ZN5amrex8FabArrayINS_7BaseFabIN5Model5Solid6Affine5CubicEEEE12ParallelCopyERKS7_iiiiiRKNS_11PeriodicityENS_12FabArrayBase4CpOpE
FN:823,_ZN5amrex8FabArrayINS_7BaseFabIN5Model5Solid6Linear9LaplacianEEEE12ParallelCopyERKS7_iiiiiRKNS_11PeriodicityENS_12FabArrayBase4CpOpE
FNDA:0,_ZN5amrex8FabArrayINS_7BaseFabIN5Model5Solid6Linear9LaplacianEEEE12ParallelCopyERKS7_iiiiiRKNS_11PeriodicityENS_12FabArrayBase4CpOpE
FN:823,_ZN5amrex8FabArrayINS_7BaseFabIN5Model5Solid6Affine9HexagonalEEEE12ParallelCopyERKS7_iiiiiRKNS_11PeriodicityENS_12FabArrayBase4CpOpE
FNDA:0,_ZN5amrex8FabArrayINS_7BaseFabIN5Model5Solid6Affine9HexagonalEEEE12ParallelCopyERKS7_iiiiiRKNS_11PeriodicityENS_12FabArrayBase4CpOpE
FN:1254,_ZN5amrex8FabArrayINS_7BaseFabIN5Model5Solid6Affine9IsotropicEEEE5ShMemC2Ev
FNDA:0,_ZN5amrex8FabArrayINS_7BaseFabIN5Model5Solid6Affine9IsotropicEEEE5ShMemC2Ev
FN:1254,_ZN5amrex8FabArrayINS_7BaseFabIN5Model5Solid7Elastic10NeoHookeanEEEE5ShMemC2Ev
FNDA:10,_ZN5amrex8FabArrayINS_7BaseFabIN5Model5Solid7Elastic10NeoHookeanEEEE5ShMemC2Ev
FN:1254,_ZN5amrex8FabArrayINS_7BaseFabIN5Eigen6MatrixIdLi2ELi2ELi0ELi2ELi2EEEEEE5ShMemC2Ev
FNDA:0,_ZN5amrex8FabArrayINS_7BaseFabIN5Eigen6MatrixIdLi2ELi2ELi0ELi2ELi2EEEEEE5ShMemC2Ev
FN:1254,_ZN5amrex8FabArrayINS_7BaseFabIN3Set7Matrix4ILi2ELi6EEEEEE5ShMemC2Ev
FNDA:0,_ZN5amrex8FabArrayINS_7BaseFabIN3Set7Matrix4ILi2ELi6EEEEEE5ShMemC2Ev
FN:1254,_ZN5amrex8FabArrayINS_7BaseFabIN5Model5Solid6Linear19IsotropicDegradableEEEE5ShMemC2Ev
FNDA:0,_ZN5amrex8FabArrayINS_7BaseFabIN5Model5Solid6Linear19IsotropicDegradableEEEE5ShMemC2Ev
FN:1254,_ZN5amrex8FabArrayINS_7BaseFabIN5Eigen6MatrixIdLi2ELi1ELi0ELi2ELi1EEEEEE5ShMemC2Ev
FNDA:0,_ZN5amrex8FabArrayINS_7BaseFabIN5Eigen6MatrixIdLi2ELi1ELi0ELi2ELi1EEEEEE5ShMemC2Ev
FN:1254,_ZN5amrex8FabArrayINS_7BaseFabIN3Set7Matrix4ILi2ELi1EEEEEE5ShMemC2Ev
FNDA:0,_ZN5amrex8FabArrayINS_7BaseFabIN3Set7Matrix4ILi2ELi1EEEEEE5ShMemC2Ev
FN:1254,_ZN5amrex8FabArrayINS_7BaseFabIN5Model5Solid7Elastic17PseudoLinearCubicEEEE5ShMemC2Ev
FNDA:0,_ZN5amrex8FabArrayINS_7BaseFabIN5Model5Solid7Elastic17PseudoLinearCubicEEEE5ShMemC2Ev
FN:1254,_ZN5amrex8FabArrayINS_7BaseFabIN5Model5Solid6Linear9LaplacianEEEE5ShMemC2Ev
FNDA:1,_ZN5amrex8FabArrayINS_7BaseFabIN5Model5Solid6Linear9LaplacianEEEE5ShMemC2Ev
FN:1254,_ZN5amrex8FabArrayINS_7BaseFabIN5Model5Solid7Elastic28PseudoLinearCubicPredeformedEEEE5ShMemC2Ev
FNDA:0,_ZN5amrex8FabArrayINS_7BaseFabIN5Model5Solid7Elastic28PseudoLinearCubicPredeformedEEEE5ShMemC2Ev
FN:1254,_ZN5amrex8FabArrayINS_7BaseFabIN3Set7Matrix4ILi2ELi4EEEEEE5ShMemC2Ev
FNDA:0,_ZN5amrex8FabArrayINS_7BaseFabIN3Set7Matrix4ILi2ELi4EEEEEE5ShMemC2Ev
FN:1254,_ZN5amrex8FabArrayINS_7BaseFabIN5Model5Solid6Linear9IsotropicEEEE5ShMemC2Ev
FNDA:17,_ZN5amrex8FabArrayINS_7BaseFabIN5Model5Solid6Linear9IsotropicEEEE5ShMemC2Ev
FN:1254,_ZN5amrex8FabArrayINS_7BaseFabIN5Model5Solid6Linear5CubicEEEE5ShMemC2Ev
FNDA:0,_ZN5amrex8FabArrayINS_7BaseFabIN5Model5Solid6Linear5CubicEEEE5ShMemC2Ev
FN:1254,_ZN5amrex8FabArrayINS_7BaseFabIN5Model5Solid6Affine9HexagonalEEEE5ShMemC2Ev
FNDA:0,_ZN5amrex8FabArrayINS_7BaseFabIN5Model5Solid6Affine9HexagonalEEEE5ShMemC2Ev
FN:1254,_ZN5amrex8FabArrayINS_7BaseFabIN3Set7Matrix4ILi2ELi3EEEEEE5ShMemC2Ev
FNDA:0,_ZN5amrex8FabArrayINS_7BaseFabIN3Set7Matrix4ILi2ELi3EEEEEE5ShMemC2Ev
FN:1254,_ZN5amrex8FabArrayINS_7BaseFabIN5Model5Solid6Affine5CubicEEEE5ShMemC2Ev
FNDA:0,_ZN5amrex8FabArrayINS_7BaseFabIN5Model5Solid6Affine5CubicEEEE5ShMemC2Ev
FN:1254,_ZN5amrex8FabArrayINS_7BaseFabIN5Model5Solid6Affine2J2EEEE5ShMemC2Ev
FNDA:7,_ZN5amrex8FabArrayINS_7BaseFabIN5Model5Solid6Affine2J2EEEE5ShMemC2Ev
FN:1256,_ZN5amrex8FabArrayINS_7BaseFabIN5Model5Solid6Linear9IsotropicEEEE5ShMemD2Ev
FNDA:17,_ZN5amrex8FabArrayINS_7BaseFabIN5Model5Solid6Linear9IsotropicEEEE5ShMemD2Ev
FN:1256,_ZN5amrex8FabArrayINS_9IArrayBoxEE5ShMemD2Ev
FNDA:0,_ZN5amrex8FabArrayINS_9IArrayBoxEE5ShMemD2Ev
FN:1256,_ZN5amrex8FabArrayINS_7BaseFabIN3Set7Matrix4ILi2ELi6EEEEEE5ShMemD2Ev
FNDA:0,_ZN5amrex8FabArrayINS_7BaseFabIN3Set7Matrix4ILi2ELi6EEEEEE5ShMemD2Ev
FN:1256,_ZN5amrex8FabArrayINS_7BaseFabIN5Model5Solid7Elastic10NeoHookeanEEEE5ShMemD2Ev
FNDA:11,_ZN5amrex8FabArrayINS_7BaseFabIN5Model5Solid7Elastic10NeoHookeanEEEE5ShMemD2Ev
FN:1256,_ZN5amrex8FabArrayINS_7BaseFabIN5Model5Solid7Elastic17PseudoLinearCubicEEEE5ShMemD2Ev
FNDA:0,_ZN5amrex8FabArrayINS_7BaseFabIN5Model5Solid7Elastic17PseudoLinearCubicEEEE5ShMemD2Ev
FN:1256,_ZN5amrex8FabArrayINS_7BaseFabIN5Model5Solid6Linear9LaplacianEEEE5ShMemD2Ev
FNDA:1,_ZN5amrex8FabArrayINS_7BaseFabIN5Model5Solid6Linear9LaplacianEEEE5ShMemD2Ev
FN:1256,_ZN5amrex8FabArrayINS_7BaseFabIN5Model5Solid7Elastic28PseudoLinearCubicPredeformedEEEE5ShMemD2Ev
FNDA:0,_ZN5amrex8FabArrayINS_7BaseFabIN5Model5Solid7Elastic28PseudoLinearCubicPredeformedEEEE5ShMemD2Ev
FN:1256,_ZN5amrex8FabArrayINS_7BaseFabIN5Model5Solid6Affine2J2EEEE5ShMemD2Ev
FNDA:7,_ZN5amrex8FabArrayINS_7BaseFabIN5Model5Solid6Affine2J2EEEE5ShMemD2Ev
FN:1256,_ZN5amrex8FabArrayINS_7BaseFabIN5Model5Solid6Linear5CubicEEEE5ShMemD2Ev
FNDA:0,_ZN5amrex8FabArrayINS_7BaseFabIN5Model5Solid6Linear5CubicEEEE5ShMemD2Ev
FN:1256,_ZN5amrex8FabArrayINS_7BaseFabIN5Eigen6MatrixIdLi2ELi2ELi0ELi2ELi2EEEEEE5ShMemD2Ev
FNDA:0,_ZN5amrex8FabArrayINS_7BaseFabIN5Eigen6MatrixIdLi2ELi2ELi0ELi2ELi2EEEEEE5ShMemD2Ev
FN:1256,_ZN5amrex8FabArrayINS_7BaseFabIN5Model5Solid6Linear19IsotropicDegradableEEEE5ShMemD2Ev
FNDA:0,_ZN5amrex8FabArrayINS_7BaseFabIN5Model5Solid6Linear19IsotropicDegradableEEEE5ShMemD2Ev
FN:1256,_ZN5amrex8FabArrayINS_7BaseFabIN3Set7Matrix4ILi2ELi3EEEEEE5ShMemD2Ev
FNDA:0,_ZN5amrex8FabArrayINS_7BaseFabIN3Set7Matrix4ILi2ELi3EEEEEE5ShMemD2Ev
FN:1256,_ZN5amrex8FabArrayINS_7BaseFabIN5Model5Solid6Affine9IsotropicEEEE5ShMemD2Ev
FNDA:0,_ZN5amrex8FabArrayINS_7BaseFabIN5Model5Solid6Affine9IsotropicEEEE5ShMemD2Ev
FN:1256,_ZN5amrex8FabArrayINS_7BaseFabIN3Set7Matrix4ILi2ELi4EEEEEE5ShMemD2Ev
FNDA:0,_ZN5amrex8FabArrayINS_7BaseFabIN3Set7Matrix4ILi2ELi4EEEEEE5ShMemD2Ev
FN:1256,_ZN5amrex8FabArrayINS_7BaseFabIN5Model5Solid6Affine5CubicEEEE5ShMemD2Ev
FNDA:0,_ZN5amrex8FabArrayINS_7BaseFabIN5Model5Solid6Affine5CubicEEEE5ShMemD2Ev
FN:1256,_ZN5amrex8FabArrayINS_7BaseFabIN5Model5Solid6Affine9HexagonalEEEE5ShMemD2Ev
FNDA:0,_ZN5amrex8FabArrayINS_7BaseFabIN5Model5Solid6Affine9HexagonalEEEE5ShMemD2Ev
FN:1256,_ZN5amrex8FabArrayINS_7BaseFabIN5Eigen6MatrixIdLi2ELi1ELi0ELi2ELi1EEEEEE5ShMemD2Ev
FNDA:0,_ZN5amrex8FabArrayINS_7BaseFabIN5Eigen6MatrixIdLi2ELi1ELi0ELi2ELi1EEEEEE5ShMemD2Ev
FN:1256,_ZN5amrex8FabArrayINS_7BaseFabIN3Set7Matrix4ILi2ELi1EEEEEE5ShMemD2Ev
FNDA:0,_ZN5amrex8FabArrayINS_7BaseFabIN3Set7Matrix4ILi2ELi1EEEEEE5ShMemD2Ev
FN:1266,_ZN5amrex8FabArrayINS_7BaseFabIN5Model5Solid6Affine2J2EEEE5ShMemC2EOS8_
FNDA:0,_ZN5amrex8FabArrayINS_7BaseFabIN5Model5Solid6Affine2J2EEEE5ShMemC2EOS8_
FN:1266,_ZN5amrex8FabArrayINS_7BaseFabIN5Eigen6MatrixIdLi2ELi2ELi0ELi2ELi2EEEEEE5ShMemC2EOS7_
FNDA:0,_ZN5amrex8FabArrayINS_7BaseFabIN5Eigen6MatrixIdLi2ELi2ELi0ELi2ELi2EEEEEE5ShMemC2EOS7_
FN:1266,_ZN5amrex8FabArrayINS_7BaseFabIN5Model5Solid6Affine5CubicEEEE5ShMemC2EOS8_
FNDA:0,_ZN5amrex8FabArrayINS_7BaseFabIN5Model5Solid6Affine5CubicEEEE5ShMemC2EOS8_
FN:1266,_ZN5amrex8FabArrayINS_7BaseFabIN5Model5Solid7Elastic10NeoHookeanEEEE5ShMemC2EOS8_
FNDA:1,_ZN5amrex8FabArrayINS_7BaseFabIN5Model5Solid7Elastic10NeoHookeanEEEE5ShMemC2EOS8_
FN:1266,_ZN5amrex8FabArrayINS_7BaseFabIN5Model5Solid6Linear9IsotropicEEEE5ShMemC2EOS8_
FNDA:0,_ZN5amrex8FabArrayINS_7BaseFabIN5Model5Solid6Linear9IsotropicEEEE5ShMemC2EOS8_
FN:1266,_ZN5amrex8FabArrayINS_7BaseFabIN5Model5Solid7Elastic17PseudoLinearCubicEEEE5ShMemC2EOS8_
FNDA:0,_ZN5amrex8FabArrayINS_7BaseFabIN5Model5Solid7Elastic17PseudoLinearCubicEEEE5ShMemC2EOS8_
FN:1266,_ZN5amrex8FabArrayINS_7BaseFabIN5Model5Solid6Affine9IsotropicEEEE5ShMemC2EOS8_
FNDA:0,_ZN5amrex8FabArrayINS_7BaseFabIN5Model5Solid6Affine9IsotropicEEEE5ShMemC2EOS8_
FN:1266,_ZN5amrex8FabArrayINS_7BaseFabIN5Model5Solid6Affine9HexagonalEEEE5ShMemC2EOS8_
FNDA:0,_ZN5amrex8FabArrayINS_7BaseFabIN5Model5Solid6Affine9HexagonalEEEE5ShMemC2EOS8_
FN:1266,_ZN5amrex8FabArrayINS_7BaseFabIN5Model5Solid7Elastic28PseudoLinearCubicPredeformedEEEE5ShMemC2EOS8_
FNDA:0,_ZN5amrex8FabArrayINS_7BaseFabIN5Model5Solid7Elastic28PseudoLinearCubicPredeformedEEEE5ShMemC2EOS8_
FN:1266,_ZN5amrex8FabArrayINS_7BaseFabIN5Model5Solid6Linear19IsotropicDegradableEEEE5ShMemC2EOS8_
FNDA:0,_ZN5amrex8FabArrayINS_7BaseFabIN5Model5Solid6Linear19IsotropicDegradableEEEE5ShMemC2EOS8_
FN:1266,_ZN5amrex8FabArrayINS_7BaseFabIN5Model5Solid6Linear9LaplacianEEEE5ShMemC2EOS8_
FNDA:0,_ZN5amrex8FabArrayINS_7BaseFabIN5Model5Solid6Linear9LaplacianEEEE5ShMemC2EOS8_
FN:1266,_ZN5amrex8FabArrayINS_7BaseFabIN5Eigen6MatrixIdLi2ELi1ELi0ELi2ELi1EEEEEE5ShMemC2EOS7_
FNDA:0,_ZN5amrex8FabArrayINS_7BaseFabIN5Eigen6MatrixIdLi2ELi1ELi0ELi2ELi1EEEEEE5ShMemC2EOS7_
FN:1266,_ZN5amrex8FabArrayINS_7BaseFabIN5Model5Solid6Linear5CubicEEEE5ShMemC2EOS8_
FNDA:0,_ZN5amrex8FabArrayINS_7BaseFabIN5Model5Solid6Linear5CubicEEEE5ShMemC2EOS8_
FN:1277,_ZN5amrex8FabArrayINS_7BaseFabIN5Eigen6MatrixIdLi2ELi2ELi0ELi2ELi2EEEEEE5ShMemaSEOS7_
FNDA:0,_ZN5amrex8FabArrayINS_7BaseFabIN5Eigen6MatrixIdLi2ELi2ELi0ELi2ELi2EEEEEE5ShMemaSEOS7_
FN:1277,_ZN5amrex8FabArrayINS_7BaseFabIN5Model5Solid7Elastic28PseudoLinearCubicPredeformedEEEE5ShMemaSEOS8_
FNDA:0,_ZN5amrex8FabArrayINS_7BaseFabIN5Model5Solid7Elastic28PseudoLinearCubicPredeformedEEEE5ShMemaSEOS8_
FN:1277,_ZN5amrex8FabArrayINS_7BaseFabIN5Model5Solid6Linear9LaplacianEEEE5ShMemaSEOS8_
FNDA:0,_ZN5amrex8FabArrayINS_7BaseFabIN5Model5Solid6Linear9LaplacianEEEE5ShMemaSEOS8_
FN:1277,_ZN5amrex8FabArrayINS_7BaseFabIN5Model5Solid6Affine2J2EEEE5ShMemaSEOS8_
FNDA:0,_ZN5amrex8FabArrayINS_7BaseFabIN5Model5Solid6Affine2J2EEEE5ShMemaSEOS8_
FN:1277,_ZN5amrex8FabArrayINS_7BaseFabIN5Model5Solid6Linear19IsotropicDegradableEEEE5ShMemaSEOS8_
FNDA:0,_ZN5amrex8FabArrayINS_7BaseFabIN5Model5Solid6Linear19IsotropicDegradableEEEE5ShMemaSEOS8_
FN:1277,_ZN5amrex8FabArrayINS_7BaseFabIN5Model5Solid6Affine9IsotropicEEEE5ShMemaSEOS8_
FNDA:0,_ZN5amrex8FabArrayINS_7BaseFabIN5Model5Solid6Affine9IsotropicEEEE5ShMemaSEOS8_
FN:1277,_ZN5amrex8FabArrayINS_7BaseFabIN5Model5Solid6Linear9IsotropicEEEE5ShMemaSEOS8_
FNDA:0,_ZN5amrex8FabArrayINS_7BaseFabIN5Model5Solid6Linear9IsotropicEEEE5ShMemaSEOS8_
FN:1277,_ZN5amrex8FabArrayINS_7BaseFabIN5Model5Solid6Affine9HexagonalEEEE5ShMemaSEOS8_
FNDA:0,_ZN5amrex8FabArrayINS_7BaseFabIN5Model5Solid6Affine9HexagonalEEEE5ShMemaSEOS8_
FN:1277,_ZN5amrex8FabArrayINS_7BaseFabIN5Model5Solid6Linear5CubicEEEE5ShMemaSEOS8_
FNDA:0,_ZN5amrex8FabArrayINS_7BaseFabIN5Model5Solid6Linear5CubicEEEE5ShMemaSEOS8_
FN:1277,_ZN5amrex8FabArrayINS_7BaseFabIN5Model5Solid7Elastic10NeoHookeanEEEE5ShMemaSEOS8_
FNDA:2,_ZN5amrex8FabArrayINS_7BaseFabIN5Model5Solid7Elastic10NeoHookeanEEEE5ShMemaSEOS8_
FN:1277,_ZN5amrex8FabArrayINS_9FArrayBoxEE5ShMemaSEOS3_
FNDA:0,_ZN5amrex8FabArrayINS_9FArrayBoxEE5ShMemaSEOS3_
FN:1277,_ZN5amrex8FabArrayINS_7BaseFabIN5Model5Solid7Elastic17PseudoLinearCubicEEEE5ShMemaSEOS8_
FNDA:0,_ZN5amrex8FabArrayINS_7BaseFabIN5Model5Solid7Elastic17PseudoLinearCubicEEEE5ShMemaSEOS8_
FN:1277,_ZN5amrex8FabArrayINS_7BaseFabIN5Eigen6MatrixIdLi2ELi1ELi0ELi2ELi1EEEEEE5ShMemaSEOS7_
FNDA:0,_ZN5amrex8FabArrayINS_7BaseFabIN5Eigen6MatrixIdLi2ELi1ELi0ELi2ELi1EEEEEE5ShMemaSEOS7_
FN:1277,_ZN5amrex8FabArrayINS_7BaseFabIN5Model5Solid6Affine5CubicEEEE5ShMemaSEOS8_
FNDA:0,_ZN5amrex8FabArrayINS_7BaseFabIN5Model5Solid6Affine5CubicEEEE5ShMemaSEOS8_
FN:1456,_ZN5amrex8FabArrayINS_7BaseFabIN5Model5Solid7Elastic28PseudoLinearCubicPredeformedEEEE6fabPtrERKNS_6MFIterE
FNDA:0,_ZN5amrex8FabArrayINS_7BaseFabIN5Model5Solid7Elastic28PseudoLinearCubicPredeformedEEEE6fabPtrERKNS_6MFIterE
FN:1456,_ZN5amrex8FabArrayINS_7BaseFabIN5Model5Solid6Linear9LaplacianEEEE6fabPtrERKNS_6MFIterE
FNDA:5,_ZN5amrex8FabArrayINS_7BaseFabIN5Model5Solid6Linear9LaplacianEEEE6fabPtrERKNS_6MFIterE
FN:1456,_ZN5amrex8FabArrayINS_7BaseFabIdEEE6fabPtrERKNS_6MFIterE
FNDA:0,_ZN5amrex8FabArrayINS_7BaseFabIdEEE6fabPtrERKNS_6MFIterE
FN:1456,_ZN5amrex8FabArrayINS_7BaseFabIN3Set7Matrix4ILi2ELi6EEEEEE6fabPtrERKNS_6MFIterE
FNDA:0,_ZN5amrex8FabArrayINS_7BaseFabIN3Set7Matrix4ILi2ELi6EEEEEE6fabPtrERKNS_6MFIterE
FN:1456,_ZN5amrex8FabArrayINS_7BaseFabIN5Model5Solid6Linear19IsotropicDegradableEEEE6fabPtrERKNS_6MFIterE
FNDA:0,_ZN5amrex8FabArrayINS_7BaseFabIN5Model5Solid6Linear19IsotropicDegradableEEEE6fabPtrERKNS_6MFIterE
FN:1456,_ZN5amrex8FabArrayINS_7BaseFabIN5Model5Solid6Affine5CubicEEEE6fabPtrERKNS_6MFIterE
FNDA:0,_ZN5amrex8FabArrayINS_7BaseFabIN5Model5Solid6Affine5CubicEEEE6fabPtrERKNS_6MFIterE
FN:1456,_ZN5amrex8FabArrayINS_6TagBoxEE6fabPtrERKNS_6MFIterE
FNDA:0,_ZN5amrex8FabArrayINS_6TagBoxEE6fabPtrERKNS_6MFIterE
FN:1456,_ZN5amrex8FabArrayINS_9FArrayBoxEE6fabPtrERKNS_6MFIterE
FNDA:0,_ZN5amrex8FabArrayINS_9FArrayBoxEE6fabPtrERKNS_6MFIterE
FN:1456,_ZN5amrex8FabArrayINS_7BaseFabIN3Set7Matrix4ILi2ELi1EEEEEE6fabPtrERKNS_6MFIterE
FNDA:0,_ZN5amrex8FabArrayINS_7BaseFabIN3Set7Matrix4ILi2ELi1EEEEEE6fabPtrERKNS_6MFIterE
FN:1456,_ZN5amrex8FabArrayINS_7BaseFabIN5Model5Solid6Affine9HexagonalEEEE6fabPtrERKNS_6MFIterE
FNDA:0,_ZN5amrex8FabArrayINS_7BaseFabIN5Model5Solid6Affine9HexagonalEEEE6fabPtrERKNS_6MFIterE
FN:1456,_ZN5amrex8FabArrayINS_7BaseFabIN5Model5Solid6Affine2J2EEEE6fabPtrERKNS_6MFIterE
FNDA:106,_ZN5amrex8FabArrayINS_7BaseFabIN5Model5Solid6Affine2J2EEEE6fabPtrERKNS_6MFIterE
FN:1456,_ZN5amrex8FabArrayINS_7BaseFabIN5Eigen6MatrixIdLi2ELi1ELi0ELi2ELi1EEEEEE6fabPtrERKNS_6MFIterE
FNDA:0,_ZN5amrex8FabArrayINS_7BaseFabIN5Eigen6MatrixIdLi2ELi1ELi0ELi2ELi1EEEEEE6fabPtrERKNS_6MFIterE
FN:1456,_ZN5amrex8FabArrayINS_7BaseFabIN5Model5Solid7Elastic17PseudoLinearCubicEEEE6fabPtrERKNS_6MFIterE
FNDA:0,_ZN5amrex8FabArrayINS_7BaseFabIN5Model5Solid7Elastic17PseudoLinearCubicEEEE6fabPtrERKNS_6MFIterE
FN:1456,_ZN5amrex8FabArrayINS_9IArrayBoxEE6fabPtrERKNS_6MFIterE
FNDA:0,_ZN5amrex8FabArrayINS_9IArrayBoxEE6fabPtrERKNS_6MFIterE
FN:1456,_ZN5amrex8FabArrayINS_7BaseFabIN5Model5Solid6Linear9IsotropicEEEE6fabPtrERKNS_6MFIterE
FNDA:1169,_ZN5amrex8FabArrayINS_7BaseFabIN5Model5Solid6Linear9IsotropicEEEE6fabPtrERKNS_6MFIterE
FN:1456,_ZN5amrex8FabArrayINS_7BaseFabIN5Model5Solid7Elastic10NeoHookeanEEEE6fabPtrERKNS_6MFIterE
FNDA:2394,_ZN5amrex8FabArrayINS_7BaseFabIN5Model5Solid7Elastic10NeoHookeanEEEE6fabPtrERKNS_6MFIterE
FN:1456,_ZN5amrex8FabArrayINS_7BaseFabIN5Model5Solid6Linear5CubicEEEE6fabPtrERKNS_6MFIterE
FNDA:0,_ZN5amrex8FabArrayINS_7BaseFabIN5Model5Solid6Linear5CubicEEEE6fabPtrERKNS_6MFIterE
FN:1456,_ZN5amrex8FabArrayINS_7BaseFabIN3Set7Matrix4ILi2ELi4EEEEEE6fabPtrERKNS_6MFIterE
FNDA:0,_ZN5amrex8FabArrayINS_7BaseFabIN3Set7Matrix4ILi2ELi4EEEEEE6fabPtrERKNS_6MFIterE
FN:1456,_ZN5amrex8FabArrayINS_7BaseFabIN5Eigen6MatrixIdLi2ELi2ELi0ELi2ELi2EEEEEE6fabPtrERKNS_6MFIterE
FNDA:0,_ZN5amrex8FabArrayINS_7BaseFabIN5Eigen6MatrixIdLi2ELi2ELi0ELi2ELi2EEEEEE6fabPtrERKNS_6MFIterE
FN:1456,_ZN5amrex8FabArrayINS_7BaseFabIN3Set7Matrix4ILi2ELi3EEEEEE6fabPtrERKNS_6MFIterE
FNDA:0,_ZN5amrex8FabArrayINS_7BaseFabIN3Set7Matrix4ILi2ELi3EEEEEE6fabPtrERKNS_6MFIterE
FN:1456,_ZN5amrex8FabArrayINS_7BaseFabIN5Model5Solid6Affine9IsotropicEEEE6fabPtrERKNS_6MFIterE
FNDA:0,_ZN5amrex8FabArrayINS_7BaseFabIN5Model5Solid6Affine9IsotropicEEEE6fabPtrERKNS_6MFIterE
FN:1466,_ZNK5amrex8FabArrayINS_7BaseFabIN5Model5Solid7Elastic10NeoHookeanEEEE6fabPtrERKNS_6MFIterE
FNDA:15,_ZNK5amrex8FabArrayINS_7BaseFabIN5Model5Solid7Elastic10NeoHookeanEEEE6fabPtrERKNS_6MFIterE
FN:1466,_ZNK5amrex8FabArrayINS_7BaseFabIN5Model5Solid6Affine2J2EEEE6fabPtrERKNS_6MFIterE
FNDA:16,_ZNK5amrex8FabArrayINS_7BaseFabIN5Model5Solid6Affine2J2EEEE6fabPtrERKNS_6MFIterE
FN:1466,_ZNK5amrex8FabArrayINS_7BaseFabIN5Model5Solid7Elastic17PseudoLinearCubicEEEE6fabPtrERKNS_6MFIterE
FNDA:0,_ZNK5amrex8FabArrayINS_7BaseFabIN5Model5Solid7Elastic17PseudoLinearCubicEEEE6fabPtrERKNS_6MFIterE
FN:1466,_ZNK5amrex8FabArrayINS_7BaseFabIN5Model5Solid7Elastic28PseudoLinearCubicPredeformedEEEE6fabPtrERKNS_6MFIterE
FNDA:0,_ZNK5amrex8FabArrayINS_7BaseFabIN5Model5Solid7Elastic28PseudoLinearCubicPredeformedEEEE6fabPtrERKNS_6MFIterE
FN:1466,_ZNK5amrex8FabArrayINS_7BaseFabIN5Model5Solid6Linear19IsotropicDegradableEEEE6fabPtrERKNS_6MFIterE
FNDA:0,_ZNK5amrex8FabArrayINS_7BaseFabIN5Model5Solid6Linear19IsotropicDegradableEEEE6fabPtrERKNS_6MFIterE
FN:1466,_ZNK5amrex8FabArrayINS_9FArrayBoxEE6fabPtrERKNS_6MFIterE
FNDA:0,_ZNK5amrex8FabArrayINS_9FArrayBoxEE6fabPtrERKNS_6MFIterE
FN:1466,_ZNK5amrex8FabArrayINS_9IArrayBoxEE6fabPtrERKNS_6MFIterE
FNDA:0,_ZNK5amrex8FabArrayINS_9IArrayBoxEE6fabPtrERKNS_6MFIterE
FN:1466,_ZNK5amrex8FabArrayINS_7BaseFabIN5Eigen6MatrixIdLi2ELi1ELi0ELi2ELi1EEEEEE6fabPtrERKNS_6MFIterE
FNDA:0,_ZNK5amrex8FabArrayINS_7BaseFabIN5Eigen6MatrixIdLi2ELi1ELi0ELi2ELi1EEEEEE6fabPtrERKNS_6MFIterE
FN:1466,_ZNK5amrex8FabArrayINS_7BaseFabIN5Model5Solid6Linear9LaplacianEEEE6fabPtrERKNS_6MFIterE
FNDA:0,_ZNK5amrex8FabArrayINS_7BaseFabIN5Model5Solid6Linear9LaplacianEEEE6fabPtrERKNS_6MFIterE
FN:1466,_ZNK5amrex8FabArrayINS_7BaseFabIN5Eigen6MatrixIdLi2ELi2ELi0ELi2ELi2EEEEEE6fabPtrERKNS_6MFIterE
FNDA:0,_ZNK5amrex8FabArrayINS_7BaseFabIN5Eigen6MatrixIdLi2ELi2ELi0ELi2ELi2EEEEEE6fabPtrERKNS_6MFIterE
FN:1466,_ZNK5amrex8FabArrayINS_7BaseFabIN5Model5Solid6Affine9IsotropicEEEE6fabPtrERKNS_6MFIterE
FNDA:0,_ZNK5amrex8FabArrayINS_7BaseFabIN5Model5Solid6Affine9IsotropicEEEE6fabPtrERKNS_6MFIterE
FN:1466,_ZNK5amrex8FabArrayINS_7BaseFabIN5Model5Solid6Linear9IsotropicEEEE6fabPtrERKNS_6MFIterE
FNDA:26,_ZNK5amrex8FabArrayINS_7BaseFabIN5Model5Solid6Linear9IsotropicEEEE6fabPtrERKNS_6MFIterE
FN:1466,_ZNK5amrex8FabArrayINS_7BaseFabIN5Model5Solid6Affine9HexagonalEEEE6fabPtrERKNS_6MFIterE
FNDA:0,_ZNK5amrex8FabArrayINS_7BaseFabIN5Model5Solid6Affine9HexagonalEEEE6fabPtrERKNS_6MFIterE
FN:1466,_ZNK5amrex8FabArrayINS_7BaseFabIN5Model5Solid6Linear5CubicEEEE6fabPtrERKNS_6MFIterE
FNDA:0,_ZNK5amrex8FabArrayINS_7BaseFabIN5Model5Solid6Linear5CubicEEEE6fabPtrERKNS_6MFIterE
FN:1466,_ZNK5amrex8FabArrayINS_7BaseFabIN5Model5Solid6Affine5CubicEEEE6fabPtrERKNS_6MFIterE
FNDA:0,_ZNK5amrex8FabArrayINS_7BaseFabIN5Model5Solid6Affine5CubicEEEE6fabPtrERKNS_6MFIterE
FN:1476,_ZN5amrex8FabArrayINS_7BaseFabIN3Set7Matrix4ILi2ELi6EEEEEE6fabPtrEi
FNDA:0,_ZN5amrex8FabArrayINS_7BaseFabIN3Set7Matrix4ILi2ELi6EEEEEE6fabPtrEi
FN:1476,_ZN5amrex8FabArrayINS_7BaseFabIN5Model5Solid7Elastic17PseudoLinearCubicEEEE6fabPtrEi
FNDA:0,_ZN5amrex8FabArrayINS_7BaseFabIN5Model5Solid7Elastic17PseudoLinearCubicEEEE6fabPtrEi
FN:1476,_ZN5amrex8FabArrayINS_7BaseFabIN5Model5Solid6Affine5CubicEEEE6fabPtrEi
FNDA:0,_ZN5amrex8FabArrayINS_7BaseFabIN5Model5Solid6Affine5CubicEEEE6fabPtrEi
FN:1476,_ZN5amrex8FabArrayINS_7BaseFabIN5Model5Solid6Affine9HexagonalEEEE6fabPtrEi
FNDA:0,_ZN5amrex8FabArrayINS_7BaseFabIN5Model5Solid6Affine9HexagonalEEEE6fabPtrEi
FN:1476,_ZN5amrex8FabArrayINS_9FArrayBoxEE6fabPtrEi
FNDA:0,_ZN5amrex8FabArrayINS_9FArrayBoxEE6fabPtrEi
FN:1476,_ZN5amrex8FabArrayINS_7BaseFabIN5Model5Solid6Linear9LaplacianEEEE6fabPtrEi
FNDA:0,_ZN5amrex8FabArrayINS_7BaseFabIN5Model5Solid6Linear9LaplacianEEEE6fabPtrEi
FN:1476,_ZN5amrex8FabArrayINS_7BaseFabIN3Set7Matrix4ILi2ELi4EEEEEE6fabPtrEi
FNDA:0,_ZN5amrex8FabArrayINS_7BaseFabIN3Set7Matrix4ILi2ELi4EEEEEE6fabPtrEi
FN:1476,_ZN5amrex8FabArrayINS_7BaseFabIN5Model5Solid6Linear19IsotropicDegradableEEEE6fabPtrEi
FNDA:0,_ZN5amrex8FabArrayINS_7BaseFabIN5Model5Solid6Linear19IsotropicDegradableEEEE6fabPtrEi
FN:1476,_ZN5amrex8FabArrayINS_7BaseFabIN5Model5Solid7Elastic10NeoHookeanEEEE6fabPtrEi
FNDA:336,_ZN5amrex8FabArrayINS_7BaseFabIN5Model5Solid7Elastic10NeoHookeanEEEE6fabPtrEi
FN:1476,_ZN5amrex8FabArrayINS_7BaseFabIN3Set7Matrix4ILi2ELi1EEEEEE6fabPtrEi
FNDA:0,_ZN5amrex8FabArrayINS_7BaseFabIN3Set7Matrix4ILi2ELi1EEEEEE6fabPtrEi
FN:1476,_ZN5amrex8FabArrayINS_7BaseFabIN5Model5Solid6Affine9IsotropicEEEE6fabPtrEi
FNDA:0,_ZN5amrex8FabArrayINS_7BaseFabIN5Model5Solid6Affine9IsotropicEEEE6fabPtrEi
FN:1476,_ZN5amrex8FabArrayINS_7BaseFabIN5Model5Solid6Linear5CubicEEEE6fabPtrEi
FNDA:0,_ZN5amrex8FabArrayINS_7BaseFabIN5Model5Solid6Linear5CubicEEEE6fabPtrEi
FN:1476,_ZN5amrex8FabArrayINS_7BaseFabIN5Model5Solid7Elastic28PseudoLinearCubicPredeformedEEEE6fabPtrEi
FNDA:0,_ZN5amrex8FabArrayINS_7BaseFabIN5Model5Solid7Elastic28PseudoLinearCubicPredeformedEEEE6fabPtrEi
FN:1476,_ZN5amrex8FabArrayINS_7BaseFabIN5Eigen6MatrixIdLi2ELi1ELi0ELi2ELi1EEEEEE6fabPtrEi
FNDA:0,_ZN5amrex8FabArrayINS_7BaseFabIN5Eigen6MatrixIdLi2ELi1ELi0ELi2ELi1EEEEEE6fabPtrEi
FN:1476,_ZN5amrex8FabArrayINS_7BaseFabIN5Eigen6MatrixIdLi2ELi2ELi0ELi2ELi2EEEEEE6fabPtrEi
FNDA:0,_ZN5amrex8FabArrayINS_7BaseFabIN5Eigen6MatrixIdLi2ELi2ELi0ELi2ELi2EEEEEE6fabPtrEi
FN:1476,_ZN5amrex8FabArrayINS_7BaseFabIN5Model5Solid6Affine2J2EEEE6fabPtrEi
FNDA:27,_ZN5amrex8FabArrayINS_7BaseFabIN5Model5Solid6Affine2J2EEEE6fabPtrEi
FN:1476,_ZN5amrex8FabArrayINS_9IArrayBoxEE6fabPtrEi
FNDA:0,_ZN5amrex8FabArrayINS_9IArrayBoxEE6fabPtrEi
FN:1476,_ZN5amrex8FabArrayINS_7BaseFabIN3Set7Matrix4ILi2ELi3EEEEEE6fabPtrEi
FNDA:0,_ZN5amrex8FabArrayINS_7BaseFabIN3Set7Matrix4ILi2ELi3EEEEEE6fabPtrEi
FN:1476,_ZN5amrex8FabArrayINS_7BaseFabIdEEE6fabPtrEi
FNDA:0,_ZN5amrex8FabArrayINS_7BaseFabIdEEE6fabPtrEi
FN:1476,_ZN5amrex8FabArrayINS_7BaseFabIN5Model5Solid6Linear9IsotropicEEEE6fabPtrEi
FNDA:1309,_ZN5amrex8FabArrayINS_7BaseFabIN5Model5Solid6Linear9IsotropicEEEE6fabPtrEi
FN:1485,_ZNK5amrex8FabArrayINS_7BaseFabIN3Set7Matrix4ILi2ELi4EEEEEE6fabPtrEi
FNDA:0,_ZNK5amrex8FabArrayINS_7BaseFabIN3Set7Matrix4ILi2ELi4EEEEEE6fabPtrEi
FN:1485,_ZNK5amrex8FabArrayINS_9FArrayBoxEE6fabPtrEi
FNDA:0,_ZNK5amrex8FabArrayINS_9FArrayBoxEE6fabPtrEi
FN:1485,_ZNK5amrex8FabArrayINS_7BaseFabIN3Set7Matrix4ILi2ELi6EEEEEE6fabPtrEi
FNDA:0,_ZNK5amrex8FabArrayINS_7BaseFabIN3Set7Matrix4ILi2ELi6EEEEEE6fabPtrEi
FN:1485,_ZNK5amrex8FabArrayINS_7BaseFabIN5Model5Solid6Linear19IsotropicDegradableEEEE6fabPtrEi
FNDA:0,_ZNK5amrex8FabArrayINS_7BaseFabIN5Model5Solid6Linear19IsotropicDegradableEEEE6fabPtrEi
FN:1485,_ZNK5amrex8FabArrayINS_7BaseFabIN5Model5Solid6Affine9IsotropicEEEE6fabPtrEi
FNDA:0,_ZNK5amrex8FabArrayINS_7BaseFabIN5Model5Solid6Affine9IsotropicEEEE6fabPtrEi
FN:1485,_ZNK5amrex8FabArrayINS_7BaseFabIN5Eigen6MatrixIdLi2ELi2ELi0ELi2ELi2EEEEEE6fabPtrEi
FNDA:0,_ZNK5amrex8FabArrayINS_7BaseFabIN5Eigen6MatrixIdLi2ELi2ELi0ELi2ELi2EEEEEE6fabPtrEi
FN:1485,_ZNK5amrex8FabArrayINS_7BaseFabIN3Set7Matrix4ILi2ELi3EEEEEE6fabPtrEi
FNDA:0,_ZNK5amrex8FabArrayINS_7BaseFabIN3Set7Matrix4ILi2ELi3EEEEEE6fabPtrEi
FN:1485,_ZNK5amrex8FabArrayINS_7BaseFabIN5Eigen6MatrixIdLi2ELi1ELi0ELi2ELi1EEEEEE6fabPtrEi
FNDA:0,_ZNK5amrex8FabArrayINS_7BaseFabIN5Eigen6MatrixIdLi2ELi1ELi0ELi2ELi1EEEEEE6fabPtrEi
FN:1485,_ZNK5amrex8FabArrayINS_7BaseFabIN5Model5Solid6Linear9IsotropicEEEE6fabPtrEi
FNDA:37,_ZNK5amrex8FabArrayINS_7BaseFabIN5Model5Solid6Linear9IsotropicEEEE6fabPtrEi
FN:1485,_ZNK5amrex8FabArrayINS_7BaseFabIN5Model5Solid7Elastic28PseudoLinearCubicPredeformedEEEE6fabPtrEi
FNDA:0,_ZNK5amrex8FabArrayINS_7BaseFabIN5Model5Solid7Elastic28PseudoLinearCubicPredeformedEEEE6fabPtrEi
FN:1485,_ZNK5amrex8FabArrayINS_7BaseFabIN5Model5Solid7Elastic17PseudoLinearCubicEEEE6fabPtrEi
FNDA:0,_ZNK5amrex8FabArrayINS_7BaseFabIN5Model5Solid7Elastic17PseudoLinearCubicEEEE6fabPtrEi
FN:1485,_ZNK5amrex8FabArrayINS_7BaseFabIN5Model5Solid6Linear9LaplacianEEEE6fabPtrEi
FNDA:0,_ZNK5amrex8FabArrayINS_7BaseFabIN5Model5Solid6Linear9LaplacianEEEE6fabPtrEi
FN:1485,_ZNK5amrex8FabArrayINS_7BaseFabIN5Model5Solid6Affine9HexagonalEEEE6fabPtrEi
FNDA:0,_ZNK5amrex8FabArrayINS_7BaseFabIN5Model5Solid6Affine9HexagonalEEEE6fabPtrEi
FN:1485,_ZNK5amrex8FabArrayINS_7BaseFabIN5Model5Solid6Affine2J2EEEE6fabPtrEi
FNDA:27,_ZNK5amrex8FabArrayINS_7BaseFabIN5Model5Solid6Affine2J2EEEE6fabPtrEi
FN:1485,_ZNK5amrex8FabArrayINS_7BaseFabIN5Model5Solid6Affine5CubicEEEE6fabPtrEi
FNDA:0,_ZNK5amrex8FabArrayINS_7BaseFabIN5Model5Solid6Affine5CubicEEEE6fabPtrEi
FN:1485,_ZNK5amrex8FabArrayINS_7BaseFabIdEEE6fabPtrEi
FNDA:0,_ZNK5amrex8FabArrayINS_7BaseFabIdEEE6fabPtrEi
FN:1485,_ZNK5amrex8FabArrayINS_7BaseFabIN5Model5Solid7Elastic10NeoHookeanEEEE6fabPtrEi
FNDA:36,_ZNK5amrex8FabArrayINS_7BaseFabIN5Model5Solid7Elastic10NeoHookeanEEEE6fabPtrEi
FN:1485,_ZNK5amrex8FabArrayINS_7BaseFabIN5Model5Solid6Linear5CubicEEEE6fabPtrEi
FNDA:0,_ZNK5amrex8FabArrayINS_7BaseFabIN5Model5Solid6Linear5CubicEEEE6fabPtrEi
FN:1485,_ZNK5amrex8FabArrayINS_7BaseFabIN3Set7Matrix4ILi2ELi1EEEEEE6fabPtrEi
FNDA:0,_ZNK5amrex8FabArrayINS_7BaseFabIN3Set7Matrix4ILi2ELi1EEEEEE6fabPtrEi
FN:1519,_ZNK5amrex8FabArrayINS_7BaseFabIN5Model5Solid6Affine2J2EEEE5arrayIS6_Li0EEENS_6Array4IKS5_EERKNS_6MFIterE
FNDA:0,_ZNK5amrex8FabArrayINS_7BaseFabIN5Model5Solid6Affine2J2EEEE5arrayIS6_Li0EEENS_6Array4IKS5_EERKNS_6MFIterE
FN:1519,_ZNK5amrex8FabArrayINS_7BaseFabIN5Eigen6MatrixIdLi2ELi1ELi0ELi2ELi1EEEEEE5arrayIS5_Li0EEENS_6Array4IKS4_EERKNS_6MFIterE
FNDA:0,_ZNK5amrex8FabArrayINS_7BaseFabIN5Eigen6MatrixIdLi2ELi1ELi0ELi2ELi1EEEEEE5arrayIS5_Li0EEENS_6Array4IKS4_EERKNS_6MFIterE
FN:1519,_ZNK5amrex8FabArrayINS_7BaseFabIN5Model5Solid6Linear9LaplacianEEEE5arrayIS6_Li0EEENS_6Array4IKS5_EERKNS_6MFIterE
FNDA:0,_ZNK5amrex8FabArrayINS_7BaseFabIN5Model5Solid6Linear9LaplacianEEEE5arrayIS6_Li0EEENS_6Array4IKS5_EERKNS_6MFIterE
FN:1519,_ZNK5amrex8FabArrayINS_7BaseFabIN5Model5Solid7Elastic28PseudoLinearCubicPredeformedEEEE5arrayIS6_Li0EEENS_6Array4IKS5_EERKNS_6MFIterE
FNDA:0,_ZNK5amrex8FabArrayINS_7BaseFabIN5Model5Solid7Elastic28PseudoLinearCubicPredeformedEEEE5arrayIS6_Li0EEENS_6Array4IKS5_EERKNS_6MFIterE
FN:1519,_ZNK5amrex8FabArrayINS_7BaseFabIN5Eigen6MatrixIdLi2ELi2ELi0ELi2ELi2EEEEEE5arrayIS5_Li0EEENS_6Array4IKS4_EERKNS_6MFIterE
FNDA:0,_ZNK5amrex8FabArrayINS_7BaseFabIN5Eigen6MatrixIdLi2ELi2ELi0ELi2ELi2EEEEEE5arrayIS5_Li0EEENS_6Array4IKS4_EERKNS_6MFIterE
FN:1519,_ZNK5amrex8FabArrayINS_7BaseFabIN5Model5Solid6Affine9IsotropicEEEE5arrayIS6_Li0EEENS_6Array4IKS5_EERKNS_6MFIterE
FNDA:0,_ZNK5amrex8FabArrayINS_7BaseFabIN5Model5Solid6Affine9IsotropicEEEE5arrayIS6_Li0EEENS_6Array4IKS5_EERKNS_6MFIterE
FN:1519,_ZNK5amrex8FabArrayINS_7BaseFabIN5Model5Solid6Linear9IsotropicEEEE5arrayIS6_Li0EEENS_6Array4IKS5_EERKNS_6MFIterE
FNDA:0,_ZNK5amrex8FabArrayINS_7BaseFabIN5Model5Solid6Linear9IsotropicEEEE5arrayIS6_Li0EEENS_6Array4IKS5_EERKNS_6MFIterE
FN:1519,_ZNK5amrex8FabArrayINS_7BaseFabIN5Model5Solid7Elastic17PseudoLinearCubicEEEE5arrayIS6_Li0EEENS_6Array4IKS5_EERKNS_6MFIterE
FNDA:0,_ZNK5amrex8FabArrayINS_7BaseFabIN5Model5Solid7Elastic17PseudoLinearCubicEEEE5arrayIS6_Li0EEENS_6Array4IKS5_EERKNS_6MFIterE
FN:1519,_ZNK5amrex8FabArrayINS_7BaseFabIN5Model5Solid6Affine9HexagonalEEEE5arrayIS6_Li0EEENS_6Array4IKS5_EERKNS_6MFIterE
FNDA:0,_ZNK5amrex8FabArrayINS_7BaseFabIN5Model5Solid6Affine9HexagonalEEEE5arrayIS6_Li0EEENS_6Array4IKS5_EERKNS_6MFIterE
FN:1519,_ZNK5amrex8FabArrayINS_7BaseFabIN5Model5Solid6Linear19IsotropicDegradableEEEE5arrayIS6_Li0EEENS_6Array4IKS5_EERKNS_6MFIterE
FNDA:0,_ZNK5amrex8FabArrayINS_7BaseFabIN5Model5Solid6Linear19IsotropicDegradableEEEE5arrayIS6_Li0EEENS_6Array4IKS5_EERKNS_6MFIterE
FN:1519,_ZNK5amrex8FabArrayINS_7BaseFabIN5Model5Solid6Affine5CubicEEEE5arrayIS6_Li0EEENS_6Array4IKS5_EERKNS_6MFIterE
FNDA:0,_ZNK5amrex8FabArrayINS_7BaseFabIN5Model5Solid6Affine5CubicEEEE5arrayIS6_Li0EEENS_6Array4IKS5_EERKNS_6MFIterE
FN:1519,_ZNK5amrex8FabArrayINS_7BaseFabIN5Model5Solid7Elastic10NeoHookeanEEEE5arrayIS6_Li0EEENS_6Array4IKS5_EERKNS_6MFIterE
FNDA:0,_ZNK5amrex8FabArrayINS_7BaseFabIN5Model5Solid7Elastic10NeoHookeanEEEE5arrayIS6_Li0EEENS_6Array4IKS5_EERKNS_6MFIterE
FN:1519,_ZNK5amrex8FabArrayINS_7BaseFabIN5Model5Solid6Linear5CubicEEEE5arrayIS6_Li0EEENS_6Array4IKS5_EERKNS_6MFIterE
FNDA:0,_ZNK5amrex8FabArrayINS_7BaseFabIN5Model5Solid6Linear5CubicEEEE5arrayIS6_Li0EEENS_6Array4IKS5_EERKNS_6MFIterE
FN:1527,_ZN5amrex8FabArrayINS_7BaseFabIN5Model5Solid7Elastic17PseudoLinearCubicEEEE5arrayIS6_Li0EEENS_6Array4IS5_EERKNS_6MFIterE
FNDA:0,_ZN5amrex8FabArrayINS_7BaseFabIN5Model5Solid7Elastic17PseudoLinearCubicEEEE5arrayIS6_Li0EEENS_6Array4IS5_EERKNS_6MFIterE
FN:1527,_ZN5amrex8FabArrayINS_7BaseFabIN5Model5Solid6Linear5CubicEEEE5arrayIS6_Li0EEENS_6Array4IS5_EERKNS_6MFIterE
FNDA:0,_ZN5amrex8FabArrayINS_7BaseFabIN5Model5Solid6Linear5CubicEEEE5arrayIS6_Li0EEENS_6Array4IS5_EERKNS_6MFIterE
FN:1527,_ZN5amrex8FabArrayINS_7BaseFabIdEEE5arrayIS2_Li0EEENS_6Array4IdEERKNS_6MFIterE
FNDA:0,_ZN5amrex8FabArrayINS_7BaseFabIdEEE5arrayIS2_Li0EEENS_6Array4IdEERKNS_6MFIterE
FN:1527,_ZN5amrex8FabArrayINS_7BaseFabIN5Model5Solid6Linear9LaplacianEEEE5arrayIS6_Li0EEENS_6Array4IS5_EERKNS_6MFIterE
FNDA:5,_ZN5amrex8FabArrayINS_7BaseFabIN5Model5Solid6Linear9LaplacianEEEE5arrayIS6_Li0EEENS_6Array4IS5_EERKNS_6MFIterE
FN:1527,_ZN5amrex8FabArrayINS_7BaseFabIN5Model5Solid7Elastic10NeoHookeanEEEE5arrayIS6_Li0EEENS_6Array4IS5_EERKNS_6MFIterE
FNDA:2349,_ZN5amrex8FabArrayINS_7BaseFabIN5Model5Solid7Elastic10NeoHookeanEEEE5arrayIS6_Li0EEENS_6Array4IS5_EERKNS_6MFIterE
FN:1527,_ZN5amrex8FabArrayINS_7BaseFabIN5Model5Solid6Linear9IsotropicEEEE5arrayIS6_Li0EEENS_6Array4IS5_EERKNS_6MFIterE
FNDA:1091,_ZN5amrex8FabArrayINS_7BaseFabIN5Model5Solid6Linear9IsotropicEEEE5arrayIS6_Li0EEENS_6Array4IS5_EERKNS_6MFIterE
FN:1527,_ZN5amrex8FabArrayINS_9IArrayBoxEE5arrayIS1_Li0EEENS_6Array4IiEERKNS_6MFIterE
FNDA:0,_ZN5amrex8FabArrayINS_9IArrayBoxEE5arrayIS1_Li0EEENS_6Array4IiEERKNS_6MFIterE
FN:1527,_ZN5amrex8FabArrayINS_7BaseFabIN5Eigen6MatrixIdLi2ELi1ELi0ELi2ELi1EEEEEE5arrayIS5_Li0EEENS_6Array4IS4_EERKNS_6MFIterE
FNDA:0,_ZN5amrex8FabArrayINS_7BaseFabIN5Eigen6MatrixIdLi2ELi1ELi0ELi2ELi1EEEEEE5arrayIS5_Li0EEENS_6Array4IS4_EERKNS_6MFIterE
FN:1527,_ZN5amrex8FabArrayINS_7BaseFabIN3Set7Matrix4ILi2ELi1EEEEEE5arrayIS5_Li0EEENS_6Array4IS4_EERKNS_6MFIterE
FNDA:0,_ZN5amrex8FabArrayINS_7BaseFabIN3Set7Matrix4ILi2ELi1EEEEEE5arrayIS5_Li0EEENS_6Array4IS4_EERKNS_6MFIterE
FN:1527,_ZN5amrex8FabArrayINS_7BaseFabIN5Model5Solid6Affine9HexagonalEEEE5arrayIS6_Li0EEENS_6Array4IS5_EERKNS_6MFIterE
FNDA:0,_ZN5amrex8FabArrayINS_7BaseFabIN5Model5Solid6Affine9HexagonalEEEE5arrayIS6_Li0EEENS_6Array4IS5_EERKNS_6MFIterE
FN:1527,_ZN5amrex8FabArrayINS_7BaseFabIN5Model5Solid6Affine2J2EEEE5arrayIS6_Li0EEENS_6Array4IS5_EERKNS_6MFIterE
FNDA:58,_ZN5amrex8FabArrayINS_7BaseFabIN5Model5Solid6Affine2J2EEEE5arrayIS6_Li0EEENS_6Array4IS5_EERKNS_6MFIterE
FN:1527,_ZN5amrex8FabArrayINS_7BaseFabIN3Set7Matrix4ILi2ELi6EEEEEE5arrayIS5_Li0EEENS_6Array4IS4_EERKNS_6MFIterE
FNDA:0,_ZN5amrex8FabArrayINS_7BaseFabIN3Set7Matrix4ILi2ELi6EEEEEE5arrayIS5_Li0EEENS_6Array4IS4_EERKNS_6MFIterE
FN:1527,_ZN5amrex8FabArrayINS_7BaseFabIN3Set7Matrix4ILi2ELi4EEEEEE5arrayIS5_Li0EEENS_6Array4IS4_EERKNS_6MFIterE
FNDA:0,_ZN5amrex8FabArrayINS_7BaseFabIN3Set7Matrix4ILi2ELi4EEEEEE5arrayIS5_Li0EEENS_6Array4IS4_EERKNS_6MFIterE
FN:1527,_ZN5amrex8FabArrayINS_7BaseFabIN5Model5Solid7Elastic28PseudoLinearCubicPredeformedEEEE5arrayIS6_Li0EEENS_6Array4IS5_EERKNS_6MFIterE
FNDA:0,_ZN5amrex8FabArrayINS_7BaseFabIN5Model5Solid7Elastic28PseudoLinearCubicPredeformedEEEE5arrayIS6_Li0EEENS_6Array4IS5_EERKNS_6MFIterE
FN:1527,_ZN5amrex8FabArrayINS_7BaseFabIN5Model5Solid6Affine9IsotropicEEEE5arrayIS6_Li0EEENS_6Array4IS5_EERKNS_6MFIterE
FNDA:0,_ZN5amrex8FabArrayINS_7BaseFabIN5Model5Solid6Affine9IsotropicEEEE5arrayIS6_Li0EEENS_6Array4IS5_EERKNS_6MFIterE
FN:1527,_ZN5amrex8FabArrayINS_6TagBoxEE5arrayIS1_Li0EEENS_6Array4IcEERKNS_6MFIterE
FNDA:0,_ZN5amrex8FabArrayINS_6TagBoxEE5arrayIS1_Li0EEENS_6Array4IcEERKNS_6MFIterE
FN:1527,_ZN5amrex8FabArrayINS_7BaseFabIN5Model5Solid6Affine5CubicEEEE5arrayIS6_Li0EEENS_6Array4IS5_EERKNS_6MFIterE
FNDA:0,_ZN5amrex8FabArrayINS_7BaseFabIN5Model5Solid6Affine5CubicEEEE5arrayIS6_Li0EEENS_6Array4IS5_EERKNS_6MFIterE
FN:1527,_ZN5amrex8FabArrayINS_7BaseFabIN3Set7Matrix4ILi2ELi3EEEEEE5arrayIS5_Li0EEENS_6Array4IS4_EERKNS_6MFIterE
FNDA:0,_ZN5amrex8FabArrayINS_7BaseFabIN3Set7Matrix4ILi2ELi3EEEEEE5arrayIS5_Li0EEENS_6Array4IS4_EERKNS_6MFIterE
FN:1527,_ZN5amrex8FabArrayINS_7BaseFabIN5Eigen6MatrixIdLi2ELi2ELi0ELi2ELi2EEEEEE5arrayIS5_Li0EEENS_6Array4IS4_EERKNS_6MFIterE
FNDA:0,_ZN5amrex8FabArrayINS_7BaseFabIN5Eigen6MatrixIdLi2ELi2ELi0ELi2ELi2EEEEEE5arrayIS5_Li0EEENS_6Array4IS4_EERKNS_6MFIterE
FN:1527,_ZN5amrex8FabArrayINS_7BaseFabIN5Model5Solid6Linear19IsotropicDegradableEEEE5arrayIS6_Li0EEENS_6Array4IS5_EERKNS_6MFIterE
FNDA:0,_ZN5amrex8FabArrayINS_7BaseFabIN5Model5Solid6Linear19IsotropicDegradableEEEE5arrayIS6_Li0EEENS_6Array4IS5_EERKNS_6MFIterE
FN:1527,_ZN5amrex8FabArrayINS_9FArrayBoxEE5arrayIS1_Li0EEENS_6Array4IdEERKNS_6MFIterE
FNDA:0,_ZN5amrex8FabArrayINS_9FArrayBoxEE5arrayIS1_Li0EEENS_6Array4IdEERKNS_6MFIterE
FN:1535,_ZNK5amrex8FabArrayINS_7BaseFabIN5Model5Solid6Linear19IsotropicDegradableEEEE5arrayIS6_Li0EEENS_6Array4IKS5_EEi
FNDA:0,_ZNK5amrex8FabArrayINS_7BaseFabIN5Model5Solid6Linear19IsotropicDegradableEEEE5arrayIS6_Li0EEENS_6Array4IKS5_EEi
FN:1535,_ZNK5amrex8FabArrayINS_7BaseFabIN5Model5Solid6Affine5CubicEEEE5arrayIS6_Li0EEENS_6Array4IKS5_EEi
FNDA:0,_ZNK5amrex8FabArrayINS_7BaseFabIN5Model5Solid6Affine5CubicEEEE5arrayIS6_Li0EEENS_6Array4IKS5_EEi
FN:1535,_ZNK5amrex8FabArrayINS_7BaseFabIN5Model5Solid7Elastic10NeoHookeanEEEE5arrayIS6_Li0EEENS_6Array4IKS5_EEi
FNDA:0,_ZNK5amrex8FabArrayINS_7BaseFabIN5Model5Solid7Elastic10NeoHookeanEEEE5arrayIS6_Li0EEENS_6Array4IKS5_EEi
FN:1535,_ZNK5amrex8FabArrayINS_9FArrayBoxEE5arrayIS1_Li0EEENS_6Array4IKdEEi
FNDA:0,_ZNK5amrex8FabArrayINS_9FArrayBoxEE5arrayIS1_Li0EEENS_6Array4IKdEEi
FN:1535,_ZNK5amrex8FabArrayINS_7BaseFabIN5Model5Solid6Linear5CubicEEEE5arrayIS6_Li0EEENS_6Array4IKS5_EEi
FNDA:0,_ZNK5amrex8FabArrayINS_7BaseFabIN5Model5Solid6Linear5CubicEEEE5arrayIS6_Li0EEENS_6Array4IKS5_EEi
FN:1535,_ZNK5amrex8FabArrayINS_7BaseFabIN5Model5Solid6Linear9LaplacianEEEE5arrayIS6_Li0EEENS_6Array4IKS5_EEi
FNDA:0,_ZNK5amrex8FabArrayINS_7BaseFabIN5Model5Solid6Linear9LaplacianEEEE5arrayIS6_Li0EEENS_6Array4IKS5_EEi
FN:1535,_ZNK5amrex8FabArrayINS_7BaseFabIN5Model5Solid6Linear9IsotropicEEEE5arrayIS6_Li0EEENS_6Array4IKS5_EEi
FNDA:0,_ZNK5amrex8FabArrayINS_7BaseFabIN5Model5Solid6Linear9IsotropicEEEE5arrayIS6_Li0EEENS_6Array4IKS5_EEi
FN:1535,_ZNK5amrex8FabArrayINS_7BaseFabIN5Model5Solid6Affine2J2EEEE5arrayIS6_Li0EEENS_6Array4IKS5_EEi
FNDA:0,_ZNK5amrex8FabArrayINS_7BaseFabIN5Model5Solid6Affine2J2EEEE5arrayIS6_Li0EEENS_6Array4IKS5_EEi
FN:1535,_ZNK5amrex8FabArrayINS_7BaseFabIN5Model5Solid7Elastic17PseudoLinearCubicEEEE5arrayIS6_Li0EEENS_6Array4IKS5_EEi
FNDA:0,_ZNK5amrex8FabArrayINS_7BaseFabIN5Model5Solid7Elastic17PseudoLinearCubicEEEE5arrayIS6_Li0EEENS_6Array4IKS5_EEi
FN:1535,_ZNK5amrex8FabArrayINS_7BaseFabIN5Model5Solid6Affine9IsotropicEEEE5arrayIS6_Li0EEENS_6Array4IKS5_EEi
FNDA:0,_ZNK5amrex8FabArrayINS_7BaseFabIN5Model5Solid6Affine9IsotropicEEEE5arrayIS6_Li0EEENS_6Array4IKS5_EEi
FN:1535,_ZNK5amrex8FabArrayINS_7BaseFabIN5Eigen6MatrixIdLi2ELi2ELi0ELi2ELi2EEEEEE5arrayIS5_Li0EEENS_6Array4IKS4_EEi
FNDA:0,_ZNK5amrex8FabArrayINS_7BaseFabIN5Eigen6MatrixIdLi2ELi2ELi0ELi2ELi2EEEEEE5arrayIS5_Li0EEENS_6Array4IKS4_EEi
FN:1535,_ZNK5amrex8FabArrayINS_7BaseFabIN3Set7Matrix4ILi2ELi3EEEEEE5arrayIS5_Li0EEENS_6Array4IKS4_EEi
FNDA:0,_ZNK5amrex8FabArrayINS_7BaseFabIN3Set7Matrix4ILi2ELi3EEEEEE5arrayIS5_Li0EEENS_6Array4IKS4_EEi
FN:1535,_ZNK5amrex8FabArrayINS_7BaseFabIN3Set7Matrix4ILi2ELi4EEEEEE5arrayIS5_Li0EEENS_6Array4IKS4_EEi
FNDA:0,_ZNK5amrex8FabArrayINS_7BaseFabIN3Set7Matrix4ILi2ELi4EEEEEE5arrayIS5_Li0EEENS_6Array4IKS4_EEi
FN:1535,_ZNK5amrex8FabArrayINS_7BaseFabIN5Eigen6MatrixIdLi2ELi1ELi0ELi2ELi1EEEEEE5arrayIS5_Li0EEENS_6Array4IKS4_EEi
FNDA:0,_ZNK5amrex8FabArrayINS_7BaseFabIN5Eigen6MatrixIdLi2ELi1ELi0ELi2ELi1EEEEEE5arrayIS5_Li0EEENS_6Array4IKS4_EEi
FN:1535,_ZNK5amrex8FabArrayINS_7BaseFabIN5Model5Solid6Affine9HexagonalEEEE5arrayIS6_Li0EEENS_6Array4IKS5_EEi
FNDA:0,_ZNK5amrex8FabArrayINS_7BaseFabIN5Model5Solid6Affine9HexagonalEEEE5arrayIS6_Li0EEENS_6Array4IKS5_EEi
FN:1535,_ZNK5amrex8FabArrayINS_7BaseFabIN5Model5Solid7Elastic28PseudoLinearCubicPredeformedEEEE5arrayIS6_Li0EEENS_6Array4IKS5_EEi
FNDA:0,_ZNK5amrex8FabArrayINS_7BaseFabIN5Model5Solid7Elastic28PseudoLinearCubicPredeformedEEEE5arrayIS6_Li0EEENS_6Array4IKS5_EEi
FN:1535,_ZNK5amrex8FabArrayINS_7BaseFabIN3Set7Matrix4ILi2ELi1EEEEEE5arrayIS5_Li0EEENS_6Array4IKS4_EEi
FNDA:0,_ZNK5amrex8FabArrayINS_7BaseFabIN3Set7Matrix4ILi2ELi1EEEEEE5arrayIS5_Li0EEENS_6Array4IKS4_EEi
FN:1535,_ZNK5amrex8FabArrayINS_7BaseFabIdEEE5arrayIS2_Li0EEENS_6Array4IKdEEi
FNDA:0,_ZNK5amrex8FabArrayINS_7BaseFabIdEEE5arrayIS2_Li0EEENS_6Array4IKdEEi
FN:1535,_ZNK5amrex8FabArrayINS_7BaseFabIN3Set7Matrix4ILi2ELi6EEEEEE5arrayIS5_Li0EEENS_6Array4IKS4_EEi
FNDA:0,_ZNK5amrex8FabArrayINS_7BaseFabIN3Set7Matrix4ILi2ELi6EEEEEE5arrayIS5_Li0EEENS_6Array4IKS4_EEi
FN:1551,_ZNK5amrex8FabArrayINS_7BaseFabIN5Model5Solid6Linear9LaplacianEEEE11const_arrayIS6_Li0EEENS_6Array4IKS5_EERKNS_6MFIterE
FNDA:0,_ZNK5amrex8FabArrayINS_7BaseFabIN5Model5Solid6Linear9LaplacianEEEE11const_arrayIS6_Li0EEENS_6Array4IKS5_EERKNS_6MFIterE
FN:1551,_ZNK5amrex8FabArrayINS_7BaseFabIN5Model5Solid6Affine2J2EEEE11const_arrayIS6_Li0EEENS_6Array4IKS5_EERKNS_6MFIterE
FNDA:0,_ZNK5amrex8FabArrayINS_7BaseFabIN5Model5Solid6Affine2J2EEEE11const_arrayIS6_Li0EEENS_6Array4IKS5_EERKNS_6MFIterE
FN:1551,_ZNK5amrex8FabArrayINS_7BaseFabIN5Model5Solid7Elastic17PseudoLinearCubicEEEE11const_arrayIS6_Li0EEENS_6Array4IKS5_EERKNS_6MFIterE
FNDA:0,_ZNK5amrex8FabArrayINS_7BaseFabIN5Model5Solid7Elastic17PseudoLinearCubicEEEE11const_arrayIS6_Li0EEENS_6Array4IKS5_EERKNS_6MFIterE
FN:1551,_ZNK5amrex8FabArrayINS_7BaseFabIN5Model5Solid6Affine9HexagonalEEEE11const_arrayIS6_Li0EEENS_6Array4IKS5_EERKNS_6MFIterE
FNDA:0,_ZNK5amrex8FabArrayINS_7BaseFabIN5Model5Solid6Affine9HexagonalEEEE11const_arrayIS6_Li0EEENS_6Array4IKS5_EERKNS_6MFIterE
FN:1551,_ZNK5amrex8FabArrayINS_9FArrayBoxEE11const_arrayIS1_Li0EEENS_6Array4IKdEERKNS_6MFIterE
FNDA:0,_ZNK5amrex8FabArrayINS_9FArrayBoxEE11const_arrayIS1_Li0EEENS_6Array4IKdEERKNS_6MFIterE
FN:1551,_ZNK5amrex8FabArrayINS_7BaseFabIN5Model5Solid7Elastic28PseudoLinearCubicPredeformedEEEE11const_arrayIS6_Li0EEENS_6Array4IKS5_EERKNS_6MFIterE
FNDA:0,_ZNK5amrex8FabArrayINS_7BaseFabIN5Model5Solid7Elastic28PseudoLinearCubicPredeformedEEEE11const_arrayIS6_Li0EEENS_6Array4IKS5_EERKNS_6MFIterE
FN:1551,_ZNK5amrex8FabArrayINS_7BaseFabIN5Model5Solid7Elastic10NeoHookeanEEEE11const_arrayIS6_Li0EEENS_6Array4IKS5_EERKNS_6MFIterE
FNDA:0,_ZNK5amrex8FabArrayINS_7BaseFabIN5Model5Solid7Elastic10NeoHookeanEEEE11const_arrayIS6_Li0EEENS_6Array4IKS5_EERKNS_6MFIterE
FN:1551,_ZNK5amrex8FabArrayINS_7BaseFabIN5Model5Solid6Affine5CubicEEEE11const_arrayIS6_Li0EEENS_6Array4IKS5_EERKNS_6MFIterE
FNDA:0,_ZNK5amrex8FabArrayINS_7BaseFabIN5Model5Solid6Affine5CubicEEEE11const_arrayIS6_Li0EEENS_6Array4IKS5_EERKNS_6MFIterE
FN:1551,_ZNK5amrex8FabArrayINS_7BaseFabIN5Model5Solid6Linear9IsotropicEEEE11const_arrayIS6_Li0EEENS_6Array4IKS5_EERKNS_6MFIterE
FNDA:0,_ZNK5amrex8FabArrayINS_7BaseFabIN5Model5Solid6Linear9IsotropicEEEE11const_arrayIS6_Li0EEENS_6Array4IKS5_EERKNS_6MFIterE
FN:1551,_ZNK5amrex8FabArrayINS_7BaseFabIN5Model5Solid6Linear5CubicEEEE11const_arrayIS6_Li0EEENS_6Array4IKS5_EERKNS_6MFIterE
FNDA:0,_ZNK5amrex8FabArrayINS_7BaseFabIN5Model5Solid6Linear5CubicEEEE11const_arrayIS6_Li0EEENS_6Array4IKS5_EERKNS_6MFIterE
FN:1551,_ZNK5amrex8FabArrayINS_7BaseFabIN5Model5Solid6Affine9IsotropicEEEE11const_arrayIS6_Li0EEENS_6Array4IKS5_EERKNS_6MFIterE
FNDA:0,_ZNK5amrex8FabArrayINS_7BaseFabIN5Model5Solid6Affine9IsotropicEEEE11const_arrayIS6_Li0EEENS_6Array4IKS5_EERKNS_6MFIterE
FN:1551,_ZNK5amrex8FabArrayINS_7BaseFabIN5Model5Solid6Linear19IsotropicDegradableEEEE11const_arrayIS6_Li0EEENS_6Array4IKS5_EERKNS_6MFIterE
FNDA:0,_ZNK5amrex8FabArrayINS_7BaseFabIN5Model5Solid6Linear19IsotropicDegradableEEEE11const_arrayIS6_Li0EEENS_6Array4IKS5_EERKNS_6MFIterE
FN:1551,_ZNK5amrex8FabArrayINS_7BaseFabIN5Eigen6MatrixIdLi2ELi2ELi0ELi2ELi2EEEEEE11const_arrayIS5_Li0EEENS_6Array4IKS4_EERKNS_6MFIterE
FNDA:0,_ZNK5amrex8FabArrayINS_7BaseFabIN5Eigen6MatrixIdLi2ELi2ELi0ELi2ELi2EEEEEE11const_arrayIS5_Li0EEENS_6Array4IKS4_EERKNS_6MFIterE
FN:1551,_ZNK5amrex8FabArrayINS_7BaseFabIN5Eigen6MatrixIdLi2ELi1ELi0ELi2ELi1EEEEEE11const_arrayIS5_Li0EEENS_6Array4IKS4_EERKNS_6MFIterE
FNDA:0,_ZNK5amrex8FabArrayINS_7BaseFabIN5Eigen6MatrixIdLi2ELi1ELi0ELi2ELi1EEEEEE11const_arrayIS5_Li0EEENS_6Array4IKS4_EERKNS_6MFIterE
FN:1676,_ZN5amrex8FabArrayINS_7BaseFabIN5Eigen6MatrixIdLi2ELi1ELi0ELi2ELi1EEEEEE12clear_arraysEv
FNDA:0,_ZN5amrex8FabArrayINS_7BaseFabIN5Eigen6MatrixIdLi2ELi1ELi0ELi2ELi1EEEEEE12clear_arraysEv
FN:1676,_ZN5amrex8FabArrayINS_7BaseFabIN5Eigen6MatrixIdLi2ELi2ELi0ELi2ELi2EEEEEE12clear_arraysEv
FNDA:0,_ZN5amrex8FabArrayINS_7BaseFabIN5Eigen6MatrixIdLi2ELi2ELi0ELi2ELi2EEEEEE12clear_arraysEv
FN:1676,_ZN5amrex8FabArrayINS_7BaseFabIN3Set7Matrix4ILi2ELi6EEEEEE12clear_arraysEv
FNDA:0,_ZN5amrex8FabArrayINS_7BaseFabIN3Set7Matrix4ILi2ELi6EEEEEE12clear_arraysEv
FN:1676,_ZN5amrex8FabArrayINS_7BaseFabIN5Model5Solid6Linear19IsotropicDegradableEEEE12clear_arraysEv
FNDA:0,_ZN5amrex8FabArrayINS_7BaseFabIN5Model5Solid6Linear19IsotropicDegradableEEEE12clear_arraysEv
FN:1676,_ZN5amrex8FabArrayINS_7BaseFabIN5Model5Solid6Affine9IsotropicEEEE12clear_arraysEv
FNDA:0,_ZN5amrex8FabArrayINS_7BaseFabIN5Model5Solid6Affine9IsotropicEEEE12clear_arraysEv
FN:1676,_ZN5amrex8FabArrayINS_7BaseFabIN5Model5Solid6Affine5CubicEEEE12clear_arraysEv
FNDA:0,_ZN5amrex8FabArrayINS_7BaseFabIN5Model5Solid6Affine5CubicEEEE12clear_arraysEv
FN:1676,_ZN5amrex8FabArrayINS_9FArrayBoxEE12clear_arraysEv
FNDA:0,_ZN5amrex8FabArrayINS_9FArrayBoxEE12clear_arraysEv
FN:1676,_ZN5amrex8FabArrayINS_7BaseFabIN5Model5Solid6Affine9HexagonalEEEE12clear_arraysEv
FNDA:0,_ZN5amrex8FabArrayINS_7BaseFabIN5Model5Solid6Affine9HexagonalEEEE12clear_arraysEv
FN:1676,_ZN5amrex8FabArrayINS_7BaseFabIN5Model5Solid6Linear9IsotropicEEEE12clear_arraysEv
FNDA:34,_ZN5amrex8FabArrayINS_7BaseFabIN5Model5Solid6Linear9IsotropicEEEE12clear_arraysEv
FN:1676,_ZN5amrex8FabArrayINS_7BaseFabIN5Model5Solid6Linear5CubicEEEE12clear_arraysEv
FNDA:0,_ZN5amrex8FabArrayINS_7BaseFabIN5Model5Solid6Linear5CubicEEEE12clear_arraysEv
FN:1676,_ZN5amrex8FabArrayINS_7BaseFabIN5Model5Solid6Linear9LaplacianEEEE12clear_arraysEv
FNDA:2,_ZN5amrex8FabArrayINS_7BaseFabIN5Model5Solid6Linear9LaplacianEEEE12clear_arraysEv
FN:1676,_ZN5amrex8FabArrayINS_7BaseFabIN5Model5Solid7Elastic10NeoHookeanEEEE12clear_arraysEv
FNDA:26,_ZN5amrex8FabArrayINS_7BaseFabIN5Model5Solid7Elastic10NeoHookeanEEEE12clear_arraysEv
FN:1676,_ZN5amrex8FabArrayINS_7BaseFabIN5Model5Solid7Elastic17PseudoLinearCubicEEEE12clear_arraysEv
FNDA:0,_ZN5amrex8FabArrayINS_7BaseFabIN5Model5Solid7Elastic17PseudoLinearCubicEEEE12clear_arraysEv
FN:1676,_ZN5amrex8FabArrayINS_7BaseFabIN5Model5Solid7Elastic28PseudoLinearCubicPredeformedEEEE12clear_arraysEv
FNDA:0,_ZN5amrex8FabArrayINS_7BaseFabIN5Model5Solid7Elastic28PseudoLinearCubicPredeformedEEEE12clear_arraysEv
FN:1676,_ZN5amrex8FabArrayINS_7BaseFabIN5Model5Solid6Affine2J2EEEE12clear_arraysEv
FNDA:14,_ZN5amrex8FabArrayINS_7BaseFabIN5Model5Solid6Affine2J2EEEE12clear_arraysEv
FN:1676,_ZN5amrex8FabArrayINS_9IArrayBoxEE12clear_arraysEv
FNDA:0,_ZN5amrex8FabArrayINS_9IArrayBoxEE12clear_arraysEv
FN:1676,_ZN5amrex8FabArrayINS_7BaseFabIN3Set7Matrix4ILi2ELi1EEEEEE12clear_arraysEv
FNDA:0,_ZN5amrex8FabArrayINS_7BaseFabIN3Set7Matrix4ILi2ELi1EEEEEE12clear_arraysEv
FN:1676,_ZN5amrex8FabArrayINS_7BaseFabIN3Set7Matrix4ILi2ELi3EEEEEE12clear_arraysEv
FNDA:0,_ZN5amrex8FabArrayINS_7BaseFabIN3Set7Matrix4ILi2ELi3EEEEEE12clear_arraysEv
FN:1676,_ZN5amrex8FabArrayINS_7BaseFabIN3Set7Matrix4ILi2ELi4EEEEEE12clear_arraysEv
FNDA:0,_ZN5amrex8FabArrayINS_7BaseFabIN3Set7Matrix4ILi2ELi4EEEEEE12clear_arraysEv
FN:1730,_ZN5amrex8FabArrayINS_9IArrayBoxEE5clearEv
FNDA:0,_ZN5amrex8FabArrayINS_9IArrayBoxEE5clearEv
FN:1730,_ZN5amrex8FabArrayINS_7BaseFabIN5Eigen6MatrixIdLi2ELi1ELi0ELi2ELi1EEEEEE5clearEv
FNDA:0,_ZN5amrex8FabArrayINS_7BaseFabIN5Eigen6MatrixIdLi2ELi1ELi0ELi2ELi1EEEEEE5clearEv
FN:1730,_ZN5amrex8FabArrayINS_7BaseFabIN5Model5Solid6Affine2J2EEEE5clearEv
FNDA:14,_ZN5amrex8FabArrayINS_7BaseFabIN5Model5Solid6Affine2J2EEEE5clearEv
FN:1730,_ZN5amrex8FabArrayINS_7BaseFabIN5Eigen6MatrixIdLi2ELi2ELi0ELi2ELi2EEEEEE5clearEv
FNDA:0,_ZN5amrex8FabArrayINS_7BaseFabIN5Eigen6MatrixIdLi2ELi2ELi0ELi2ELi2EEEEEE5clearEv
FN:1730,_ZN5amrex8FabArrayINS_9FArrayBoxEE5clearEv
FNDA:0,_ZN5amrex8FabArrayINS_9FArrayBoxEE5clearEv
FN:1730,_ZN5amrex8FabArrayINS_7BaseFabIN5Model5Solid7Elastic28PseudoLinearCubicPredeformedEEEE5clearEv
FNDA:0,_ZN5amrex8FabArrayINS_7BaseFabIN5Model5Solid7Elastic28PseudoLinearCubicPredeformedEEEE5clearEv
FN:1730,_ZN5amrex8FabArrayINS_7BaseFabIN5Model5Solid7Elastic17PseudoLinearCubicEEEE5clearEv
FNDA:0,_ZN5amrex8FabArrayINS_7BaseFabIN5Model5Solid7Elastic17PseudoLinearCubicEEEE5clearEv
FN:1730,_ZN5amrex8FabArrayINS_7BaseFabIN5Model5Solid7Elastic10NeoHookeanEEEE5clearEv
FNDA:26,_ZN5amrex8FabArrayINS_7BaseFabIN5Model5Solid7Elastic10NeoHookeanEEEE5clearEv
FN:1730,_ZN5amrex8FabArrayINS_7BaseFabIN5Model5Solid6Linear9LaplacianEEEE5clearEv
FNDA:2,_ZN5amrex8FabArrayINS_7BaseFabIN5Model5Solid6Linear9LaplacianEEEE5clearEv
FN:1730,_ZN5amrex8FabArrayINS_7BaseFabIN5Model5Solid6Linear5CubicEEEE5clearEv
FNDA:0,_ZN5amrex8FabArrayINS_7BaseFabIN5Model5Solid6Linear5CubicEEEE5clearEv
FN:1730,_ZN5amrex8FabArrayINS_7BaseFabIN5Model5Solid6Affine9HexagonalEEEE5clearEv
FNDA:0,_ZN5amrex8FabArrayINS_7BaseFabIN5Model5Solid6Affine9HexagonalEEEE5clearEv
FN:1730,_ZN5amrex8FabArrayINS_7BaseFabIN3Set7Matrix4ILi2ELi1EEEEEE5clearEv
FNDA:0,_ZN5amrex8FabArrayINS_7BaseFabIN3Set7Matrix4ILi2ELi1EEEEEE5clearEv
FN:1730,_ZN5amrex8FabArrayINS_7BaseFabIN5Model5Solid6Linear9IsotropicEEEE5clearEv
FNDA:34,_ZN5amrex8FabArrayINS_7BaseFabIN5Model5Solid6Linear9IsotropicEEEE5clearEv
FN:1730,_ZN5amrex8FabArrayINS_7BaseFabIN5Model5Solid6Affine5CubicEEEE5clearEv
FNDA:0,_ZN5amrex8FabArrayINS_7BaseFabIN5Model5Solid6Affine5CubicEEEE5clearEv
FN:1730,_ZN5amrex8FabArrayINS_7BaseFabIN3Set7Matrix4ILi2ELi6EEEEEE5clearEv
FNDA:0,_ZN5amrex8FabArrayINS_7BaseFabIN3Set7Matrix4ILi2ELi6EEEEEE5clearEv
FN:1730,_ZN5amrex8FabArrayINS_7BaseFabIN3Set7Matrix4ILi2ELi4EEEEEE5clearEv
FNDA:0,_ZN5amrex8FabArrayINS_7BaseFabIN3Set7Matrix4ILi2ELi4EEEEEE5clearEv
FN:1730,_ZN5amrex8FabArrayINS_7BaseFabIN5Model5Solid6Affine9IsotropicEEEE5clearEv
FNDA:0,_ZN5amrex8FabArrayINS_7BaseFabIN5Model5Solid6Affine9IsotropicEEEE5clearEv
FN:1730,_ZN5amrex8FabArrayINS_7BaseFabIN5Model5Solid6Linear19IsotropicDegradableEEEE5clearEv
FNDA:0,_ZN5amrex8FabArrayINS_7BaseFabIN5Model5Solid6Linear19IsotropicDegradableEEEE5clearEv
FN:1730,_ZN5amrex8FabArrayINS_7BaseFabIN3Set7Matrix4ILi2ELi3EEEEEE5clearEv
FNDA:0,_ZN5amrex8FabArrayINS_7BaseFabIN3Set7Matrix4ILi2ELi3EEEEEE5clearEv
FN:1768,_ZN5amrex8FabArrayINS_9FArrayBoxEE9LocalCopyIS1_S1_Li0EEEvRKNS0_IT_EEiiiRKNS_7IntVectE
FNDA:0,_ZN5amrex8FabArrayINS_9FArrayBoxEE9LocalCopyIS1_S1_Li0EEEvRKNS0_IT_EEiiiRKNS_7IntVectE
FN:1816,_ZN5amrex8FabArrayINS_7BaseFabIN5Model5Solid6Affine2J2EEEEC2Ev
FNDA:3,_ZN5amrex8FabArrayINS_7BaseFabIN5Model5Solid6Affine2J2EEEEC2Ev
FN:1816,_ZN5amrex8FabArrayINS_7BaseFabIN5Model5Solid6Linear9IsotropicEEEEC2Ev
FNDA:2,_ZN5amrex8FabArrayINS_7BaseFabIN5Model5Solid6Linear9IsotropicEEEEC2Ev
FN:1816,_ZN5amrex8FabArrayINS_7BaseFabIN5Eigen6MatrixIdLi2ELi1ELi0ELi2ELi1EEEEEEC2Ev
FNDA:0,_ZN5amrex8FabArrayINS_7BaseFabIN5Eigen6MatrixIdLi2ELi1ELi0ELi2ELi1EEEEEEC2Ev
FN:1816,_ZN5amrex8FabArrayINS_7BaseFabIN5Model5Solid7Elastic17PseudoLinearCubicEEEEC2Ev
FNDA:0,_ZN5amrex8FabArrayINS_7BaseFabIN5Model5Solid7Elastic17PseudoLinearCubicEEEEC2Ev
FN:1816,_ZN5amrex8FabArrayINS_7BaseFabIN5Model5Solid6Linear5CubicEEEEC2Ev
FNDA:0,_ZN5amrex8FabArrayINS_7BaseFabIN5Model5Solid6Linear5CubicEEEEC2Ev
FN:1816,_ZN5amrex8FabArrayINS_7BaseFabIN5Eigen6MatrixIdLi2ELi2ELi0ELi2ELi2EEEEEEC2Ev
FNDA:0,_ZN5amrex8FabArrayINS_7BaseFabIN5Eigen6MatrixIdLi2ELi2ELi0ELi2ELi2EEEEEEC2Ev
FN:1816,_ZN5amrex8FabArrayINS_7BaseFabIN5Model5Solid6Affine9IsotropicEEEEC2Ev
FNDA:0,_ZN5amrex8FabArrayINS_7BaseFabIN5Model5Solid6Affine9IsotropicEEEEC2Ev
FN:1816,_ZN5amrex8FabArrayINS_7BaseFabIN5Model5Solid7Elastic10NeoHookeanEEEEC2Ev
FNDA:0,_ZN5amrex8FabArrayINS_7BaseFabIN5Model5Solid7Elastic10NeoHookeanEEEEC2Ev
FN:1816,_ZN5amrex8FabArrayINS_7BaseFabIN5Model5Solid6Affine9HexagonalEEEEC2Ev
FNDA:0,_ZN5amrex8FabArrayINS_7BaseFabIN5Model5Solid6Affine9HexagonalEEEEC2Ev
FN:1816,_ZN5amrex8FabArrayINS_7BaseFabIN5Model5Solid6Affine5CubicEEEEC2Ev
FNDA:0,_ZN5amrex8FabArrayINS_7BaseFabIN5Model5Solid6Affine5CubicEEEEC2Ev
FN:1816,_ZN5amrex8FabArrayINS_7BaseFabIN5Model5Solid6Linear9LaplacianEEEEC2Ev
FNDA:0,_ZN5amrex8FabArrayINS_7BaseFabIN5Model5Solid6Linear9LaplacianEEEEC2Ev
FN:1816,_ZN5amrex8FabArrayINS_7BaseFabIN5Model5Solid6Linear19IsotropicDegradableEEEEC2Ev
FNDA:0,_ZN5amrex8FabArrayINS_7BaseFabIN5Model5Solid6Linear19IsotropicDegradableEEEEC2Ev
FN:1816,_ZN5amrex8FabArrayINS_7BaseFabIN5Model5Solid7Elastic28PseudoLinearCubicPredeformedEEEEC2Ev
FNDA:0,_ZN5amrex8FabArrayINS_7BaseFabIN5Model5Solid7Elastic28PseudoLinearCubicPredeformedEEEEC2Ev
FN:1831,_ZN5amrex8FabArrayINS_7BaseFabIN5Model5Solid6Linear9LaplacianEEEEC2ERKNS_8BoxArrayERKNS_19DistributionMappingEiiRKNS_6MFInfoERKNS_10FabFactoryIS6_EE
FNDA:1,_ZN5amrex8FabArrayINS_7BaseFabIN5Model5Solid6Linear9LaplacianEEEEC2ERKNS_8BoxArrayERKNS_19DistributionMappingEiiRKNS_6MFInfoERKNS_10FabFactoryIS6_EE
FN:1831,_ZN5amrex8FabArrayINS_7BaseFabIN5Model5Solid7Elastic28PseudoLinearCubicPredeformedEEEEC2ERKNS_8BoxArrayERKNS_19DistributionMappingEiiRKNS_6MFInfoERKNS_10FabFactoryIS6_EE
FNDA:0,_ZN5amrex8FabArrayINS_7BaseFabIN5Model5Solid7Elastic28PseudoLinearCubicPredeformedEEEEC2ERKNS_8BoxArrayERKNS_19DistributionMappingEiiRKNS_6MFInfoERKNS_10FabFactoryIS6_EE
FN:1831,_ZN5amrex8FabArrayINS_7BaseFabIN5Model5Solid6Linear19IsotropicDegradableEEEEC2ERKNS_8BoxArrayERKNS_19DistributionMappingEiiRKNS_6MFInfoERKNS_10FabFactoryIS6_EE
FNDA:0,_ZN5amrex8FabArrayINS_7BaseFabIN5Model5Solid6Linear19IsotropicDegradableEEEEC2ERKNS_8BoxArrayERKNS_19DistributionMappingEiiRKNS_6MFInfoERKNS_10FabFactoryIS6_EE
FN:1831,_ZN5amrex8FabArrayINS_7BaseFabIN5Eigen6MatrixIdLi2ELi1ELi0ELi2ELi1EEEEEEC2ERKNS_8BoxArrayERKNS_19DistributionMappingEiiRKNS_6MFInfoERKNS_10FabFactoryIS5_EE
FNDA:0,_ZN5amrex8FabArrayINS_7BaseFabIN5Eigen6MatrixIdLi2ELi1ELi0ELi2ELi1EEEEEEC2ERKNS_8BoxArrayERKNS_19DistributionMappingEiiRKNS_6MFInfoERKNS_10FabFactoryIS5_EE
FN:1831,_ZN5amrex8FabArrayINS_7BaseFabIN5Model5Solid6Affine9IsotropicEEEEC2ERKNS_8BoxArrayERKNS_19DistributionMappingEiiRKNS_6MFInfoERKNS_10FabFactoryIS6_EE
FNDA:0,_ZN5amrex8FabArrayINS_7BaseFabIN5Model5Solid6Affine9IsotropicEEEEC2ERKNS_8BoxArrayERKNS_19DistributionMappingEiiRKNS_6MFInfoERKNS_10FabFactoryIS6_EE
FN:1831,_ZN5amrex8FabArrayINS_7BaseFabIN5Model5Solid6Linear9IsotropicEEEEC2ERKNS_8BoxArrayERKNS_19DistributionMappingEiiRKNS_6MFInfoERKNS_10FabFactoryIS6_EE
FNDA:15,_ZN5amrex8FabArrayINS_7BaseFabIN5Model5Solid6Linear9IsotropicEEEEC2ERKNS_8BoxArrayERKNS_19DistributionMappingEiiRKNS_6MFInfoERKNS_10FabFactoryIS6_EE
FN:1831,_ZN5amrex8FabArrayINS_7BaseFabIN5Model5Solid6Linear5CubicEEEEC2ERKNS_8BoxArrayERKNS_19DistributionMappingEiiRKNS_6MFInfoERKNS_10FabFactoryIS6_EE
FNDA:0,_ZN5amrex8FabArrayINS_7BaseFabIN5Model5Solid6Linear5CubicEEEEC2ERKNS_8BoxArrayERKNS_19DistributionMappingEiiRKNS_6MFInfoERKNS_10FabFactoryIS6_EE
FN:1831,_ZN5amrex8FabArrayINS_7BaseFabIN5Model5Solid6Affine5CubicEEEEC2ERKNS_8BoxArrayERKNS_19DistributionMappingEiiRKNS_6MFInfoERKNS_10FabFactoryIS6_EE
FNDA:0,_ZN5amrex8FabArrayINS_7BaseFabIN5Model5Solid6Affine5CubicEEEEC2ERKNS_8BoxArrayERKNS_19DistributionMappingEiiRKNS_6MFInfoERKNS_10FabFactoryIS6_EE
FN:1831,_ZN5amrex8FabArrayINS_7BaseFabIN3Set7Matrix4ILi2ELi1EEEEEEC2ERKNS_8BoxArrayERKNS_19DistributionMappingEiiRKNS_6MFInfoERKNS_10FabFactoryIS5_EE
FNDA:0,_ZN5amrex8FabArrayINS_7BaseFabIN3Set7Matrix4ILi2ELi1EEEEEEC2ERKNS_8BoxArrayERKNS_19DistributionMappingEiiRKNS_6MFInfoERKNS_10FabFactoryIS5_EE
FN:1831,_ZN5amrex8FabArrayINS_7BaseFabIN5Model5Solid6Affine9HexagonalEEEEC2ERKNS_8BoxArrayERKNS_19DistributionMappingEiiRKNS_6MFInfoERKNS_10FabFactoryIS6_EE
FNDA:0,_ZN5amrex8FabArrayINS_7BaseFabIN5Model5Solid6Affine9HexagonalEEEEC2ERKNS_8BoxArrayERKNS_19DistributionMappingEiiRKNS_6MFInfoERKNS_10FabFactoryIS6_EE
FN:1831,_ZN5amrex8FabArrayINS_7BaseFabIN3Set7Matrix4ILi2ELi4EEEEEEC2ERKNS_8BoxArrayERKNS_19DistributionMappingEiiRKNS_6MFInfoERKNS_10FabFactoryIS5_EE
FNDA:0,_ZN5amrex8FabArrayINS_7BaseFabIN3Set7Matrix4ILi2ELi4EEEEEEC2ERKNS_8BoxArrayERKNS_19DistributionMappingEiiRKNS_6MFInfoERKNS_10FabFactoryIS5_EE
FN:1831,_ZN5amrex8FabArrayINS_7BaseFabIN3Set7Matrix4ILi2ELi3EEEEEEC2ERKNS_8BoxArrayERKNS_19DistributionMappingEiiRKNS_6MFInfoERKNS_10FabFactoryIS5_EE
FNDA:0,_ZN5amrex8FabArrayINS_7BaseFabIN3Set7Matrix4ILi2ELi3EEEEEEC2ERKNS_8BoxArrayERKNS_19DistributionMappingEiiRKNS_6MFInfoERKNS_10FabFactoryIS5_EE
FN:1831,_ZN5amrex8FabArrayINS_7BaseFabIN5Model5Solid7Elastic10NeoHookeanEEEEC2ERKNS_8BoxArrayERKNS_19DistributionMappingEiiRKNS_6MFInfoERKNS_10FabFactoryIS6_EE
FNDA:10,_ZN5amrex8FabArrayINS_7BaseFabIN5Model5Solid7Elastic10NeoHookeanEEEEC2ERKNS_8BoxArrayERKNS_19DistributionMappingEiiRKNS_6MFInfoERKNS_10FabFactoryIS6_EE
FN:1831,_ZN5amrex8FabArrayINS_7BaseFabIN5Model5Solid6Affine2J2EEEEC2ERKNS_8BoxArrayERKNS_19DistributionMappingEiiRKNS_6MFInfoERKNS_10FabFactoryIS6_EE
FNDA:4,_ZN5amrex8FabArrayINS_7BaseFabIN5Model5Solid6Affine2J2EEEEC2ERKNS_8BoxArrayERKNS_19DistributionMappingEiiRKNS_6MFInfoERKNS_10FabFactoryIS6_EE
FN:1831,_ZN5amrex8FabArrayINS_7BaseFabIN5Model5Solid7Elastic17PseudoLinearCubicEEEEC2ERKNS_8BoxArrayERKNS_19DistributionMappingEiiRKNS_6MFInfoERKNS_10FabFactoryIS6_EE
FNDA:0,_ZN5amrex8FabArrayINS_7BaseFabIN5Model5Solid7Elastic17PseudoLinearCubicEEEEC2ERKNS_8BoxArrayERKNS_19DistributionMappingEiiRKNS_6MFInfoERKNS_10FabFactoryIS6_EE
FN:1831,_ZN5amrex8FabArrayINS_7BaseFabIN5Eigen6MatrixIdLi2ELi2ELi0ELi2ELi2EEEEEEC2ERKNS_8BoxArrayERKNS_19DistributionMappingEiiRKNS_6MFInfoERKNS_10FabFactoryIS5_EE
FNDA:0,_ZN5amrex8FabArrayINS_7BaseFabIN5Eigen6MatrixIdLi2ELi2ELi0ELi2ELi2EEEEEEC2ERKNS_8BoxArrayERKNS_19DistributionMappingEiiRKNS_6MFInfoERKNS_10FabFactoryIS5_EE
FN:1831,_ZN5amrex8FabArrayINS_7BaseFabIN3Set7Matrix4ILi2ELi6EEEEEEC2ERKNS_8BoxArrayERKNS_19DistributionMappingEiiRKNS_6MFInfoERKNS_10FabFactoryIS5_EE
FNDA:0,_ZN5amrex8FabArrayINS_7BaseFabIN3Set7Matrix4ILi2ELi6EEEEEEC2ERKNS_8BoxArrayERKNS_19DistributionMappingEiiRKNS_6MFInfoERKNS_10FabFactoryIS5_EE
FN:1841,_ZN5amrex8FabArrayINS_7BaseFabIN3Set7Matrix4ILi2ELi4EEEEEEC2ERKNS_8BoxArrayERKNS_19DistributionMappingEiRKNS_7IntVectERKNS_6MFInfoERKNS_10FabFactoryIS5_EE
FNDA:0,_ZN5amrex8FabArrayINS_7BaseFabIN3Set7Matrix4ILi2ELi4EEEEEEC2ERKNS_8BoxArrayERKNS_19DistributionMappingEiRKNS_7IntVectERKNS_6MFInfoERKNS_10FabFactoryIS5_EE
FN:1841,_ZN5amrex8FabArrayINS_7BaseFabIN3Set7Matrix4ILi2ELi1EEEEEEC2ERKNS_8BoxArrayERKNS_19DistributionMappingEiRKNS_7IntVectERKNS_6MFInfoERKNS_10FabFactoryIS5_EE
FNDA:0,_ZN5amrex8FabArrayINS_7BaseFabIN3Set7Matrix4ILi2ELi1EEEEEEC2ERKNS_8BoxArrayERKNS_19DistributionMappingEiRKNS_7IntVectERKNS_6MFInfoERKNS_10FabFactoryIS5_EE
FN:1841,_ZN5amrex8FabArrayINS_7BaseFabIN5Model5Solid7Elastic17PseudoLinearCubicEEEEC2ERKNS_8BoxArrayERKNS_19DistributionMappingEiRKNS_7IntVectERKNS_6MFInfoERKNS_10FabFactoryIS6_EE
FNDA:0,_ZN5amrex8FabArrayINS_7BaseFabIN5Model5Solid7Elastic17PseudoLinearCubicEEEEC2ERKNS_8BoxArrayERKNS_19DistributionMappingEiRKNS_7IntVectERKNS_6MFInfoERKNS_10FabFactoryIS6_EE
FN:1841,_ZN5amrex8FabArrayINS_7BaseFabIN5Model5Solid6Affine9IsotropicEEEEC2ERKNS_8BoxArrayERKNS_19DistributionMappingEiRKNS_7IntVectERKNS_6MFInfoERKNS_10FabFactoryIS6_EE
FNDA:0,_ZN5amrex8FabArrayINS_7BaseFabIN5Model5Solid6Affine9IsotropicEEEEC2ERKNS_8BoxArrayERKNS_19DistributionMappingEiRKNS_7IntVectERKNS_6MFInfoERKNS_10FabFactoryIS6_EE
FN:1841,_ZN5amrex8FabArrayINS_7BaseFabIN5Model5Solid6Affine5CubicEEEEC2ERKNS_8BoxArrayERKNS_19DistributionMappingEiRKNS_7IntVectERKNS_6MFInfoERKNS_10FabFactoryIS6_EE
FNDA:0,_ZN5amrex8FabArrayINS_7BaseFabIN5Model5Solid6Affine5CubicEEEEC2ERKNS_8BoxArrayERKNS_19DistributionMappingEiRKNS_7IntVectERKNS_6MFInfoERKNS_10FabFactoryIS6_EE
FN:1841,_ZN5amrex8FabArrayINS_7BaseFabIN5Model5Solid7Elastic28PseudoLinearCubicPredeformedEEEEC2ERKNS_8BoxArrayERKNS_19DistributionMappingEiRKNS_7IntVectERKNS_6MFInfoERKNS_10FabFactoryIS6_EE
FNDA:0,_ZN5amrex8FabArrayINS_7BaseFabIN5Model5Solid7Elastic28PseudoLinearCubicPredeformedEEEEC2ERKNS_8BoxArrayERKNS_19DistributionMappingEiRKNS_7IntVectERKNS_6MFInfoERKNS_10FabFactoryIS6_EE
FN:1841,_ZN5amrex8FabArrayINS_7BaseFabIN5Eigen6MatrixIdLi2ELi1ELi0ELi2ELi1EEEEEEC2ERKNS_8BoxArrayERKNS_19DistributionMappingEiRKNS_7IntVectERKNS_6MFInfoERKNS_10FabFactoryIS5_EE
FNDA:0,_ZN5amrex8FabArrayINS_7BaseFabIN5Eigen6MatrixIdLi2ELi1ELi0ELi2ELi1EEEEEEC2ERKNS_8BoxArrayERKNS_19DistributionMappingEiRKNS_7IntVectERKNS_6MFInfoERKNS_10FabFactoryIS5_EE
FN:1841,_ZN5amrex8FabArrayINS_7BaseFabIN5Model5Solid6Affine9HexagonalEEEEC2ERKNS_8BoxArrayERKNS_19DistributionMappingEiRKNS_7IntVectERKNS_6MFInfoERKNS_10FabFactoryIS6_EE
FNDA:0,_ZN5amrex8FabArrayINS_7BaseFabIN5Model5Solid6Affine9HexagonalEEEEC2ERKNS_8BoxArrayERKNS_19DistributionMappingEiRKNS_7IntVectERKNS_6MFInfoERKNS_10FabFactoryIS6_EE
FN:1841,_ZN5amrex8FabArrayINS_7BaseFabIN5Model5Solid6Linear9LaplacianEEEEC2ERKNS_8BoxArrayERKNS_19DistributionMappingEiRKNS_7IntVectERKNS_6MFInfoERKNS_10FabFactoryIS6_EE
FNDA:1,_ZN5amrex8FabArrayINS_7BaseFabIN5Model5Solid6Linear9LaplacianEEEEC2ERKNS_8BoxArrayERKNS_19DistributionMappingEiRKNS_7IntVectERKNS_6MFInfoERKNS_10FabFactoryIS6_EE
FN:1841,_ZN5amrex8FabArrayINS_7BaseFabIN5Model5Solid6Linear19IsotropicDegradableEEEEC2ERKNS_8BoxArrayERKNS_19DistributionMappingEiRKNS_7IntVectERKNS_6MFInfoERKNS_10FabFactoryIS6_EE
FNDA:0,_ZN5amrex8FabArrayINS_7BaseFabIN5Model5Solid6Linear19IsotropicDegradableEEEEC2ERKNS_8BoxArrayERKNS_19DistributionMappingEiRKNS_7IntVectERKNS_6MFInfoERKNS_10FabFactoryIS6_EE
FN:1841,_ZN5amrex8FabArrayINS_7BaseFabIN5Model5Solid6Linear5CubicEEEEC2ERKNS_8BoxArrayERKNS_19DistributionMappingEiRKNS_7IntVectERKNS_6MFInfoERKNS_10FabFactoryIS6_EE
FNDA:0,_ZN5amrex8FabArrayINS_7BaseFabIN5Model5Solid6Linear5CubicEEEEC2ERKNS_8BoxArrayERKNS_19DistributionMappingEiRKNS_7IntVectERKNS_6MFInfoERKNS_10FabFactoryIS6_EE
FN:1841,_ZN5amrex8FabArrayINS_7BaseFabIN5Model5Solid6Affine2J2EEEEC2ERKNS_8BoxArrayERKNS_19DistributionMappingEiRKNS_7IntVectERKNS_6MFInfoERKNS_10FabFactoryIS6_EE
FNDA:4,_ZN5amrex8FabArrayINS_7BaseFabIN5Model5Solid6Affine2J2EEEEC2ERKNS_8BoxArrayERKNS_19DistributionMappingEiRKNS_7IntVectERKNS_6MFInfoERKNS_10FabFactoryIS6_EE
FN:1841,_ZN5amrex8FabArrayINS_7BaseFabIN3Set7Matrix4ILi2ELi3EEEEEEC2ERKNS_8BoxArrayERKNS_19DistributionMappingEiRKNS_7IntVectERKNS_6MFInfoERKNS_10FabFactoryIS5_EE
FNDA:0,_ZN5amrex8FabArrayINS_7BaseFabIN3Set7Matrix4ILi2ELi3EEEEEEC2ERKNS_8BoxArrayERKNS_19DistributionMappingEiRKNS_7IntVectERKNS_6MFInfoERKNS_10FabFactoryIS5_EE
FN:1841,_ZN5amrex8FabArrayINS_7BaseFabIN5Model5Solid6Linear9IsotropicEEEEC2ERKNS_8BoxArrayERKNS_19DistributionMappingEiRKNS_7IntVectERKNS_6MFInfoERKNS_10FabFactoryIS6_EE
FNDA:15,_ZN5amrex8FabArrayINS_7BaseFabIN5Model5Solid6Linear9IsotropicEEEEC2ERKNS_8BoxArrayERKNS_19DistributionMappingEiRKNS_7IntVectERKNS_6MFInfoERKNS_10FabFactoryIS6_EE
FN:1841,_ZN5amrex8FabArrayINS_7BaseFabIN5Eigen6MatrixIdLi2ELi2ELi0ELi2ELi2EEEEEEC2ERKNS_8BoxArrayERKNS_19DistributionMappingEiRKNS_7IntVectERKNS_6MFInfoERKNS_10FabFactoryIS5_EE
FNDA:0,_ZN5amrex8FabArrayINS_7BaseFabIN5Eigen6MatrixIdLi2ELi2ELi0ELi2ELi2EEEEEEC2ERKNS_8BoxArrayERKNS_19DistributionMappingEiRKNS_7IntVectERKNS_6MFInfoERKNS_10FabFactoryIS5_EE
FN:1841,_ZN5amrex8FabArrayINS_7BaseFabIN3Set7Matrix4ILi2ELi6EEEEEEC2ERKNS_8BoxArrayERKNS_19DistributionMappingEiRKNS_7IntVectERKNS_6MFInfoERKNS_10FabFactoryIS5_EE
FNDA:0,_ZN5amrex8FabArrayINS_7BaseFabIN3Set7Matrix4ILi2ELi6EEEEEEC2ERKNS_8BoxArrayERKNS_19DistributionMappingEiRKNS_7IntVectERKNS_6MFInfoERKNS_10FabFactoryIS5_EE
FN:1841,_ZN5amrex8FabArrayINS_7BaseFabIN5Model5Solid7Elastic10NeoHookeanEEEEC2ERKNS_8BoxArrayERKNS_19DistributionMappingEiRKNS_7IntVectERKNS_6MFInfoERKNS_10FabFactoryIS6_EE
FNDA:10,_ZN5amrex8FabArrayINS_7BaseFabIN5Model5Solid7Elastic10NeoHookeanEEEEC2ERKNS_8BoxArrayERKNS_19DistributionMappingEiRKNS_7IntVectERKNS_6MFInfoERKNS_10FabFactoryIS6_EE
FN:1877,_ZN5amrex8FabArrayINS_7BaseFabIN5Model5Solid7Elastic10NeoHookeanEEEEC2EOS7_
FNDA:1,_ZN5amrex8FabArrayINS_7BaseFabIN5Model5Solid7Elastic10NeoHookeanEEEEC2EOS7_
FN:1877,_ZN5amrex8FabArrayINS_7BaseFabIN5Model5Solid6Linear5CubicEEEEC2EOS7_
FNDA:0,_ZN5amrex8FabArrayINS_7BaseFabIN5Model5Solid6Linear5CubicEEEEC2EOS7_
FN:1877,_ZN5amrex8FabArrayINS_7BaseFabIN5Model5Solid6Affine9IsotropicEEEEC2EOS7_
FNDA:0,_ZN5amrex8FabArrayINS_7BaseFabIN5Model5Solid6Affine9IsotropicEEEEC2EOS7_
FN:1877,_ZN5amrex8FabArrayINS_7BaseFabIN5Model5Solid7Elastic17PseudoLinearCubicEEEEC2EOS7_
FNDA:0,_ZN5amrex8FabArrayINS_7BaseFabIN5Model5Solid7Elastic17PseudoLinearCubicEEEEC2EOS7_
FN:1877,_ZN5amrex8FabArrayINS_7BaseFabIN5Eigen6MatrixIdLi2ELi1ELi0ELi2ELi1EEEEEEC2EOS6_
FNDA:0,_ZN5amrex8FabArrayINS_7BaseFabIN5Eigen6MatrixIdLi2ELi1ELi0ELi2ELi1EEEEEEC2EOS6_
FN:1877,_ZN5amrex8FabArrayINS_7BaseFabIN5Model5Solid6Affine5CubicEEEEC2EOS7_
FNDA:0,_ZN5amrex8FabArrayINS_7BaseFabIN5Model5Solid6Affine5CubicEEEEC2EOS7_
FN:1877,_ZN5amrex8FabArrayINS_7BaseFabIN5Model5Solid6Linear9IsotropicEEEEC2EOS7_
FNDA:0,_ZN5amrex8FabArrayINS_7BaseFabIN5Model5Solid6Linear9IsotropicEEEEC2EOS7_
FN:1877,_ZN5amrex8FabArrayINS_7BaseFabIN5Model5Solid6Affine9HexagonalEEEEC2EOS7_
FNDA:0,_ZN5amrex8FabArrayINS_7BaseFabIN5Model5Solid6Affine9HexagonalEEEEC2EOS7_
FN:1877,_ZN5amrex8FabArrayINS_7BaseFabIN5Model5Solid7Elastic28PseudoLinearCubicPredeformedEEEEC2EOS7_
FNDA:0,_ZN5amrex8FabArrayINS_7BaseFabIN5Model5Solid7Elastic28PseudoLinearCubicPredeformedEEEEC2EOS7_
FN:1877,_ZN5amrex8FabArrayINS_7BaseFabIN5Eigen6MatrixIdLi2ELi2ELi0ELi2ELi2EEEEEEC2EOS6_
FNDA:0,_ZN5amrex8FabArrayINS_7BaseFabIN5Eigen6MatrixIdLi2ELi2ELi0ELi2ELi2EEEEEEC2EOS6_
FN:1877,_ZN5amrex8FabArrayINS_7BaseFabIN5Model5Solid6Linear9LaplacianEEEEC2EOS7_
FNDA:0,_ZN5amrex8FabArrayINS_7BaseFabIN5Model5Solid6Linear9LaplacianEEEEC2EOS7_
FN:1877,_ZN5amrex8FabArrayINS_7BaseFabIN5Model5Solid6Linear19IsotropicDegradableEEEEC2EOS7_
FNDA:0,_ZN5amrex8FabArrayINS_7BaseFabIN5Model5Solid6Linear19IsotropicDegradableEEEEC2EOS7_
FN:1877,_ZN5amrex8FabArrayINS_7BaseFabIN5Model5Solid6Affine2J2EEEEC2EOS7_
FNDA:0,_ZN5amrex8FabArrayINS_7BaseFabIN5Model5Solid6Affine2J2EEEEC2EOS7_
FN:1901,_ZN5amrex8FabArrayINS_7BaseFabIN5Model5Solid7Elastic17PseudoLinearCubicEEEEaSEOS7_
FNDA:0,_ZN5amrex8FabArrayINS_7BaseFabIN5Model5Solid7Elastic17PseudoLinearCubicEEEEaSEOS7_
FN:1901,_ZN5amrex8FabArrayINS_7BaseFabIN5Eigen6MatrixIdLi2ELi1ELi0ELi2ELi1EEEEEEaSEOS6_
FNDA:0,_ZN5amrex8FabArrayINS_7BaseFabIN5Eigen6MatrixIdLi2ELi1ELi0ELi2ELi1EEEEEEaSEOS6_
FN:1901,_ZN5amrex8FabArrayINS_7BaseFabIN5Eigen6MatrixIdLi2ELi2ELi0ELi2ELi2EEEEEEaSEOS6_
FNDA:0,_ZN5amrex8FabArrayINS_7BaseFabIN5Eigen6MatrixIdLi2ELi2ELi0ELi2ELi2EEEEEEaSEOS6_
FN:1901,_ZN5amrex8FabArrayINS_7BaseFabIN5Model5Solid6Linear5CubicEEEEaSEOS7_
FNDA:0,_ZN5amrex8FabArrayINS_7BaseFabIN5Model5Solid6Linear5CubicEEEEaSEOS7_
FN:1901,_ZN5amrex8FabArrayINS_7BaseFabIN5Model5Solid7Elastic10NeoHookeanEEEEaSEOS7_
FNDA:2,_ZN5amrex8FabArrayINS_7BaseFabIN5Model5Solid7Elastic10NeoHookeanEEEEaSEOS7_
FN:1901,_ZN5amrex8FabArrayINS_7BaseFabIN5Model5Solid6Affine5CubicEEEEaSEOS7_
FNDA:0,_ZN5amrex8FabArrayINS_7BaseFabIN5Model5Solid6Affine5CubicEEEEaSEOS7_
FN:1901,_ZN5amrex8FabArrayINS_7BaseFabIN5Model5Solid6Linear19IsotropicDegradableEEEEaSEOS7_
FNDA:0,_ZN5amrex8FabArrayINS_7BaseFabIN5Model5Solid6Linear19IsotropicDegradableEEEEaSEOS7_
FN:1901,_ZN5amrex8FabArrayINS_7BaseFabIN5Model5Solid6Affine9IsotropicEEEEaSEOS7_
FNDA:0,_ZN5amrex8FabArrayINS_7BaseFabIN5Model5Solid6Affine9IsotropicEEEEaSEOS7_
FN:1901,_ZN5amrex8FabArrayINS_9FArrayBoxEEaSEOS2_
FNDA:0,_ZN5amrex8FabArrayINS_9FArrayBoxEEaSEOS2_
FN:1901,_ZN5amrex8FabArrayINS_7BaseFabIN5Model5Solid7Elastic28PseudoLinearCubicPredeformedEEEEaSEOS7_
FNDA:0,_ZN5amrex8FabArrayINS_7BaseFabIN5Model5Solid7Elastic28PseudoLinearCubicPredeformedEEEEaSEOS7_
FN:1901,_ZN5amrex8FabArrayINS_7BaseFabIN5Model5Solid6Linear9LaplacianEEEEaSEOS7_
FNDA:0,_ZN5amrex8FabArrayINS_7BaseFabIN5Model5Solid6Linear9LaplacianEEEEaSEOS7_
FN:1901,_ZN5amrex8FabArrayINS_7BaseFabIN5Model5Solid6Affine9HexagonalEEEEaSEOS7_
FNDA:0,_ZN5amrex8FabArrayINS_7BaseFabIN5Model5Solid6Affine9HexagonalEEEEaSEOS7_
FN:1901,_ZN5amrex8FabArrayINS_7BaseFabIN5Model5Solid6Affine2J2EEEEaSEOS7_
FNDA:0,_ZN5amrex8FabArrayINS_7BaseFabIN5Model5Solid6Affine2J2EEEEaSEOS7_
FN:1901,_ZN5amrex8FabArrayINS_7BaseFabIN5Model5Solid6Linear9IsotropicEEEEaSEOS7_
FNDA:0,_ZN5amrex8FabArrayINS_7BaseFabIN5Model5Solid6Linear9IsotropicEEEEaSEOS7_
FN:1930,_ZN5amrex8FabArrayINS_7BaseFabIN5Model5Solid6Affine5CubicEEEED2Ev
FNDA:0,_ZN5amrex8FabArrayINS_7BaseFabIN5Model5Solid6Affine5CubicEEEED2Ev
FN:1930,_ZN5amrex8FabArrayINS_7BaseFabIN3Set7Matrix4ILi2ELi3EEEEEED2Ev
FNDA:0,_ZN5amrex8FabArrayINS_7BaseFabIN3Set7Matrix4ILi2ELi3EEEEEED2Ev
FN:1930,_ZN5amrex8FabArrayINS_7BaseFabIN5Eigen6MatrixIdLi2ELi1ELi0ELi2ELi1EEEEEED2Ev
FNDA:0,_ZN5amrex8FabArrayINS_7BaseFabIN5Eigen6MatrixIdLi2ELi1ELi0ELi2ELi1EEEEEED2Ev
FN:1930,_ZN5amrex8FabArrayINS_7BaseFabIN5Model5Solid6Linear9LaplacianEEEED2Ev
FNDA:1,_ZN5amrex8FabArrayINS_7BaseFabIN5Model5Solid6Linear9LaplacianEEEED2Ev
FN:1930,_ZN5amrex8FabArrayINS_7BaseFabIN5Model5Solid6Affine9HexagonalEEEED2Ev
FNDA:0,_ZN5amrex8FabArrayINS_7BaseFabIN5Model5Solid6Affine9HexagonalEEEED2Ev
FN:1930,_ZN5amrex8FabArrayINS_7BaseFabIN5Model5Solid6Linear9IsotropicEEEED2Ev
FNDA:17,_ZN5amrex8FabArrayINS_7BaseFabIN5Model5Solid6Linear9IsotropicEEEED2Ev
FN:1930,_ZN5amrex8FabArrayINS_7BaseFabIN5Model5Solid6Linear5CubicEEEED2Ev
FNDA:0,_ZN5amrex8FabArrayINS_7BaseFabIN5Model5Solid6Linear5CubicEEEED2Ev
FN:1930,_ZN5amrex8FabArrayINS_7BaseFabIN5Model5Solid6Affine2J2EEEED2Ev
FNDA:7,_ZN5amrex8FabArrayINS_7BaseFabIN5Model5Solid6Affine2J2EEEED2Ev
FN:1930,_ZN5amrex8FabArrayINS_7BaseFabIN5Model5Solid7Elastic28PseudoLinearCubicPredeformedEEEED2Ev
FNDA:0,_ZN5amrex8FabArrayINS_7BaseFabIN5Model5Solid7Elastic28PseudoLinearCubicPredeformedEEEED2Ev
FN:1930,_ZN5amrex8FabArrayINS_7BaseFabIN5Model5Solid7Elastic17PseudoLinearCubicEEEED2Ev
FNDA:0,_ZN5amrex8FabArrayINS_7BaseFabIN5Model5Solid7Elastic17PseudoLinearCubicEEEED2Ev
FN:1930,_ZN5amrex8FabArrayINS_7BaseFabIN5Model5Solid7Elastic10NeoHookeanEEEED2Ev
FNDA:11,_ZN5amrex8FabArrayINS_7BaseFabIN5Model5Solid7Elastic10NeoHookeanEEEED2Ev
FN:1930,_ZN5amrex8FabArrayINS_7BaseFabIN3Set7Matrix4ILi2ELi4EEEEEED2Ev
FNDA:0,_ZN5amrex8FabArrayINS_7BaseFabIN3Set7Matrix4ILi2ELi4EEEEEED2Ev
FN:1930,_ZN5amrex8FabArrayINS_7BaseFabIN3Set7Matrix4ILi2ELi1EEEEEED2Ev
FNDA:0,_ZN5amrex8FabArrayINS_7BaseFabIN3Set7Matrix4ILi2ELi1EEEEEED2Ev
FN:1930,_ZN5amrex8FabArrayINS_7BaseFabIN3Set7Matrix4ILi2ELi6EEEEEED2Ev
FNDA:0,_ZN5amrex8FabArrayINS_7BaseFabIN3Set7Matrix4ILi2ELi6EEEEEED2Ev
FN:1930,_ZN5amrex8FabArrayINS_9IArrayBoxEED2Ev
FNDA:0,_ZN5amrex8FabArrayINS_9IArrayBoxEED2Ev
FN:1930,_ZN5amrex8FabArrayINS_7BaseFabIN5Model5Solid6Affine9IsotropicEEEED2Ev
FNDA:0,_ZN5amrex8FabArrayINS_7BaseFabIN5Model5Solid6Affine9IsotropicEEEED2Ev
FN:1930,_ZN5amrex8FabArrayINS_7BaseFabIN5Eigen6MatrixIdLi2ELi2ELi0ELi2ELi2EEEEEED2Ev
FNDA:0,_ZN5amrex8FabArrayINS_7BaseFabIN5Eigen6MatrixIdLi2ELi2ELi0ELi2ELi2EEEEEED2Ev
FN:1930,_ZN5amrex8FabArrayINS_7BaseFabIN5Model5Solid6Linear19IsotropicDegradableEEEED2Ev
FNDA:0,_ZN5amrex8FabArrayINS_7BaseFabIN5Model5Solid6Linear19IsotropicDegradableEEEED2Ev
FN:1973,_ZN5amrex8FabArrayINS_7BaseFabIN5Model5Solid6Affine9HexagonalEEEE6defineERKNS_8BoxArrayERKNS_19DistributionMappingEiiRKNS_6MFInfoERKNS_10FabFactoryIS6_EE
FNDA:0,_ZN5amrex8FabArrayINS_7BaseFabIN5Model5Solid6Affine9HexagonalEEEE6defineERKNS_8BoxArrayERKNS_19DistributionMappingEiiRKNS_6MFInfoERKNS_10FabFactoryIS6_EE
FN:1973,_ZN5amrex8FabArrayINS_7BaseFabIN5Model5Solid6Linear9LaplacianEEEE6defineERKNS_8BoxArrayERKNS_19DistributionMappingEiiRKNS_6MFInfoERKNS_10FabFactoryIS6_EE
FNDA:0,_ZN5amrex8FabArrayINS_7BaseFabIN5Model5Solid6Linear9LaplacianEEEE6defineERKNS_8BoxArrayERKNS_19DistributionMappingEiiRKNS_6MFInfoERKNS_10FabFactoryIS6_EE
FN:1973,_ZN5amrex8FabArrayINS_7BaseFabIN5Model5Solid6Linear9IsotropicEEEE6defineERKNS_8BoxArrayERKNS_19DistributionMappingEiiRKNS_6MFInfoERKNS_10FabFactoryIS6_EE
FNDA:2,_ZN5amrex8FabArrayINS_7BaseFabIN5Model5Solid6Linear9IsotropicEEEE6defineERKNS_8BoxArrayERKNS_19DistributionMappingEiiRKNS_6MFInfoERKNS_10FabFactoryIS6_EE
FN:1973,_ZN5amrex8FabArrayINS_7BaseFabIN5Model5Solid6Affine2J2EEEE6defineERKNS_8BoxArrayERKNS_19DistributionMappingEiiRKNS_6MFInfoERKNS_10FabFactoryIS6_EE
FNDA:3,_ZN5amrex8FabArrayINS_7BaseFabIN5Model5Solid6Affine2J2EEEE6defineERKNS_8BoxArrayERKNS_19DistributionMappingEiiRKNS_6MFInfoERKNS_10FabFactoryIS6_EE
FN:1973,_ZN5amrex8FabArrayINS_7BaseFabIN5Model5Solid6Affine9IsotropicEEEE6defineERKNS_8BoxArrayERKNS_19DistributionMappingEiiRKNS_6MFInfoERKNS_10FabFactoryIS6_EE
FNDA:0,_ZN5amrex8FabArrayINS_7BaseFabIN5Model5Solid6Affine9IsotropicEEEE6defineERKNS_8BoxArrayERKNS_19DistributionMappingEiiRKNS_6MFInfoERKNS_10FabFactoryIS6_EE
FN:1973,_ZN5amrex8FabArrayINS_7BaseFabIN5Model5Solid7Elastic10NeoHookeanEEEE6defineERKNS_8BoxArrayERKNS_19DistributionMappingEiiRKNS_6MFInfoERKNS_10FabFactoryIS6_EE
FNDA:0,_ZN5amrex8FabArrayINS_7BaseFabIN5Model5Solid7Elastic10NeoHookeanEEEE6defineERKNS_8BoxArrayERKNS_19DistributionMappingEiiRKNS_6MFInfoERKNS_10FabFactoryIS6_EE
FN:1973,_ZN5amrex8FabArrayINS_7BaseFabIN5Eigen6MatrixIdLi2ELi2ELi0ELi2ELi2EEEEEE6defineERKNS_8BoxArrayERKNS_19DistributionMappingEiiRKNS_6MFInfoERKNS_10FabFactoryIS5_EE
FNDA:0,_ZN5amrex8FabArrayINS_7BaseFabIN5Eigen6MatrixIdLi2ELi2ELi0ELi2ELi2EEEEEE6defineERKNS_8BoxArrayERKNS_19DistributionMappingEiiRKNS_6MFInfoERKNS_10FabFactoryIS5_EE
FN:1973,_ZN5amrex8FabArrayINS_7BaseFabIN5Model5Solid6Affine5CubicEEEE6defineERKNS_8BoxArrayERKNS_19DistributionMappingEiiRKNS_6MFInfoERKNS_10FabFactoryIS6_EE
FNDA:0,_ZN5amrex8FabArrayINS_7BaseFabIN5Model5Solid6Affine5CubicEEEE6defineERKNS_8BoxArrayERKNS_19DistributionMappingEiiRKNS_6MFInfoERKNS_10FabFactoryIS6_EE
FN:1973,_ZN5amrex8FabArrayINS_7BaseFabIN5Model5Solid6Linear5CubicEEEE6defineERKNS_8BoxArrayERKNS_19DistributionMappingEiiRKNS_6MFInfoERKNS_10FabFactoryIS6_EE
FNDA:0,_ZN5amrex8FabArrayINS_7BaseFabIN5Model5Solid6Linear5CubicEEEE6defineERKNS_8BoxArrayERKNS_19DistributionMappingEiiRKNS_6MFInfoERKNS_10FabFactoryIS6_EE
FN:1973,_ZN5amrex8FabArrayINS_7BaseFabIN5Model5Solid7Elastic17PseudoLinearCubicEEEE6defineERKNS_8BoxArrayERKNS_19DistributionMappingEiiRKNS_6MFInfoERKNS_10FabFactoryIS6_EE
FNDA:0,_ZN5amrex8FabArrayINS_7BaseFabIN5Model5Solid7Elastic17PseudoLinearCubicEEEE6defineERKNS_8BoxArrayERKNS_19DistributionMappingEiiRKNS_6MFInfoERKNS_10FabFactoryIS6_EE
FN:1973,_ZN5amrex8FabArrayINS_7BaseFabIN5Eigen6MatrixIdLi2ELi1ELi0ELi2ELi1EEEEEE6defineERKNS_8BoxArrayERKNS_19DistributionMappingEiiRKNS_6MFInfoERKNS_10FabFactoryIS5_EE
FNDA:0,_ZN5amrex8FabArrayINS_7BaseFabIN5Eigen6MatrixIdLi2ELi1ELi0ELi2ELi1EEEEEE6defineERKNS_8BoxArrayERKNS_19DistributionMappingEiiRKNS_6MFInfoERKNS_10FabFactoryIS5_EE
FN:1973,_ZN5amrex8FabArrayINS_7BaseFabIN5Model5Solid6Linear19IsotropicDegradableEEEE6defineERKNS_8BoxArrayERKNS_19DistributionMappingEiiRKNS_6MFInfoERKNS_10FabFactoryIS6_EE
FNDA:0,_ZN5amrex8FabArrayINS_7BaseFabIN5Model5Solid6Linear19IsotropicDegradableEEEE6defineERKNS_8BoxArrayERKNS_19DistributionMappingEiiRKNS_6MFInfoERKNS_10FabFactoryIS6_EE
FN:1973,_ZN5amrex8FabArrayINS_7BaseFabIN5Model5Solid7Elastic28PseudoLinearCubicPredeformedEEEE6defineERKNS_8BoxArrayERKNS_19DistributionMappingEiiRKNS_6MFInfoERKNS_10FabFactoryIS6_EE
FNDA:0,_ZN5amrex8FabArrayINS_7BaseFabIN5Model5Solid7Elastic28PseudoLinearCubicPredeformedEEEE6defineERKNS_8BoxArrayERKNS_19DistributionMappingEiiRKNS_6MFInfoERKNS_10FabFactoryIS6_EE
FN:1985,_ZN5amrex8FabArrayINS_7BaseFabIN5Model5Solid6Affine2J2EEEE6defineERKNS_8BoxArrayERKNS_19DistributionMappingEiRKNS_7IntVectERKNS_6MFInfoERKNS_10FabFactoryIS6_EE
FNDA:7,_ZN5amrex8FabArrayINS_7BaseFabIN5Model5Solid6Affine2J2EEEE6defineERKNS_8BoxArrayERKNS_19DistributionMappingEiRKNS_7IntVectERKNS_6MFInfoERKNS_10FabFactoryIS6_EE
FN:1985,_ZN5amrex8FabArrayINS_7BaseFabIN5Model5Solid7Elastic28PseudoLinearCubicPredeformedEEEE6defineERKNS_8BoxArrayERKNS_19DistributionMappingEiRKNS_7IntVectERKNS_6MFInfoERKNS_10FabFactoryIS6_EE
FNDA:0,_ZN5amrex8FabArrayINS_7BaseFabIN5Model5Solid7Elastic28PseudoLinearCubicPredeformedEEEE6defineERKNS_8BoxArrayERKNS_19DistributionMappingEiRKNS_7IntVectERKNS_6MFInfoERKNS_10FabFactoryIS6_EE
FN:1985,_ZN5amrex8FabArrayINS_7BaseFabIN3Set7Matrix4ILi2ELi3EEEEEE6defineERKNS_8BoxArrayERKNS_19DistributionMappingEiRKNS_7IntVectERKNS_6MFInfoERKNS_10FabFactoryIS5_EE
FNDA:0,_ZN5amrex8FabArrayINS_7BaseFabIN3Set7Matrix4ILi2ELi3EEEEEE6defineERKNS_8BoxArrayERKNS_19DistributionMappingEiRKNS_7IntVectERKNS_6MFInfoERKNS_10FabFactoryIS5_EE
FN:1985,_ZN5amrex8FabArrayINS_7BaseFabIN5Eigen6MatrixIdLi2ELi2ELi0ELi2ELi2EEEEEE6defineERKNS_8BoxArrayERKNS_19DistributionMappingEiRKNS_7IntVectERKNS_6MFInfoERKNS_10FabFactoryIS5_EE
FNDA:0,_ZN5amrex8FabArrayINS_7BaseFabIN5Eigen6MatrixIdLi2ELi2ELi0ELi2ELi2EEEEEE6defineERKNS_8BoxArrayERKNS_19DistributionMappingEiRKNS_7IntVectERKNS_6MFInfoERKNS_10FabFactoryIS5_EE
FN:1985,_ZN5amrex8FabArrayINS_7BaseFabIN5Model5Solid7Elastic10NeoHookeanEEEE6defineERKNS_8BoxArrayERKNS_19DistributionMappingEiRKNS_7IntVectERKNS_6MFInfoERKNS_10FabFactoryIS6_EE
FNDA:10,_ZN5amrex8FabArrayINS_7BaseFabIN5Model5Solid7Elastic10NeoHookeanEEEE6defineERKNS_8BoxArrayERKNS_19DistributionMappingEiRKNS_7IntVectERKNS_6MFInfoERKNS_10FabFactoryIS6_EE
FN:1985,_ZN5amrex8FabArrayINS_7BaseFabIN5Model5Solid6Linear19IsotropicDegradableEEEE6defineERKNS_8BoxArrayERKNS_19DistributionMappingEiRKNS_7IntVectERKNS_6MFInfoERKNS_10FabFactoryIS6_EE
FNDA:0,_ZN5amrex8FabArrayINS_7BaseFabIN5Model5Solid6Linear19IsotropicDegradableEEEE6defineERKNS_8BoxArrayERKNS_19DistributionMappingEiRKNS_7IntVectERKNS_6MFInfoERKNS_10FabFactoryIS6_EE
FN:1985,_ZN5amrex8FabArrayINS_7BaseFabIN5Eigen6MatrixIdLi2ELi1ELi0ELi2ELi1EEEEEE6defineERKNS_8BoxArrayERKNS_19DistributionMappingEiRKNS_7IntVectERKNS_6MFInfoERKNS_10FabFactoryIS5_EE
FNDA:0,_ZN5amrex8FabArrayINS_7BaseFabIN5Eigen6MatrixIdLi2ELi1ELi0ELi2ELi1EEEEEE6defineERKNS_8BoxArrayERKNS_19DistributionMappingEiRKNS_7IntVectERKNS_6MFInfoERKNS_10FabFactoryIS5_EE
FN:1985,_ZN5amrex8FabArrayINS_7BaseFabIN5Model5Solid6Linear9LaplacianEEEE6defineERKNS_8BoxArrayERKNS_19DistributionMappingEiRKNS_7IntVectERKNS_6MFInfoERKNS_10FabFactoryIS6_EE
FNDA:1,_ZN5amrex8FabArrayINS_7BaseFabIN5Model5Solid6Linear9LaplacianEEEE6defineERKNS_8BoxArrayERKNS_19DistributionMappingEiRKNS_7IntVectERKNS_6MFInfoERKNS_10FabFactoryIS6_EE
FN:1985,_ZN5amrex8FabArrayINS_7BaseFabIN5Model5Solid6Linear5CubicEEEE6defineERKNS_8BoxArrayERKNS_19DistributionMappingEiRKNS_7IntVectERKNS_6MFInfoERKNS_10FabFactoryIS6_EE
FNDA:0,_ZN5amrex8FabArrayINS_7BaseFabIN5Model5Solid6Linear5CubicEEEE6defineERKNS_8BoxArrayERKNS_19DistributionMappingEiRKNS_7IntVectERKNS_6MFInfoERKNS_10FabFactoryIS6_EE
FN:1985,_ZN5amrex8FabArrayINS_7BaseFabIN5Model5Solid6Affine9IsotropicEEEE6defineERKNS_8BoxArrayERKNS_19DistributionMappingEiRKNS_7IntVectERKNS_6MFInfoERKNS_10FabFactoryIS6_EE
FNDA:0,_ZN5amrex8FabArrayINS_7BaseFabIN5Model5Solid6Affine9IsotropicEEEE6defineERKNS_8BoxArrayERKNS_19DistributionMappingEiRKNS_7IntVectERKNS_6MFInfoERKNS_10FabFactoryIS6_EE
FN:1985,_ZN5amrex8FabArrayINS_7BaseFabIN3Set7Matrix4ILi2ELi4EEEEEE6defineERKNS_8BoxArrayERKNS_19DistributionMappingEiRKNS_7IntVectERKNS_6MFInfoERKNS_10FabFactoryIS5_EE
FNDA:0,_ZN5amrex8FabArrayINS_7BaseFabIN3Set7Matrix4ILi2ELi4EEEEEE6defineERKNS_8BoxArrayERKNS_19DistributionMappingEiRKNS_7IntVectERKNS_6MFInfoERKNS_10FabFactoryIS5_EE
FN:1985,_ZN5amrex8FabArrayINS_7BaseFabIN5Model5Solid6Affine9HexagonalEEEE6defineERKNS_8BoxArrayERKNS_19DistributionMappingEiRKNS_7IntVectERKNS_6MFInfoERKNS_10FabFactoryIS6_EE
FNDA:0,_ZN5amrex8FabArrayINS_7BaseFabIN5Model5Solid6Affine9HexagonalEEEE6defineERKNS_8BoxArrayERKNS_19DistributionMappingEiRKNS_7IntVectERKNS_6MFInfoERKNS_10FabFactoryIS6_EE
FN:1985,_ZN5amrex8FabArrayINS_7BaseFabIN5Model5Solid7Elastic17PseudoLinearCubicEEEE6defineERKNS_8BoxArrayERKNS_19DistributionMappingEiRKNS_7IntVectERKNS_6MFInfoERKNS_10FabFactoryIS6_EE
FNDA:0,_ZN5amrex8FabArrayINS_7BaseFabIN5Model5Solid7Elastic17PseudoLinearCubicEEEE6defineERKNS_8BoxArrayERKNS_19DistributionMappingEiRKNS_7IntVectERKNS_6MFInfoERKNS_10FabFactoryIS6_EE
FN:1985,_ZN5amrex8FabArrayINS_7BaseFabIN5Model5Solid6Affine5CubicEEEE6defineERKNS_8BoxArrayERKNS_19DistributionMappingEiRKNS_7IntVectERKNS_6MFInfoERKNS_10FabFactoryIS6_EE
FNDA:0,_ZN5amrex8FabArrayINS_7BaseFabIN5Model5Solid6Affine5CubicEEEE6defineERKNS_8BoxArrayERKNS_19DistributionMappingEiRKNS_7IntVectERKNS_6MFInfoERKNS_10FabFactoryIS6_EE
FN:1985,_ZN5amrex8FabArrayINS_7BaseFabIN3Set7Matrix4ILi2ELi6EEEEEE6defineERKNS_8BoxArrayERKNS_19DistributionMappingEiRKNS_7IntVectERKNS_6MFInfoERKNS_10FabFactoryIS5_EE
FNDA:0,_ZN5amrex8FabArrayINS_7BaseFabIN3Set7Matrix4ILi2ELi6EEEEEE6defineERKNS_8BoxArrayERKNS_19DistributionMappingEiRKNS_7IntVectERKNS_6MFInfoERKNS_10FabFactoryIS5_EE
FN:1985,_ZN5amrex8FabArrayINS_7BaseFabIN5Model5Solid6Linear9IsotropicEEEE6defineERKNS_8BoxArrayERKNS_19DistributionMappingEiRKNS_7IntVectERKNS_6MFInfoERKNS_10FabFactoryIS6_EE
FNDA:17,_ZN5amrex8FabArrayINS_7BaseFabIN5Model5Solid6Linear9IsotropicEEEE6defineERKNS_8BoxArrayERKNS_19DistributionMappingEiRKNS_7IntVectERKNS_6MFInfoERKNS_10FabFactoryIS6_EE
FN:1985,_ZN5amrex8FabArrayINS_7BaseFabIN3Set7Matrix4ILi2ELi1EEEEEE6defineERKNS_8BoxArrayERKNS_19DistributionMappingEiRKNS_7IntVectERKNS_6MFInfoERKNS_10FabFactoryIS5_EE
FNDA:0,_ZN5amrex8FabArrayINS_7BaseFabIN3Set7Matrix4ILi2ELi1EEEEEE6defineERKNS_8BoxArrayERKNS_19DistributionMappingEiRKNS_7IntVectERKNS_6MFInfoERKNS_10FabFactoryIS5_EE
FN:2018,_ZN5amrex8FabArrayINS_7BaseFabIN5Model5Solid6Affine2J2EEEE9AllocFabsERKNS_10FabFactoryIS6_EEPNS_5ArenaERKNS_6VectorINSt7__cxx1112basic_stringIcSt11char_traitsIcESaIcEEESaISK_EEE
FNDA:7,_ZN5amrex8FabArrayINS_7BaseFabIN5Model5Solid6Affine2J2EEEE9AllocFabsERKNS_10FabFactoryIS6_EEPNS_5ArenaERKNS_6VectorINSt7__cxx1112basic_stringIcSt11char_traitsIcESaIcEEESaISK_EEE
FN:2018,_ZN5amrex8FabArrayINS_7BaseFabIN5Model5Solid6Affine9HexagonalEEEE9AllocFabsERKNS_10FabFactoryIS6_EEPNS_5ArenaERKNS_6VectorINSt7__cxx1112basic_stringIcSt11char_traitsIcESaIcEEESaISK_EEE
FNDA:0,_ZN5amrex8FabArrayINS_7BaseFabIN5Model5Solid6Affine9HexagonalEEEE9AllocFabsERKNS_10FabFactoryIS6_EEPNS_5ArenaERKNS_6VectorINSt7__cxx1112basic_stringIcSt11char_traitsIcESaIcEEESaISK_EEE
FN:2018,_ZN5amrex8FabArrayINS_7BaseFabIN5Eigen6MatrixIdLi2ELi2ELi0ELi2ELi2EEEEEE9AllocFabsERKNS_10FabFactoryIS5_EEPNS_5ArenaERKNS_6VectorINSt7__cxx1112basic_stringIcSt11char_traitsIcESaIcEEESaISJ_EEE
FNDA:0,_ZN5amrex8FabArrayINS_7BaseFabIN5Eigen6MatrixIdLi2ELi2ELi0ELi2ELi2EEEEEE9AllocFabsERKNS_10FabFactoryIS5_EEPNS_5ArenaERKNS_6VectorINSt7__cxx1112basic_stringIcSt11char_traitsIcESaIcEEESaISJ_EEE
FN:2018,_ZN5amrex8FabArrayINS_7BaseFabIN3Set7Matrix4ILi2ELi6EEEEEE9AllocFabsERKNS_10FabFactoryIS5_EEPNS_5ArenaERKNS_6VectorINSt7__cxx1112basic_stringIcSt11char_traitsIcESaIcEEESaISJ_EEE
FNDA:0,_ZN5amrex8FabArrayINS_7BaseFabIN3Set7Matrix4ILi2ELi6EEEEEE9AllocFabsERKNS_10FabFactoryIS5_EEPNS_5ArenaERKNS_6VectorINSt7__cxx1112basic_stringIcSt11char_traitsIcESaIcEEESaISJ_EEE
FN:2018,_ZN5amrex8FabArrayINS_7BaseFabIN5Model5Solid7Elastic28PseudoLinearCubicPredeformedEEEE9AllocFabsERKNS_10FabFactoryIS6_EEPNS_5ArenaERKNS_6VectorINSt7__cxx1112basic_stringIcSt11char_traitsIcESaIcEEESaISK_EEE
FNDA:0,_ZN5amrex8FabArrayINS_7BaseFabIN5Model5Solid7Elastic28PseudoLinearCubicPredeformedEEEE9AllocFabsERKNS_10FabFactoryIS6_EEPNS_5ArenaERKNS_6VectorINSt7__cxx1112basic_stringIcSt11char_traitsIcESaIcEEESaISK_EEE
FN:2018,_ZN5amrex8FabArrayINS_7BaseFabIN3Set7Matrix4ILi2ELi4EEEEEE9AllocFabsERKNS_10FabFactoryIS5_EEPNS_5ArenaERKNS_6VectorINSt7__cxx1112basic_stringIcSt11char_traitsIcESaIcEEESaISJ_EEE
FNDA:0,_ZN5amrex8FabArrayINS_7BaseFabIN3Set7Matrix4ILi2ELi4EEEEEE9AllocFabsERKNS_10FabFactoryIS5_EEPNS_5ArenaERKNS_6VectorINSt7__cxx1112basic_stringIcSt11char_traitsIcESaIcEEESaISJ_EEE
FN:2018,_ZN5amrex8FabArrayINS_7BaseFabIN5Model5Solid7Elastic17PseudoLinearCubicEEEE9AllocFabsERKNS_10FabFactoryIS6_EEPNS_5ArenaERKNS_6VectorINSt7__cxx1112basic_stringIcSt11char_traitsIcESaIcEEESaISK_EEE
FNDA:0,_ZN5amrex8FabArrayINS_7BaseFabIN5Model5Solid7Elastic17PseudoLinearCubicEEEE9AllocFabsERKNS_10FabFactoryIS6_EEPNS_5ArenaERKNS_6VectorINSt7__cxx1112basic_stringIcSt11char_traitsIcESaIcEEESaISK_EEE
FN:2018,_ZN5amrex8FabArrayINS_7BaseFabIN3Set7Matrix4ILi2ELi3EEEEEE9AllocFabsERKNS_10FabFactoryIS5_EEPNS_5ArenaERKNS_6VectorINSt7__cxx1112basic_stringIcSt11char_traitsIcESaIcEEESaISJ_EEE
FNDA:0,_ZN5amrex8FabArrayINS_7BaseFabIN3Set7Matrix4ILi2ELi3EEEEEE9AllocFabsERKNS_10FabFactoryIS5_EEPNS_5ArenaERKNS_6VectorINSt7__cxx1112basic_stringIcSt11char_traitsIcESaIcEEESaISJ_EEE
FN:2018,_ZN5amrex8FabArrayINS_7BaseFabIN5Model5Solid6Affine5CubicEEEE9AllocFabsERKNS_10FabFactoryIS6_EEPNS_5ArenaERKNS_6VectorINSt7__cxx1112basic_stringIcSt11char_traitsIcESaIcEEESaISK_EEE
FNDA:0,_ZN5amrex8FabArrayINS_7BaseFabIN5Model5Solid6Affine5CubicEEEE9AllocFabsERKNS_10FabFactoryIS6_EEPNS_5ArenaERKNS_6VectorINSt7__cxx1112basic_stringIcSt11char_traitsIcESaIcEEESaISK_EEE
FN:2018,_ZN5amrex8FabArrayINS_7BaseFabIN5Model5Solid6Linear19IsotropicDegradableEEEE9AllocFabsERKNS_10FabFactoryIS6_EEPNS_5ArenaERKNS_6VectorINSt7__cxx1112basic_stringIcSt11char_traitsIcESaIcEEESaISK_EEE
FNDA:0,_ZN5amrex8FabArrayINS_7BaseFabIN5Model5Solid6Linear19IsotropicDegradableEEEE9AllocFabsERKNS_10FabFactoryIS6_EEPNS_5ArenaERKNS_6VectorINSt7__cxx1112basic_stringIcSt11char_traitsIcESaIcEEESaISK_EEE
FN:2018,_ZN5amrex8FabArrayINS_7BaseFabIN5Eigen6MatrixIdLi2ELi1ELi0ELi2ELi1EEEEEE9AllocFabsERKNS_10FabFactoryIS5_EEPNS_5ArenaERKNS_6VectorINSt7__cxx1112basic_stringIcSt11char_traitsIcESaIcEEESaISJ_EEE
FNDA:0,_ZN5amrex8FabArrayINS_7BaseFabIN5Eigen6MatrixIdLi2ELi1ELi0ELi2ELi1EEEEEE9AllocFabsERKNS_10FabFactoryIS5_EEPNS_5ArenaERKNS_6VectorINSt7__cxx1112basic_stringIcSt11char_traitsIcESaIcEEESaISJ_EEE
FN:2018,_ZN5amrex8FabArrayINS_7BaseFabIN3Set7Matrix4ILi2ELi1EEEEEE9AllocFabsERKNS_10FabFactoryIS5_EEPNS_5ArenaERKNS_6VectorINSt7__cxx1112basic_stringIcSt11char_traitsIcESaIcEEESaISJ_EEE
FNDA:0,_ZN5amrex8FabArrayINS_7BaseFabIN3Set7Matrix4ILi2ELi1EEEEEE9AllocFabsERKNS_10FabFactoryIS5_EEPNS_5ArenaERKNS_6VectorINSt7__cxx1112basic_stringIcSt11char_traitsIcESaIcEEESaISJ_EEE
FN:2018,_ZN5amrex8FabArrayINS_7BaseFabIN5Model5Solid6Affine9IsotropicEEEE9AllocFabsERKNS_10FabFactoryIS6_EEPNS_5ArenaERKNS_6VectorINSt7__cxx1112basic_stringIcSt11char_traitsIcESaIcEEESaISK_EEE
FNDA:0,_ZN5amrex8FabArrayINS_7BaseFabIN5Model5Solid6Affine9IsotropicEEEE9AllocFabsERKNS_10FabFactoryIS6_EEPNS_5ArenaERKNS_6VectorINSt7__cxx1112basic_stringIcSt11char_traitsIcESaIcEEESaISK_EEE
FN:2018,_ZN5amrex8FabArrayINS_7BaseFabIN5Model5Solid7Elastic10NeoHookeanEEEE9AllocFabsERKNS_10FabFactoryIS6_EEPNS_5ArenaERKNS_6VectorINSt7__cxx1112basic_stringIcSt11char_traitsIcESaIcEEESaISK_EEE
FNDA:10,_ZN5amrex8FabArrayINS_7BaseFabIN5Model5Solid7Elastic10NeoHookeanEEEE9AllocFabsERKNS_10FabFactoryIS6_EEPNS_5ArenaERKNS_6VectorINSt7__cxx1112basic_stringIcSt11char_traitsIcESaIcEEESaISK_EEE
FN:2018,_ZN5amrex8FabArrayINS_7BaseFabIN5Model5Solid6Linear5CubicEEEE9AllocFabsERKNS_10FabFactoryIS6_EEPNS_5ArenaERKNS_6VectorINSt7__cxx1112basic_stringIcSt11char_traitsIcESaIcEEESaISK_EEE
FNDA:0,_ZN5amrex8FabArrayINS_7BaseFabIN5Model5Solid6Linear5CubicEEEE9AllocFabsERKNS_10FabFactoryIS6_EEPNS_5ArenaERKNS_6VectorINSt7__cxx1112basic_stringIcSt11char_traitsIcESaIcEEESaISK_EEE
FN:2018,_ZN5amrex8FabArrayINS_7BaseFabIN5Model5Solid6Linear9IsotropicEEEE9AllocFabsERKNS_10FabFactoryIS6_EEPNS_5ArenaERKNS_6VectorINSt7__cxx1112basic_stringIcSt11char_traitsIcESaIcEEESaISK_EEE
FNDA:17,_ZN5amrex8FabArrayINS_7BaseFabIN5Model5Solid6Linear9IsotropicEEEE9AllocFabsERKNS_10FabFactoryIS6_EEPNS_5ArenaERKNS_6VectorINSt7__cxx1112basic_stringIcSt11char_traitsIcESaIcEEESaISK_EEE
FN:2018,_ZN5amrex8FabArrayINS_7BaseFabIN5Model5Solid6Linear9LaplacianEEEE9AllocFabsERKNS_10FabFactoryIS6_EEPNS_5ArenaERKNS_6VectorINSt7__cxx1112basic_stringIcSt11char_traitsIcESaIcEEESaISK_EEE
FNDA:1,_ZN5amrex8FabArrayINS_7BaseFabIN5Model5Solid6Linear9LaplacianEEEE9AllocFabsERKNS_10FabFactoryIS6_EEPNS_5ArenaERKNS_6VectorINSt7__cxx1112basic_stringIcSt11char_traitsIcESaIcEEESaISK_EEE
FN:2236,_ZN5amrex8FabArrayINS_9FArrayBoxEE8setBndryIS1_Li0EEEvdii
FNDA:0,_ZN5amrex8FabArrayINS_9FArrayBoxEE8setBndryIS1_Li0EEEvdii
FN:2427,_ZN5amrex8FabArrayINS_7BaseFabIN5Model5Solid7Elastic17PseudoLinearCubicEEEE6setValIS6_Li0EEEvS5_
FNDA:0,_ZN5amrex8FabArrayINS_7BaseFabIN5Model5Solid7Elastic17PseudoLinearCubicEEEE6setValIS6_Li0EEEvS5_
FN:2427,_ZN5amrex8FabArrayINS_7BaseFabIN3Set7Matrix4ILi2ELi6EEEEEE6setValIS5_Li0EEEvS4_
FNDA:0,_ZN5amrex8FabArrayINS_7BaseFabIN3Set7Matrix4ILi2ELi6EEEEEE6setValIS5_Li0EEEvS4_
FN:2427,_ZN5amrex8FabArrayINS_7BaseFabIN5Eigen6MatrixIdLi2ELi2ELi0ELi2ELi2EEEEEE6setValIS5_Li0EEEvS4_
FNDA:0,_ZN5amrex8FabArrayINS_7BaseFabIN5Eigen6MatrixIdLi2ELi2ELi0ELi2ELi2EEEEEE6setValIS5_Li0EEEvS4_
FN:2427,_ZN5amrex8FabArrayINS_9FArrayBoxEE6setValIS1_Li0EEEvd
FNDA:0,_ZN5amrex8FabArrayINS_9FArrayBoxEE6setValIS1_Li0EEEvd
FN:2427,_ZN5amrex8FabArrayINS_7BaseFabIN5Eigen6MatrixIdLi2ELi1ELi0ELi2ELi1EEEEEE6setValIS5_Li0EEEvS4_
FNDA:0,_ZN5amrex8FabArrayINS_7BaseFabIN5Eigen6MatrixIdLi2ELi1ELi0ELi2ELi1EEEEEE6setValIS5_Li0EEEvS4_
FN:2427,_ZN5amrex8FabArrayINS_7BaseFabIN5Model5Solid6Affine2J2EEEE6setValIS6_Li0EEEvS5_
FNDA:1,_ZN5amrex8FabArrayINS_7BaseFabIN5Model5Solid6Affine2J2EEEE6setValIS6_Li0EEEvS5_
FN:2427,_ZN5amrex8FabArrayINS_7BaseFabIN5Model5Solid6Linear9IsotropicEEEE6setValIS6_Li0EEEvS5_
FNDA:14,_ZN5amrex8FabArrayINS_7BaseFabIN5Model5Solid6Linear9IsotropicEEEE6setValIS6_Li0EEEvS5_
FN:2427,_ZN5amrex8FabArrayINS_7BaseFabIN5Model5Solid6Linear5CubicEEEE6setValIS6_Li0EEEvS5_
FNDA:0,_ZN5amrex8FabArrayINS_7BaseFabIN5Model5Solid6Linear5CubicEEEE6setValIS6_Li0EEEvS5_
FN:2427,_ZN5amrex8FabArrayINS_7BaseFabIN5Model5Solid6Affine9IsotropicEEEE6setValIS6_Li0EEEvS5_
FNDA:0,_ZN5amrex8FabArrayINS_7BaseFabIN5Model5Solid6Affine9IsotropicEEEE6setValIS6_Li0EEEvS5_
FN:2427,_ZN5amrex8FabArrayINS_7BaseFabIN5Model5Solid6Affine5CubicEEEE6setValIS6_Li0EEEvS5_
FNDA:0,_ZN5amrex8FabArrayINS_7BaseFabIN5Model5Solid6Affine5CubicEEEE6setValIS6_Li0EEEvS5_
FN:2427,_ZN5amrex8FabArrayINS_7BaseFabIN5Model5Solid6Affine9HexagonalEEEE6setValIS6_Li0EEEvS5_
FNDA:0,_ZN5amrex8FabArrayINS_7BaseFabIN5Model5Solid6Affine9HexagonalEEEE6setValIS6_Li0EEEvS5_
FN:2427,_ZN5amrex8FabArrayINS_7BaseFabIN5Model5Solid6Linear9LaplacianEEEE6setValIS6_Li0EEEvS5_
FNDA:1,_ZN5amrex8FabArrayINS_7BaseFabIN5Model5Solid6Linear9LaplacianEEEE6setValIS6_Li0EEEvS5_
FN:2427,_ZN5amrex8FabArrayINS_7BaseFabIN5Model5Solid7Elastic10NeoHookeanEEEE6setValIS6_Li0EEEvS5_
FNDA:7,_ZN5amrex8FabArrayINS_7BaseFabIN5Model5Solid7Elastic10NeoHookeanEEEE6setValIS6_Li0EEEvS5_
FN:2427,_ZN5amrex8FabArrayINS_7BaseFabIN3Set7Matrix4ILi2ELi1EEEEEE6setValIS5_Li0EEEvS4_
FNDA:160,_ZN5amrex8FabArrayINS_7BaseFabIN3Set7Matrix4ILi2ELi1EEEEEE6setValIS5_Li0EEEvS4_
FN:2427,_ZN5amrex8FabArrayINS_7BaseFabIN5Model5Solid7Elastic28PseudoLinearCubicPredeformedEEEE6setValIS6_Li0EEEvS5_
FNDA:0,_ZN5amrex8FabArrayINS_7BaseFabIN5Model5Solid7Elastic28PseudoLinearCubicPredeformedEEEE6setValIS6_Li0EEEvS5_
FN:2427,_ZN5amrex8FabArrayINS_7BaseFabIN3Set7Matrix4ILi2ELi4EEEEEE6setValIS5_Li0EEEvS4_
FNDA:1,_ZN5amrex8FabArrayINS_7BaseFabIN3Set7Matrix4ILi2ELi4EEEEEE6setValIS5_Li0EEEvS4_
FN:2427,_ZN5amrex8FabArrayINS_7BaseFabIN3Set7Matrix4ILi2ELi3EEEEEE6setValIS5_Li0EEEvS4_
FNDA:0,_ZN5amrex8FabArrayINS_7BaseFabIN3Set7Matrix4ILi2ELi3EEEEEE6setValIS5_Li0EEEvS4_
FN:2427,_ZN5amrex8FabArrayINS_9IArrayBoxEE6setValIS1_Li0EEEvi
FNDA:0,_ZN5amrex8FabArrayINS_9IArrayBoxEE6setValIS1_Li0EEEvi
FN:2427,_ZN5amrex8FabArrayINS_7BaseFabIN5Model5Solid6Linear19IsotropicDegradableEEEE6setValIS6_Li0EEEvS5_
FNDA:0,_ZN5amrex8FabArrayINS_7BaseFabIN5Model5Solid6Linear19IsotropicDegradableEEEE6setValIS6_Li0EEEvS5_
FN:2444,_ZN5amrex8FabArrayINS_9FArrayBoxEE6setValIS1_Li0EEEvdiii
FNDA:0,_ZN5amrex8FabArrayINS_9FArrayBoxEE6setValIS1_Li0EEEvdiii
FN:2455,_ZN5amrex8FabArrayINS_7BaseFabIN5Model5Solid6Affine2J2EEEE6setValIS6_Li0EEEvS5_iiRKNS_7IntVectE
FNDA:1,_ZN5amrex8FabArrayINS_7BaseFabIN5Model5Solid6Affine2J2EEEE6setValIS6_Li0EEEvS5_iiRKNS_7IntVectE
FN:2455,_ZN5amrex8FabArrayINS_7BaseFabIN5Model5Solid6Linear9IsotropicEEEE6setValIS6_Li0EEEvS5_iiRKNS_7IntVectE
FNDA:14,_ZN5amrex8FabArrayINS_7BaseFabIN5Model5Solid6Linear9IsotropicEEEE6setValIS6_Li0EEEvS5_iiRKNS_7IntVectE
FN:2455,_ZN5amrex8FabArrayINS_7BaseFabIN5Model5Solid7Elastic28PseudoLinearCubicPredeformedEEEE6setValIS6_Li0EEEvS5_iiRKNS_7IntVectE
FNDA:0,_ZN5amrex8FabArrayINS_7BaseFabIN5Model5Solid7Elastic28PseudoLinearCubicPredeformedEEEE6setValIS6_Li0EEEvS5_iiRKNS_7IntVectE
FN:2455,_ZN5amrex8FabArrayINS_7BaseFabIN5Eigen6MatrixIdLi2ELi2ELi0ELi2ELi2EEEEEE6setValIS5_Li0EEEvS4_iiRKNS_7IntVectE
FNDA:0,_ZN5amrex8FabArrayINS_7BaseFabIN5Eigen6MatrixIdLi2ELi2ELi0ELi2ELi2EEEEEE6setValIS5_Li0EEEvS4_iiRKNS_7IntVectE
FN:2455,_ZN5amrex8FabArrayINS_7BaseFabIN5Model5Solid7Elastic17PseudoLinearCubicEEEE6setValIS6_Li0EEEvS5_iiRKNS_7IntVectE
FNDA:0,_ZN5amrex8FabArrayINS_7BaseFabIN5Model5Solid7Elastic17PseudoLinearCubicEEEE6setValIS6_Li0EEEvS5_iiRKNS_7IntVectE
FN:2455,_ZN5amrex8FabArrayINS_7BaseFabIN5Model5Solid6Linear5CubicEEEE6setValIS6_Li0EEEvS5_iiRKNS_7IntVectE
FNDA:0,_ZN5amrex8FabArrayINS_7BaseFabIN5Model5Solid6Linear5CubicEEEE6setValIS6_Li0EEEvS5_iiRKNS_7IntVectE
FN:2455,_ZN5amrex8FabArrayINS_7BaseFabIN5Model5Solid7Elastic10NeoHookeanEEEE6setValIS6_Li0EEEvS5_iiRKNS_7IntVectE
FNDA:7,_ZN5amrex8FabArrayINS_7BaseFabIN5Model5Solid7Elastic10NeoHookeanEEEE6setValIS6_Li0EEEvS5_iiRKNS_7IntVectE
FN:2455,_ZN5amrex8FabArrayINS_7BaseFabIN5Model5Solid6Linear9LaplacianEEEE6setValIS6_Li0EEEvS5_iiRKNS_7IntVectE
FNDA:1,_ZN5amrex8FabArrayINS_7BaseFabIN5Model5Solid6Linear9LaplacianEEEE6setValIS6_Li0EEEvS5_iiRKNS_7IntVectE
FN:2455,_ZN5amrex8FabArrayINS_7BaseFabIN5Model5Solid6Affine5CubicEEEE6setValIS6_Li0EEEvS5_iiRKNS_7IntVectE
FNDA:0,_ZN5amrex8FabArrayINS_7BaseFabIN5Model5Solid6Affine5CubicEEEE6setValIS6_Li0EEEvS5_iiRKNS_7IntVectE
FN:2455,_ZN5amrex8FabArrayINS_7BaseFabIN5Model5Solid6Affine9HexagonalEEEE6setValIS6_Li0EEEvS5_iiRKNS_7IntVectE
FNDA:0,_ZN5amrex8FabArrayINS_7BaseFabIN5Model5Solid6Affine9HexagonalEEEE6setValIS6_Li0EEEvS5_iiRKNS_7IntVectE
FN:2455,_ZN5amrex8FabArrayINS_7BaseFabIN3Set7Matrix4ILi2ELi6EEEEEE6setValIS5_Li0EEEvS4_iiRKNS_7IntVectE
FNDA:0,_ZN5amrex8FabArrayINS_7BaseFabIN3Set7Matrix4ILi2ELi6EEEEEE6setValIS5_Li0EEEvS4_iiRKNS_7IntVectE
FN:2455,_ZN5amrex8FabArrayINS_7BaseFabIN5Model5Solid6Affine9IsotropicEEEE6setValIS6_Li0EEEvS5_iiRKNS_7IntVectE
FNDA:0,_ZN5amrex8FabArrayINS_7BaseFabIN5Model5Solid6Affine9IsotropicEEEE6setValIS6_Li0EEEvS5_iiRKNS_7IntVectE
FN:2455,_ZN5amrex8FabArrayINS_7BaseFabIN5Model5Solid6Linear19IsotropicDegradableEEEE6setValIS6_Li0EEEvS5_iiRKNS_7IntVectE
FNDA:0,_ZN5amrex8FabArrayINS_7BaseFabIN5Model5Solid6Linear19IsotropicDegradableEEEE6setValIS6_Li0EEEvS5_iiRKNS_7IntVectE
FN:2455,_ZN5amrex8FabArrayINS_7BaseFabIN5Eigen6MatrixIdLi2ELi1ELi0ELi2ELi1EEEEEE6setValIS5_Li0EEEvS4_iiRKNS_7IntVectE
FNDA:0,_ZN5amrex8FabArrayINS_7BaseFabIN5Eigen6MatrixIdLi2ELi1ELi0ELi2ELi1EEEEEE6setValIS5_Li0EEEvS4_iiRKNS_7IntVectE
FN:2455,_ZN5amrex8FabArrayINS_9FArrayBoxEE6setValIS1_Li0EEEvdiiRKNS_7IntVectE
FNDA:0,_ZN5amrex8FabArrayINS_9FArrayBoxEE6setValIS1_Li0EEEvdiiRKNS_7IntVectE
FN:2455,_ZN5amrex8FabArrayINS_7BaseFabIN3Set7Matrix4ILi2ELi1EEEEEE6setValIS5_Li0EEEvS4_iiRKNS_7IntVectE
FNDA:160,_ZN5amrex8FabArrayINS_7BaseFabIN3Set7Matrix4ILi2ELi1EEEEEE6setValIS5_Li0EEEvS4_iiRKNS_7IntVectE
FN:2455,_ZN5amrex8FabArrayINS_9IArrayBoxEE6setValIS1_Li0EEEviiiRKNS_7IntVectE
FNDA:0,_ZN5amrex8FabArrayINS_9IArrayBoxEE6setValIS1_Li0EEEviiiRKNS_7IntVectE
FN:2455,_ZN5amrex8FabArrayINS_7BaseFabIN3Set7Matrix4ILi2ELi4EEEEEE6setValIS5_Li0EEEvS4_iiRKNS_7IntVectE
FNDA:1,_ZN5amrex8FabArrayINS_7BaseFabIN3Set7Matrix4ILi2ELi4EEEEEE6setValIS5_Li0EEEvS4_iiRKNS_7IntVectE
FN:2455,_ZN5amrex8FabArrayINS_7BaseFabIN3Set7Matrix4ILi2ELi3EEEEEE6setValIS5_Li0EEEvS4_iiRKNS_7IntVectE
FNDA:0,_ZN5amrex8FabArrayINS_7BaseFabIN3Set7Matrix4ILi2ELi3EEEEEE6setValIS5_Li0EEEvS4_iiRKNS_7IntVectE
FN:2989,_ZN5amrex8FabArrayINS_7BaseFabIN5Model5Solid6Linear9IsotropicEEEE12FillBoundaryIS5_EEvb
FNDA:20,_ZN5amrex8FabArrayINS_7BaseFabIN5Model5Solid6Linear9IsotropicEEEE12FillBoundaryIS5_EEvb
FN:2989,_ZN5amrex8FabArrayINS_7BaseFabIN5Model5Solid6Linear19IsotropicDegradableEEEE12FillBoundaryIS5_EEvb
FNDA:0,_ZN5amrex8FabArrayINS_7BaseFabIN5Model5Solid6Linear19IsotropicDegradableEEEE12FillBoundaryIS5_EEvb
FN:2989,_ZN5amrex8FabArrayINS_7BaseFabIN5Eigen6MatrixIdLi2ELi1ELi0ELi2ELi1EEEEEE12FillBoundaryIS4_EEvb
FNDA:0,_ZN5amrex8FabArrayINS_7BaseFabIN5Eigen6MatrixIdLi2ELi1ELi0ELi2ELi1EEEEEE12FillBoundaryIS4_EEvb
FN:2989,_ZN5amrex8FabArrayINS_7BaseFabIN5Model5Solid6Affine9IsotropicEEEE12FillBoundaryIS5_EEvb
FNDA:0,_ZN5amrex8FabArrayINS_7BaseFabIN5Model5Solid6Affine9IsotropicEEEE12FillBoundaryIS5_EEvb
FN:2989,_ZN5amrex8FabArrayINS_7BaseFabIN5Model5Solid6Linear5CubicEEEE12FillBoundaryIS5_EEvb
FNDA:0,_ZN5amrex8FabArrayINS_7BaseFabIN5Model5Solid6Linear5CubicEEEE12FillBoundaryIS5_EEvb
FN:2989,_ZN5amrex8FabArrayINS_7BaseFabIN5Model5Solid6Affine5CubicEEEE12FillBoundaryIS5_EEvb
FNDA:0,_ZN5amrex8FabArrayINS_7BaseFabIN5Model5Solid6Affine5CubicEEEE12FillBoundaryIS5_EEvb
FN:2989,_ZN5amrex8FabArrayINS_7BaseFabIN5Model5Solid6Affine9HexagonalEEEE12FillBoundaryIS5_EEvb
FNDA:0,_ZN5amrex8FabArrayINS_7BaseFabIN5Model5Solid6Affine9HexagonalEEEE12FillBoundaryIS5_EEvb
FN:2989,_ZN5amrex8FabArrayINS_7BaseFabIN5Eigen6MatrixIdLi2ELi2ELi0ELi2ELi2EEEEEE12FillBoundaryIS4_EEvb
FNDA:0,_ZN5amrex8FabArrayINS_7BaseFabIN5Eigen6MatrixIdLi2ELi2ELi0ELi2ELi2EEEEEE12FillBoundaryIS4_EEvb
FN:2989,_ZN5amrex8FabArrayINS_7BaseFabIN5Model5Solid6Linear9LaplacianEEEE12FillBoundaryIS5_EEvb
FNDA:2,_ZN5amrex8FabArrayINS_7BaseFabIN5Model5Solid6Linear9LaplacianEEEE12FillBoundaryIS5_EEvb
FN:2989,_ZN5amrex8FabArrayINS_7BaseFabIN3Set7Matrix4ILi2ELi6EEEEEE12FillBoundaryIS4_EEvb
FNDA:0,_ZN5amrex8FabArrayINS_7BaseFabIN3Set7Matrix4ILi2ELi6EEEEEE12FillBoundaryIS4_EEvb
FN:2989,_ZN5amrex8FabArrayINS_7BaseFabIN5Model5Solid6Affine2J2EEEE12FillBoundaryIS5_EEvb
FNDA:2,_ZN5amrex8FabArrayINS_7BaseFabIN5Model5Solid6Affine2J2EEEE12FillBoundaryIS5_EEvb
FN:2989,_ZN5amrex8FabArrayINS_7BaseFabIN5Model5Solid7Elastic28PseudoLinearCubicPredeformedEEEE12FillBoundaryIS5_EEvb
FNDA:0,_ZN5amrex8FabArrayINS_7BaseFabIN5Model5Solid7Elastic28PseudoLinearCubicPredeformedEEEE12FillBoundaryIS5_EEvb
FN:2989,_ZN5amrex8FabArrayINS_7BaseFabIN5Model5Solid7Elastic17PseudoLinearCubicEEEE12FillBoundaryIS5_EEvb
FNDA:0,_ZN5amrex8FabArrayINS_7BaseFabIN5Model5Solid7Elastic17PseudoLinearCubicEEEE12FillBoundaryIS5_EEvb
FN:2989,_ZN5amrex8FabArrayINS_7BaseFabIN3Set7Matrix4ILi2ELi1EEEEEE12FillBoundaryIS4_EEvb
FNDA:0,_ZN5amrex8FabArrayINS_7BaseFabIN3Set7Matrix4ILi2ELi1EEEEEE12FillBoundaryIS4_EEvb
FN:2989,_ZN5amrex8FabArrayINS_7BaseFabIN5Model5Solid7Elastic10NeoHookeanEEEE12FillBoundaryIS5_EEvb
FNDA:14,_ZN5amrex8FabArrayINS_7BaseFabIN5Model5Solid7Elastic10NeoHookeanEEEE12FillBoundaryIS5_EEvb
FN:2989,_ZN5amrex8FabArrayINS_7BaseFabIN3Set7Matrix4ILi2ELi4EEEEEE12FillBoundaryIS4_EEvb
FNDA:0,_ZN5amrex8FabArrayINS_7BaseFabIN3Set7Matrix4ILi2ELi4EEEEEE12FillBoundaryIS4_EEvb
FN:2989,_ZN5amrex8FabArrayINS_7BaseFabIN3Set7Matrix4ILi2ELi3EEEEEE12FillBoundaryIS4_EEvb
FNDA:0,_ZN5amrex8FabArrayINS_7BaseFabIN3Set7Matrix4ILi2ELi3EEEEEE12FillBoundaryIS4_EEvb
FN:2989,_ZN5amrex8FabArrayINS_9FArrayBoxEE12FillBoundaryIdEEvb
FNDA:0,_ZN5amrex8FabArrayINS_9FArrayBoxEE12FillBoundaryIdEEvb
FN:3001,_ZN5amrex8FabArrayINS_7BaseFabIdEEE12FillBoundaryIdEEvRKNS_11PeriodicityEb
FNDA:0,_ZN5amrex8FabArrayINS_7BaseFabIdEEE12FillBoundaryIdEEvRKNS_11PeriodicityEb
FN:3051,_ZN5amrex8FabArrayINS_7BaseFabIN5Model5Solid6Linear19IsotropicDegradableEEEE12FillBoundaryIS5_EEviiRKNS_7IntVectERKNS_11PeriodicityEb
FNDA:0,_ZN5amrex8FabArrayINS_7BaseFabIN5Model5Solid6Linear19IsotropicDegradableEEEE12FillBoundaryIS5_EEviiRKNS_7IntVectERKNS_11PeriodicityEb
FN:3051,_ZN5amrex8FabArrayINS_7BaseFabIN5Eigen6MatrixIdLi2ELi1ELi0ELi2ELi1EEEEEE12FillBoundaryIS4_EEviiRKNS_7IntVectERKNS_11PeriodicityEb
FNDA:0,_ZN5amrex8FabArrayINS_7BaseFabIN5Eigen6MatrixIdLi2ELi1ELi0ELi2ELi1EEEEEE12FillBoundaryIS4_EEviiRKNS_7IntVectERKNS_11PeriodicityEb
FN:3051,_ZN5amrex8FabArrayINS_7BaseFabIN5Model5Solid6Affine2J2EEEE12FillBoundaryIS5_EEviiRKNS_7IntVectERKNS_11PeriodicityEb
FNDA:0,_ZN5amrex8FabArrayINS_7BaseFabIN5Model5Solid6Affine2J2EEEE12FillBoundaryIS5_EEviiRKNS_7IntVectERKNS_11PeriodicityEb
FN:3051,_ZN5amrex8FabArrayINS_7BaseFabIN5Eigen6MatrixIdLi2ELi2ELi0ELi2ELi2EEEEEE12FillBoundaryIS4_EEviiRKNS_7IntVectERKNS_11PeriodicityEb
FNDA:0,_ZN5amrex8FabArrayINS_7BaseFabIN5Eigen6MatrixIdLi2ELi2ELi0ELi2ELi2EEEEEE12FillBoundaryIS4_EEviiRKNS_7IntVectERKNS_11PeriodicityEb
FN:3051,_ZN5amrex8FabArrayINS_7BaseFabIN5Model5Solid6Affine9IsotropicEEEE12FillBoundaryIS5_EEviiRKNS_7IntVectERKNS_11PeriodicityEb
FNDA:0,_ZN5amrex8FabArrayINS_7BaseFabIN5Model5Solid6Affine9IsotropicEEEE12FillBoundaryIS5_EEviiRKNS_7IntVectERKNS_11PeriodicityEb
FN:3051,_ZN5amrex8FabArrayINS_7BaseFabIN5Model5Solid7Elastic28PseudoLinearCubicPredeformedEEEE12FillBoundaryIS5_EEviiRKNS_7IntVectERKNS_11PeriodicityEb
FNDA:0,_ZN5amrex8FabArrayINS_7BaseFabIN5Model5Solid7Elastic28PseudoLinearCubicPredeformedEEEE12FillBoundaryIS5_EEviiRKNS_7IntVectERKNS_11PeriodicityEb
FN:3051,_ZN5amrex8FabArrayINS_7BaseFabIN5Model5Solid6Affine9HexagonalEEEE12FillBoundaryIS5_EEviiRKNS_7IntVectERKNS_11PeriodicityEb
FNDA:0,_ZN5amrex8FabArrayINS_7BaseFabIN5Model5Solid6Affine9HexagonalEEEE12FillBoundaryIS5_EEviiRKNS_7IntVectERKNS_11PeriodicityEb
FN:3051,_ZN5amrex8FabArrayINS_7BaseFabIN5Model5Solid7Elastic17PseudoLinearCubicEEEE12FillBoundaryIS5_EEviiRKNS_7IntVectERKNS_11PeriodicityEb
FNDA:0,_ZN5amrex8FabArrayINS_7BaseFabIN5Model5Solid7Elastic17PseudoLinearCubicEEEE12FillBoundaryIS5_EEviiRKNS_7IntVectERKNS_11PeriodicityEb
FN:3051,_ZN5amrex8FabArrayINS_7BaseFabIN5Model5Solid6Linear9IsotropicEEEE12FillBoundaryIS5_EEviiRKNS_7IntVectERKNS_11PeriodicityEb
FNDA:0,_ZN5amrex8FabArrayINS_7BaseFabIN5Model5Solid6Linear9IsotropicEEEE12FillBoundaryIS5_EEviiRKNS_7IntVectERKNS_11PeriodicityEb
FN:3051,_ZN5amrex8FabArrayINS_7BaseFabIN5Model5Solid7Elastic10NeoHookeanEEEE12FillBoundaryIS5_EEviiRKNS_7IntVectERKNS_11PeriodicityEb
FNDA:0,_ZN5amrex8FabArrayINS_7BaseFabIN5Model5Solid7Elastic10NeoHookeanEEEE12FillBoundaryIS5_EEviiRKNS_7IntVectERKNS_11PeriodicityEb
FN:3051,_ZN5amrex8FabArrayINS_7BaseFabIN5Model5Solid6Linear5CubicEEEE12FillBoundaryIS5_EEviiRKNS_7IntVectERKNS_11PeriodicityEb
FNDA:0,_ZN5amrex8FabArrayINS_7BaseFabIN5Model5Solid6Linear5CubicEEEE12FillBoundaryIS5_EEviiRKNS_7IntVectERKNS_11PeriodicityEb
FN:3051,_ZN5amrex8FabArrayINS_7BaseFabIN5Model5Solid6Affine5CubicEEEE12FillBoundaryIS5_EEviiRKNS_7IntVectERKNS_11PeriodicityEb
FNDA:0,_ZN5amrex8FabArrayINS_7BaseFabIN5Model5Solid6Affine5CubicEEEE12FillBoundaryIS5_EEviiRKNS_7IntVectERKNS_11PeriodicityEb
FN:3051,_ZN5amrex8FabArrayINS_7BaseFabIN5Model5Solid6Linear9LaplacianEEEE12FillBoundaryIS5_EEviiRKNS_7IntVectERKNS_11PeriodicityEb
FNDA:0,_ZN5amrex8FabArrayINS_7BaseFabIN5Model5Solid6Linear9LaplacianEEEE12FillBoundaryIS5_EEviiRKNS_7IntVectERKNS_11PeriodicityEb
FN:3317,_ZN5amrex8FabArrayINS_7BaseFabIN5Model5Solid6Linear9IsotropicEEEE19FillBoundary_nowaitIS5_EEviiRKNS_7IntVectERKNS_11PeriodicityEb
FNDA:20,_ZN5amrex8FabArrayINS_7BaseFabIN5Model5Solid6Linear9IsotropicEEEE19FillBoundary_nowaitIS5_EEviiRKNS_7IntVectERKNS_11PeriodicityEb
FN:3317,_ZN5amrex8FabArrayINS_7BaseFabIN5Model5Solid6Linear9LaplacianEEEE19FillBoundary_nowaitIS5_EEviiRKNS_7IntVectERKNS_11PeriodicityEb
FNDA:2,_ZN5amrex8FabArrayINS_7BaseFabIN5Model5Solid6Linear9LaplacianEEEE19FillBoundary_nowaitIS5_EEviiRKNS_7IntVectERKNS_11PeriodicityEb
FN:3317,_ZN5amrex8FabArrayINS_7BaseFabIN5Model5Solid6Affine5CubicEEEE19FillBoundary_nowaitIS5_EEviiRKNS_7IntVectERKNS_11PeriodicityEb
FNDA:0,_ZN5amrex8FabArrayINS_7BaseFabIN5Model5Solid6Affine5CubicEEEE19FillBoundary_nowaitIS5_EEviiRKNS_7IntVectERKNS_11PeriodicityEb
FN:3317,_ZN5amrex8FabArrayINS_7BaseFabIN5Model5Solid7Elastic10NeoHookeanEEEE19FillBoundary_nowaitIS5_EEviiRKNS_7IntVectERKNS_11PeriodicityEb
FNDA:14,_ZN5amrex8FabArrayINS_7BaseFabIN5Model5Solid7Elastic10NeoHookeanEEEE19FillBoundary_nowaitIS5_EEviiRKNS_7IntVectERKNS_11PeriodicityEb
FN:3317,_ZN5amrex8FabArrayINS_7BaseFabIN5Model5Solid6Linear5CubicEEEE19FillBoundary_nowaitIS5_EEviiRKNS_7IntVectERKNS_11PeriodicityEb
FNDA:0,_ZN5amrex8FabArrayINS_7BaseFabIN5Model5Solid6Linear5CubicEEEE19FillBoundary_nowaitIS5_EEviiRKNS_7IntVectERKNS_11PeriodicityEb
FN:3317,_ZN5amrex8FabArrayINS_7BaseFabIN5Model5Solid6Affine9HexagonalEEEE19FillBoundary_nowaitIS5_EEviiRKNS_7IntVectERKNS_11PeriodicityEb
FNDA:0,_ZN5amrex8FabArrayINS_7BaseFabIN5Model5Solid6Affine9HexagonalEEEE19FillBoundary_nowaitIS5_EEviiRKNS_7IntVectERKNS_11PeriodicityEb
FN:3317,_ZN5amrex8FabArrayINS_7BaseFabIN5Eigen6MatrixIdLi2ELi1ELi0ELi2ELi1EEEEEE19FillBoundary_nowaitIS4_EEviiRKNS_7IntVectERKNS_11PeriodicityEb
FNDA:0,_ZN5amrex8FabArrayINS_7BaseFabIN5Eigen6MatrixIdLi2ELi1ELi0ELi2ELi1EEEEEE19FillBoundary_nowaitIS4_EEviiRKNS_7IntVectERKNS_11PeriodicityEb
FN:3317,_ZN5amrex8FabArrayINS_7BaseFabIN5Model5Solid7Elastic17PseudoLinearCubicEEEE19FillBoundary_nowaitIS5_EEviiRKNS_7IntVectERKNS_11PeriodicityEb
FNDA:0,_ZN5amrex8FabArrayINS_7BaseFabIN5Model5Solid7Elastic17PseudoLinearCubicEEEE19FillBoundary_nowaitIS5_EEviiRKNS_7IntVectERKNS_11PeriodicityEb
FN:3317,_ZN5amrex8FabArrayINS_7BaseFabIN3Set7Matrix4ILi2ELi3EEEEEE19FillBoundary_nowaitIS4_EEviiRKNS_7IntVectERKNS_11PeriodicityEb
FNDA:0,_ZN5amrex8FabArrayINS_7BaseFabIN3Set7Matrix4ILi2ELi3EEEEEE19FillBoundary_nowaitIS4_EEviiRKNS_7IntVectERKNS_11PeriodicityEb
FN:3317,_ZN5amrex8FabArrayINS_7BaseFabIN5Model5Solid7Elastic28PseudoLinearCubicPredeformedEEEE19FillBoundary_nowaitIS5_EEviiRKNS_7IntVectERKNS_11PeriodicityEb
FNDA:0,_ZN5amrex8FabArrayINS_7BaseFabIN5Model5Solid7Elastic28PseudoLinearCubicPredeformedEEEE19FillBoundary_nowaitIS5_EEviiRKNS_7IntVectERKNS_11PeriodicityEb
FN:3317,_ZN5amrex8FabArrayINS_9FArrayBoxEE19FillBoundary_nowaitIdEEviiRKNS_7IntVectERKNS_11PeriodicityEb
FNDA:0,_ZN5amrex8FabArrayINS_9FArrayBoxEE19FillBoundary_nowaitIdEEviiRKNS_7IntVectERKNS_11PeriodicityEb
FN:3317,_ZN5amrex8FabArrayINS_7BaseFabIN5Model5Solid6Affine2J2EEEE19FillBoundary_nowaitIS5_EEviiRKNS_7IntVectERKNS_11PeriodicityEb
FNDA:2,_ZN5amrex8FabArrayINS_7BaseFabIN5Model5Solid6Affine2J2EEEE19FillBoundary_nowaitIS5_EEviiRKNS_7IntVectERKNS_11PeriodicityEb
FN:3317,_ZN5amrex8FabArrayINS_7BaseFabIdEEE19FillBoundary_nowaitIdEEviiRKNS_7IntVectERKNS_11PeriodicityEb
FNDA:0,_ZN5amrex8FabArrayINS_7BaseFabIdEEE19FillBoundary_nowaitIdEEviiRKNS_7IntVectERKNS_11PeriodicityEb
FN:3317,_ZN5amrex8FabArrayINS_7BaseFabIN5Model5Solid6Linear19IsotropicDegradableEEEE19FillBoundary_nowaitIS5_EEviiRKNS_7IntVectERKNS_11PeriodicityEb
FNDA:0,_ZN5amrex8FabArrayINS_7BaseFabIN5Model5Solid6Linear19IsotropicDegradableEEEE19FillBoundary_nowaitIS5_EEviiRKNS_7IntVectERKNS_11PeriodicityEb
FN:3317,_ZN5amrex8FabArrayINS_7BaseFabIN5Model5Solid6Affine9IsotropicEEEE19FillBoundary_nowaitIS5_EEviiRKNS_7IntVectERKNS_11PeriodicityEb
FNDA:0,_ZN5amrex8FabArrayINS_7BaseFabIN5Model5Solid6Affine9IsotropicEEEE19FillBoundary_nowaitIS5_EEviiRKNS_7IntVectERKNS_11PeriodicityEb
FN:3317,_ZN5amrex8FabArrayINS_7BaseFabIN5Eigen6MatrixIdLi2ELi2ELi0ELi2ELi2EEEEEE19FillBoundary_nowaitIS4_EEviiRKNS_7IntVectERKNS_11PeriodicityEb
FNDA:0,_ZN5amrex8FabArrayINS_7BaseFabIN5Eigen6MatrixIdLi2ELi2ELi0ELi2ELi2EEEEEE19FillBoundary_nowaitIS4_EEviiRKNS_7IntVectERKNS_11PeriodicityEb
FN:3317,_ZN5amrex8FabArrayINS_7BaseFabIN3Set7Matrix4ILi2ELi1EEEEEE19FillBoundary_nowaitIS4_EEviiRKNS_7IntVectERKNS_11PeriodicityEb
FNDA:0,_ZN5amrex8FabArrayINS_7BaseFabIN3Set7Matrix4ILi2ELi1EEEEEE19FillBoundary_nowaitIS4_EEviiRKNS_7IntVectERKNS_11PeriodicityEb
FN:3317,_ZN5amrex8FabArrayINS_7BaseFabIN3Set7Matrix4ILi2ELi6EEEEEE19FillBoundary_nowaitIS4_EEviiRKNS_7IntVectERKNS_11PeriodicityEb
FNDA:0,_ZN5amrex8FabArrayINS_7BaseFabIN3Set7Matrix4ILi2ELi6EEEEEE19FillBoundary_nowaitIS4_EEviiRKNS_7IntVectERKNS_11PeriodicityEb
FN:3317,_ZN5amrex8FabArrayINS_7BaseFabIN3Set7Matrix4ILi2ELi4EEEEEE19FillBoundary_nowaitIS4_EEviiRKNS_7IntVectERKNS_11PeriodicityEb
FNDA:0,_ZN5amrex8FabArrayINS_7BaseFabIN3Set7Matrix4ILi2ELi4EEEEEE19FillBoundary_nowaitIS4_EEviiRKNS_7IntVectERKNS_11PeriodicityEb
FN:3394,_ZN5amrex8FabArrayINS_9IArrayBoxEE6setValIS1_Li0EEEviRKNS_12FabArrayBase12CommMetaDataEii
FNDA:0,_ZN5amrex8FabArrayINS_9IArrayBoxEE6setValIS1_Li0EEEviRKNS_12FabArrayBase12CommMetaDataEii
DA:57,212
DA:57,0
DA:57,0
DA:57,0
DA:57,0
DA:57,0
DA:57,0
DA:57,0
DA:57,0
DA:57,0
DA:57,0
DA:57,0
DA:57,2
DA:57,96
DA:57,0
DA:57,0
DA:57,66
DA:57,0
DA:57,0
DA:121,0
DA:233,0
DA:255,0
DA:257,0
DA:258,0
DA:260,0
DA:261,0
DA:262,0
DA:269,0
DA:233,0
DA:255,0
DA:257,0
DA:258,0
DA:260,0
DA:261,0
DA:262,0
DA:269,0
DA:233,0
DA:255,0
DA:257,0
DA:258,0
DA:260,0
DA:261,0
DA:262,0
DA:269,0
DA:233,0
DA:255,0
DA:257,0
DA:258,0
DA:260,0
DA:261,0
DA:262,0
DA:269,0
DA:233,0
DA:255,0
DA:257,0
DA:258,0
DA:260,0
DA:261,0
DA:262,0
DA:269,0
DA:233,0
DA:255,0
DA:257,0
DA:258,0
DA:260,0
DA:261,0
DA:262,0
DA:269,0
DA:233,0
DA:255,0
DA:257,0
DA:258,0
DA:260,0
DA:261,0
DA:262,0
DA:269,0
DA:233,0
DA:255,0
DA:257,0
DA:258,0
DA:260,0
DA:261,0
DA:262,0
DA:269,0
DA:233,0
DA:255,0
DA:257,0
DA:258,0
DA:260,0
DA:261,0
DA:262,0
DA:269,0
DA:233,0
DA:255,0
DA:257,0
DA:258,0
DA:260,0
DA:261,0
DA:262,0
DA:269,0
DA:233,0
DA:255,0
DA:257,0
DA:258,0
DA:260,0
DA:261,0
DA:262,0
DA:269,0
DA:233,0
DA:255,0
DA:257,0
DA:258,0
DA:260,0
DA:261,0
DA:262,0
DA:269,0
DA:233,0
DA:255,0
DA:257,0
DA:258,0
DA:260,0
DA:261,0
DA:262,0
DA:269,0
DA:233,0
DA:255,0
DA:257,0
DA:258,0
DA:260,0
DA:261,0
DA:262,0
DA:269,0
DA:282,0
DA:304,0
DA:306,0
DA:307,0
DA:309,0
DA:310,0
DA:311,0
DA:318,0
DA:282,0
DA:304,0
DA:306,0
DA:307,0
DA:309,0
DA:310,0
DA:311,0
DA:318,0
DA:282,0
DA:304,0
DA:306,0
DA:307,0
DA:309,0
DA:310,0
DA:311,0
DA:318,0
DA:282,0
DA:304,0
DA:306,0
DA:307,0
DA:309,0
DA:310,0
DA:311,0
DA:318,0
DA:282,0
DA:304,0
DA:306,0
DA:307,0
DA:309,0
DA:310,0
DA:311,0
DA:318,0
DA:282,0
DA:304,0
DA:306,0
DA:307,0
DA:309,0
DA:310,0
DA:311,0
DA:318,0
DA:282,0
DA:304,0
DA:306,0
DA:307,0
DA:309,0
DA:310,0
DA:311,0
DA:318,0
DA:282,0
DA:304,0
DA:306,0
DA:307,0
DA:309,0
DA:310,0
DA:311,0
DA:318,0
DA:282,0
DA:304,0
DA:306,0
DA:307,0
DA:309,0
DA:310,0
DA:311,0
DA:318,0
DA:282,0
DA:304,0
DA:306,0
DA:307,0
DA:309,0
DA:310,0
DA:311,0
DA:318,0
DA:282,0
DA:304,0
DA:306,0
DA:307,0
DA:309,0
DA:310,0
DA:311,0
DA:318,0
DA:282,0
DA:304,0
DA:306,0
DA:307,0
DA:309,0
DA:310,0
DA:311,0
DA:318,0
DA:282,0
DA:304,0
DA:306,0
DA:307,0
DA:309,0
DA:310,0
DA:311,0
DA:318,0
DA:421,0
DA:421,0
DA:421,0
DA:421,0
DA:421,0
DA:421,0
DA:421,0
DA:421,0
DA:421,0
DA:421,0
DA:421,0
DA:421,0
DA:421,0
DA:469,0
DA:469,0
DA:469,0
DA:469,0
DA:469,26
DA:469,0
DA:469,0
DA:469,0
DA:469,0
DA:469,15
DA:469,0
DA:469,0
DA:469,0
DA:469,16
DA:475,0
DA:475,0
DA:475,0
DA:475,0
DA:475,0
DA:475,78
DA:475,0
DA:475,0
DA:475,0
DA:475,0
DA:475,45
DA:475,0
DA:475,0
DA:475,48
DA:478,0
DA:481,0
DA:481,0
DA:481,0
DA:481,0
DA:481,37
DA:481,0
DA:481,0
DA:481,0
DA:481,0
DA:481,36
DA:481,0
DA:481,0
DA:481,27
DA:487,0
DA:487,0
DA:487,0
DA:487,0
DA:487,0
DA:487,0
DA:487,0
DA:487,0
DA:487,0
DA:487,0
DA:487,0
DA:487,0
DA:487,0
DA:487,0
DA:487,0
DA:487,0
DA:487,0
DA:487,0
DA:487,0
DA:487,0
DA:490,336
DA:490,0
DA:490,0
DA:490,0
DA:490,0
DA:490,0
DA:490,0
DA:490,27
DA:490,0
DA:490,0
DA:490,0
DA:490,0
DA:490,0
DA:490,0
DA:490,0
DA:490,1309
DA:490,0
DA:490,0
DA:490,0
DA:774,0
DA:780,0
DA:774,0
DA:780,0
DA:774,0
DA:780,0
DA:774,0
DA:780,0
DA:774,2
DA:780,2
DA:774,0
DA:780,0
DA:774,0
DA:780,0
DA:774,0
DA:780,0
DA:774,0
DA:780,0
DA:774,0
DA:780,0
DA:774,0
DA:780,0
DA:774,0
DA:780,0
DA:774,3
DA:780,3
DA:823,0
DA:831,0
DA:823,0
DA:831,0
DA:823,0
DA:831,0
DA:823,0
DA:831,0
DA:823,2
DA:831,2
DA:823,0
DA:831,0
DA:823,0
DA:831,0
DA:823,0
DA:831,0
DA:823,0
DA:831,0
DA:823,0
DA:831,0
DA:823,0
DA:831,0
DA:823,0
DA:831,0
DA:823,3
DA:831,3
DA:1254,0
DA:1254,0
DA:1254,0
DA:1254,7
DA:1254,0
DA:1254,0
DA:1254,10
DA:1254,1
DA:1254,0
DA:1254,0
DA:1254,0
DA:1254,17
DA:1254,0
DA:1254,0
DA:1254,0
DA:1254,0
DA:1254,0
DA:1256,17
DA:1265,17
DA:1256,0
DA:1265,0
DA:1256,0
DA:1265,0
DA:1256,0
DA:1265,0
DA:1256,0
DA:1265,0
DA:1256,0
DA:1265,0
DA:1256,0
DA:1265,0
DA:1256,0
DA:1265,0
DA:1256,0
DA:1265,0
DA:1256,0
DA:1265,0
DA:1256,0
DA:1265,0
DA:1256,1
DA:1265,1
DA:1256,11
DA:1265,11
DA:1256,0
DA:1265,0
DA:1256,0
DA:1265,0
DA:1256,7
DA:1265,7
DA:1256,0
DA:1265,0
DA:1256,0
DA:1265,0
DA:1266,0
DA:1267,0
DA:1272,0
DA:1276,0
DA:1266,0
DA:1267,0
DA:1272,0
DA:1276,0
DA:1266,0
DA:1267,0
DA:1272,0
DA:1276,0
DA:1266,0
DA:1267,0
DA:1272,0
DA:1276,0
DA:1266,0
DA:1267,0
DA:1272,0
DA:1276,0
DA:1266,0
DA:1267,0
DA:1272,0
DA:1276,0
DA:1266,0
DA:1267,0
DA:1272,0
DA:1276,0
DA:1266,0
DA:1267,0
DA:1272,0
DA:1276,0
DA:1266,1
DA:1267,1
DA:1272,1
DA:1276,1
DA:1266,0
DA:1267,0
DA:1272,0
DA:1276,0
DA:1266,0
DA:1267,0
DA:1272,0
DA:1276,0
DA:1266,0
DA:1267,0
DA:1272,0
DA:1276,0
DA:1266,0
DA:1267,0
DA:1272,0
DA:1276,0
DA:1277,0
DA:1278,0
DA:1279,0
DA:1280,0
DA:1281,0
DA:1282,0
DA:1288,0
DA:1277,0
DA:1278,0
DA:1279,0
DA:1280,0
DA:1281,0
DA:1282,0
DA:1288,0
DA:1277,0
DA:1278,0
DA:1279,0
DA:1280,0
DA:1281,0
DA:1282,0
DA:1288,0
DA:1277,0
DA:1278,0
DA:1279,0
DA:1280,0
DA:1281,0
DA:1282,0
DA:1288,0
DA:1277,0
DA:1278,0
DA:1279,0
DA:1280,0
DA:1281,0
DA:1282,0
DA:1288,0
DA:1277,0
DA:1278,0
DA:1279,0
DA:1280,0
DA:1281,0
DA:1282,0
DA:1288,0
DA:1277,0
DA:1278,0
DA:1279,0
DA:1280,0
DA:1281,0
DA:1282,0
DA:1288,0
DA:1277,0
DA:1278,0
DA:1279,0
DA:1280,0
DA:1281,0
DA:1282,0
DA:1288,0
DA:1277,2
DA:1278,2
DA:1279,2
DA:1280,2
DA:1281,2
DA:1282,2
DA:1288,2
DA:1277,0
DA:1278,0
DA:1279,0
DA:1280,0
DA:1281,0
DA:1282,0
DA:1288,0
DA:1277,0
DA:1278,0
DA:1279,0
DA:1280,0
DA:1281,0
DA:1282,0
DA:1288,0
DA:1277,0
DA:1278,0
DA:1279,0
DA:1280,0
DA:1281,0
DA:1282,0
DA:1288,0
DA:1277,0
DA:1278,0
DA:1279,0
DA:1280,0
DA:1281,0
DA:1282,0
DA:1288,0
DA:1277,0
DA:1278,0
DA:1279,0
DA:1280,0
DA:1281,0
DA:1282,0
DA:1288,0
DA:1456,0
DA:1460,0
DA:1461,0
DA:1456,0
DA:1460,0
DA:1461,0
DA:1456,0
DA:1460,0
DA:1461,0
DA:1456,0
DA:1460,0
DA:1461,0
DA:1456,0
DA:1460,0
DA:1461,0
DA:1456,0
DA:1460,0
DA:1461,0
DA:1456,106
DA:1460,106
DA:1461,106
DA:1456,0
DA:1460,0
DA:1461,0
DA:1456,0
DA:1460,0
DA:1461,0
DA:1456,0
DA:1460,0
DA:1461,0
DA:1456,0
DA:1460,0
DA:1461,0
DA:1456,0
DA:1460,0
DA:1461,0
DA:1456,0
DA:1460,0
DA:1461,0
DA:1456,2394
DA:1460,2394
DA:1461,2394
DA:1456,5
DA:1460,5
DA:1461,5
DA:1456,0
DA:1460,0
DA:1461,0
DA:1456,1169
DA:1460,1169
DA:1461,1169
DA:1456,0
DA:1460,0
DA:1461,0
DA:1456,0
DA:1460,0
DA:1461,0
DA:1456,0
DA:1460,0
DA:1461,0
DA:1456,0
DA:1460,0
DA:1461,0
DA:1466,0
DA:1470,0
DA:1471,0
DA:1466,0
DA:1470,0
DA:1471,0
DA:1466,0
DA:1470,0
DA:1471,0
DA:1466,0
DA:1470,0
DA:1471,0
DA:1466,0
DA:1470,0
DA:1471,0
DA:1466,26
DA:1470,26
DA:1471,26
DA:1466,0
DA:1470,0
DA:1471,0
DA:1466,0
DA:1470,0
DA:1471,0
DA:1466,0
DA:1470,0
DA:1471,0
DA:1466,0
DA:1470,0
DA:1471,0
DA:1466,15
DA:1470,15
DA:1471,15
DA:1466,0
DA:1470,0
DA:1471,0
DA:1466,0
DA:1470,0
DA:1471,0
DA:1466,16
DA:1470,16
DA:1471,16
DA:1466,0
DA:1470,0
DA:1471,0
DA:1476,0
DA:1478,0
DA:1480,0
DA:1476,0
DA:1478,0
DA:1480,0
DA:1476,0
DA:1478,0
DA:1480,0
DA:1476,0
DA:1478,0
DA:1480,0
DA:1476,0
DA:1478,0
DA:1480,0
DA:1476,0
DA:1478,0
DA:1480,0
DA:1476,0
DA:1478,0
DA:1480,0
DA:1476,0
DA:1478,0
DA:1480,0
DA:1476,27
DA:1478,27
DA:1480,27
DA:1476,0
DA:1478,0
DA:1480,0
DA:1476,0
DA:1478,0
DA:1480,0
DA:1476,336
DA:1478,336
DA:1480,336
DA:1476,0
DA:1478,0
DA:1480,0
DA:1476,0
DA:1478,0
DA:1480,0
DA:1476,0
DA:1478,0
DA:1480,0
DA:1476,0
DA:1478,0
DA:1480,0
DA:1476,1309
DA:1478,1309
DA:1480,1309
DA:1476,0
DA:1478,0
DA:1480,0
DA:1476,0
DA:1478,0
DA:1480,0
DA:1476,0
DA:1478,0
DA:1480,0
DA:1485,0
DA:1487,0
DA:1489,0
DA:1485,0
DA:1487,0
DA:1489,0
DA:1485,0
DA:1487,0
DA:1489,0
DA:1485,0
DA:1487,0
DA:1489,0
DA:1485,0
DA:1487,0
DA:1489,0
DA:1485,0
DA:1487,0
DA:1489,0
DA:1485,27
DA:1487,27
DA:1489,27
DA:1485,0
DA:1487,0
DA:1489,0
DA:1485,0
DA:1487,0
DA:1489,0
DA:1485,36
DA:1487,36
DA:1489,36
DA:1485,0
DA:1487,0
DA:1489,0
DA:1485,0
DA:1487,0
DA:1489,0
DA:1485,0
DA:1487,0
DA:1489,0
DA:1485,0
DA:1487,0
DA:1489,0
DA:1485,37
DA:1487,37
DA:1489,37
DA:1485,0
DA:1487,0
DA:1489,0
DA:1485,0
DA:1487,0
DA:1489,0
DA:1485,0
DA:1487,0
DA:1489,0
DA:1485,0
DA:1487,0
DA:1489,0
DA:1519,0
DA:1521,0
DA:1519,0
DA:1521,0
DA:1519,0
DA:1521,0
DA:1519,0
DA:1521,0
DA:1519,0
DA:1521,0
DA:1519,0
DA:1521,0
DA:1519,0
DA:1521,0
DA:1519,0
DA:1521,0
DA:1519,0
DA:1521,0
DA:1519,0
DA:1521,0
DA:1519,0
DA:1521,0
DA:1519,0
DA:1521,0
DA:1519,0
DA:1521,0
DA:1527,0
DA:1529,0
DA:1527,0
DA:1529,0
DA:1527,0
DA:1529,0
DA:1527,0
DA:1529,0
DA:1527,0
DA:1529,0
DA:1527,0
DA:1529,0
DA:1527,58
DA:1529,58
DA:1527,0
DA:1529,0
DA:1527,0
DA:1529,0
DA:1527,0
DA:1529,0
DA:1527,0
DA:1529,0
DA:1527,0
DA:1529,0
DA:1527,1091
DA:1529,1091
DA:1527,0
DA:1529,0
DA:1527,2349
DA:1529,2349
DA:1527,5
DA:1529,5
DA:1527,0
DA:1529,0
DA:1527,0
DA:1529,0
DA:1527,0
DA:1529,0
DA:1527,0
DA:1529,0
DA:1527,0
DA:1529,0
DA:1535,0
DA:1537,0
DA:1535,0
DA:1537,0
DA:1535,0
DA:1537,0
DA:1535,0
DA:1537,0
DA:1535,0
DA:1537,0
DA:1535,0
DA:1537,0
DA:1535,0
DA:1537,0
DA:1535,0
DA:1537,0
DA:1535,0
DA:1537,0
DA:1535,0
DA:1537,0
DA:1535,0
DA:1537,0
DA:1535,0
DA:1537,0
DA:1535,0
DA:1537,0
DA:1535,0
DA:1537,0
DA:1535,0
DA:1537,0
DA:1535,0
DA:1537,0
DA:1535,0
DA:1537,0
DA:1535,0
DA:1537,0
DA:1535,0
DA:1537,0
DA:1551,0
DA:1553,0
DA:1551,0
DA:1553,0
DA:1551,0
DA:1553,0
DA:1551,0
DA:1553,0
DA:1551,0
DA:1553,0
DA:1551,0
DA:1553,0
DA:1551,0
DA:1553,0
DA:1551,0
DA:1553,0
DA:1551,0
DA:1553,0
DA:1551,0
DA:1553,0
DA:1551,0
DA:1553,0
DA:1551,0
DA:1553,0
DA:1551,0
DA:1553,0
DA:1551,0
DA:1553,0
DA:1676,34
DA:1683,34
DA:1685,34
DA:1686,34
DA:1687,34
DA:1688,34
DA:1676,0
DA:1683,0
DA:1685,0
DA:1686,0
DA:1687,0
DA:1688,0
DA:1676,0
DA:1683,0
DA:1685,0
DA:1686,0
DA:1687,0
DA:1688,0
DA:1676,0
DA:1683,0
DA:1685,0
DA:1686,0
DA:1687,0
DA:1688,0
DA:1676,0
DA:1683,0
DA:1685,0
DA:1686,0
DA:1687,0
DA:1688,0
DA:1676,0
DA:1683,0
DA:1685,0
DA:1686,0
DA:1687,0
DA:1688,0
DA:1676,0
DA:1683,0
DA:1685,0
DA:1686,0
DA:1687,0
DA:1688,0
DA:1676,0
DA:1683,0
DA:1685,0
DA:1686,0
DA:1687,0
DA:1688,0
DA:1676,0
DA:1683,0
DA:1685,0
DA:1686,0
DA:1687,0
DA:1688,0
DA:1676,0
DA:1683,0
DA:1685,0
DA:1686,0
DA:1687,0
DA:1688,0
DA:1676,0
DA:1683,0
DA:1685,0
DA:1686,0
DA:1687,0
DA:1688,0
DA:1676,0
DA:1683,0
DA:1685,0
DA:1686,0
DA:1687,0
DA:1688,0
DA:1676,2
DA:1683,2
DA:1685,2
DA:1686,2
DA:1687,2
DA:1688,2
DA:1676,26
DA:1683,26
DA:1685,26
DA:1686,26
DA:1687,26
DA:1688,26
DA:1676,0
DA:1683,0
DA:1685,0
DA:1686,0
DA:1687,0
DA:1688,0
DA:1676,0
DA:1683,0
DA:1685,0
DA:1686,0
DA:1687,0
DA:1688,0
DA:1676,14
DA:1683,14
DA:1685,14
DA:1686,14
DA:1687,14
DA:1688,14
DA:1676,0
DA:1683,0
DA:1685,0
DA:1686,0
DA:1687,0
DA:1688,0
DA:1676,0
DA:1683,0
DA:1685,0
DA:1686,0
DA:1687,0
DA:1688,0
DA:1730,34
DA:1732,34
DA:1734,17
DA:1735,17
DA:1738,34
DA:1739,140
DA:1740,106
DA:1741,106
DA:1742,106
DA:1745,34
DA:1746,34
DA:1747,34
DA:1748,34
DA:1751,34
DA:1752,34
DA:1753,17
DA:1756,34
DA:1758,34
DA:1759,34
DA:1730,0
DA:1732,0
DA:1734,0
DA:1735,0
DA:1738,0
DA:1739,0
DA:1740,0
DA:1741,0
DA:1742,0
DA:1745,0
DA:1746,0
DA:1747,0
DA:1748,0
DA:1751,0
DA:1752,0
DA:1753,0
DA:1756,0
DA:1758,0
DA:1759,0
DA:1730,0
DA:1732,0
DA:1734,0
DA:1735,0
DA:1738,0
DA:1739,0
DA:1740,0
DA:1741,0
DA:1742,0
DA:1745,0
DA:1746,0
DA:1747,0
DA:1748,0
DA:1751,0
DA:1752,0
DA:1753,0
DA:1756,0
DA:1758,0
DA:1759,0
DA:1730,0
DA:1732,0
DA:1734,0
DA:1735,0
DA:1738,0
DA:1739,0
DA:1740,0
DA:1741,0
DA:1742,0
DA:1745,0
DA:1746,0
DA:1747,0
DA:1748,0
DA:1751,0
DA:1752,0
DA:1753,0
DA:1756,0
DA:1758,0
DA:1759,0
DA:1730,0
DA:1732,0
DA:1734,0
DA:1735,0
DA:1738,0
DA:1739,0
DA:1740,0
DA:1741,0
DA:1742,0
DA:1745,0
DA:1746,0
DA:1747,0
DA:1748,0
DA:1751,0
DA:1752,0
DA:1753,0
DA:1756,0
DA:1758,0
DA:1759,0
DA:1730,0
DA:1732,0
DA:1734,0
DA:1735,0
DA:1738,0
DA:1739,0
DA:1740,0
DA:1741,0
DA:1742,0
DA:1745,0
DA:1746,0
DA:1747,0
DA:1748,0
DA:1751,0
DA:1752,0
DA:1753,0
DA:1756,0
DA:1758,0
DA:1759,0
DA:1730,0
DA:1732,0
DA:1734,0
DA:1735,0
DA:1738,0
DA:1739,0
DA:1740,0
DA:1741,0
DA:1742,0
DA:1745,0
DA:1746,0
DA:1747,0
DA:1748,0
DA:1751,0
DA:1752,0
DA:1753,0
DA:1756,0
DA:1758,0
DA:1759,0
DA:1730,0
DA:1732,0
DA:1734,0
DA:1735,0
DA:1738,0
DA:1739,0
DA:1740,0
DA:1741,0
DA:1742,0
DA:1745,0
DA:1746,0
DA:1747,0
DA:1748,0
DA:1751,0
DA:1752,0
DA:1753,0
DA:1756,0
DA:1758,0
DA:1759,0
DA:1730,0
DA:1732,0
DA:1734,0
DA:1735,0
DA:1738,0
DA:1739,0
DA:1740,0
DA:1741,0
DA:1742,0
DA:1745,0
DA:1746,0
DA:1747,0
DA:1748,0
DA:1751,0
DA:1752,0
DA:1753,0
DA:1756,0
DA:1758,0
DA:1759,0
DA:1730,0
DA:1732,0
DA:1734,0
DA:1735,0
DA:1738,0
DA:1739,0
DA:1740,0
DA:1741,0
DA:1742,0
DA:1745,0
DA:1746,0
DA:1747,0
DA:1748,0
DA:1751,0
DA:1752,0
DA:1753,0
DA:1756,0
DA:1758,0
DA:1759,0
DA:1730,0
DA:1732,0
DA:1734,0
DA:1735,0
DA:1738,0
DA:1739,0
DA:1740,0
DA:1741,0
DA:1742,0
DA:1745,0
DA:1746,0
DA:1747,0
DA:1748,0
DA:1751,0
DA:1752,0
DA:1753,0
DA:1756,0
DA:1758,0
DA:1759,0
DA:1730,0
DA:1732,0
DA:1734,0
DA:1735,0
DA:1738,0
DA:1739,0
DA:1740,0
DA:1741,0
DA:1742,0
DA:1745,0
DA:1746,0
DA:1747,0
DA:1748,0
DA:1751,0
DA:1752,0
DA:1753,0
DA:1756,0
DA:1758,0
DA:1759,0
DA:1730,2
DA:1732,2
DA:1734,1
DA:1735,1
DA:1738,2
DA:1739,3
DA:1740,1
DA:1741,1
DA:1742,1
DA:1745,2
DA:1746,2
DA:1747,2
DA:1748,2
DA:1751,2
DA:1752,2
DA:1753,1
DA:1756,2
DA:1758,2
DA:1759,2
DA:1730,26
DA:1732,26
DA:1734,10
DA:1735,10
DA:1738,26
DA:1739,74
DA:1740,48
DA:1741,48
DA:1742,48
DA:1745,26
DA:1746,26
DA:1747,26
DA:1748,26
DA:1751,26
DA:1752,20
DA:1753,10
DA:1756,26
DA:1758,26
DA:1759,26
DA:1730,0
DA:1732,0
DA:1734,0
DA:1735,0
DA:1738,0
DA:1739,0
DA:1740,0
DA:1741,0
DA:1742,0
DA:1745,0
DA:1746,0
DA:1747,0
DA:1748,0
DA:1751,0
DA:1752,0
DA:1753,0
DA:1756,0
DA:1758,0
DA:1759,0
DA:1730,0
DA:1732,0
DA:1734,0
DA:1735,0
DA:1738,0
DA:1739,0
DA:1740,0
DA:1741,0
DA:1742,0
DA:1745,0
DA:1746,0
DA:1747,0
DA:1748,0
DA:1751,0
DA:1752,0
DA:1753,0
DA:1756,0
DA:1758,0
DA:1759,0
DA:1730,14
DA:1732,14
DA:1734,7
DA:1735,7
DA:1738,14
DA:1739,47
DA:1740,33
DA:1741,33
DA:1742,33
DA:1745,14
DA:1746,14
DA:1747,14
DA:1748,14
DA:1751,14
DA:1752,14
DA:1753,7
DA:1756,14
DA:1758,14
DA:1759,14
DA:1730,0
DA:1732,0
DA:1734,0
DA:1735,0
DA:1738,0
DA:1739,0
DA:1740,0
DA:1741,0
DA:1742,0
DA:1745,0
DA:1746,0
DA:1747,0
DA:1748,0
DA:1751,0
DA:1752,0
DA:1753,0
DA:1756,0
DA:1758,0
DA:1759,0
DA:1730,0
DA:1732,0
DA:1734,0
DA:1735,0
DA:1738,0
DA:1739,0
DA:1740,0
DA:1741,0
DA:1742,0
DA:1745,0
DA:1746,0
DA:1747,0
DA:1748,0
DA:1751,0
DA:1752,0
DA:1753,0
DA:1756,0
DA:1758,0
DA:1759,0
DA:1768,0
DA:1771,0
DA:1772,0
DA:1816,0
DA:1817,0
DA:1819,0
DA:1820,0
DA:1816,0
DA:1817,0
DA:1819,0
DA:1820,0
DA:1816,0
DA:1817,0
DA:1819,0
DA:1820,0
DA:1816,0
DA:1817,0
DA:1819,0
DA:1820,0
DA:1816,2
DA:1817,2
DA:1819,2
DA:1820,2
DA:1816,0
DA:1817,0
DA:1819,0
DA:1820,0
DA:1816,0
DA:1817,0
DA:1819,0
DA:1820,0
DA:1816,0
DA:1817,0
DA:1819,0
DA:1820,0
DA:1816,0
DA:1817,0
DA:1819,0
DA:1820,0
DA:1816,0
DA:1817,0
DA:1819,0
DA:1820,0
DA:1816,0
DA:1817,0
DA:1819,0
DA:1820,0
DA:1816,0
DA:1817,0
DA:1819,0
DA:1820,0
DA:1816,3
DA:1817,3
DA:1819,3
DA:1820,3
DA:1831,0
DA:1837,0
DA:1838,0
DA:1831,0
DA:1837,0
DA:1838,0
DA:1831,0
DA:1837,0
DA:1838,0
DA:1831,4
DA:1837,4
DA:1838,4
DA:1831,0
DA:1837,0
DA:1838,0
DA:1831,0
DA:1837,0
DA:1838,0
DA:1831,10
DA:1837,10
DA:1838,10
DA:1831,1
DA:1837,1
DA:1838,1
DA:1831,0
DA:1837,0
DA:1838,0
DA:1831,0
DA:1837,0
DA:1838,0
DA:1831,0
DA:1837,0
DA:1838,0
DA:1831,15
DA:1837,15
DA:1838,15
DA:1831,0
DA:1837,0
DA:1838,0
DA:1831,0
DA:1837,0
DA:1838,0
DA:1831,0
DA:1837,0
DA:1838,0
DA:1831,0
DA:1837,0
DA:1838,0
DA:1831,0
DA:1837,0
DA:1838,0
DA:1841,0
DA:1848,0
DA:1850,0
DA:1851,0
DA:1852,0
DA:1841,0
DA:1848,0
DA:1850,0
DA:1851,0
DA:1852,0
DA:1841,0
DA:1848,0
DA:1850,0
DA:1851,0
DA:1852,0
DA:1841,4
DA:1848,4
DA:1850,4
DA:1851,4
DA:1852,4
DA:1841,0
DA:1848,0
DA:1850,0
DA:1851,0
DA:1852,0
DA:1841,0
DA:1848,0
DA:1850,0
DA:1851,0
DA:1852,0
DA:1841,10
DA:1848,10
DA:1850,10
DA:1851,10
DA:1852,10
DA:1841,1
DA:1848,1
DA:1850,1
DA:1851,1
DA:1852,1
DA:1841,0
DA:1848,0
DA:1850,0
DA:1851,0
DA:1852,0
DA:1841,0
DA:1848,0
DA:1850,0
DA:1851,0
DA:1852,0
DA:1841,0
DA:1848,0
DA:1850,0
DA:1851,0
DA:1852,0
DA:1841,15
DA:1848,15
DA:1850,15
DA:1851,15
DA:1852,15
DA:1841,0
DA:1848,0
DA:1850,0
DA:1851,0
DA:1852,0
DA:1841,0
DA:1848,0
DA:1850,0
DA:1851,0
DA:1852,0
DA:1841,0
DA:1848,0
DA:1850,0
DA:1851,0
DA:1852,0
DA:1841,0
DA:1848,0
DA:1850,0
DA:1851,0
DA:1852,0
DA:1841,0
DA:1848,0
DA:1850,0
DA:1851,0
DA:1852,0
DA:1877,0
DA:1879,0
DA:1880,0
DA:1881,0
DA:1882,0
DA:1886,0
DA:1889,0
DA:1890,0
DA:1893,0
DA:1894,0
DA:1895,0
DA:1896,0
DA:1897,0
DA:1877,0
DA:1879,0
DA:1880,0
DA:1881,0
DA:1882,0
DA:1886,0
DA:1889,0
DA:1890,0
DA:1893,0
DA:1894,0
DA:1895,0
DA:1896,0
DA:1897,0
DA:1877,0
DA:1879,0
DA:1880,0
DA:1881,0
DA:1882,0
DA:1886,0
DA:1889,0
DA:1890,0
DA:1893,0
DA:1894,0
DA:1895,0
DA:1896,0
DA:1897,0
DA:1877,0
DA:1879,0
DA:1880,0
DA:1881,0
DA:1882,0
DA:1886,0
DA:1889,0
DA:1890,0
DA:1893,0
DA:1894,0
DA:1895,0
DA:1896,0
DA:1897,0
DA:1877,0
DA:1879,0
DA:1880,0
DA:1881,0
DA:1882,0
DA:1886,0
DA:1889,0
DA:1890,0
DA:1893,0
DA:1894,0
DA:1895,0
DA:1896,0
DA:1897,0
DA:1877,0
DA:1879,0
DA:1880,0
DA:1881,0
DA:1882,0
DA:1886,0
DA:1889,0
DA:1890,0
DA:1893,0
DA:1894,0
DA:1895,0
DA:1896,0
DA:1897,0
DA:1877,0
DA:1879,0
DA:1880,0
DA:1881,0
DA:1882,0
DA:1886,0
DA:1889,0
DA:1890,0
DA:1893,0
DA:1894,0
DA:1895,0
DA:1896,0
DA:1897,0
DA:1877,0
DA:1879,0
DA:1880,0
DA:1881,0
DA:1882,0
DA:1886,0
DA:1889,0
DA:1890,0
DA:1893,0
DA:1894,0
DA:1895,0
DA:1896,0
DA:1897,0
DA:1877,1
DA:1879,1
DA:1880,1
DA:1881,1
DA:1882,1
DA:1886,1
DA:1889,1
DA:1890,3
DA:1893,1
DA:1894,1
DA:1895,1
DA:1896,1
DA:1897,1
DA:1877,0
DA:1879,0
DA:1880,0
DA:1881,0
DA:1882,0
DA:1886,0
DA:1889,0
DA:1890,0
DA:1893,0
DA:1894,0
DA:1895,0
DA:1896,0
DA:1897,0
DA:1877,0
DA:1879,0
DA:1880,0
DA:1881,0
DA:1882,0
DA:1886,0
DA:1889,0
DA:1890,0
DA:1893,0
DA:1894,0
DA:1895,0
DA:1896,0
DA:1897,0
DA:1877,0
DA:1879,0
DA:1880,0
DA:1881,0
DA:1882,0
DA:1886,0
DA:1889,0
DA:1890,0
DA:1893,0
DA:1894,0
DA:1895,0
DA:1896,0
DA:1897,0
DA:1877,0
DA:1879,0
DA:1880,0
DA:1881,0
DA:1882,0
DA:1886,0
DA:1889,0
DA:1890,0
DA:1893,0
DA:1894,0
DA:1895,0
DA:1896,0
DA:1897,0
DA:1901,0
DA:1903,0
DA:1905,0
DA:1907,0
DA:1908,0
DA:1909,0
DA:1910,0
DA:1911,0
DA:1915,0
DA:1916,0
DA:1917,0
DA:1918,0
DA:1919,0
DA:1921,0
DA:1922,0
DA:1923,0
DA:1924,0
DA:1926,0
DA:1901,0
DA:1903,0
DA:1905,0
DA:1907,0
DA:1908,0
DA:1909,0
DA:1910,0
DA:1911,0
DA:1915,0
DA:1916,0
DA:1917,0
DA:1918,0
DA:1919,0
DA:1921,0
DA:1922,0
DA:1923,0
DA:1924,0
DA:1926,0
DA:1901,0
DA:1903,0
DA:1905,0
DA:1907,0
DA:1908,0
DA:1909,0
DA:1910,0
DA:1911,0
DA:1915,0
DA:1916,0
DA:1917,0
DA:1918,0
DA:1919,0
DA:1921,0
DA:1922,0
DA:1923,0
DA:1924,0
DA:1926,0
DA:1901,0
DA:1903,0
DA:1905,0
DA:1907,0
DA:1908,0
DA:1909,0
DA:1910,0
DA:1911,0
DA:1915,0
DA:1916,0
DA:1917,0
DA:1918,0
DA:1919,0
DA:1921,0
DA:1922,0
DA:1923,0
DA:1924,0
DA:1926,0
DA:1901,0
DA:1903,0
DA:1905,0
DA:1907,0
DA:1908,0
DA:1909,0
DA:1910,0
DA:1911,0
DA:1915,0
DA:1916,0
DA:1917,0
DA:1918,0
DA:1919,0
DA:1921,0
DA:1922,0
DA:1923,0
DA:1924,0
DA:1926,0
DA:1901,0
DA:1903,0
DA:1905,0
DA:1907,0
DA:1908,0
DA:1909,0
DA:1910,0
DA:1911,0
DA:1915,0
DA:1916,0
DA:1917,0
DA:1918,0
DA:1919,0
DA:1921,0
DA:1922,0
DA:1923,0
DA:1924,0
DA:1926,0
DA:1901,0
DA:1903,0
DA:1905,0
DA:1907,0
DA:1908,0
DA:1909,0
DA:1910,0
DA:1911,0
DA:1915,0
DA:1916,0
DA:1917,0
DA:1918,0
DA:1919,0
DA:1921,0
DA:1922,0
DA:1923,0
DA:1924,0
DA:1926,0
DA:1901,0
DA:1903,0
DA:1905,0
DA:1907,0
DA:1908,0
DA:1909,0
DA:1910,0
DA:1911,0
DA:1915,0
DA:1916,0
DA:1917,0
DA:1918,0
DA:1919,0
DA:1921,0
DA:1922,0
DA:1923,0
DA:1924,0
DA:1926,0
DA:1901,2
DA:1903,2
DA:1905,2
DA:1907,2
DA:1908,2
DA:1909,2
DA:1910,2
DA:1911,2
DA:1915,2
DA:1916,2
DA:1917,2
DA:1918,2
DA:1919,2
DA:1921,2
DA:1922,2
DA:1923,2
DA:1924,2
DA:1926,2
DA:1901,0
DA:1903,0
DA:1905,0
DA:1907,0
DA:1908,0
DA:1909,0
DA:1910,0
DA:1911,0
DA:1915,0
DA:1916,0
DA:1917,0
DA:1918,0
DA:1919,0
DA:1921,0
DA:1922,0
DA:1923,0
DA:1924,0
DA:1926,0
DA:1901,0
DA:1903,0
DA:1905,0
DA:1907,0
DA:1908,0
DA:1909,0
DA:1910,0
DA:1911,0
DA:1915,0
DA:1916,0
DA:1917,0
DA:1918,0
DA:1919,0
DA:1921,0
DA:1922,0
DA:1923,0
DA:1924,0
DA:1926,0
DA:1901,0
DA:1903,0
DA:1905,0
DA:1907,0
DA:1908,0
DA:1909,0
DA:1910,0
DA:1911,0
DA:1915,0
DA:1916,0
DA:1917,0
DA:1918,0
DA:1919,0
DA:1921,0
DA:1922,0
DA:1923,0
DA:1924,0
DA:1926,0
DA:1901,0
DA:1903,0
DA:1905,0
DA:1907,0
DA:1908,0
DA:1909,0
DA:1910,0
DA:1911,0
DA:1915,0
DA:1916,0
DA:1917,0
DA:1918,0
DA:1919,0
DA:1921,0
DA:1922,0
DA:1923,0
DA:1924,0
DA:1926,0
DA:1901,0
DA:1903,0
DA:1905,0
DA:1907,0
DA:1908,0
DA:1909,0
DA:1910,0
DA:1911,0
DA:1915,0
DA:1916,0
DA:1917,0
DA:1918,0
DA:1919,0
DA:1921,0
DA:1922,0
DA:1923,0
DA:1924,0
DA:1926,0
DA:1930,17
DA:1932,17
DA:1933,17
DA:1934,17
DA:1930,0
DA:1932,0
DA:1933,0
DA:1934,0
DA:1930,0
DA:1932,0
DA:1933,0
DA:1934,0
DA:1930,0
DA:1932,0
DA:1933,0
DA:1934,0
DA:1930,0
DA:1932,0
DA:1933,0
DA:1934,0
DA:1930,0
DA:1932,0
DA:1933,0
DA:1934,0
DA:1930,0
DA:1932,0
DA:1933,0
DA:1934,0
DA:1930,0
DA:1932,0
DA:1933,0
DA:1934,0
DA:1930,0
DA:1932,0
DA:1933,0
DA:1934,0
DA:1930,0
DA:1932,0
DA:1933,0
DA:1934,0
DA:1930,0
DA:1932,0
DA:1933,0
DA:1934,0
DA:1930,1
DA:1932,1
DA:1933,1
DA:1934,1
DA:1930,11
DA:1932,11
DA:1933,11
DA:1934,11
DA:1930,0
DA:1932,0
DA:1933,0
DA:1934,0
DA:1930,0
DA:1932,0
DA:1933,0
DA:1934,0
DA:1930,7
DA:1932,7
DA:1933,7
DA:1934,7
DA:1930,0
DA:1932,0
DA:1933,0
DA:1934,0
DA:1930,0
DA:1932,0
DA:1933,0
DA:1934,0
DA:1973,0
DA:1980,0
DA:1981,0
DA:1973,0
DA:1980,0
DA:1981,0
DA:1973,0
DA:1980,0
DA:1981,0
DA:1973,0
DA:1980,0
DA:1981,0
DA:1973,2
DA:1980,2
DA:1981,2
DA:1973,0
DA:1980,0
DA:1981,0
DA:1973,0
DA:1980,0
DA:1981,0
DA:1973,0
DA:1980,0
DA:1981,0
DA:1973,0
DA:1980,0
DA:1981,0
DA:1973,0
DA:1980,0
DA:1981,0
DA:1973,0
DA:1980,0
DA:1981,0
DA:1973,0
DA:1980,0
DA:1981,0
DA:1973,3
DA:1980,3
DA:1981,3
DA:1985,0
DA:1992,0
DA:1994,0
DA:1995,0
DA:1997,0
DA:1998,0
DA:2000,0
DA:2004,0
DA:2006,0
DA:2008,0
DA:2009,0
DA:2014,0
DA:1985,0
DA:1992,0
DA:1994,0
DA:1995,0
DA:1997,0
DA:1998,0
DA:2000,0
DA:2004,0
DA:2006,0
DA:2008,0
DA:2009,0
DA:2014,0
DA:1985,0
DA:1992,0
DA:1994,0
DA:1995,0
DA:1997,0
DA:1998,0
DA:2000,0
DA:2004,0
DA:2006,0
DA:2008,0
DA:2009,0
DA:2014,0
DA:1985,7
DA:1992,14
DA:1994,7
DA:1995,7
DA:1997,7
DA:1998,7
DA:2000,7
DA:2004,7
DA:2006,7
DA:2008,7
DA:2009,7
DA:2014,7
DA:1985,0
DA:1992,0
DA:1994,0
DA:1995,0
DA:1997,0
DA:1998,0
DA:2000,0
DA:2004,0
DA:2006,0
DA:2008,0
DA:2009,0
DA:2014,0
DA:1985,0
DA:1992,0
DA:1994,0
DA:1995,0
DA:1997,0
DA:1998,0
DA:2000,0
DA:2004,0
DA:2006,0
DA:2008,0
DA:2009,0
DA:2014,0
DA:1985,10
DA:1992,20
DA:1994,10
DA:1995,10
DA:1997,10
DA:1998,10
DA:2000,10
DA:2004,10
DA:2006,10
DA:2008,10
DA:2009,10
DA:2014,10
DA:1985,1
DA:1992,2
DA:1994,1
DA:1995,1
DA:1997,1
DA:1998,1
DA:2000,1
DA:2004,1
DA:2006,1
DA:2008,1
DA:2009,1
DA:2014,1
DA:1985,0
DA:1992,0
DA:1994,0
DA:1995,0
DA:1997,0
DA:1998,0
DA:2000,0
DA:2004,0
DA:2006,0
DA:2008,0
DA:2009,0
DA:2014,0
DA:1985,0
DA:1992,0
DA:1994,0
DA:1995,0
DA:1997,0
DA:1998,0
DA:2000,0
DA:2004,0
DA:2006,0
DA:2008,0
DA:2009,0
DA:2014,0
DA:1985,0
DA:1992,0
DA:1994,0
DA:1995,0
DA:1997,0
DA:1998,0
DA:2000,0
DA:2004,0
DA:2006,0
DA:2008,0
DA:2009,0
DA:2014,0
DA:1985,17
DA:1992,34
DA:1994,17
DA:1995,17
DA:1997,17
DA:1998,17
DA:2000,17
DA:2004,17
DA:2006,17
DA:2008,17
DA:2009,17
DA:2014,17
DA:1985,0
DA:1992,0
DA:1994,0
DA:1995,0
DA:1997,0
DA:1998,0
DA:2000,0
DA:2004,0
DA:2006,0
DA:2008,0
DA:2009,0
DA:2014,0
DA:1985,0
DA:1992,0
DA:1994,0
DA:1995,0
DA:1997,0
DA:1998,0
DA:2000,0
DA:2004,0
DA:2006,0
DA:2008,0
DA:2009,0
DA:2014,0
DA:1985,0
DA:1992,0
DA:1994,0
DA:1995,0
DA:1997,0
DA:1998,0
DA:2000,0
DA:2004,0
DA:2006,0
DA:2008,0
DA:2009,0
DA:2014,0
DA:1985,0
DA:1992,0
DA:1994,0
DA:1995,0
DA:1997,0
DA:1998,0
DA:2000,0
DA:2004,0
DA:2006,0
DA:2008,0
DA:2009,0
DA:2014,0
DA:1985,0
DA:1992,0
DA:1994,0
DA:1995,0
DA:1997,0
DA:1998,0
DA:2000,0
DA:2004,0
DA:2006,0
DA:2008,0
DA:2009,0
DA:2014,0
DA:2018,0
DA:2021,0
DA:2022,0
DA:2023,0
DA:2025,0
DA:2027,0
DA:2028,0
DA:2030,0
DA:2032,0
DA:2033,0
DA:2035,0
DA:2036,0
DA:2037,0
DA:2038,0
DA:2041,0
DA:2042,0
DA:2043,0
DA:2044,0
DA:2046,0
DA:2047,0
DA:2049,0
DA:2050,0
DA:2126,0
DA:2018,0
DA:2021,0
DA:2022,0
DA:2023,0
DA:2025,0
DA:2027,0
DA:2028,0
DA:2030,0
DA:2032,0
DA:2033,0
DA:2035,0
DA:2036,0
DA:2037,0
DA:2038,0
DA:2041,0
DA:2042,0
DA:2043,0
DA:2044,0
DA:2046,0
DA:2047,0
DA:2049,0
DA:2050,0
DA:2126,0
DA:2018,0
DA:2021,0
DA:2022,0
DA:2023,0
DA:2025,0
DA:2027,0
DA:2028,0
DA:2030,0
DA:2032,0
DA:2033,0
DA:2035,0
DA:2036,0
DA:2037,0
DA:2038,0
DA:2041,0
DA:2042,0
DA:2043,0
DA:2044,0
DA:2046,0
DA:2047,0
DA:2049,0
DA:2050,0
DA:2126,0
DA:2018,7
DA:2021,7
DA:2022,7
DA:2023,7
DA:2025,7
DA:2027,7
DA:2028,7
DA:2030,7
DA:2032,7
DA:2033,40
DA:2035,33
DA:2036,33
DA:2037,33
DA:2038,33
DA:2041,7
DA:2042,7
DA:2043,7
DA:2044,0
DA:2046,7
DA:2047,0
DA:2049,14
DA:2050,7
DA:2126,7
DA:2018,0
DA:2021,0
DA:2022,0
DA:2023,0
DA:2025,0
DA:2027,0
DA:2028,0
DA:2030,0
DA:2032,0
DA:2033,0
DA:2035,0
DA:2036,0
DA:2037,0
DA:2038,0
DA:2041,0
DA:2042,0
DA:2043,0
DA:2044,0
DA:2046,0
DA:2047,0
DA:2049,0
DA:2050,0
DA:2126,0
DA:2018,0
DA:2021,0
DA:2022,0
DA:2023,0
DA:2025,0
DA:2027,0
DA:2028,0
DA:2030,0
DA:2032,0
DA:2033,0
DA:2035,0
DA:2036,0
DA:2037,0
DA:2038,0
DA:2041,0
DA:2042,0
DA:2043,0
DA:2044,0
DA:2046,0
DA:2047,0
DA:2049,0
DA:2050,0
DA:2126,0
DA:2018,10
DA:2021,10
DA:2022,10
DA:2023,10
DA:2025,10
DA:2027,10
DA:2028,10
DA:2030,10
DA:2032,10
DA:2033,58
DA:2035,48
DA:2036,48
DA:2037,48
DA:2038,48
DA:2041,10
DA:2042,10
DA:2043,10
DA:2044,0
DA:2046,10
DA:2047,0
DA:2049,20
DA:2050,10
DA:2126,10
DA:2018,1
DA:2021,1
DA:2022,1
DA:2023,1
DA:2025,1
DA:2027,1
DA:2028,1
DA:2030,1
DA:2032,1
DA:2033,2
DA:2035,1
DA:2036,1
DA:2037,1
DA:2038,1
DA:2041,1
DA:2042,1
DA:2043,1
DA:2044,0
DA:2046,1
DA:2047,0
DA:2049,2
DA:2050,1
DA:2126,1
DA:2018,0
DA:2021,0
DA:2022,0
DA:2023,0
DA:2025,0
DA:2027,0
DA:2028,0
DA:2030,0
DA:2032,0
DA:2033,0
DA:2035,0
DA:2036,0
DA:2037,0
DA:2038,0
DA:2041,0
DA:2042,0
DA:2043,0
DA:2044,0
DA:2046,0
DA:2047,0
DA:2049,0
DA:2050,0
DA:2126,0
DA:2018,0
DA:2021,0
DA:2022,0
DA:2023,0
DA:2025,0
DA:2027,0
DA:2028,0
DA:2030,0
DA:2032,0
DA:2033,0
DA:2035,0
DA:2036,0
DA:2037,0
DA:2038,0
DA:2041,0
DA:2042,0
DA:2043,0
DA:2044,0
DA:2046,0
DA:2047,0
DA:2049,0
DA:2050,0
DA:2126,0
DA:2018,0
DA:2021,0
DA:2022,0
DA:2023,0
DA:2025,0
DA:2027,0
DA:2028,0
DA:2030,0
DA:2032,0
DA:2033,0
DA:2035,0
DA:2036,0
DA:2037,0
DA:2038,0
DA:2041,0
DA:2042,0
DA:2043,0
DA:2044,0
DA:2046,0
DA:2047,0
DA:2049,0
DA:2050,0
DA:2126,0
DA:2018,17
DA:2021,17
DA:2022,17
DA:2023,17
DA:2025,17
DA:2027,17
DA:2028,17
DA:2030,17
DA:2032,17
DA:2033,123
DA:2035,106
DA:2036,106
DA:2037,106
DA:2038,106
DA:2041,17
DA:2042,17
DA:2043,17
DA:2044,0
DA:2046,17
DA:2047,0
DA:2049,34
DA:2050,17
DA:2126,17
DA:2018,0
DA:2021,0
DA:2022,0
DA:2023,0
DA:2025,0
DA:2027,0
DA:2028,0
DA:2030,0
DA:2032,0
DA:2033,0
DA:2035,0
DA:2036,0
DA:2037,0
DA:2038,0
DA:2041,0
DA:2042,0
DA:2043,0
DA:2044,0
DA:2046,0
DA:2047,0
DA:2049,0
DA:2050,0
DA:2126,0
DA:2018,0
DA:2021,0
DA:2022,0
DA:2023,0
DA:2025,0
DA:2027,0
DA:2028,0
DA:2030,0
DA:2032,0
DA:2033,0
DA:2035,0
DA:2036,0
DA:2037,0
DA:2038,0
DA:2041,0
DA:2042,0
DA:2043,0
DA:2044,0
DA:2046,0
DA:2047,0
DA:2049,0
DA:2050,0
DA:2126,0
DA:2018,0
DA:2021,0
DA:2022,0
DA:2023,0
DA:2025,0
DA:2027,0
DA:2028,0
DA:2030,0
DA:2032,0
DA:2033,0
DA:2035,0
DA:2036,0
DA:2037,0
DA:2038,0
DA:2041,0
DA:2042,0
DA:2043,0
DA:2044,0
DA:2046,0
DA:2047,0
DA:2049,0
DA:2050,0
DA:2126,0
DA:2018,0
DA:2021,0
DA:2022,0
DA:2023,0
DA:2025,0
DA:2027,0
DA:2028,0
DA:2030,0
DA:2032,0
DA:2033,0
DA:2035,0
DA:2036,0
DA:2037,0
DA:2038,0
DA:2041,0
DA:2042,0
DA:2043,0
DA:2044,0
DA:2046,0
DA:2047,0
DA:2049,0
DA:2050,0
DA:2126,0
DA:2018,0
DA:2021,0
DA:2022,0
DA:2023,0
DA:2025,0
DA:2027,0
DA:2028,0
DA:2030,0
DA:2032,0
DA:2033,0
DA:2035,0
DA:2036,0
DA:2037,0
DA:2038,0
DA:2041,0
DA:2042,0
DA:2043,0
DA:2044,0
DA:2046,0
DA:2047,0
DA:2049,0
DA:2050,0
DA:2126,0
DA:2236,0
DA:2240,0
DA:2326,0
DA:2328,0
DA:2332,0
DA:2427,0
DA:2429,0
DA:2430,0
DA:2427,0
DA:2429,0
DA:2430,0
DA:2427,0
DA:2429,0
DA:2430,0
DA:2427,0
DA:2429,0
DA:2430,0
DA:2427,0
DA:2429,0
DA:2430,0
DA:2427,1
DA:2429,1
DA:2430,1
DA:2427,0
DA:2429,0
DA:2430,0
DA:2427,0
DA:2429,0
DA:2430,0
DA:2427,7
DA:2429,7
DA:2430,7
DA:2427,1
DA:2429,1
DA:2430,1
DA:2427,0
DA:2429,0
DA:2430,0
DA:2427,0
DA:2429,0
DA:2430,0
DA:2427,0
DA:2429,0
DA:2430,0
DA:2427,14
DA:2429,14
DA:2430,14
DA:2427,0
DA:2429,0
DA:2430,0
DA:2427,0
DA:2429,0
DA:2430,0
DA:2427,160
DA:2429,160
DA:2430,160
DA:2427,1
DA:2429,1
DA:2430,1
DA:2427,0
DA:2429,0
DA:2430,0
DA:2444,0
DA:2449,0
DA:2450,0
DA:2455,0
DA:2482,0
DA:2484,0
DA:2485,0
DA:2486,0
DA:2492,0
DA:2455,0
DA:2482,0
DA:2484,0
DA:2485,0
DA:2486,0
DA:2492,0
DA:2455,0
DA:2482,0
DA:2484,0
DA:2485,0
DA:2486,0
DA:2492,0
DA:2455,0
DA:2482,0
DA:2484,0
DA:2485,0
DA:2486,0
DA:2492,0
DA:2455,0
DA:2482,0
DA:2484,0
DA:2485,0
DA:2486,0
DA:2492,0
DA:2455,1
DA:2482,2
DA:2484,1
DA:2485,1
DA:2486,465
DA:2492,1
DA:2455,0
DA:2482,0
DA:2484,0
DA:2485,0
DA:2486,0
DA:2492,0
DA:2455,0
DA:2482,0
DA:2484,0
DA:2485,0
DA:2486,0
DA:2492,0
DA:2455,7
DA:2482,24
DA:2484,17
DA:2485,17
DA:2486,9509
DA:2492,7
DA:2455,1
DA:2482,2
DA:2484,1
DA:2485,1
DA:2486,1409
DA:2492,1
DA:2455,0
DA:2482,0
DA:2484,0
DA:2485,0
DA:2486,0
DA:2492,0
DA:2455,0
DA:2482,0
DA:2484,0
DA:2485,0
DA:2486,0
DA:2492,0
DA:2455,0
DA:2482,0
DA:2484,0
DA:2485,0
DA:2486,0
DA:2492,0
DA:2455,14
DA:2482,69
DA:2484,55
DA:2485,55
DA:2486,34383
DA:2492,14
DA:2455,0
DA:2482,0
DA:2484,0
DA:2485,0
DA:2486,0
DA:2492,0
DA:2455,0
DA:2482,0
DA:2484,0
DA:2485,0
DA:2486,0
DA:2492,0
DA:2455,160
DA:2482,370
DA:2484,210
DA:2485,210
DA:2486,98910
DA:2492,160
DA:2455,1
DA:2482,2
DA:2484,1
DA:2485,1
DA:2486,1409
DA:2492,1
DA:2455,0
DA:2482,0
DA:2484,0
DA:2485,0
DA:2486,0
DA:2492,0
DA:2989,14
DA:2992,28
DA:2993,14
DA:2994,14
DA:2996,14
DA:2989,0
DA:2992,0
DA:2993,0
DA:2994,0
DA:2996,0
DA:2989,0
DA:2992,0
DA:2993,0
DA:2994,0
DA:2996,0
DA:2989,0
DA:2992,0
DA:2993,0
DA:2994,0
DA:2996,0
DA:2989,0
DA:2992,0
DA:2993,0
DA:2994,0
DA:2996,0
DA:2989,0
DA:2992,0
DA:2993,0
DA:2994,0
DA:2996,0
DA:2989,2
DA:2992,4
DA:2993,2
DA:2994,2
DA:2996,2
DA:2989,0
DA:2992,0
DA:2993,0
DA:2994,0
DA:2996,0
DA:2989,0
DA:2992,0
DA:2993,0
DA:2994,0
DA:2996,0
DA:2989,0
DA:2992,0
DA:2993,0
DA:2994,0
DA:2996,0
DA:2989,2
DA:2992,4
DA:2993,2
DA:2994,2
DA:2996,2
DA:2989,0
DA:2992,0
DA:2993,0
DA:2994,0
DA:2996,0
DA:2989,0
DA:2992,0
DA:2993,0
DA:2994,0
DA:2996,0
DA:2989,0
DA:2992,0
DA:2993,0
DA:2994,0
DA:2996,0
DA:2989,20
DA:2992,40
DA:2993,20
DA:2994,20
DA:2996,20
DA:2989,0
DA:2992,0
DA:2993,0
DA:2994,0
DA:2996,0
DA:2989,0
DA:2992,0
DA:2993,0
DA:2994,0
DA:2996,0
DA:2989,0
DA:2992,0
DA:2993,0
DA:2994,0
DA:2996,0
DA:3001,0
DA:3004,0
DA:3005,0
DA:3006,0
DA:3008,0
DA:3051,0
DA:3055,0
DA:3057,0
DA:3058,0
DA:3059,0
DA:3061,0
DA:3051,0
DA:3055,0
DA:3057,0
DA:3058,0
DA:3059,0
DA:3061,0
DA:3051,0
DA:3055,0
DA:3057,0
DA:3058,0
DA:3059,0
DA:3061,0
DA:3051,0
DA:3055,0
DA:3057,0
DA:3058,0
DA:3059,0
DA:3061,0
DA:3051,0
DA:3055,0
DA:3057,0
DA:3058,0
DA:3059,0
DA:3061,0
DA:3051,0
DA:3055,0
DA:3057,0
DA:3058,0
DA:3059,0
DA:3061,0
DA:3051,0
DA:3055,0
DA:3057,0
DA:3058,0
DA:3059,0
DA:3061,0
DA:3051,0
DA:3055,0
DA:3057,0
DA:3058,0
DA:3059,0
DA:3061,0
DA:3051,0
DA:3055,0
DA:3057,0
DA:3058,0
DA:3059,0
DA:3061,0
DA:3051,0
DA:3055,0
DA:3057,0
DA:3058,0
DA:3059,0
DA:3061,0
DA:3051,0
DA:3055,0
DA:3057,0
DA:3058,0
DA:3059,0
DA:3061,0
DA:3051,0
DA:3055,0
DA:3057,0
DA:3058,0
DA:3059,0
DA:3061,0
DA:3051,0
DA:3055,0
DA:3057,0
DA:3058,0
DA:3059,0
DA:3061,0
DA:3317,14
DA:3320,14
DA:3321,14
DA:3317,0
DA:3320,0
DA:3321,0
DA:3317,0
DA:3320,0
DA:3321,0
DA:3317,0
DA:3320,0
DA:3321,0
DA:3317,0
DA:3320,0
DA:3321,0
DA:3317,0
DA:3320,0
DA:3321,0
DA:3317,0
DA:3320,0
DA:3321,0
DA:3317,2
DA:3320,2
DA:3321,2
DA:3317,0
DA:3320,0
DA:3321,0
DA:3317,0
DA:3320,0
DA:3321,0
DA:3317,0
DA:3320,0
DA:3321,0
DA:3317,2
DA:3320,2
DA:3321,2
DA:3317,0
DA:3320,0
DA:3321,0
DA:3317,0
DA:3320,0
DA:3321,0
DA:3317,0
DA:3320,0
DA:3321,0
DA:3317,20
DA:3320,20
DA:3321,20
DA:3317,0
DA:3320,0
DA:3321,0
DA:3317,0
DA:3320,0
DA:3321,0
DA:3317,0
DA:3320,0
DA:3321,0
DA:3394,0
DA:3408,0
DA:3409,0
DA:3410,0
DA:3414,0
DA:3415,0
DA:3416,0
DA:3419,0
DA:3420,0
DA:3424,0
DA:3425,0
DA:3426,0
DA:3430,0
end_of_record
SF:/home/brunnels/Research/alamo/ext/amrex/2d-coverage-g++-23.08/include/AMReX_PCI.H
FN:6,_ZN5amrex8FabArrayINS_7BaseFabIN5Model5Solid6Affine9IsotropicEEEE12PC_local_cpuERKNS_12FabArrayBase3CPCERKS7_iiiNS8_4CpOpE
FNDA:0,_ZN5amrex8FabArrayINS_7BaseFabIN5Model5Solid6Affine9IsotropicEEEE12PC_local_cpuERKNS_12FabArrayBase3CPCERKS7_iiiNS8_4CpOpE
FN:6,_ZN5amrex8FabArrayINS_7BaseFabIN5Model5Solid6Affine5CubicEEEE12PC_local_cpuERKNS_12FabArrayBase3CPCERKS7_iiiNS8_4CpOpE
FNDA:0,_ZN5amrex8FabArrayINS_7BaseFabIN5Model5Solid6Affine5CubicEEEE12PC_local_cpuERKNS_12FabArrayBase3CPCERKS7_iiiNS8_4CpOpE
FN:6,_ZN5amrex8FabArrayINS_7BaseFabIN5Model5Solid7Elastic28PseudoLinearCubicPredeformedEEEE12PC_local_cpuERKNS_12FabArrayBase3CPCERKS7_iiiNS8_4CpOpE
FNDA:0,_ZN5amrex8FabArrayINS_7BaseFabIN5Model5Solid7Elastic28PseudoLinearCubicPredeformedEEEE12PC_local_cpuERKNS_12FabArrayBase3CPCERKS7_iiiNS8_4CpOpE
FN:6,_ZN5amrex8FabArrayINS_7BaseFabIN5Model5Solid6Linear5CubicEEEE12PC_local_cpuERKNS_12FabArrayBase3CPCERKS7_iiiNS8_4CpOpE
FNDA:0,_ZN5amrex8FabArrayINS_7BaseFabIN5Model5Solid6Linear5CubicEEEE12PC_local_cpuERKNS_12FabArrayBase3CPCERKS7_iiiNS8_4CpOpE
FN:6,_ZN5amrex8FabArrayINS_7BaseFabIN5Model5Solid6Linear19IsotropicDegradableEEEE12PC_local_cpuERKNS_12FabArrayBase3CPCERKS7_iiiNS8_4CpOpE
FNDA:0,_ZN5amrex8FabArrayINS_7BaseFabIN5Model5Solid6Linear19IsotropicDegradableEEEE12PC_local_cpuERKNS_12FabArrayBase3CPCERKS7_iiiNS8_4CpOpE
FN:6,_ZN5amrex8FabArrayINS_7BaseFabIN5Model5Solid6Linear9IsotropicEEEE12PC_local_cpuERKNS_12FabArrayBase3CPCERKS7_iiiNS8_4CpOpE
FNDA:2,_ZN5amrex8FabArrayINS_7BaseFabIN5Model5Solid6Linear9IsotropicEEEE12PC_local_cpuERKNS_12FabArrayBase3CPCERKS7_iiiNS8_4CpOpE
FN:6,_ZN5amrex8FabArrayINS_7BaseFabIN5Model5Solid6Affine9HexagonalEEEE12PC_local_cpuERKNS_12FabArrayBase3CPCERKS7_iiiNS8_4CpOpE
FNDA:0,_ZN5amrex8FabArrayINS_7BaseFabIN5Model5Solid6Affine9HexagonalEEEE12PC_local_cpuERKNS_12FabArrayBase3CPCERKS7_iiiNS8_4CpOpE
FN:6,_ZN5amrex8FabArrayINS_7BaseFabIN5Model5Solid6Affine2J2EEEE12PC_local_cpuERKNS_12FabArrayBase3CPCERKS7_iiiNS8_4CpOpE
FNDA:3,_ZN5amrex8FabArrayINS_7BaseFabIN5Model5Solid6Affine2J2EEEE12PC_local_cpuERKNS_12FabArrayBase3CPCERKS7_iiiNS8_4CpOpE
FN:6,_ZN5amrex8FabArrayINS_7BaseFabIN5Eigen6MatrixIdLi2ELi2ELi0ELi2ELi2EEEEEE12PC_local_cpuERKNS_12FabArrayBase3CPCERKS6_iiiNS7_4CpOpE
FNDA:0,_ZN5amrex8FabArrayINS_7BaseFabIN5Eigen6MatrixIdLi2ELi2ELi0ELi2ELi2EEEEEE12PC_local_cpuERKNS_12FabArrayBase3CPCERKS6_iiiNS7_4CpOpE
FN:6,_ZN5amrex8FabArrayINS_7BaseFabIN5Model5Solid6Linear9LaplacianEEEE12PC_local_cpuERKNS_12FabArrayBase3CPCERKS7_iiiNS8_4CpOpE
FNDA:0,_ZN5amrex8FabArrayINS_7BaseFabIN5Model5Solid6Linear9LaplacianEEEE12PC_local_cpuERKNS_12FabArrayBase3CPCERKS7_iiiNS8_4CpOpE
FN:6,_ZN5amrex8FabArrayINS_7BaseFabIN5Eigen6MatrixIdLi2ELi1ELi0ELi2ELi1EEEEEE12PC_local_cpuERKNS_12FabArrayBase3CPCERKS6_iiiNS7_4CpOpE
FNDA:0,_ZN5amrex8FabArrayINS_7BaseFabIN5Eigen6MatrixIdLi2ELi1ELi0ELi2ELi1EEEEEE12PC_local_cpuERKNS_12FabArrayBase3CPCERKS6_iiiNS7_4CpOpE
FN:6,_ZN5amrex8FabArrayINS_7BaseFabIN5Model5Solid7Elastic10NeoHookeanEEEE12PC_local_cpuERKNS_12FabArrayBase3CPCERKS7_iiiNS8_4CpOpE
FNDA:3,_ZN5amrex8FabArrayINS_7BaseFabIN5Model5Solid7Elastic10NeoHookeanEEEE12PC_local_cpuERKNS_12FabArrayBase3CPCERKS7_iiiNS8_4CpOpE
FN:6,_ZN5amrex8FabArrayINS_7BaseFabIN5Model5Solid7Elastic17PseudoLinearCubicEEEE12PC_local_cpuERKNS_12FabArrayBase3CPCERKS7_iiiNS8_4CpOpE
FNDA:0,_ZN5amrex8FabArrayINS_7BaseFabIN5Model5Solid7Elastic17PseudoLinearCubicEEEE12PC_local_cpuERKNS_12FabArrayBase3CPCERKS7_iiiNS8_4CpOpE
FN:62,_ZZN5amrex8FabArrayINS_7BaseFabIN5Model5Solid6Affine9HexagonalEEEE12PC_local_cpuERKNS_12FabArrayBase3CPCERKS7_iiiNS8_4CpOpEENKUliiiiE_clEiiii
FNDA:0,_ZZN5amrex8FabArrayINS_7BaseFabIN5Model5Solid6Affine9HexagonalEEEE12PC_local_cpuERKNS_12FabArrayBase3CPCERKS7_iiiNS8_4CpOpEENKUliiiiE_clEiiii
FN:62,_ZZN5amrex8FabArrayINS_7BaseFabIN5Model5Solid7Elastic10NeoHookeanEEEE12PC_local_cpuERKNS_12FabArrayBase3CPCERKS7_iiiNS8_4CpOpEENKUliiiiE_clEiiii
FNDA:0,_ZZN5amrex8FabArrayINS_7BaseFabIN5Model5Solid7Elastic10NeoHookeanEEEE12PC_local_cpuERKNS_12FabArrayBase3CPCERKS7_iiiNS8_4CpOpEENKUliiiiE_clEiiii
FN:62,_ZZN5amrex8FabArrayINS_7BaseFabIN5Model5Solid7Elastic17PseudoLinearCubicEEEE12PC_local_cpuERKNS_12FabArrayBase3CPCERKS7_iiiNS8_4CpOpEENKUliiiiE_clEiiii
FNDA:0,_ZZN5amrex8FabArrayINS_7BaseFabIN5Model5Solid7Elastic17PseudoLinearCubicEEEE12PC_local_cpuERKNS_12FabArrayBase3CPCERKS7_iiiNS8_4CpOpEENKUliiiiE_clEiiii
FN:62,_ZZN5amrex8FabArrayINS_7BaseFabIN5Model5Solid6Affine5CubicEEEE12PC_local_cpuERKNS_12FabArrayBase3CPCERKS7_iiiNS8_4CpOpEENKUliiiiE_clEiiii
FNDA:0,_ZZN5amrex8FabArrayINS_7BaseFabIN5Model5Solid6Affine5CubicEEEE12PC_local_cpuERKNS_12FabArrayBase3CPCERKS7_iiiNS8_4CpOpEENKUliiiiE_clEiiii
FN:62,_ZZN5amrex8FabArrayINS_7BaseFabIN5Model5Solid6Linear9LaplacianEEEE12PC_local_cpuERKNS_12FabArrayBase3CPCERKS7_iiiNS8_4CpOpEENKUliiiiE_clEiiii
FNDA:0,_ZZN5amrex8FabArrayINS_7BaseFabIN5Model5Solid6Linear9LaplacianEEEE12PC_local_cpuERKNS_12FabArrayBase3CPCERKS7_iiiNS8_4CpOpEENKUliiiiE_clEiiii
FN:62,_ZZN5amrex8FabArrayINS_7BaseFabIN5Model5Solid6Linear5CubicEEEE12PC_local_cpuERKNS_12FabArrayBase3CPCERKS7_iiiNS8_4CpOpEENKUliiiiE_clEiiii
FNDA:0,_ZZN5amrex8FabArrayINS_7BaseFabIN5Model5Solid6Linear5CubicEEEE12PC_local_cpuERKNS_12FabArrayBase3CPCERKS7_iiiNS8_4CpOpEENKUliiiiE_clEiiii
FN:62,_ZZN5amrex8FabArrayINS_7BaseFabIN5Model5Solid6Linear9IsotropicEEEE12PC_local_cpuERKNS_12FabArrayBase3CPCERKS7_iiiNS8_4CpOpEENKUliiiiE_clEiiii
FNDA:0,_ZZN5amrex8FabArrayINS_7BaseFabIN5Model5Solid6Linear9IsotropicEEEE12PC_local_cpuERKNS_12FabArrayBase3CPCERKS7_iiiNS8_4CpOpEENKUliiiiE_clEiiii
FN:62,_ZZN5amrex8FabArrayINS_7BaseFabIN5Model5Solid6Affine9IsotropicEEEE12PC_local_cpuERKNS_12FabArrayBase3CPCERKS7_iiiNS8_4CpOpEENKUliiiiE_clEiiii
FNDA:0,_ZZN5amrex8FabArrayINS_7BaseFabIN5Model5Solid6Affine9IsotropicEEEE12PC_local_cpuERKNS_12FabArrayBase3CPCERKS7_iiiNS8_4CpOpEENKUliiiiE_clEiiii
FN:62,_ZZN5amrex8FabArrayINS_7BaseFabIN5Model5Solid7Elastic28PseudoLinearCubicPredeformedEEEE12PC_local_cpuERKNS_12FabArrayBase3CPCERKS7_iiiNS8_4CpOpEENKUliiiiE_clEiiii
FNDA:0,_ZZN5amrex8FabArrayINS_7BaseFabIN5Model5Solid7Elastic28PseudoLinearCubicPredeformedEEEE12PC_local_cpuERKNS_12FabArrayBase3CPCERKS7_iiiNS8_4CpOpEENKUliiiiE_clEiiii
FN:62,_ZZN5amrex8FabArrayINS_7BaseFabIN5Eigen6MatrixIdLi2ELi2ELi0ELi2ELi2EEEEEE12PC_local_cpuERKNS_12FabArrayBase3CPCERKS6_iiiNS7_4CpOpEENKUliiiiE_clEiiii
FNDA:0,_ZZN5amrex8FabArrayINS_7BaseFabIN5Eigen6MatrixIdLi2ELi2ELi0ELi2ELi2EEEEEE12PC_local_cpuERKNS_12FabArrayBase3CPCERKS6_iiiNS7_4CpOpEENKUliiiiE_clEiiii
FN:62,_ZZN5amrex8FabArrayINS_7BaseFabIN5Eigen6MatrixIdLi2ELi1ELi0ELi2ELi1EEEEEE12PC_local_cpuERKNS_12FabArrayBase3CPCERKS6_iiiNS7_4CpOpEENKUliiiiE_clEiiii
FNDA:0,_ZZN5amrex8FabArrayINS_7BaseFabIN5Eigen6MatrixIdLi2ELi1ELi0ELi2ELi1EEEEEE12PC_local_cpuERKNS_12FabArrayBase3CPCERKS6_iiiNS7_4CpOpEENKUliiiiE_clEiiii
FN:62,_ZZN5amrex8FabArrayINS_7BaseFabIN5Model5Solid6Linear19IsotropicDegradableEEEE12PC_local_cpuERKNS_12FabArrayBase3CPCERKS7_iiiNS8_4CpOpEENKUliiiiE_clEiiii
FNDA:0,_ZZN5amrex8FabArrayINS_7BaseFabIN5Model5Solid6Linear19IsotropicDegradableEEEE12PC_local_cpuERKNS_12FabArrayBase3CPCERKS7_iiiNS8_4CpOpEENKUliiiiE_clEiiii
FN:62,_ZZN5amrex8FabArrayINS_7BaseFabIN5Model5Solid6Affine2J2EEEE12PC_local_cpuERKNS_12FabArrayBase3CPCERKS7_iiiNS8_4CpOpEENKUliiiiE_clEiiii
FNDA:0,_ZZN5amrex8FabArrayINS_7BaseFabIN5Model5Solid6Affine2J2EEEE12PC_local_cpuERKNS_12FabArrayBase3CPCERKS7_iiiNS8_4CpOpEENKUliiiiE_clEiiii
FN:75,_ZZN5amrex8FabArrayINS_7BaseFabIN5Model5Solid7Elastic28PseudoLinearCubicPredeformedEEEE12PC_local_cpuERKNS_12FabArrayBase3CPCERKS7_iiiNS8_4CpOpEENKUliiiiE0_clEiiii
FNDA:0,_ZZN5amrex8FabArrayINS_7BaseFabIN5Model5Solid7Elastic28PseudoLinearCubicPredeformedEEEE12PC_local_cpuERKNS_12FabArrayBase3CPCERKS7_iiiNS8_4CpOpEENKUliiiiE0_clEiiii
FN:75,_ZZN5amrex8FabArrayINS_7BaseFabIN5Model5Solid7Elastic17PseudoLinearCubicEEEE12PC_local_cpuERKNS_12FabArrayBase3CPCERKS7_iiiNS8_4CpOpEENKUliiiiE0_clEiiii
FNDA:0,_ZZN5amrex8FabArrayINS_7BaseFabIN5Model5Solid7Elastic17PseudoLinearCubicEEEE12PC_local_cpuERKNS_12FabArrayBase3CPCERKS7_iiiNS8_4CpOpEENKUliiiiE0_clEiiii
FN:75,_ZZN5amrex8FabArrayINS_7BaseFabIN5Model5Solid6Affine2J2EEEE12PC_local_cpuERKNS_12FabArrayBase3CPCERKS7_iiiNS8_4CpOpEENKUliiiiE0_clEiiii
FNDA:0,_ZZN5amrex8FabArrayINS_7BaseFabIN5Model5Solid6Affine2J2EEEE12PC_local_cpuERKNS_12FabArrayBase3CPCERKS7_iiiNS8_4CpOpEENKUliiiiE0_clEiiii
FN:75,_ZZN5amrex8FabArrayINS_7BaseFabIN5Model5Solid6Affine5CubicEEEE12PC_local_cpuERKNS_12FabArrayBase3CPCERKS7_iiiNS8_4CpOpEENKUliiiiE0_clEiiii
FNDA:0,_ZZN5amrex8FabArrayINS_7BaseFabIN5Model5Solid6Affine5CubicEEEE12PC_local_cpuERKNS_12FabArrayBase3CPCERKS7_iiiNS8_4CpOpEENKUliiiiE0_clEiiii
FN:75,_ZZN5amrex8FabArrayINS_7BaseFabIN5Model5Solid7Elastic10NeoHookeanEEEE12PC_local_cpuERKNS_12FabArrayBase3CPCERKS7_iiiNS8_4CpOpEENKUliiiiE0_clEiiii
FNDA:0,_ZZN5amrex8FabArrayINS_7BaseFabIN5Model5Solid7Elastic10NeoHookeanEEEE12PC_local_cpuERKNS_12FabArrayBase3CPCERKS7_iiiNS8_4CpOpEENKUliiiiE0_clEiiii
FN:75,_ZZN5amrex8FabArrayINS_7BaseFabIN5Model5Solid6Linear9LaplacianEEEE12PC_local_cpuERKNS_12FabArrayBase3CPCERKS7_iiiNS8_4CpOpEENKUliiiiE0_clEiiii
FNDA:0,_ZZN5amrex8FabArrayINS_7BaseFabIN5Model5Solid6Linear9LaplacianEEEE12PC_local_cpuERKNS_12FabArrayBase3CPCERKS7_iiiNS8_4CpOpEENKUliiiiE0_clEiiii
FN:75,_ZZN5amrex8FabArrayINS_7BaseFabIN5Model5Solid6Affine9HexagonalEEEE12PC_local_cpuERKNS_12FabArrayBase3CPCERKS7_iiiNS8_4CpOpEENKUliiiiE0_clEiiii
FNDA:0,_ZZN5amrex8FabArrayINS_7BaseFabIN5Model5Solid6Affine9HexagonalEEEE12PC_local_cpuERKNS_12FabArrayBase3CPCERKS7_iiiNS8_4CpOpEENKUliiiiE0_clEiiii
FN:75,_ZZN5amrex8FabArrayINS_7BaseFabIN5Model5Solid6Linear5CubicEEEE12PC_local_cpuERKNS_12FabArrayBase3CPCERKS7_iiiNS8_4CpOpEENKUliiiiE0_clEiiii
FNDA:0,_ZZN5amrex8FabArrayINS_7BaseFabIN5Model5Solid6Linear5CubicEEEE12PC_local_cpuERKNS_12FabArrayBase3CPCERKS7_iiiNS8_4CpOpEENKUliiiiE0_clEiiii
FN:75,_ZZN5amrex8FabArrayINS_7BaseFabIN5Model5Solid6Linear9IsotropicEEEE12PC_local_cpuERKNS_12FabArrayBase3CPCERKS7_iiiNS8_4CpOpEENKUliiiiE0_clEiiii
FNDA:0,_ZZN5amrex8FabArrayINS_7BaseFabIN5Model5Solid6Linear9IsotropicEEEE12PC_local_cpuERKNS_12FabArrayBase3CPCERKS7_iiiNS8_4CpOpEENKUliiiiE0_clEiiii
FN:75,_ZZN5amrex8FabArrayINS_7BaseFabIN5Model5Solid6Affine9IsotropicEEEE12PC_local_cpuERKNS_12FabArrayBase3CPCERKS7_iiiNS8_4CpOpEENKUliiiiE0_clEiiii
FNDA:0,_ZZN5amrex8FabArrayINS_7BaseFabIN5Model5Solid6Affine9IsotropicEEEE12PC_local_cpuERKNS_12FabArrayBase3CPCERKS7_iiiNS8_4CpOpEENKUliiiiE0_clEiiii
FN:75,_ZZN5amrex8FabArrayINS_7BaseFabIN5Eigen6MatrixIdLi2ELi2ELi0ELi2ELi2EEEEEE12PC_local_cpuERKNS_12FabArrayBase3CPCERKS6_iiiNS7_4CpOpEENKUliiiiE0_clEiiii
FNDA:0,_ZZN5amrex8FabArrayINS_7BaseFabIN5Eigen6MatrixIdLi2ELi2ELi0ELi2ELi2EEEEEE12PC_local_cpuERKNS_12FabArrayBase3CPCERKS6_iiiNS7_4CpOpEENKUliiiiE0_clEiiii
FN:75,_ZZN5amrex8FabArrayINS_7BaseFabIN5Eigen6MatrixIdLi2ELi1ELi0ELi2ELi1EEEEEE12PC_local_cpuERKNS_12FabArrayBase3CPCERKS6_iiiNS7_4CpOpEENKUliiiiE0_clEiiii
FNDA:0,_ZZN5amrex8FabArrayINS_7BaseFabIN5Eigen6MatrixIdLi2ELi1ELi0ELi2ELi1EEEEEE12PC_local_cpuERKNS_12FabArrayBase3CPCERKS6_iiiNS7_4CpOpEENKUliiiiE0_clEiiii
FN:75,_ZZN5amrex8FabArrayINS_7BaseFabIN5Model5Solid6Linear19IsotropicDegradableEEEE12PC_local_cpuERKNS_12FabArrayBase3CPCERKS7_iiiNS8_4CpOpEENKUliiiiE0_clEiiii
FNDA:0,_ZZN5amrex8FabArrayINS_7BaseFabIN5Model5Solid6Linear19IsotropicDegradableEEEE12PC_local_cpuERKNS_12FabArrayBase3CPCERKS7_iiiNS8_4CpOpEENKUliiiiE0_clEiiii
DA:6,0
DA:9,0
DA:10,0
DA:11,0
DA:13,0
DA:18,0
DA:20,0
DA:21,0
DA:23,0
DA:24,0
DA:25,0
DA:27,0
DA:31,0
DA:38,0
DA:39,0
DA:41,0
DA:42,0
DA:43,0
DA:44,0
DA:51,0
DA:53,0
DA:54,0
DA:55,0
DA:57,0
DA:59,0
DA:60,0
DA:61,0
DA:70,0
DA:72,0
DA:73,0
DA:74,0
DA:6,0
DA:9,0
DA:10,0
DA:11,0
DA:13,0
DA:18,0
DA:20,0
DA:21,0
DA:23,0
DA:24,0
DA:25,0
DA:27,0
DA:31,0
DA:38,0
DA:39,0
DA:41,0
DA:42,0
DA:43,0
DA:44,0
DA:51,0
DA:53,0
DA:54,0
DA:55,0
DA:57,0
DA:59,0
DA:60,0
DA:61,0
DA:70,0
DA:72,0
DA:73,0
DA:74,0
DA:6,0
DA:9,0
DA:10,0
DA:11,0
DA:13,0
DA:18,0
DA:20,0
DA:21,0
DA:23,0
DA:24,0
DA:25,0
DA:27,0
DA:31,0
DA:38,0
DA:39,0
DA:41,0
DA:42,0
DA:43,0
DA:44,0
DA:51,0
DA:53,0
DA:54,0
DA:55,0
DA:57,0
DA:59,0
DA:60,0
DA:61,0
DA:70,0
DA:72,0
DA:73,0
DA:74,0
DA:6,0
DA:9,0
DA:10,0
DA:11,0
DA:13,0
DA:18,0
DA:20,0
DA:21,0
DA:23,0
DA:24,0
DA:25,0
DA:27,0
DA:31,0
DA:38,0
DA:39,0
DA:41,0
DA:42,0
DA:43,0
DA:44,0
DA:51,0
DA:53,0
DA:54,0
DA:55,0
DA:57,0
DA:59,0
DA:60,0
DA:61,0
DA:70,0
DA:72,0
DA:73,0
DA:74,0
DA:6,2
DA:9,2
DA:10,2
DA:11,2
DA:13,2
DA:18,39
DA:20,37
DA:21,37
DA:23,37
DA:24,37
DA:25,37
DA:27,37
DA:31,0
DA:38,0
DA:39,0
DA:41,0
DA:42,0
DA:43,0
DA:44,0
DA:51,0
DA:53,0
DA:54,0
DA:55,0
DA:57,0
DA:59,0
DA:60,0
DA:61,0
DA:70,0
DA:72,0
DA:73,0
DA:74,0
DA:6,0
DA:9,0
DA:10,0
DA:11,0
DA:13,0
DA:18,0
DA:20,0
DA:21,0
DA:23,0
DA:24,0
DA:25,0
DA:27,0
DA:31,0
DA:38,0
DA:39,0
DA:41,0
DA:42,0
DA:43,0
DA:44,0
DA:51,0
DA:53,0
DA:54,0
DA:55,0
DA:57,0
DA:59,0
DA:60,0
DA:61,0
DA:70,0
DA:72,0
DA:73,0
DA:74,0
DA:6,0
DA:9,0
DA:10,0
DA:11,0
DA:13,0
DA:18,0
DA:20,0
DA:21,0
DA:23,0
DA:24,0
DA:25,0
DA:27,0
DA:31,0
DA:38,0
DA:39,0
DA:41,0
DA:42,0
DA:43,0
DA:44,0
DA:51,0
DA:53,0
DA:54,0
DA:55,0
DA:57,0
DA:59,0
DA:60,0
DA:61,0
DA:70,0
DA:72,0
DA:73,0
DA:74,0
DA:6,0
DA:9,0
DA:10,0
DA:11,0
DA:13,0
DA:18,0
DA:20,0
DA:21,0
DA:23,0
DA:24,0
DA:25,0
DA:27,0
DA:31,0
DA:38,0
DA:39,0
DA:41,0
DA:42,0
DA:43,0
DA:44,0
DA:51,0
DA:53,0
DA:54,0
DA:55,0
DA:57,0
DA:59,0
DA:60,0
DA:61,0
DA:70,0
DA:72,0
DA:73,0
DA:74,0
DA:6,0
DA:9,0
DA:10,0
DA:11,0
DA:13,0
DA:18,0
DA:20,0
DA:21,0
DA:23,0
DA:24,0
DA:25,0
DA:27,0
DA:31,0
DA:38,0
DA:39,0
DA:41,0
DA:42,0
DA:43,0
DA:44,0
DA:51,0
DA:53,0
DA:54,0
DA:55,0
DA:57,0
DA:59,0
DA:60,0
DA:61,0
DA:70,0
DA:72,0
DA:73,0
DA:74,0
DA:6,3
DA:9,3
DA:10,3
DA:11,3
DA:13,3
DA:18,39
DA:20,36
DA:21,36
DA:23,36
DA:24,36
DA:25,36
DA:27,36
DA:31,0
DA:38,0
DA:39,0
DA:41,0
DA:42,0
DA:43,0
DA:44,0
DA:51,0
DA:53,0
DA:54,0
DA:55,0
DA:57,0
DA:59,0
DA:60,0
DA:61,0
DA:70,0
DA:72,0
DA:73,0
DA:74,0
DA:6,0
DA:9,0
DA:10,0
DA:11,0
DA:13,0
DA:18,0
DA:20,0
DA:21,0
DA:23,0
DA:24,0
DA:25,0
DA:27,0
DA:31,0
DA:38,0
DA:39,0
DA:41,0
DA:42,0
DA:43,0
DA:44,0
DA:51,0
DA:53,0
DA:54,0
DA:55,0
DA:57,0
DA:59,0
DA:60,0
DA:61,0
DA:70,0
DA:72,0
DA:73,0
DA:74,0
DA:6,0
DA:9,0
DA:10,0
DA:11,0
DA:13,0
DA:18,0
DA:20,0
DA:21,0
DA:23,0
DA:24,0
DA:25,0
DA:27,0
DA:31,0
DA:38,0
DA:39,0
DA:41,0
DA:42,0
DA:43,0
DA:44,0
DA:51,0
DA:53,0
DA:54,0
DA:55,0
DA:57,0
DA:59,0
DA:60,0
DA:61,0
DA:70,0
DA:72,0
DA:73,0
DA:74,0
DA:6,3
DA:9,3
DA:10,3
DA:11,3
DA:13,3
DA:18,30
DA:20,27
DA:21,27
DA:23,27
DA:24,27
DA:25,27
DA:27,27
DA:31,0
DA:38,0
DA:39,0
DA:41,0
DA:42,0
DA:43,0
DA:44,0
DA:51,0
DA:53,0
DA:54,0
DA:55,0
DA:57,0
DA:59,0
DA:60,0
DA:61,0
DA:70,0
DA:72,0
DA:73,0
DA:74,0
DA:62,0
DA:62,0
DA:62,0
DA:62,0
DA:62,0
DA:62,0
DA:62,0
DA:62,0
DA:62,0
DA:62,0
DA:62,0
DA:62,0
DA:62,0
DA:64,0
DA:75,0
DA:75,0
DA:75,0
DA:75,0
DA:75,0
DA:75,0
DA:75,0
DA:75,0
DA:75,0
DA:75,0
DA:75,0
DA:75,0
DA:75,0
DA:77,0
end_of_record
SF:/home/brunnels/Research/alamo/ext/amrex/2d-coverage-g++-23.08/include/AMReX_BaseFab.H
FN:75,_ZN5amrex8DestCompC2Ei
FNDA:0,_ZN5amrex8DestCompC2Ei
FN:81,_ZN5amrex8NumCompsC2Ei
FNDA:0,_ZN5amrex8NumCompsC2Ei
FN:158,_ZN5amrex12placementNewIN5Model5Solid6Linear19IsotropicDegradableEEENSt9enable_ifIXntsrSt34is_trivially_default_constructibleIT_E5valueEvE4typeEPS7_l
FNDA:0,_ZN5amrex12placementNewIN5Model5Solid6Linear19IsotropicDegradableEEENSt9enable_ifIXntsrSt34is_trivially_default_constructibleIT_E5valueEvE4typeEPS7_l
FN:158,_ZN5amrex12placementNewIN3Set7Matrix4ILi2ELi1EEEEENSt9enable_ifIXntsrSt34is_trivially_default_constructibleIT_E5valueEvE4typeEPS6_l
FNDA:0,_ZN5amrex12placementNewIN3Set7Matrix4ILi2ELi1EEEEENSt9enable_ifIXntsrSt34is_trivially_default_constructibleIT_E5valueEvE4typeEPS6_l
FN:158,_ZN5amrex12placementNewIN5Eigen6MatrixIdLi2ELi1ELi0ELi2ELi1EEEEENSt9enable_ifIXntsrSt34is_trivially_default_constructibleIT_E5valueEvE4typeEPS6_l
FNDA:0,_ZN5amrex12placementNewIN5Eigen6MatrixIdLi2ELi1ELi0ELi2ELi1EEEEENSt9enable_ifIXntsrSt34is_trivially_default_constructibleIT_E5valueEvE4typeEPS6_l
FN:158,_ZN5amrex12placementNewIN5Model5Solid6Affine9IsotropicEEENSt9enable_ifIXntsrSt34is_trivially_default_constructibleIT_E5valueEvE4typeEPS7_l
FNDA:0,_ZN5amrex12placementNewIN5Model5Solid6Affine9IsotropicEEENSt9enable_ifIXntsrSt34is_trivially_default_constructibleIT_E5valueEvE4typeEPS7_l
FN:158,_ZN5amrex12placementNewIN5Model5Solid6Linear9IsotropicEEENSt9enable_ifIXntsrSt34is_trivially_default_constructibleIT_E5valueEvE4typeEPS7_l
FNDA:132,_ZN5amrex12placementNewIN5Model5Solid6Linear9IsotropicEEENSt9enable_ifIXntsrSt34is_trivially_default_constructibleIT_E5valueEvE4typeEPS7_l
FN:158,_ZN5amrex12placementNewIN5Model5Solid6Linear5CubicEEENSt9enable_ifIXntsrSt34is_trivially_default_constructibleIT_E5valueEvE4typeEPS7_l
FNDA:0,_ZN5amrex12placementNewIN5Model5Solid6Linear5CubicEEENSt9enable_ifIXntsrSt34is_trivially_default_constructibleIT_E5valueEvE4typeEPS7_l
FN:158,_ZN5amrex12placementNewIN5Model5Solid6Affine5CubicEEENSt9enable_ifIXntsrSt34is_trivially_default_constructibleIT_E5valueEvE4typeEPS7_l
FNDA:0,_ZN5amrex12placementNewIN5Model5Solid6Affine5CubicEEENSt9enable_ifIXntsrSt34is_trivially_default_constructibleIT_E5valueEvE4typeEPS7_l
FN:158,_ZN5amrex12placementNewIN5Model5Solid6Affine9HexagonalEEENSt9enable_ifIXntsrSt34is_trivially_default_constructibleIT_E5valueEvE4typeEPS7_l
FNDA:0,_ZN5amrex12placementNewIN5Model5Solid6Affine9HexagonalEEENSt9enable_ifIXntsrSt34is_trivially_default_constructibleIT_E5valueEvE4typeEPS7_l
FN:158,_ZN5amrex12placementNewIN5Model5Solid6Linear9LaplacianEEENSt9enable_ifIXntsrSt34is_trivially_default_constructibleIT_E5valueEvE4typeEPS7_l
FNDA:1,_ZN5amrex12placementNewIN5Model5Solid6Linear9LaplacianEEENSt9enable_ifIXntsrSt34is_trivially_default_constructibleIT_E5valueEvE4typeEPS7_l
FN:158,_ZN5amrex12placementNewIN5Model5Solid7Elastic10NeoHookeanEEENSt9enable_ifIXntsrSt34is_trivially_default_constructibleIT_E5valueEvE4typeEPS7_l
FNDA:63,_ZN5amrex12placementNewIN5Model5Solid7Elastic10NeoHookeanEEENSt9enable_ifIXntsrSt34is_trivially_default_constructibleIT_E5valueEvE4typeEPS7_l
FN:158,_ZN5amrex12placementNewIN5Model5Solid7Elastic17PseudoLinearCubicEEENSt9enable_ifIXntsrSt34is_trivially_default_constructibleIT_E5valueEvE4typeEPS7_l
FNDA:0,_ZN5amrex12placementNewIN5Model5Solid7Elastic17PseudoLinearCubicEEENSt9enable_ifIXntsrSt34is_trivially_default_constructibleIT_E5valueEvE4typeEPS7_l
FN:158,_ZN5amrex12placementNewIN5Model5Solid7Elastic28PseudoLinearCubicPredeformedEEENSt9enable_ifIXntsrSt34is_trivially_default_constructibleIT_E5valueEvE4typeEPS7_l
FNDA:0,_ZN5amrex12placementNewIN5Model5Solid7Elastic28PseudoLinearCubicPredeformedEEENSt9enable_ifIXntsrSt34is_trivially_default_constructibleIT_E5valueEvE4typeEPS7_l
FN:158,_ZN5amrex12placementNewIN5Model5Solid6Affine2J2EEENSt9enable_ifIXntsrSt34is_trivially_default_constructibleIT_E5valueEvE4typeEPS7_l
FNDA:49,_ZN5amrex12placementNewIN5Model5Solid6Affine2J2EEENSt9enable_ifIXntsrSt34is_trivially_default_constructibleIT_E5valueEvE4typeEPS7_l
FN:158,_ZN5amrex12placementNewIN5Eigen6MatrixIdLi2ELi2ELi0ELi2ELi2EEEEENSt9enable_ifIXntsrSt34is_trivially_default_constructibleIT_E5valueEvE4typeEPS6_l
FNDA:0,_ZN5amrex12placementNewIN5Eigen6MatrixIdLi2ELi2ELi0ELi2ELi2EEEEENSt9enable_ifIXntsrSt34is_trivially_default_constructibleIT_E5valueEvE4typeEPS6_l
FN:158,_ZN5amrex12placementNewIN3Set7Matrix4ILi2ELi6EEEEENSt9enable_ifIXntsrSt34is_trivially_default_constructibleIT_E5valueEvE4typeEPS6_l
FNDA:0,_ZN5amrex12placementNewIN3Set7Matrix4ILi2ELi6EEEEENSt9enable_ifIXntsrSt34is_trivially_default_constructibleIT_E5valueEvE4typeEPS6_l
FN:158,_ZN5amrex12placementNewIN3Set7Matrix4ILi2ELi3EEEEENSt9enable_ifIXntsrSt34is_trivially_default_constructibleIT_E5valueEvE4typeEPS6_l
FNDA:0,_ZN5amrex12placementNewIN3Set7Matrix4ILi2ELi3EEEEENSt9enable_ifIXntsrSt34is_trivially_default_constructibleIT_E5valueEvE4typeEPS6_l
FN:158,_ZN5amrex12placementNewIN3Set7Matrix4ILi2ELi4EEEEENSt9enable_ifIXntsrSt34is_trivially_default_constructibleIT_E5valueEvE4typeEPS6_l
FNDA:0,_ZN5amrex12placementNewIN3Set7Matrix4ILi2ELi4EEEEENSt9enable_ifIXntsrSt34is_trivially_default_constructibleIT_E5valueEvE4typeEPS6_l
FN:168,_ZN5amrex15placementDeleteIN3Set7Matrix4ILi2ELi1EEEEENSt9enable_ifIXsrSt25is_trivially_destructibleIT_E5valueEvE4typeEPS6_l
FNDA:0,_ZN5amrex15placementDeleteIN3Set7Matrix4ILi2ELi1EEEEENSt9enable_ifIXsrSt25is_trivially_destructibleIT_E5valueEvE4typeEPS6_l
FN:168,_ZN5amrex15placementDeleteIN3Set7Matrix4ILi2ELi4EEEEENSt9enable_ifIXsrSt25is_trivially_destructibleIT_E5valueEvE4typeEPS6_l
FNDA:0,_ZN5amrex15placementDeleteIN3Set7Matrix4ILi2ELi4EEEEENSt9enable_ifIXsrSt25is_trivially_destructibleIT_E5valueEvE4typeEPS6_l
FN:168,_ZN5amrex15placementDeleteIN5Eigen6MatrixIdLi2ELi2ELi0ELi2ELi2EEEEENSt9enable_ifIXsrSt25is_trivially_destructibleIT_E5valueEvE4typeEPS6_l
FNDA:0,_ZN5amrex15placementDeleteIN5Eigen6MatrixIdLi2ELi2ELi0ELi2ELi2EEEEENSt9enable_ifIXsrSt25is_trivially_destructibleIT_E5valueEvE4typeEPS6_l
FN:168,_ZN5amrex15placementDeleteIN5Eigen6MatrixIdLi2ELi1ELi0ELi2ELi1EEEEENSt9enable_ifIXsrSt25is_trivially_destructibleIT_E5valueEvE4typeEPS6_l
FNDA:0,_ZN5amrex15placementDeleteIN5Eigen6MatrixIdLi2ELi1ELi0ELi2ELi1EEEEENSt9enable_ifIXsrSt25is_trivially_destructibleIT_E5valueEvE4typeEPS6_l
FN:168,_ZN5amrex15placementDeleteIN3Set7Matrix4ILi2ELi6EEEEENSt9enable_ifIXsrSt25is_trivially_destructibleIT_E5valueEvE4typeEPS6_l
FNDA:0,_ZN5amrex15placementDeleteIN3Set7Matrix4ILi2ELi6EEEEENSt9enable_ifIXsrSt25is_trivially_destructibleIT_E5valueEvE4typeEPS6_l
FN:168,_ZN5amrex15placementDeleteIN3Set7Matrix4ILi2ELi3EEEEENSt9enable_ifIXsrSt25is_trivially_destructibleIT_E5valueEvE4typeEPS6_l
FNDA:0,_ZN5amrex15placementDeleteIN3Set7Matrix4ILi2ELi3EEEEENSt9enable_ifIXsrSt25is_trivially_destructibleIT_E5valueEvE4typeEPS6_l
FN:173,_ZN5amrex15placementDeleteIN5Model5Solid6Linear19IsotropicDegradableEEENSt9enable_ifIXntsrSt25is_trivially_destructibleIT_E5valueEvE4typeEPS7_l
FNDA:0,_ZN5amrex15placementDeleteIN5Model5Solid6Linear19IsotropicDegradableEEENSt9enable_ifIXntsrSt25is_trivially_destructibleIT_E5valueEvE4typeEPS7_l
FN:173,_ZN5amrex15placementDeleteIN5Model5Solid6Linear9IsotropicEEENSt9enable_ifIXntsrSt25is_trivially_destructibleIT_E5valueEvE4typeEPS7_l
FNDA:132,_ZN5amrex15placementDeleteIN5Model5Solid6Linear9IsotropicEEENSt9enable_ifIXntsrSt25is_trivially_destructibleIT_E5valueEvE4typeEPS7_l
FN:173,_ZN5amrex15placementDeleteIN5Model5Solid6Linear5CubicEEENSt9enable_ifIXntsrSt25is_trivially_destructibleIT_E5valueEvE4typeEPS7_l
FNDA:0,_ZN5amrex15placementDeleteIN5Model5Solid6Linear5CubicEEENSt9enable_ifIXntsrSt25is_trivially_destructibleIT_E5valueEvE4typeEPS7_l
FN:173,_ZN5amrex15placementDeleteIN5Model5Solid6Affine5CubicEEENSt9enable_ifIXntsrSt25is_trivially_destructibleIT_E5valueEvE4typeEPS7_l
FNDA:0,_ZN5amrex15placementDeleteIN5Model5Solid6Affine5CubicEEENSt9enable_ifIXntsrSt25is_trivially_destructibleIT_E5valueEvE4typeEPS7_l
FN:173,_ZN5amrex15placementDeleteIN5Model5Solid6Affine9IsotropicEEENSt9enable_ifIXntsrSt25is_trivially_destructibleIT_E5valueEvE4typeEPS7_l
FNDA:0,_ZN5amrex15placementDeleteIN5Model5Solid6Affine9IsotropicEEENSt9enable_ifIXntsrSt25is_trivially_destructibleIT_E5valueEvE4typeEPS7_l
FN:173,_ZN5amrex15placementDeleteIN5Model5Solid6Affine9HexagonalEEENSt9enable_ifIXntsrSt25is_trivially_destructibleIT_E5valueEvE4typeEPS7_l
FNDA:0,_ZN5amrex15placementDeleteIN5Model5Solid6Affine9HexagonalEEENSt9enable_ifIXntsrSt25is_trivially_destructibleIT_E5valueEvE4typeEPS7_l
FN:173,_ZN5amrex15placementDeleteIN5Model5Solid6Linear9LaplacianEEENSt9enable_ifIXntsrSt25is_trivially_destructibleIT_E5valueEvE4typeEPS7_l
FNDA:1,_ZN5amrex15placementDeleteIN5Model5Solid6Linear9LaplacianEEENSt9enable_ifIXntsrSt25is_trivially_destructibleIT_E5valueEvE4typeEPS7_l
FN:173,_ZN5amrex15placementDeleteIN5Model5Solid7Elastic17PseudoLinearCubicEEENSt9enable_ifIXntsrSt25is_trivially_destructibleIT_E5valueEvE4typeEPS7_l
FNDA:0,_ZN5amrex15placementDeleteIN5Model5Solid7Elastic17PseudoLinearCubicEEENSt9enable_ifIXntsrSt25is_trivially_destructibleIT_E5valueEvE4typeEPS7_l
FN:173,_ZN5amrex15placementDeleteIN5Model5Solid7Elastic28PseudoLinearCubicPredeformedEEENSt9enable_ifIXntsrSt25is_trivially_destructibleIT_E5valueEvE4typeEPS7_l
FNDA:0,_ZN5amrex15placementDeleteIN5Model5Solid7Elastic28PseudoLinearCubicPredeformedEEENSt9enable_ifIXntsrSt25is_trivially_destructibleIT_E5valueEvE4typeEPS7_l
FN:173,_ZN5amrex15placementDeleteIN5Model5Solid6Affine2J2EEENSt9enable_ifIXntsrSt25is_trivially_destructibleIT_E5valueEvE4typeEPS7_l
FNDA:49,_ZN5amrex15placementDeleteIN5Model5Solid6Affine2J2EEENSt9enable_ifIXntsrSt25is_trivially_destructibleIT_E5valueEvE4typeEPS7_l
FN:173,_ZN5amrex15placementDeleteIN5Model5Solid7Elastic10NeoHookeanEEENSt9enable_ifIXntsrSt25is_trivially_destructibleIT_E5valueEvE4typeEPS7_l
FNDA:63,_ZN5amrex15placementDeleteIN5Model5Solid7Elastic10NeoHookeanEEENSt9enable_ifIXntsrSt25is_trivially_destructibleIT_E5valueEvE4typeEPS7_l
FN:267,_ZNK5amrex7BaseFabIN5Model5Solid7Elastic28PseudoLinearCubicPredeformedEE6nBytesEv
FNDA:0,_ZNK5amrex7BaseFabIN5Model5Solid7Elastic28PseudoLinearCubicPredeformedEE6nBytesEv
FN:267,_ZNK5amrex7BaseFabIN5Model5Solid6Affine5CubicEE6nBytesEv
FNDA:0,_ZNK5amrex7BaseFabIN5Model5Solid6Affine5CubicEE6nBytesEv
FN:267,_ZNK5amrex7BaseFabIN5Model5Solid6Affine9HexagonalEE6nBytesEv
FNDA:0,_ZNK5amrex7BaseFabIN5Model5Solid6Affine9HexagonalEE6nBytesEv
FN:267,_ZNK5amrex7BaseFabIN5Model5Solid6Linear9IsotropicEE6nBytesEv
FNDA:212,_ZNK5amrex7BaseFabIN5Model5Solid6Linear9IsotropicEE6nBytesEv
FN:267,_ZNK5amrex7BaseFabIN5Model5Solid6Linear5CubicEE6nBytesEv
FNDA:0,_ZNK5amrex7BaseFabIN5Model5Solid6Linear5CubicEE6nBytesEv
FN:267,_ZNK5amrex7BaseFabIN5Model5Solid6Linear9LaplacianEE6nBytesEv
FNDA:2,_ZNK5amrex7BaseFabIN5Model5Solid6Linear9LaplacianEE6nBytesEv
FN:267,_ZNK5amrex7BaseFabIN5Model5Solid7Elastic10NeoHookeanEE6nBytesEv
FNDA:96,_ZNK5amrex7BaseFabIN5Model5Solid7Elastic10NeoHookeanEE6nBytesEv
FN:267,_ZNK5amrex7BaseFabIN5Model5Solid6Affine9IsotropicEE6nBytesEv
FNDA:0,_ZNK5amrex7BaseFabIN5Model5Solid6Affine9IsotropicEE6nBytesEv
FN:267,_ZNK5amrex7BaseFabIN5Model5Solid6Linear19IsotropicDegradableEE6nBytesEv
FNDA:0,_ZNK5amrex7BaseFabIN5Model5Solid6Linear19IsotropicDegradableEE6nBytesEv
FN:267,_ZNK5amrex7BaseFabIN5Model5Solid7Elastic17PseudoLinearCubicEE6nBytesEv
FNDA:0,_ZNK5amrex7BaseFabIN5Model5Solid7Elastic17PseudoLinearCubicEE6nBytesEv
FN:267,_ZNK5amrex7BaseFabIN5Model5Solid6Affine2J2EE6nBytesEv
FNDA:66,_ZNK5amrex7BaseFabIN5Model5Solid6Affine2J2EE6nBytesEv
FN:267,_ZNK5amrex7BaseFabIN3Set7Matrix4ILi2ELi1EEEE6nBytesEv
FNDA:0,_ZNK5amrex7BaseFabIN3Set7Matrix4ILi2ELi1EEEE6nBytesEv
FN:267,_ZNK5amrex7BaseFabIN3Set7Matrix4ILi2ELi6EEEE6nBytesEv
FNDA:0,_ZNK5amrex7BaseFabIN3Set7Matrix4ILi2ELi6EEEE6nBytesEv
FN:267,_ZNK5amrex7BaseFabIN3Set7Matrix4ILi2ELi4EEEE6nBytesEv
FNDA:0,_ZNK5amrex7BaseFabIN3Set7Matrix4ILi2ELi4EEEE6nBytesEv
FN:267,_ZNK5amrex7BaseFabIN5Eigen6MatrixIdLi2ELi2ELi0ELi2ELi2EEEE6nBytesEv
FNDA:0,_ZNK5amrex7BaseFabIN5Eigen6MatrixIdLi2ELi2ELi0ELi2ELi2EEEE6nBytesEv
FN:267,_ZNK5amrex7BaseFabIN5Eigen6MatrixIdLi2ELi1ELi0ELi2ELi1EEEE6nBytesEv
FNDA:0,_ZNK5amrex7BaseFabIN5Eigen6MatrixIdLi2ELi1ELi0ELi2ELi1EEEE6nBytesEv
FN:267,_ZNK5amrex7BaseFabIN3Set7Matrix4ILi2ELi3EEEE6nBytesEv
FNDA:0,_ZNK5amrex7BaseFabIN3Set7Matrix4ILi2ELi3EEEE6nBytesEv
FN:267,_ZNK5amrex7BaseFabIiE6nBytesEv
FNDA:0,_ZNK5amrex7BaseFabIiE6nBytesEv
FN:267,_ZNK5amrex7BaseFabIdE6nBytesEv
FNDA:0,_ZNK5amrex7BaseFabIdE6nBytesEv
FN:269,_ZNK5amrex7BaseFabIN5Model5Solid6Linear9LaplacianEE11nBytesOwnedEv
FNDA:2,_ZNK5amrex7BaseFabIN5Model5Solid6Linear9LaplacianEE11nBytesOwnedEv
FN:269,_ZNK5amrex7BaseFabIN5Model5Solid6Affine2J2EE11nBytesOwnedEv
FNDA:66,_ZNK5amrex7BaseFabIN5Model5Solid6Affine2J2EE11nBytesOwnedEv
FN:269,_ZNK5amrex7BaseFabIN5Model5Solid7Elastic28PseudoLinearCubicPredeformedEE11nBytesOwnedEv
FNDA:0,_ZNK5amrex7BaseFabIN5Model5Solid7Elastic28PseudoLinearCubicPredeformedEE11nBytesOwnedEv
FN:269,_ZNK5amrex7BaseFabIN5Eigen6MatrixIdLi2ELi1ELi0ELi2ELi1EEEE11nBytesOwnedEv
FNDA:0,_ZNK5amrex7BaseFabIN5Eigen6MatrixIdLi2ELi1ELi0ELi2ELi1EEEE11nBytesOwnedEv
FN:269,_ZNK5amrex7BaseFabIN3Set7Matrix4ILi2ELi4EEEE11nBytesOwnedEv
FNDA:0,_ZNK5amrex7BaseFabIN3Set7Matrix4ILi2ELi4EEEE11nBytesOwnedEv
FN:269,_ZNK5amrex7BaseFabIN3Set7Matrix4ILi2ELi1EEEE11nBytesOwnedEv
FNDA:0,_ZNK5amrex7BaseFabIN3Set7Matrix4ILi2ELi1EEEE11nBytesOwnedEv
FN:269,_ZNK5amrex7BaseFabIiE11nBytesOwnedEv
FNDA:0,_ZNK5amrex7BaseFabIiE11nBytesOwnedEv
FN:269,_ZNK5amrex7BaseFabIN3Set7Matrix4ILi2ELi3EEEE11nBytesOwnedEv
FNDA:0,_ZNK5amrex7BaseFabIN3Set7Matrix4ILi2ELi3EEEE11nBytesOwnedEv
FN:269,_ZNK5amrex7BaseFabIdE11nBytesOwnedEv
FNDA:0,_ZNK5amrex7BaseFabIdE11nBytesOwnedEv
FN:269,_ZNK5amrex7BaseFabIN5Model5Solid7Elastic17PseudoLinearCubicEE11nBytesOwnedEv
FNDA:0,_ZNK5amrex7BaseFabIN5Model5Solid7Elastic17PseudoLinearCubicEE11nBytesOwnedEv
FN:269,_ZNK5amrex7BaseFabIN5Eigen6MatrixIdLi2ELi2ELi0ELi2ELi2EEEE11nBytesOwnedEv
FNDA:0,_ZNK5amrex7BaseFabIN5Eigen6MatrixIdLi2ELi2ELi0ELi2ELi2EEEE11nBytesOwnedEv
FN:269,_ZNK5amrex7BaseFabIN3Set7Matrix4ILi2ELi6EEEE11nBytesOwnedEv
FNDA:0,_ZNK5amrex7BaseFabIN3Set7Matrix4ILi2ELi6EEEE11nBytesOwnedEv
FN:269,_ZNK5amrex7BaseFabIN5Model5Solid6Linear19IsotropicDegradableEE11nBytesOwnedEv
FNDA:0,_ZNK5amrex7BaseFabIN5Model5Solid6Linear19IsotropicDegradableEE11nBytesOwnedEv
FN:269,_ZNK5amrex7BaseFabIN5Model5Solid7Elastic10NeoHookeanEE11nBytesOwnedEv
FNDA:96,_ZNK5amrex7BaseFabIN5Model5Solid7Elastic10NeoHookeanEE11nBytesOwnedEv
FN:269,_ZNK5amrex7BaseFabIN5Model5Solid6Affine9IsotropicEE11nBytesOwnedEv
FNDA:0,_ZNK5amrex7BaseFabIN5Model5Solid6Affine9IsotropicEE11nBytesOwnedEv
FN:269,_ZNK5amrex7BaseFabIN5Model5Solid6Affine5CubicEE11nBytesOwnedEv
FNDA:0,_ZNK5amrex7BaseFabIN5Model5Solid6Affine5CubicEE11nBytesOwnedEv
FN:269,_ZNK5amrex7BaseFabIN5Model5Solid6Affine9HexagonalEE11nBytesOwnedEv
FNDA:0,_ZNK5amrex7BaseFabIN5Model5Solid6Affine9HexagonalEE11nBytesOwnedEv
FN:269,_ZNK5amrex7BaseFabIN5Model5Solid6Linear9IsotropicEE11nBytesOwnedEv
FNDA:212,_ZNK5amrex7BaseFabIN5Model5Solid6Linear9IsotropicEE11nBytesOwnedEv
FN:269,_ZNK5amrex7BaseFabIN5Model5Solid6Linear5CubicEE11nBytesOwnedEv
FNDA:0,_ZNK5amrex7BaseFabIN5Model5Solid6Linear5CubicEE11nBytesOwnedEv
FN:292,_ZNK5amrex7BaseFabIN5Model5Solid7Elastic17PseudoLinearCubicEE3boxEv
FNDA:0,_ZNK5amrex7BaseFabIN5Model5Solid7Elastic17PseudoLinearCubicEE3boxEv
FN:292,_ZNK5amrex7BaseFabIN5Model5Solid6Affine9IsotropicEE3boxEv
FNDA:0,_ZNK5amrex7BaseFabIN5Model5Solid6Affine9IsotropicEE3boxEv
FN:292,_ZNK5amrex7BaseFabIN5Model5Solid6Linear9IsotropicEE3boxEv
FNDA:78,_ZNK5amrex7BaseFabIN5Model5Solid6Linear9IsotropicEE3boxEv
FN:292,_ZNK5amrex7BaseFabIN5Model5Solid6Linear5CubicEE3boxEv
FNDA:0,_ZNK5amrex7BaseFabIN5Model5Solid6Linear5CubicEE3boxEv
FN:292,_ZNK5amrex7BaseFabIN5Model5Solid6Affine5CubicEE3boxEv
FNDA:0,_ZNK5amrex7BaseFabIN5Model5Solid6Affine5CubicEE3boxEv
FN:292,_ZNK5amrex7BaseFabIN5Model5Solid6Affine9HexagonalEE3boxEv
FNDA:0,_ZNK5amrex7BaseFabIN5Model5Solid6Affine9HexagonalEE3boxEv
FN:292,_ZNK5amrex7BaseFabIN5Model5Solid6Linear9LaplacianEE3boxEv
FNDA:0,_ZNK5amrex7BaseFabIN5Model5Solid6Linear9LaplacianEE3boxEv
FN:292,_ZNK5amrex7BaseFabIN5Model5Solid7Elastic10NeoHookeanEE3boxEv
FNDA:45,_ZNK5amrex7BaseFabIN5Model5Solid7Elastic10NeoHookeanEE3boxEv
FN:292,_ZNK5amrex7BaseFabIN5Model5Solid6Linear19IsotropicDegradableEE3boxEv
FNDA:0,_ZNK5amrex7BaseFabIN5Model5Solid6Linear19IsotropicDegradableEE3boxEv
FN:292,_ZNK5amrex7BaseFabIN5Model5Solid7Elastic28PseudoLinearCubicPredeformedEE3boxEv
FNDA:0,_ZNK5amrex7BaseFabIN5Model5Solid7Elastic28PseudoLinearCubicPredeformedEE3boxEv
FN:292,_ZNK5amrex7BaseFabIN5Model5Solid6Affine2J2EE3boxEv
FNDA:48,_ZNK5amrex7BaseFabIN5Model5Solid6Affine2J2EE3boxEv
FN:292,_ZNK5amrex7BaseFabIN5Eigen6MatrixIdLi2ELi2ELi0ELi2ELi2EEEE3boxEv
FNDA:0,_ZNK5amrex7BaseFabIN5Eigen6MatrixIdLi2ELi2ELi0ELi2ELi2EEEE3boxEv
FN:292,_ZNK5amrex7BaseFabIN5Eigen6MatrixIdLi2ELi1ELi0ELi2ELi1EEEE3boxEv
FNDA:0,_ZNK5amrex7BaseFabIN5Eigen6MatrixIdLi2ELi1ELi0ELi2ELi1EEEE3boxEv
FN:362,_ZNK5amrex7BaseFabIN5Model5Solid6Affine2J2EE7dataPtrEi
FNDA:0,_ZNK5amrex7BaseFabIN5Model5Solid6Affine2J2EE7dataPtrEi
FN:362,_ZNK5amrex7BaseFabIN5Model5Solid7Elastic10NeoHookeanEE7dataPtrEi
FNDA:0,_ZNK5amrex7BaseFabIN5Model5Solid7Elastic10NeoHookeanEE7dataPtrEi
FN:362,_ZNK5amrex7BaseFabIN5Model5Solid7Elastic17PseudoLinearCubicEE7dataPtrEi
FNDA:0,_ZNK5amrex7BaseFabIN5Model5Solid7Elastic17PseudoLinearCubicEE7dataPtrEi
FN:362,_ZNK5amrex7BaseFabIN5Model5Solid7Elastic28PseudoLinearCubicPredeformedEE7dataPtrEi
FNDA:0,_ZNK5amrex7BaseFabIN5Model5Solid7Elastic28PseudoLinearCubicPredeformedEE7dataPtrEi
FN:362,_ZNK5amrex7BaseFabIN5Eigen6MatrixIdLi2ELi2ELi0ELi2ELi2EEEE7dataPtrEi
FNDA:0,_ZNK5amrex7BaseFabIN5Eigen6MatrixIdLi2ELi2ELi0ELi2ELi2EEEE7dataPtrEi
FN:362,_ZNK5amrex7BaseFabIN5Model5Solid6Affine5CubicEE7dataPtrEi
FNDA:0,_ZNK5amrex7BaseFabIN5Model5Solid6Affine5CubicEE7dataPtrEi
FN:362,_ZNK5amrex7BaseFabIN5Model5Solid6Linear5CubicEE7dataPtrEi
FNDA:0,_ZNK5amrex7BaseFabIN5Model5Solid6Linear5CubicEE7dataPtrEi
FN:362,_ZNK5amrex7BaseFabIN5Model5Solid6Linear9IsotropicEE7dataPtrEi
FNDA:0,_ZNK5amrex7BaseFabIN5Model5Solid6Linear9IsotropicEE7dataPtrEi
FN:362,_ZNK5amrex7BaseFabIN5Model5Solid6Affine9HexagonalEE7dataPtrEi
FNDA:0,_ZNK5amrex7BaseFabIN5Model5Solid6Affine9HexagonalEE7dataPtrEi
FN:362,_ZNK5amrex7BaseFabIN5Model5Solid6Affine9IsotropicEE7dataPtrEi
FNDA:0,_ZNK5amrex7BaseFabIN5Model5Solid6Affine9IsotropicEE7dataPtrEi
FN:362,_ZNK5amrex7BaseFabIN5Eigen6MatrixIdLi2ELi1ELi0ELi2ELi1EEEE7dataPtrEi
FNDA:0,_ZNK5amrex7BaseFabIN5Eigen6MatrixIdLi2ELi1ELi0ELi2ELi1EEEE7dataPtrEi
FN:362,_ZNK5amrex7BaseFabIN5Model5Solid6Linear19IsotropicDegradableEE7dataPtrEi
FNDA:0,_ZNK5amrex7BaseFabIN5Model5Solid6Linear19IsotropicDegradableEE7dataPtrEi
FN:362,_ZNK5amrex7BaseFabIN5Model5Solid6Linear9LaplacianEE7dataPtrEi
FNDA:0,_ZNK5amrex7BaseFabIN5Model5Solid6Linear9LaplacianEE7dataPtrEi
FN:362,_ZNK5amrex7BaseFabIN3Set7Matrix4ILi2ELi1EEEE7dataPtrEi
FNDA:0,_ZNK5amrex7BaseFabIN3Set7Matrix4ILi2ELi1EEEE7dataPtrEi
FN:362,_ZNK5amrex7BaseFabIN3Set7Matrix4ILi2ELi4EEEE7dataPtrEi
FNDA:0,_ZNK5amrex7BaseFabIN3Set7Matrix4ILi2ELi4EEEE7dataPtrEi
FN:362,_ZNK5amrex7BaseFabIN3Set7Matrix4ILi2ELi3EEEE7dataPtrEi
FNDA:0,_ZNK5amrex7BaseFabIN3Set7Matrix4ILi2ELi3EEEE7dataPtrEi
FN:362,_ZNK5amrex7BaseFabIN3Set7Matrix4ILi2ELi6EEEE7dataPtrEi
FNDA:0,_ZNK5amrex7BaseFabIN3Set7Matrix4ILi2ELi6EEEE7dataPtrEi
FN:1835,_ZN5amrex7BaseFabIiE6setValILNS_5RunOnE1EEEvRKiRKNS_3BoxEii
FNDA:0,_ZN5amrex7BaseFabIiE6setValILNS_5RunOnE1EEEvRKiRKNS_3BoxEii
FN:1851,_ZN5amrex7BaseFabIN5Eigen6MatrixIdLi2ELi1ELi0ELi2ELi1EEEE4copyILNS_5RunOnE1EEERS4_RKS4_RKNS_3BoxEiSC_ii
FNDA:0,_ZN5amrex7BaseFabIN5Eigen6MatrixIdLi2ELi1ELi0ELi2ELi1EEEE4copyILNS_5RunOnE1EEERS4_RKS4_RKNS_3BoxEiSC_ii
FN:1851,_ZN5amrex7BaseFabIN5Model5Solid6Linear9IsotropicEE4copyILNS_5RunOnE1EEERS5_RKS5_RKNS_3BoxEiSD_ii
FNDA:673,_ZN5amrex7BaseFabIN5Model5Solid6Linear9IsotropicEE4copyILNS_5RunOnE1EEERS5_RKS5_RKNS_3BoxEiSD_ii
FN:1851,_ZN5amrex7BaseFabIN5Model5Solid6Linear5CubicEE4copyILNS_5RunOnE1EEERS5_RKS5_RKNS_3BoxEiSD_ii
FNDA:0,_ZN5amrex7BaseFabIN5Model5Solid6Linear5CubicEE4copyILNS_5RunOnE1EEERS5_RKS5_RKNS_3BoxEiSD_ii
FN:1851,_ZN5amrex7BaseFabIN5Model5Solid6Affine5CubicEE4copyILNS_5RunOnE1EEERS5_RKS5_RKNS_3BoxEiSD_ii
FNDA:0,_ZN5amrex7BaseFabIN5Model5Solid6Affine5CubicEE4copyILNS_5RunOnE1EEERS5_RKS5_RKNS_3BoxEiSD_ii
FN:1851,_ZN5amrex7BaseFabIN5Model5Solid6Affine9HexagonalEE4copyILNS_5RunOnE1EEERS5_RKS5_RKNS_3BoxEiSD_ii
FNDA:0,_ZN5amrex7BaseFabIN5Model5Solid6Affine9HexagonalEE4copyILNS_5RunOnE1EEERS5_RKS5_RKNS_3BoxEiSD_ii
FN:1851,_ZN5amrex7BaseFabIN5Eigen6MatrixIdLi2ELi2ELi0ELi2ELi2EEEE4copyILNS_5RunOnE0EEERS4_RKS4_RKNS_3BoxEiSC_ii
FNDA:0,_ZN5amrex7BaseFabIN5Eigen6MatrixIdLi2ELi2ELi0ELi2ELi2EEEE4copyILNS_5RunOnE0EEERS4_RKS4_RKNS_3BoxEiSC_ii
FN:1851,_ZN5amrex7BaseFabIN5Model5Solid6Linear9LaplacianEE4copyILNS_5RunOnE1EEERS5_RKS5_RKNS_3BoxEiSD_ii
FNDA:0,_ZN5amrex7BaseFabIN5Model5Solid6Linear9LaplacianEE4copyILNS_5RunOnE1EEERS5_RKS5_RKNS_3BoxEiSD_ii
FN:1851,_ZN5amrex7BaseFabIN5Model5Solid6Linear9LaplacianEE4copyILNS_5RunOnE0EEERS5_RKS5_RKNS_3BoxEiSD_ii
FNDA:0,_ZN5amrex7BaseFabIN5Model5Solid6Linear9LaplacianEE4copyILNS_5RunOnE0EEERS5_RKS5_RKNS_3BoxEiSD_ii
FN:1851,_ZN5amrex7BaseFabIdE4copyILNS_5RunOnE1EEERS1_RKS1_RKNS_3BoxEiS9_ii
FNDA:0,_ZN5amrex7BaseFabIdE4copyILNS_5RunOnE1EEERS1_RKS1_RKNS_3BoxEiS9_ii
FN:1851,_ZN5amrex7BaseFabIN5Model5Solid7Elastic10NeoHookeanEE4copyILNS_5RunOnE1EEERS5_RKS5_RKNS_3BoxEiSD_ii
FNDA:186,_ZN5amrex7BaseFabIN5Model5Solid7Elastic10NeoHookeanEE4copyILNS_5RunOnE1EEERS5_RKS5_RKNS_3BoxEiSD_ii
FN:1851,_ZN5amrex7BaseFabIN5Model5Solid7Elastic17PseudoLinearCubicEE4copyILNS_5RunOnE1EEERS5_RKS5_RKNS_3BoxEiSD_ii
FNDA:0,_ZN5amrex7BaseFabIN5Model5Solid7Elastic17PseudoLinearCubicEE4copyILNS_5RunOnE1EEERS5_RKS5_RKNS_3BoxEiSD_ii
FN:1851,_ZN5amrex7BaseFabIN5Model5Solid6Linear19IsotropicDegradableEE4copyILNS_5RunOnE1EEERS5_RKS5_RKNS_3BoxEiSD_ii
FNDA:0,_ZN5amrex7BaseFabIN5Model5Solid6Linear19IsotropicDegradableEE4copyILNS_5RunOnE1EEERS5_RKS5_RKNS_3BoxEiSD_ii
FN:1851,_ZN5amrex7BaseFabIN5Model5Solid6Affine9IsotropicEE4copyILNS_5RunOnE1EEERS5_RKS5_RKNS_3BoxEiSD_ii
FNDA:0,_ZN5amrex7BaseFabIN5Model5Solid6Affine9IsotropicEE4copyILNS_5RunOnE1EEERS5_RKS5_RKNS_3BoxEiSD_ii
FN:1851,_ZN5amrex7BaseFabIN5Model5Solid7Elastic28PseudoLinearCubicPredeformedEE4copyILNS_5RunOnE1EEERS5_RKS5_RKNS_3BoxEiSD_ii
FNDA:0,_ZN5amrex7BaseFabIN5Model5Solid7Elastic28PseudoLinearCubicPredeformedEE4copyILNS_5RunOnE1EEERS5_RKS5_RKNS_3BoxEiSD_ii
FN:1851,_ZN5amrex7BaseFabIN5Model5Solid6Affine2J2EE4copyILNS_5RunOnE1EEERS5_RKS5_RKNS_3BoxEiSD_ii
FNDA:27,_ZN5amrex7BaseFabIN5Model5Solid6Affine2J2EE4copyILNS_5RunOnE1EEERS5_RKS5_RKNS_3BoxEiSD_ii
FN:1851,_ZN5amrex7BaseFabIN5Eigen6MatrixIdLi2ELi2ELi0ELi2ELi2EEEE4copyILNS_5RunOnE1EEERS4_RKS4_RKNS_3BoxEiSC_ii
FNDA:0,_ZN5amrex7BaseFabIN5Eigen6MatrixIdLi2ELi2ELi0ELi2ELi2EEEE4copyILNS_5RunOnE1EEERS4_RKS4_RKNS_3BoxEiSC_ii
FN:1851,_ZN5amrex7BaseFabIN3Set7Matrix4ILi2ELi6EEEE4copyILNS_5RunOnE1EEERS4_RKS4_RKNS_3BoxEiSC_ii
FNDA:0,_ZN5amrex7BaseFabIN3Set7Matrix4ILi2ELi6EEEE4copyILNS_5RunOnE1EEERS4_RKS4_RKNS_3BoxEiSC_ii
FN:1851,_ZN5amrex7BaseFabIN3Set7Matrix4ILi2ELi6EEEE4copyILNS_5RunOnE0EEERS4_RKS4_RKNS_3BoxEiSC_ii
FNDA:0,_ZN5amrex7BaseFabIN3Set7Matrix4ILi2ELi6EEEE4copyILNS_5RunOnE0EEERS4_RKS4_RKNS_3BoxEiSC_ii
FN:1851,_ZN5amrex7BaseFabIN3Set7Matrix4ILi2ELi4EEEE4copyILNS_5RunOnE0EEERS4_RKS4_RKNS_3BoxEiSC_ii
FNDA:0,_ZN5amrex7BaseFabIN3Set7Matrix4ILi2ELi4EEEE4copyILNS_5RunOnE0EEERS4_RKS4_RKNS_3BoxEiSC_ii
FN:1851,_ZN5amrex7BaseFabIN5Model5Solid6Linear5CubicEE4copyILNS_5RunOnE0EEERS5_RKS5_RKNS_3BoxEiSD_ii
FNDA:0,_ZN5amrex7BaseFabIN5Model5Solid6Linear5CubicEE4copyILNS_5RunOnE0EEERS5_RKS5_RKNS_3BoxEiSD_ii
FN:1851,_ZN5amrex7BaseFabIN5Model5Solid7Elastic10NeoHookeanEE4copyILNS_5RunOnE0EEERS5_RKS5_RKNS_3BoxEiSD_ii
FNDA:0,_ZN5amrex7BaseFabIN5Model5Solid7Elastic10NeoHookeanEE4copyILNS_5RunOnE0EEERS5_RKS5_RKNS_3BoxEiSD_ii
FN:1851,_ZN5amrex7BaseFabIN5Model5Solid7Elastic17PseudoLinearCubicEE4copyILNS_5RunOnE0EEERS5_RKS5_RKNS_3BoxEiSD_ii
FNDA:0,_ZN5amrex7BaseFabIN5Model5Solid7Elastic17PseudoLinearCubicEE4copyILNS_5RunOnE0EEERS5_RKS5_RKNS_3BoxEiSD_ii
FN:1851,_ZN5amrex7BaseFabIN5Model5Solid6Affine5CubicEE4copyILNS_5RunOnE0EEERS5_RKS5_RKNS_3BoxEiSD_ii
FNDA:0,_ZN5amrex7BaseFabIN5Model5Solid6Affine5CubicEE4copyILNS_5RunOnE0EEERS5_RKS5_RKNS_3BoxEiSD_ii
FN:1851,_ZN5amrex7BaseFabIN3Set7Matrix4ILi2ELi1EEEE4copyILNS_5RunOnE1EEERS4_RKS4_RKNS_3BoxEiSC_ii
FNDA:0,_ZN5amrex7BaseFabIN3Set7Matrix4ILi2ELi1EEEE4copyILNS_5RunOnE1EEERS4_RKS4_RKNS_3BoxEiSC_ii
FN:1851,_ZN5amrex7BaseFabIN5Model5Solid6Linear9IsotropicEE4copyILNS_5RunOnE0EEERS5_RKS5_RKNS_3BoxEiSD_ii
FNDA:0,_ZN5amrex7BaseFabIN5Model5Solid6Linear9IsotropicEE4copyILNS_5RunOnE0EEERS5_RKS5_RKNS_3BoxEiSD_ii
FN:1851,_ZN5amrex7BaseFabIN3Set7Matrix4ILi2ELi4EEEE4copyILNS_5RunOnE1EEERS4_RKS4_RKNS_3BoxEiSC_ii
FNDA:0,_ZN5amrex7BaseFabIN3Set7Matrix4ILi2ELi4EEEE4copyILNS_5RunOnE1EEERS4_RKS4_RKNS_3BoxEiSC_ii
FN:1851,_ZN5amrex7BaseFabIN5Model5Solid6Affine9IsotropicEE4copyILNS_5RunOnE0EEERS5_RKS5_RKNS_3BoxEiSD_ii
FNDA:0,_ZN5amrex7BaseFabIN5Model5Solid6Affine9IsotropicEE4copyILNS_5RunOnE0EEERS5_RKS5_RKNS_3BoxEiSD_ii
FN:1851,_ZN5amrex7BaseFabIN3Set7Matrix4ILi2ELi3EEEE4copyILNS_5RunOnE1EEERS4_RKS4_RKNS_3BoxEiSC_ii
FNDA:0,_ZN5amrex7BaseFabIN3Set7Matrix4ILi2ELi3EEEE4copyILNS_5RunOnE1EEERS4_RKS4_RKNS_3BoxEiSC_ii
FN:1851,_ZN5amrex7BaseFabIN5Eigen6MatrixIdLi2ELi1ELi0ELi2ELi1EEEE4copyILNS_5RunOnE0EEERS4_RKS4_RKNS_3BoxEiSC_ii
FNDA:0,_ZN5amrex7BaseFabIN5Eigen6MatrixIdLi2ELi1ELi0ELi2ELi1EEEE4copyILNS_5RunOnE0EEERS4_RKS4_RKNS_3BoxEiSC_ii
FN:1851,_ZN5amrex7BaseFabIN5Model5Solid6Linear19IsotropicDegradableEE4copyILNS_5RunOnE0EEERS5_RKS5_RKNS_3BoxEiSD_ii
FNDA:0,_ZN5amrex7BaseFabIN5Model5Solid6Linear19IsotropicDegradableEE4copyILNS_5RunOnE0EEERS5_RKS5_RKNS_3BoxEiSD_ii
FN:1851,_ZN5amrex7BaseFabIN5Model5Solid6Affine2J2EE4copyILNS_5RunOnE0EEERS5_RKS5_RKNS_3BoxEiSD_ii
FNDA:0,_ZN5amrex7BaseFabIN5Model5Solid6Affine2J2EE4copyILNS_5RunOnE0EEERS5_RKS5_RKNS_3BoxEiSD_ii
FN:1851,_ZN5amrex7BaseFabIN5Model5Solid6Affine9HexagonalEE4copyILNS_5RunOnE0EEERS5_RKS5_RKNS_3BoxEiSD_ii
FNDA:0,_ZN5amrex7BaseFabIN5Model5Solid6Affine9HexagonalEE4copyILNS_5RunOnE0EEERS5_RKS5_RKNS_3BoxEiSD_ii
FN:1851,_ZN5amrex7BaseFabIN3Set7Matrix4ILi2ELi1EEEE4copyILNS_5RunOnE0EEERS4_RKS4_RKNS_3BoxEiSC_ii
FNDA:0,_ZN5amrex7BaseFabIN3Set7Matrix4ILi2ELi1EEEE4copyILNS_5RunOnE0EEERS4_RKS4_RKNS_3BoxEiSC_ii
FN:1851,_ZN5amrex7BaseFabIN3Set7Matrix4ILi2ELi3EEEE4copyILNS_5RunOnE0EEERS4_RKS4_RKNS_3BoxEiSC_ii
FNDA:0,_ZN5amrex7BaseFabIN3Set7Matrix4ILi2ELi3EEEE4copyILNS_5RunOnE0EEERS4_RKS4_RKNS_3BoxEiSC_ii
FN:1851,_ZN5amrex7BaseFabIN5Model5Solid7Elastic28PseudoLinearCubicPredeformedEE4copyILNS_5RunOnE0EEERS5_RKS5_RKNS_3BoxEiSD_ii
FNDA:0,_ZN5amrex7BaseFabIN5Model5Solid7Elastic28PseudoLinearCubicPredeformedEE4copyILNS_5RunOnE0EEERS5_RKS5_RKNS_3BoxEiSD_ii
FN:1867,_ZZN5amrex7BaseFabIN5Model5Solid6Affine5CubicEE4copyILNS_5RunOnE1EEERS5_RKS5_RKNS_3BoxEiSD_iiENKUliiiiE_clEiiii
FNDA:0,_ZZN5amrex7BaseFabIN5Model5Solid6Affine5CubicEE4copyILNS_5RunOnE1EEERS5_RKS5_RKNS_3BoxEiSD_iiENKUliiiiE_clEiiii
FN:1867,_ZZN5amrex7BaseFabIN5Model5Solid6Affine9IsotropicEE4copyILNS_5RunOnE1EEERS5_RKS5_RKNS_3BoxEiSD_iiENKUliiiiE_clEiiii
FNDA:0,_ZZN5amrex7BaseFabIN5Model5Solid6Affine9IsotropicEE4copyILNS_5RunOnE1EEERS5_RKS5_RKNS_3BoxEiSD_iiENKUliiiiE_clEiiii
FN:1867,_ZZN5amrex7BaseFabIN5Model5Solid7Elastic17PseudoLinearCubicEE4copyILNS_5RunOnE0EEERS5_RKS5_RKNS_3BoxEiSD_iiENKUliiiiE_clEiiii
FNDA:0,_ZZN5amrex7BaseFabIN5Model5Solid7Elastic17PseudoLinearCubicEE4copyILNS_5RunOnE0EEERS5_RKS5_RKNS_3BoxEiSD_iiENKUliiiiE_clEiiii
FN:1867,_ZZN5amrex7BaseFabIN3Set7Matrix4ILi2ELi4EEEE4copyILNS_5RunOnE0EEERS4_RKS4_RKNS_3BoxEiSC_iiENKUliiiiE_clEiiii
FNDA:0,_ZZN5amrex7BaseFabIN3Set7Matrix4ILi2ELi4EEEE4copyILNS_5RunOnE0EEERS4_RKS4_RKNS_3BoxEiSC_iiENKUliiiiE_clEiiii
FN:1867,_ZZN5amrex7BaseFabIN3Set7Matrix4ILi2ELi6EEEE4copyILNS_5RunOnE0EEERS4_RKS4_RKNS_3BoxEiSC_iiENKUliiiiE_clEiiii
FNDA:0,_ZZN5amrex7BaseFabIN3Set7Matrix4ILi2ELi6EEEE4copyILNS_5RunOnE0EEERS4_RKS4_RKNS_3BoxEiSC_iiENKUliiiiE_clEiiii
FN:1867,_ZZN5amrex7BaseFabIN5Model5Solid6Linear5CubicEE4copyILNS_5RunOnE0EEERS5_RKS5_RKNS_3BoxEiSD_iiENKUliiiiE_clEiiii
FNDA:0,_ZZN5amrex7BaseFabIN5Model5Solid6Linear5CubicEE4copyILNS_5RunOnE0EEERS5_RKS5_RKNS_3BoxEiSD_iiENKUliiiiE_clEiiii
FN:1867,_ZZN5amrex7BaseFabIN5Model5Solid6Linear19IsotropicDegradableEE4copyILNS_5RunOnE1EEERS5_RKS5_RKNS_3BoxEiSD_iiENKUliiiiE_clEiiii
FNDA:0,_ZZN5amrex7BaseFabIN5Model5Solid6Linear19IsotropicDegradableEE4copyILNS_5RunOnE1EEERS5_RKS5_RKNS_3BoxEiSD_iiENKUliiiiE_clEiiii
FN:1867,_ZZN5amrex7BaseFabIN5Model5Solid6Linear9IsotropicEE4copyILNS_5RunOnE1EEERS5_RKS5_RKNS_3BoxEiSD_iiENKUliiiiE_clEiiii
FNDA:10683,_ZZN5amrex7BaseFabIN5Model5Solid6Linear9IsotropicEE4copyILNS_5RunOnE1EEERS5_RKS5_RKNS_3BoxEiSD_iiENKUliiiiE_clEiiii
FN:1867,_ZZN5amrex7BaseFabIN5Model5Solid6Affine2J2EE4copyILNS_5RunOnE1EEERS5_RKS5_RKNS_3BoxEiSD_iiENKUliiiiE_clEiiii
FNDA:918,_ZZN5amrex7BaseFabIN5Model5Solid6Affine2J2EE4copyILNS_5RunOnE1EEERS5_RKS5_RKNS_3BoxEiSD_iiENKUliiiiE_clEiiii
FN:1867,_ZZN5amrex7BaseFabIN5Model5Solid7Elastic28PseudoLinearCubicPredeformedEE4copyILNS_5RunOnE0EEERS5_RKS5_RKNS_3BoxEiSD_iiENKUliiiiE_clEiiii
FNDA:0,_ZZN5amrex7BaseFabIN5Model5Solid7Elastic28PseudoLinearCubicPredeformedEE4copyILNS_5RunOnE0EEERS5_RKS5_RKNS_3BoxEiSD_iiENKUliiiiE_clEiiii
FN:1867,_ZZN5amrex7BaseFabIN5Model5Solid6Linear9IsotropicEE4copyILNS_5RunOnE0EEERS5_RKS5_RKNS_3BoxEiSD_iiENKUliiiiE_clEiiii
FNDA:0,_ZZN5amrex7BaseFabIN5Model5Solid6Linear9IsotropicEE4copyILNS_5RunOnE0EEERS5_RKS5_RKNS_3BoxEiSD_iiENKUliiiiE_clEiiii
FN:1867,_ZZN5amrex7BaseFabIN5Model5Solid6Linear5CubicEE4copyILNS_5RunOnE1EEERS5_RKS5_RKNS_3BoxEiSD_iiENKUliiiiE_clEiiii
FNDA:0,_ZZN5amrex7BaseFabIN5Model5Solid6Linear5CubicEE4copyILNS_5RunOnE1EEERS5_RKS5_RKNS_3BoxEiSD_iiENKUliiiiE_clEiiii
FN:1867,_ZZN5amrex7BaseFabIN3Set7Matrix4ILi2ELi1EEEE4copyILNS_5RunOnE0EEERS4_RKS4_RKNS_3BoxEiSC_iiENKUliiiiE_clEiiii
FNDA:0,_ZZN5amrex7BaseFabIN3Set7Matrix4ILi2ELi1EEEE4copyILNS_5RunOnE0EEERS4_RKS4_RKNS_3BoxEiSC_iiENKUliiiiE_clEiiii
FN:1867,_ZZN5amrex7BaseFabIN5Model5Solid7Elastic17PseudoLinearCubicEE4copyILNS_5RunOnE1EEERS5_RKS5_RKNS_3BoxEiSD_iiENKUliiiiE_clEiiii
FNDA:0,_ZZN5amrex7BaseFabIN5Model5Solid7Elastic17PseudoLinearCubicEE4copyILNS_5RunOnE1EEERS5_RKS5_RKNS_3BoxEiSD_iiENKUliiiiE_clEiiii
FN:1867,_ZZN5amrex7BaseFabIN3Set7Matrix4ILi2ELi3EEEE4copyILNS_5RunOnE0EEERS4_RKS4_RKNS_3BoxEiSC_iiENKUliiiiE_clEiiii
FNDA:0,_ZZN5amrex7BaseFabIN3Set7Matrix4ILi2ELi3EEEE4copyILNS_5RunOnE0EEERS4_RKS4_RKNS_3BoxEiSC_iiENKUliiiiE_clEiiii
FN:1867,_ZZN5amrex7BaseFabIN5Model5Solid6Affine9IsotropicEE4copyILNS_5RunOnE0EEERS5_RKS5_RKNS_3BoxEiSD_iiENKUliiiiE_clEiiii
FNDA:0,_ZZN5amrex7BaseFabIN5Model5Solid6Affine9IsotropicEE4copyILNS_5RunOnE0EEERS5_RKS5_RKNS_3BoxEiSD_iiENKUliiiiE_clEiiii
FN:1867,_ZZN5amrex7BaseFabIN5Model5Solid7Elastic28PseudoLinearCubicPredeformedEE4copyILNS_5RunOnE1EEERS5_RKS5_RKNS_3BoxEiSD_iiENKUliiiiE_clEiiii
FNDA:0,_ZZN5amrex7BaseFabIN5Model5Solid7Elastic28PseudoLinearCubicPredeformedEE4copyILNS_5RunOnE1EEERS5_RKS5_RKNS_3BoxEiSD_iiENKUliiiiE_clEiiii
FN:1867,_ZZN5amrex7BaseFabIN5Model5Solid6Affine9HexagonalEE4copyILNS_5RunOnE1EEERS5_RKS5_RKNS_3BoxEiSD_iiENKUliiiiE_clEiiii
FNDA:0,_ZZN5amrex7BaseFabIN5Model5Solid6Affine9HexagonalEE4copyILNS_5RunOnE1EEERS5_RKS5_RKNS_3BoxEiSD_iiENKUliiiiE_clEiiii
FN:1867,_ZZN5amrex7BaseFabIN5Eigen6MatrixIdLi2ELi2ELi0ELi2ELi2EEEE4copyILNS_5RunOnE1EEERS4_RKS4_RKNS_3BoxEiSC_iiENKUliiiiE_clEiiii
FNDA:0,_ZZN5amrex7BaseFabIN5Eigen6MatrixIdLi2ELi2ELi0ELi2ELi2EEEE4copyILNS_5RunOnE1EEERS4_RKS4_RKNS_3BoxEiSC_iiENKUliiiiE_clEiiii
FN:1867,_ZZN5amrex7BaseFabIN5Model5Solid6Linear9LaplacianEE4copyILNS_5RunOnE1EEERS5_RKS5_RKNS_3BoxEiSD_iiENKUliiiiE_clEiiii
FNDA:0,_ZZN5amrex7BaseFabIN5Model5Solid6Linear9LaplacianEE4copyILNS_5RunOnE1EEERS5_RKS5_RKNS_3BoxEiSD_iiENKUliiiiE_clEiiii
FN:1867,_ZZN5amrex7BaseFabIN5Eigen6MatrixIdLi2ELi1ELi0ELi2ELi1EEEE4copyILNS_5RunOnE0EEERS4_RKS4_RKNS_3BoxEiSC_iiENKUliiiiE_clEiiii
FNDA:0,_ZZN5amrex7BaseFabIN5Eigen6MatrixIdLi2ELi1ELi0ELi2ELi1EEEE4copyILNS_5RunOnE0EEERS4_RKS4_RKNS_3BoxEiSC_iiENKUliiiiE_clEiiii
FN:1867,_ZZN5amrex7BaseFabIN3Set7Matrix4ILi2ELi6EEEE4copyILNS_5RunOnE1EEERS4_RKS4_RKNS_3BoxEiSC_iiENKUliiiiE_clEiiii
FNDA:0,_ZZN5amrex7BaseFabIN3Set7Matrix4ILi2ELi6EEEE4copyILNS_5RunOnE1EEERS4_RKS4_RKNS_3BoxEiSC_iiENKUliiiiE_clEiiii
FN:1867,_ZZN5amrex7BaseFabIN5Model5Solid7Elastic10NeoHookeanEE4copyILNS_5RunOnE1EEERS5_RKS5_RKNS_3BoxEiSD_iiENKUliiiiE_clEiiii
FNDA:4536,_ZZN5amrex7BaseFabIN5Model5Solid7Elastic10NeoHookeanEE4copyILNS_5RunOnE1EEERS5_RKS5_RKNS_3BoxEiSD_iiENKUliiiiE_clEiiii
FN:1867,_ZZN5amrex7BaseFabIN5Model5Solid6Linear19IsotropicDegradableEE4copyILNS_5RunOnE0EEERS5_RKS5_RKNS_3BoxEiSD_iiENKUliiiiE_clEiiii
FNDA:0,_ZZN5amrex7BaseFabIN5Model5Solid6Linear19IsotropicDegradableEE4copyILNS_5RunOnE0EEERS5_RKS5_RKNS_3BoxEiSD_iiENKUliiiiE_clEiiii
FN:1867,_ZZN5amrex7BaseFabIN5Model5Solid6Affine2J2EE4copyILNS_5RunOnE0EEERS5_RKS5_RKNS_3BoxEiSD_iiENKUliiiiE_clEiiii
FNDA:0,_ZZN5amrex7BaseFabIN5Model5Solid6Affine2J2EE4copyILNS_5RunOnE0EEERS5_RKS5_RKNS_3BoxEiSD_iiENKUliiiiE_clEiiii
FN:1867,_ZZN5amrex7BaseFabIN5Model5Solid7Elastic10NeoHookeanEE4copyILNS_5RunOnE0EEERS5_RKS5_RKNS_3BoxEiSD_iiENKUliiiiE_clEiiii
FNDA:0,_ZZN5amrex7BaseFabIN5Model5Solid7Elastic10NeoHookeanEE4copyILNS_5RunOnE0EEERS5_RKS5_RKNS_3BoxEiSD_iiENKUliiiiE_clEiiii
FN:1867,_ZZN5amrex7BaseFabIN5Model5Solid6Linear9LaplacianEE4copyILNS_5RunOnE0EEERS5_RKS5_RKNS_3BoxEiSD_iiENKUliiiiE_clEiiii
FNDA:0,_ZZN5amrex7BaseFabIN5Model5Solid6Linear9LaplacianEE4copyILNS_5RunOnE0EEERS5_RKS5_RKNS_3BoxEiSD_iiENKUliiiiE_clEiiii
FN:1867,_ZZN5amrex7BaseFabIN5Eigen6MatrixIdLi2ELi2ELi0ELi2ELi2EEEE4copyILNS_5RunOnE0EEERS4_RKS4_RKNS_3BoxEiSC_iiENKUliiiiE_clEiiii
FNDA:0,_ZZN5amrex7BaseFabIN5Eigen6MatrixIdLi2ELi2ELi0ELi2ELi2EEEE4copyILNS_5RunOnE0EEERS4_RKS4_RKNS_3BoxEiSC_iiENKUliiiiE_clEiiii
FN:1867,_ZZN5amrex7BaseFabIN3Set7Matrix4ILi2ELi3EEEE4copyILNS_5RunOnE1EEERS4_RKS4_RKNS_3BoxEiSC_iiENKUliiiiE_clEiiii
FNDA:0,_ZZN5amrex7BaseFabIN3Set7Matrix4ILi2ELi3EEEE4copyILNS_5RunOnE1EEERS4_RKS4_RKNS_3BoxEiSC_iiENKUliiiiE_clEiiii
FN:1867,_ZZN5amrex7BaseFabIN3Set7Matrix4ILi2ELi4EEEE4copyILNS_5RunOnE1EEERS4_RKS4_RKNS_3BoxEiSC_iiENKUliiiiE_clEiiii
FNDA:0,_ZZN5amrex7BaseFabIN3Set7Matrix4ILi2ELi4EEEE4copyILNS_5RunOnE1EEERS4_RKS4_RKNS_3BoxEiSC_iiENKUliiiiE_clEiiii
FN:1867,_ZZN5amrex7BaseFabIN5Model5Solid6Affine9HexagonalEE4copyILNS_5RunOnE0EEERS5_RKS5_RKNS_3BoxEiSD_iiENKUliiiiE_clEiiii
FNDA:0,_ZZN5amrex7BaseFabIN5Model5Solid6Affine9HexagonalEE4copyILNS_5RunOnE0EEERS5_RKS5_RKNS_3BoxEiSD_iiENKUliiiiE_clEiiii
FN:1867,_ZZN5amrex7BaseFabIN3Set7Matrix4ILi2ELi1EEEE4copyILNS_5RunOnE1EEERS4_RKS4_RKNS_3BoxEiSC_iiENKUliiiiE_clEiiii
FNDA:0,_ZZN5amrex7BaseFabIN3Set7Matrix4ILi2ELi1EEEE4copyILNS_5RunOnE1EEERS4_RKS4_RKNS_3BoxEiSC_iiENKUliiiiE_clEiiii
FN:1867,_ZZN5amrex7BaseFabIdE4copyILNS_5RunOnE1EEERS1_RKS1_RKNS_3BoxEiS9_iiENKUliiiiE_clEiiii
FNDA:0,_ZZN5amrex7BaseFabIdE4copyILNS_5RunOnE1EEERS1_RKS1_RKNS_3BoxEiS9_iiENKUliiiiE_clEiiii
FN:1867,_ZZN5amrex7BaseFabIN5Eigen6MatrixIdLi2ELi1ELi0ELi2ELi1EEEE4copyILNS_5RunOnE1EEERS4_RKS4_RKNS_3BoxEiSC_iiENKUliiiiE_clEiiii
FNDA:0,_ZZN5amrex7BaseFabIN5Eigen6MatrixIdLi2ELi1ELi0ELi2ELi1EEEE4copyILNS_5RunOnE1EEERS4_RKS4_RKNS_3BoxEiSC_iiENKUliiiiE_clEiiii
FN:1867,_ZZN5amrex7BaseFabIN5Model5Solid6Affine5CubicEE4copyILNS_5RunOnE0EEERS5_RKS5_RKNS_3BoxEiSD_iiENKUliiiiE_clEiiii
FNDA:0,_ZZN5amrex7BaseFabIN5Model5Solid6Affine5CubicEE4copyILNS_5RunOnE0EEERS5_RKS5_RKNS_3BoxEiSD_iiENKUliiiiE_clEiiii
FN:1893,_ZN5amrex7BaseFabIN5Eigen6MatrixIdLi2ELi1ELi0ELi2ELi1EEEE6defineEv
FNDA:0,_ZN5amrex7BaseFabIN5Eigen6MatrixIdLi2ELi1ELi0ELi2ELi1EEEE6defineEv
FN:1893,_ZN5amrex7BaseFabIN5Model5Solid6Linear9LaplacianEE6defineEv
FNDA:1,_ZN5amrex7BaseFabIN5Model5Solid6Linear9LaplacianEE6defineEv
FN:1893,_ZN5amrex7BaseFabIN5Model5Solid6Affine9HexagonalEE6defineEv
FNDA:0,_ZN5amrex7BaseFabIN5Model5Solid6Affine9HexagonalEE6defineEv
FN:1893,_ZN5amrex7BaseFabIN5Model5Solid6Affine5CubicEE6defineEv
FNDA:0,_ZN5amrex7BaseFabIN5Model5Solid6Affine5CubicEE6defineEv
FN:1893,_ZN5amrex7BaseFabIN5Model5Solid7Elastic10NeoHookeanEE6defineEv
FNDA:63,_ZN5amrex7BaseFabIN5Model5Solid7Elastic10NeoHookeanEE6defineEv
FN:1893,_ZN5amrex7BaseFabIN5Model5Solid7Elastic17PseudoLinearCubicEE6defineEv
FNDA:0,_ZN5amrex7BaseFabIN5Model5Solid7Elastic17PseudoLinearCubicEE6defineEv
FN:1893,_ZN5amrex7BaseFabIN5Model5Solid6Linear5CubicEE6defineEv
FNDA:0,_ZN5amrex7BaseFabIN5Model5Solid6Linear5CubicEE6defineEv
FN:1893,_ZN5amrex7BaseFabIN5Model5Solid6Linear9IsotropicEE6defineEv
FNDA:132,_ZN5amrex7BaseFabIN5Model5Solid6Linear9IsotropicEE6defineEv
FN:1893,_ZN5amrex7BaseFabIN5Model5Solid7Elastic28PseudoLinearCubicPredeformedEE6defineEv
FNDA:0,_ZN5amrex7BaseFabIN5Model5Solid7Elastic28PseudoLinearCubicPredeformedEE6defineEv
FN:1893,_ZN5amrex7BaseFabIN5Model5Solid6Affine9IsotropicEE6defineEv
FNDA:0,_ZN5amrex7BaseFabIN5Model5Solid6Affine9IsotropicEE6defineEv
FN:1893,_ZN5amrex7BaseFabIN3Set7Matrix4ILi2ELi3EEEE6defineEv
FNDA:0,_ZN5amrex7BaseFabIN3Set7Matrix4ILi2ELi3EEEE6defineEv
FN:1893,_ZN5amrex7BaseFabIN5Model5Solid6Linear19IsotropicDegradableEE6defineEv
FNDA:0,_ZN5amrex7BaseFabIN5Model5Solid6Linear19IsotropicDegradableEE6defineEv
FN:1893,_ZN5amrex7BaseFabIN3Set7Matrix4ILi2ELi1EEEE6defineEv
FNDA:0,_ZN5amrex7BaseFabIN3Set7Matrix4ILi2ELi1EEEE6defineEv
FN:1893,_ZN5amrex7BaseFabIN5Model5Solid6Affine2J2EE6defineEv
FNDA:49,_ZN5amrex7BaseFabIN5Model5Solid6Affine2J2EE6defineEv
FN:1893,_ZN5amrex7BaseFabIN3Set7Matrix4ILi2ELi4EEEE6defineEv
FNDA:0,_ZN5amrex7BaseFabIN3Set7Matrix4ILi2ELi4EEEE6defineEv
FN:1893,_ZN5amrex7BaseFabIN5Eigen6MatrixIdLi2ELi2ELi0ELi2ELi2EEEE6defineEv
FNDA:0,_ZN5amrex7BaseFabIN5Eigen6MatrixIdLi2ELi2ELi0ELi2ELi2EEEE6defineEv
FN:1893,_ZN5amrex7BaseFabIN3Set7Matrix4ILi2ELi6EEEE6defineEv
FNDA:0,_ZN5amrex7BaseFabIN3Set7Matrix4ILi2ELi6EEEE6defineEv
FN:1923,_ZN5amrex7BaseFabIN5Model5Solid7Elastic28PseudoLinearCubicPredeformedEEC2ERKNS_3BoxEibbPNS_5ArenaE
FNDA:0,_ZN5amrex7BaseFabIN5Model5Solid7Elastic28PseudoLinearCubicPredeformedEEC2ERKNS_3BoxEibbPNS_5ArenaE
FN:1923,_ZN5amrex7BaseFabIN5Model5Solid6Linear19IsotropicDegradableEEC2ERKNS_3BoxEibbPNS_5ArenaE
FNDA:0,_ZN5amrex7BaseFabIN5Model5Solid6Linear19IsotropicDegradableEEC2ERKNS_3BoxEibbPNS_5ArenaE
FN:1923,_ZN5amrex7BaseFabIN5Model5Solid7Elastic17PseudoLinearCubicEEC2ERKNS_3BoxEibbPNS_5ArenaE
FNDA:0,_ZN5amrex7BaseFabIN5Model5Solid7Elastic17PseudoLinearCubicEEC2ERKNS_3BoxEibbPNS_5ArenaE
FN:1923,_ZN5amrex7BaseFabIN3Set7Matrix4ILi2ELi4EEEEC2ERKNS_3BoxEibbPNS_5ArenaE
FNDA:0,_ZN5amrex7BaseFabIN3Set7Matrix4ILi2ELi4EEEEC2ERKNS_3BoxEibbPNS_5ArenaE
FN:1923,_ZN5amrex7BaseFabIN3Set7Matrix4ILi2ELi1EEEEC2ERKNS_3BoxEibbPNS_5ArenaE
FNDA:0,_ZN5amrex7BaseFabIN3Set7Matrix4ILi2ELi1EEEEC2ERKNS_3BoxEibbPNS_5ArenaE
FN:1923,_ZN5amrex7BaseFabIN5Model5Solid6Affine2J2EEC2ERKNS_3BoxEibbPNS_5ArenaE
FNDA:49,_ZN5amrex7BaseFabIN5Model5Solid6Affine2J2EEC2ERKNS_3BoxEibbPNS_5ArenaE
FN:1923,_ZN5amrex7BaseFabIN5Model5Solid7Elastic10NeoHookeanEEC2ERKNS_3BoxEibbPNS_5ArenaE
FNDA:63,_ZN5amrex7BaseFabIN5Model5Solid7Elastic10NeoHookeanEEC2ERKNS_3BoxEibbPNS_5ArenaE
FN:1923,_ZN5amrex7BaseFabIN5Eigen6MatrixIdLi2ELi1ELi0ELi2ELi1EEEEC2ERKNS_3BoxEibbPNS_5ArenaE
FNDA:0,_ZN5amrex7BaseFabIN5Eigen6MatrixIdLi2ELi1ELi0ELi2ELi1EEEEC2ERKNS_3BoxEibbPNS_5ArenaE
FN:1923,_ZN5amrex7BaseFabIN5Model5Solid6Linear9LaplacianEEC2ERKNS_3BoxEibbPNS_5ArenaE
FNDA:1,_ZN5amrex7BaseFabIN5Model5Solid6Linear9LaplacianEEC2ERKNS_3BoxEibbPNS_5ArenaE
FN:1923,_ZN5amrex7BaseFabIN5Model5Solid6Affine9IsotropicEEC2ERKNS_3BoxEibbPNS_5ArenaE
FNDA:0,_ZN5amrex7BaseFabIN5Model5Solid6Affine9IsotropicEEC2ERKNS_3BoxEibbPNS_5ArenaE
FN:1923,_ZN5amrex7BaseFabIN5Model5Solid6Linear9IsotropicEEC2ERKNS_3BoxEibbPNS_5ArenaE
FNDA:132,_ZN5amrex7BaseFabIN5Model5Solid6Linear9IsotropicEEC2ERKNS_3BoxEibbPNS_5ArenaE
FN:1923,_ZN5amrex7BaseFabIN5Model5Solid6Affine9HexagonalEEC2ERKNS_3BoxEibbPNS_5ArenaE
FNDA:0,_ZN5amrex7BaseFabIN5Model5Solid6Affine9HexagonalEEC2ERKNS_3BoxEibbPNS_5ArenaE
FN:1923,_ZN5amrex7BaseFabIN5Eigen6MatrixIdLi2ELi2ELi0ELi2ELi2EEEEC2ERKNS_3BoxEibbPNS_5ArenaE
FNDA:0,_ZN5amrex7BaseFabIN5Eigen6MatrixIdLi2ELi2ELi0ELi2ELi2EEEEC2ERKNS_3BoxEibbPNS_5ArenaE
FN:1923,_ZN5amrex7BaseFabIN5Model5Solid6Linear5CubicEEC2ERKNS_3BoxEibbPNS_5ArenaE
FNDA:0,_ZN5amrex7BaseFabIN5Model5Solid6Linear5CubicEEC2ERKNS_3BoxEibbPNS_5ArenaE
FN:1923,_ZN5amrex7BaseFabIN3Set7Matrix4ILi2ELi6EEEEC2ERKNS_3BoxEibbPNS_5ArenaE
FNDA:0,_ZN5amrex7BaseFabIN3Set7Matrix4ILi2ELi6EEEEC2ERKNS_3BoxEibbPNS_5ArenaE
FN:1923,_ZN5amrex7BaseFabIN3Set7Matrix4ILi2ELi3EEEEC2ERKNS_3BoxEibbPNS_5ArenaE
FNDA:0,_ZN5amrex7BaseFabIN3Set7Matrix4ILi2ELi3EEEEC2ERKNS_3BoxEibbPNS_5ArenaE
FN:1923,_ZN5amrex7BaseFabIN5Model5Solid6Affine5CubicEEC2ERKNS_3BoxEibbPNS_5ArenaE
FNDA:0,_ZN5amrex7BaseFabIN5Model5Solid6Affine5CubicEEC2ERKNS_3BoxEibbPNS_5ArenaE
FN:1930,_ZN5amrex7BaseFabIN5Model5Solid6Affine2J2EEC2ERKS5_NS_8MakeTypeEii
FNDA:0,_ZN5amrex7BaseFabIN5Model5Solid6Affine2J2EEC2ERKS5_NS_8MakeTypeEii
FN:1930,_ZN5amrex7BaseFabIN3Set7Matrix4ILi2ELi1EEEEC2ERKS4_NS_8MakeTypeEii
FNDA:0,_ZN5amrex7BaseFabIN3Set7Matrix4ILi2ELi1EEEEC2ERKS4_NS_8MakeTypeEii
FN:1930,_ZN5amrex7BaseFabIN5Eigen6MatrixIdLi2ELi2ELi0ELi2ELi2EEEEC2ERKS4_NS_8MakeTypeEii
FNDA:0,_ZN5amrex7BaseFabIN5Eigen6MatrixIdLi2ELi2ELi0ELi2ELi2EEEEC2ERKS4_NS_8MakeTypeEii
FN:1930,_ZN5amrex7BaseFabIN3Set7Matrix4ILi2ELi6EEEEC2ERKS4_NS_8MakeTypeEii
FNDA:0,_ZN5amrex7BaseFabIN3Set7Matrix4ILi2ELi6EEEEC2ERKS4_NS_8MakeTypeEii
FN:1930,_ZN5amrex7BaseFabIN3Set7Matrix4ILi2ELi4EEEEC2ERKS4_NS_8MakeTypeEii
FNDA:0,_ZN5amrex7BaseFabIN3Set7Matrix4ILi2ELi4EEEEC2ERKS4_NS_8MakeTypeEii
FN:1930,_ZN5amrex7BaseFabIN5Model5Solid6Linear5CubicEEC2ERKS5_NS_8MakeTypeEii
FNDA:0,_ZN5amrex7BaseFabIN5Model5Solid6Linear5CubicEEC2ERKS5_NS_8MakeTypeEii
FN:1930,_ZN5amrex7BaseFabIN5Model5Solid7Elastic28PseudoLinearCubicPredeformedEEC2ERKS5_NS_8MakeTypeEii
FNDA:0,_ZN5amrex7BaseFabIN5Model5Solid7Elastic28PseudoLinearCubicPredeformedEEC2ERKS5_NS_8MakeTypeEii
FN:1930,_ZN5amrex7BaseFabIN5Model5Solid6Linear19IsotropicDegradableEEC2ERKS5_NS_8MakeTypeEii
FNDA:0,_ZN5amrex7BaseFabIN5Model5Solid6Linear19IsotropicDegradableEEC2ERKS5_NS_8MakeTypeEii
FN:1930,_ZN5amrex7BaseFabIN5Model5Solid6Linear9IsotropicEEC2ERKS5_NS_8MakeTypeEii
FNDA:0,_ZN5amrex7BaseFabIN5Model5Solid6Linear9IsotropicEEC2ERKS5_NS_8MakeTypeEii
FN:1930,_ZN5amrex7BaseFabIN5Model5Solid7Elastic10NeoHookeanEEC2ERKS5_NS_8MakeTypeEii
FNDA:0,_ZN5amrex7BaseFabIN5Model5Solid7Elastic10NeoHookeanEEC2ERKS5_NS_8MakeTypeEii
FN:1930,_ZN5amrex7BaseFabIN5Model5Solid6Linear9LaplacianEEC2ERKS5_NS_8MakeTypeEii
FNDA:0,_ZN5amrex7BaseFabIN5Model5Solid6Linear9LaplacianEEC2ERKS5_NS_8MakeTypeEii
FN:1930,_ZN5amrex7BaseFabIN5Eigen6MatrixIdLi2ELi1ELi0ELi2ELi1EEEEC2ERKS4_NS_8MakeTypeEii
FNDA:0,_ZN5amrex7BaseFabIN5Eigen6MatrixIdLi2ELi1ELi0ELi2ELi1EEEEC2ERKS4_NS_8MakeTypeEii
FN:1930,_ZN5amrex7BaseFabIN3Set7Matrix4ILi2ELi3EEEEC2ERKS4_NS_8MakeTypeEii
FNDA:0,_ZN5amrex7BaseFabIN3Set7Matrix4ILi2ELi3EEEEC2ERKS4_NS_8MakeTypeEii
FN:1930,_ZN5amrex7BaseFabIN5Model5Solid6Affine5CubicEEC2ERKS5_NS_8MakeTypeEii
FNDA:0,_ZN5amrex7BaseFabIN5Model5Solid6Affine5CubicEEC2ERKS5_NS_8MakeTypeEii
FN:1930,_ZN5amrex7BaseFabIN5Model5Solid7Elastic17PseudoLinearCubicEEC2ERKS5_NS_8MakeTypeEii
FNDA:0,_ZN5amrex7BaseFabIN5Model5Solid7Elastic17PseudoLinearCubicEEC2ERKS5_NS_8MakeTypeEii
FN:1930,_ZN5amrex7BaseFabIN5Model5Solid6Affine9IsotropicEEC2ERKS5_NS_8MakeTypeEii
FNDA:0,_ZN5amrex7BaseFabIN5Model5Solid6Affine9IsotropicEEC2ERKS5_NS_8MakeTypeEii
FN:1930,_ZN5amrex7BaseFabIN5Model5Solid6Affine9HexagonalEEC2ERKS5_NS_8MakeTypeEii
FNDA:0,_ZN5amrex7BaseFabIN5Model5Solid6Affine9HexagonalEEC2ERKS5_NS_8MakeTypeEii
FN:1994,_ZN5amrex7BaseFabIN3Set7Matrix4ILi2ELi3EEEED2Ev
FNDA:0,_ZN5amrex7BaseFabIN3Set7Matrix4ILi2ELi3EEEED2Ev
FN:1994,_ZN5amrex7BaseFabIN5Eigen6MatrixIdLi2ELi2ELi0ELi2ELi2EEEED0Ev
FNDA:0,_ZN5amrex7BaseFabIN5Eigen6MatrixIdLi2ELi2ELi0ELi2ELi2EEEED0Ev
FN:1994,_ZN5amrex7BaseFabIN5Eigen6MatrixIdLi2ELi2ELi0ELi2ELi2EEEED2Ev
FNDA:0,_ZN5amrex7BaseFabIN5Eigen6MatrixIdLi2ELi2ELi0ELi2ELi2EEEED2Ev
FN:1994,_ZN5amrex7BaseFabIN3Set7Matrix4ILi2ELi1EEEED0Ev
FNDA:0,_ZN5amrex7BaseFabIN3Set7Matrix4ILi2ELi1EEEED0Ev
FN:1994,_ZN5amrex7BaseFabIN5Model5Solid7Elastic10NeoHookeanEED2Ev
FNDA:63,_ZN5amrex7BaseFabIN5Model5Solid7Elastic10NeoHookeanEED2Ev
FN:1994,_ZN5amrex7BaseFabIN3Set7Matrix4ILi2ELi4EEEED0Ev
FNDA:0,_ZN5amrex7BaseFabIN3Set7Matrix4ILi2ELi4EEEED0Ev
FN:1994,_ZN5amrex7BaseFabIN3Set7Matrix4ILi2ELi6EEEED0Ev
FNDA:0,_ZN5amrex7BaseFabIN3Set7Matrix4ILi2ELi6EEEED0Ev
FN:1994,_ZN5amrex7BaseFabIN3Set7Matrix4ILi2ELi6EEEED2Ev
FNDA:0,_ZN5amrex7BaseFabIN3Set7Matrix4ILi2ELi6EEEED2Ev
FN:1994,_ZN5amrex7BaseFabIN3Set7Matrix4ILi2ELi4EEEED2Ev
FNDA:0,_ZN5amrex7BaseFabIN3Set7Matrix4ILi2ELi4EEEED2Ev
FN:1994,_ZN5amrex7BaseFabIN3Set7Matrix4ILi2ELi3EEEED0Ev
FNDA:0,_ZN5amrex7BaseFabIN3Set7Matrix4ILi2ELi3EEEED0Ev
FN:1994,_ZN5amrex7BaseFabIN3Set7Matrix4ILi2ELi1EEEED2Ev
FNDA:0,_ZN5amrex7BaseFabIN3Set7Matrix4ILi2ELi1EEEED2Ev
FN:1994,_ZN5amrex7BaseFabIN5Model5Solid6Affine2J2EED2Ev
FNDA:49,_ZN5amrex7BaseFabIN5Model5Solid6Affine2J2EED2Ev
FN:1994,_ZN5amrex7BaseFabIN5Model5Solid6Linear19IsotropicDegradableEED0Ev
FNDA:0,_ZN5amrex7BaseFabIN5Model5Solid6Linear19IsotropicDegradableEED0Ev
FN:1994,_ZN5amrex7BaseFabIN5Model5Solid6Linear19IsotropicDegradableEED2Ev
FNDA:0,_ZN5amrex7BaseFabIN5Model5Solid6Linear19IsotropicDegradableEED2Ev
FN:1994,_ZN5amrex7BaseFabIN5Eigen6MatrixIdLi2ELi1ELi0ELi2ELi1EEEED0Ev
FNDA:0,_ZN5amrex7BaseFabIN5Eigen6MatrixIdLi2ELi1ELi0ELi2ELi1EEEED0Ev
FN:1994,_ZN5amrex7BaseFabIN5Eigen6MatrixIdLi2ELi1ELi0ELi2ELi1EEEED2Ev
FNDA:0,_ZN5amrex7BaseFabIN5Eigen6MatrixIdLi2ELi1ELi0ELi2ELi1EEEED2Ev
FN:1994,_ZN5amrex7BaseFabIN5Model5Solid6Affine9IsotropicEED0Ev
FNDA:0,_ZN5amrex7BaseFabIN5Model5Solid6Affine9IsotropicEED0Ev
FN:1994,_ZN5amrex7BaseFabIN5Model5Solid6Affine9IsotropicEED2Ev
FNDA:0,_ZN5amrex7BaseFabIN5Model5Solid6Affine9IsotropicEED2Ev
FN:1994,_ZN5amrex7BaseFabIN5Model5Solid6Linear9IsotropicEED0Ev
FNDA:106,_ZN5amrex7BaseFabIN5Model5Solid6Linear9IsotropicEED0Ev
FN:1994,_ZN5amrex7BaseFabIN5Model5Solid6Linear9IsotropicEED2Ev
FNDA:132,_ZN5amrex7BaseFabIN5Model5Solid6Linear9IsotropicEED2Ev
FN:1994,_ZN5amrex7BaseFabIN5Model5Solid6Linear5CubicEED0Ev
FNDA:0,_ZN5amrex7BaseFabIN5Model5Solid6Linear5CubicEED0Ev
FN:1994,_ZN5amrex7BaseFabIN5Model5Solid6Linear5CubicEED2Ev
FNDA:0,_ZN5amrex7BaseFabIN5Model5Solid6Linear5CubicEED2Ev
FN:1994,_ZN5amrex7BaseFabIN5Model5Solid6Affine5CubicEED0Ev
FNDA:0,_ZN5amrex7BaseFabIN5Model5Solid6Affine5CubicEED0Ev
FN:1994,_ZN5amrex7BaseFabIN5Model5Solid6Affine5CubicEED2Ev
FNDA:0,_ZN5amrex7BaseFabIN5Model5Solid6Affine5CubicEED2Ev
FN:1994,_ZN5amrex7BaseFabIN5Model5Solid6Affine9HexagonalEED0Ev
FNDA:0,_ZN5amrex7BaseFabIN5Model5Solid6Affine9HexagonalEED0Ev
FN:1994,_ZN5amrex7BaseFabIN5Model5Solid6Affine9HexagonalEED2Ev
FNDA:0,_ZN5amrex7BaseFabIN5Model5Solid6Affine9HexagonalEED2Ev
FN:1994,_ZN5amrex7BaseFabIN5Model5Solid6Linear9LaplacianEED0Ev
FNDA:1,_ZN5amrex7BaseFabIN5Model5Solid6Linear9LaplacianEED0Ev
FN:1994,_ZN5amrex7BaseFabIN5Model5Solid6Affine2J2EED0Ev
FNDA:33,_ZN5amrex7BaseFabIN5Model5Solid6Affine2J2EED0Ev
FN:1994,_ZN5amrex7BaseFabIN5Model5Solid6Linear9LaplacianEED2Ev
FNDA:1,_ZN5amrex7BaseFabIN5Model5Solid6Linear9LaplacianEED2Ev
FN:1994,_ZN5amrex7BaseFabIN5Model5Solid7Elastic10NeoHookeanEED0Ev
FNDA:48,_ZN5amrex7BaseFabIN5Model5Solid7Elastic10NeoHookeanEED0Ev
FN:1994,_ZN5amrex7BaseFabIN5Model5Solid7Elastic28PseudoLinearCubicPredeformedEED2Ev
FNDA:0,_ZN5amrex7BaseFabIN5Model5Solid7Elastic28PseudoLinearCubicPredeformedEED2Ev
FN:1994,_ZN5amrex7BaseFabIN5Model5Solid7Elastic28PseudoLinearCubicPredeformedEED0Ev
FNDA:0,_ZN5amrex7BaseFabIN5Model5Solid7Elastic28PseudoLinearCubicPredeformedEED0Ev
FN:1994,_ZN5amrex7BaseFabIN5Model5Solid7Elastic17PseudoLinearCubicEED2Ev
FNDA:0,_ZN5amrex7BaseFabIN5Model5Solid7Elastic17PseudoLinearCubicEED2Ev
FN:1994,_ZN5amrex7BaseFabIN5Model5Solid7Elastic17PseudoLinearCubicEED0Ev
FNDA:0,_ZN5amrex7BaseFabIN5Model5Solid7Elastic17PseudoLinearCubicEED0Ev
FN:2098,_ZN5amrex7BaseFabIN5Model5Solid6Linear9LaplacianEE5clearEv
FNDA:1,_ZN5amrex7BaseFabIN5Model5Solid6Linear9LaplacianEE5clearEv
FN:2098,_ZN5amrex7BaseFabIN3Set7Matrix4ILi2ELi3EEEE5clearEv
FNDA:0,_ZN5amrex7BaseFabIN3Set7Matrix4ILi2ELi3EEEE5clearEv
FN:2098,_ZN5amrex7BaseFabIN3Set7Matrix4ILi2ELi4EEEE5clearEv
FNDA:0,_ZN5amrex7BaseFabIN3Set7Matrix4ILi2ELi4EEEE5clearEv
FN:2098,_ZN5amrex7BaseFabIN5Model5Solid6Affine2J2EE5clearEv
FNDA:49,_ZN5amrex7BaseFabIN5Model5Solid6Affine2J2EE5clearEv
FN:2098,_ZN5amrex7BaseFabIN5Model5Solid7Elastic28PseudoLinearCubicPredeformedEE5clearEv
FNDA:0,_ZN5amrex7BaseFabIN5Model5Solid7Elastic28PseudoLinearCubicPredeformedEE5clearEv
FN:2098,_ZN5amrex7BaseFabIN5Model5Solid7Elastic17PseudoLinearCubicEE5clearEv
FNDA:0,_ZN5amrex7BaseFabIN5Model5Solid7Elastic17PseudoLinearCubicEE5clearEv
FN:2098,_ZN5amrex7BaseFabIN5Model5Solid7Elastic10NeoHookeanEE5clearEv
FNDA:63,_ZN5amrex7BaseFabIN5Model5Solid7Elastic10NeoHookeanEE5clearEv
FN:2098,_ZN5amrex7BaseFabIN5Model5Solid6Affine9HexagonalEE5clearEv
FNDA:0,_ZN5amrex7BaseFabIN5Model5Solid6Affine9HexagonalEE5clearEv
FN:2098,_ZN5amrex7BaseFabIN5Model5Solid6Affine5CubicEE5clearEv
FNDA:0,_ZN5amrex7BaseFabIN5Model5Solid6Affine5CubicEE5clearEv
FN:2098,_ZN5amrex7BaseFabIN5Model5Solid6Linear5CubicEE5clearEv
FNDA:0,_ZN5amrex7BaseFabIN5Model5Solid6Linear5CubicEE5clearEv
FN:2098,_ZN5amrex7BaseFabIN5Model5Solid6Linear9IsotropicEE5clearEv
FNDA:132,_ZN5amrex7BaseFabIN5Model5Solid6Linear9IsotropicEE5clearEv
FN:2098,_ZN5amrex7BaseFabIN5Model5Solid6Affine9IsotropicEE5clearEv
FNDA:0,_ZN5amrex7BaseFabIN5Model5Solid6Affine9IsotropicEE5clearEv
FN:2098,_ZN5amrex7BaseFabIN3Set7Matrix4ILi2ELi1EEEE5clearEv
FNDA:0,_ZN5amrex7BaseFabIN3Set7Matrix4ILi2ELi1EEEE5clearEv
FN:2098,_ZN5amrex7BaseFabIN5Eigen6MatrixIdLi2ELi1ELi0ELi2ELi1EEEE5clearEv
FNDA:0,_ZN5amrex7BaseFabIN5Eigen6MatrixIdLi2ELi1ELi0ELi2ELi1EEEE5clearEv
FN:2098,_ZN5amrex7BaseFabIN5Eigen6MatrixIdLi2ELi2ELi0ELi2ELi2EEEE5clearEv
FNDA:0,_ZN5amrex7BaseFabIN5Eigen6MatrixIdLi2ELi2ELi0ELi2ELi2EEEE5clearEv
FN:2098,_ZN5amrex7BaseFabIN5Model5Solid6Linear19IsotropicDegradableEE5clearEv
FNDA:0,_ZN5amrex7BaseFabIN5Model5Solid6Linear19IsotropicDegradableEE5clearEv
FN:2098,_ZN5amrex7BaseFabIN3Set7Matrix4ILi2ELi6EEEE5clearEv
FNDA:0,_ZN5amrex7BaseFabIN3Set7Matrix4ILi2ELi6EEEE5clearEv
FN:2175,_ZN5amrex7BaseFabIN5Model5Solid6Linear19IsotropicDegradableEE11copyFromMemILNS_5RunOnE1ES4_EEmRKNS_3BoxEiiPKv
FNDA:0,_ZN5amrex7BaseFabIN5Model5Solid6Linear19IsotropicDegradableEE11copyFromMemILNS_5RunOnE1ES4_EEmRKNS_3BoxEiiPKv
FN:2175,_ZN5amrex7BaseFabIdE11copyFromMemILNS_5RunOnE1EdEEmRKNS_3BoxEiiPKv
FNDA:0,_ZN5amrex7BaseFabIdE11copyFromMemILNS_5RunOnE1EdEEmRKNS_3BoxEiiPKv
FN:2175,_ZN5amrex7BaseFabIN3Set7Matrix4ILi2ELi4EEEE11copyFromMemILNS_5RunOnE1ES3_EEmRKNS_3BoxEiiPKv
FNDA:0,_ZN5amrex7BaseFabIN3Set7Matrix4ILi2ELi4EEEE11copyFromMemILNS_5RunOnE1ES3_EEmRKNS_3BoxEiiPKv
FN:2175,_ZN5amrex7BaseFabIN3Set7Matrix4ILi2ELi1EEEE11copyFromMemILNS_5RunOnE1ES3_EEmRKNS_3BoxEiiPKv
FNDA:0,_ZN5amrex7BaseFabIN3Set7Matrix4ILi2ELi1EEEE11copyFromMemILNS_5RunOnE1ES3_EEmRKNS_3BoxEiiPKv
FN:2175,_ZN5amrex7BaseFabIN5Eigen6MatrixIdLi2ELi2ELi0ELi2ELi2EEEE11copyFromMemILNS_5RunOnE1ES3_EEmRKNS_3BoxEiiPKv
FNDA:0,_ZN5amrex7BaseFabIN5Eigen6MatrixIdLi2ELi2ELi0ELi2ELi2EEEE11copyFromMemILNS_5RunOnE1ES3_EEmRKNS_3BoxEiiPKv
FN:2175,_ZN5amrex7BaseFabIN3Set7Matrix4ILi2ELi6EEEE11copyFromMemILNS_5RunOnE1ES3_EEmRKNS_3BoxEiiPKv
FNDA:0,_ZN5amrex7BaseFabIN3Set7Matrix4ILi2ELi6EEEE11copyFromMemILNS_5RunOnE1ES3_EEmRKNS_3BoxEiiPKv
FN:2175,_ZN5amrex7BaseFabIN5Model5Solid6Affine9HexagonalEE11copyFromMemILNS_5RunOnE1ES4_EEmRKNS_3BoxEiiPKv
FNDA:0,_ZN5amrex7BaseFabIN5Model5Solid6Affine9HexagonalEE11copyFromMemILNS_5RunOnE1ES4_EEmRKNS_3BoxEiiPKv
FN:2175,_ZN5amrex7BaseFabIN5Model5Solid6Affine5CubicEE11copyFromMemILNS_5RunOnE1ES4_EEmRKNS_3BoxEiiPKv
FNDA:0,_ZN5amrex7BaseFabIN5Model5Solid6Affine5CubicEE11copyFromMemILNS_5RunOnE1ES4_EEmRKNS_3BoxEiiPKv
FN:2175,_ZN5amrex7BaseFabIN5Model5Solid6Linear9LaplacianEE11copyFromMemILNS_5RunOnE1ES4_EEmRKNS_3BoxEiiPKv
FNDA:0,_ZN5amrex7BaseFabIN5Model5Solid6Linear9LaplacianEE11copyFromMemILNS_5RunOnE1ES4_EEmRKNS_3BoxEiiPKv
FN:2175,_ZN5amrex7BaseFabIN3Set7Matrix4ILi2ELi3EEEE11copyFromMemILNS_5RunOnE1ES3_EEmRKNS_3BoxEiiPKv
FNDA:0,_ZN5amrex7BaseFabIN3Set7Matrix4ILi2ELi3EEEE11copyFromMemILNS_5RunOnE1ES3_EEmRKNS_3BoxEiiPKv
FN:2175,_ZN5amrex7BaseFabIN5Model5Solid7Elastic10NeoHookeanEE11copyFromMemILNS_5RunOnE1ES4_EEmRKNS_3BoxEiiPKv
FNDA:0,_ZN5amrex7BaseFabIN5Model5Solid7Elastic10NeoHookeanEE11copyFromMemILNS_5RunOnE1ES4_EEmRKNS_3BoxEiiPKv
FN:2175,_ZN5amrex7BaseFabIN5Eigen6MatrixIdLi2ELi1ELi0ELi2ELi1EEEE11copyFromMemILNS_5RunOnE1ES3_EEmRKNS_3BoxEiiPKv
FNDA:0,_ZN5amrex7BaseFabIN5Eigen6MatrixIdLi2ELi1ELi0ELi2ELi1EEEE11copyFromMemILNS_5RunOnE1ES3_EEmRKNS_3BoxEiiPKv
FN:2175,_ZN5amrex7BaseFabIN5Model5Solid6Linear5CubicEE11copyFromMemILNS_5RunOnE1ES4_EEmRKNS_3BoxEiiPKv
FNDA:0,_ZN5amrex7BaseFabIN5Model5Solid6Linear5CubicEE11copyFromMemILNS_5RunOnE1ES4_EEmRKNS_3BoxEiiPKv
FN:2175,_ZN5amrex7BaseFabIN5Model5Solid7Elastic17PseudoLinearCubicEE11copyFromMemILNS_5RunOnE1ES4_EEmRKNS_3BoxEiiPKv
FNDA:0,_ZN5amrex7BaseFabIN5Model5Solid7Elastic17PseudoLinearCubicEE11copyFromMemILNS_5RunOnE1ES4_EEmRKNS_3BoxEiiPKv
FN:2175,_ZN5amrex7BaseFabIN5Model5Solid7Elastic28PseudoLinearCubicPredeformedEE11copyFromMemILNS_5RunOnE1ES4_EEmRKNS_3BoxEiiPKv
FNDA:0,_ZN5amrex7BaseFabIN5Model5Solid7Elastic28PseudoLinearCubicPredeformedEE11copyFromMemILNS_5RunOnE1ES4_EEmRKNS_3BoxEiiPKv
FN:2175,_ZN5amrex7BaseFabIN5Model5Solid6Affine9IsotropicEE11copyFromMemILNS_5RunOnE1ES4_EEmRKNS_3BoxEiiPKv
FNDA:0,_ZN5amrex7BaseFabIN5Model5Solid6Affine9IsotropicEE11copyFromMemILNS_5RunOnE1ES4_EEmRKNS_3BoxEiiPKv
FN:2175,_ZN5amrex7BaseFabIN5Model5Solid6Linear9IsotropicEE11copyFromMemILNS_5RunOnE1ES4_EEmRKNS_3BoxEiiPKv
FNDA:0,_ZN5amrex7BaseFabIN5Model5Solid6Linear9IsotropicEE11copyFromMemILNS_5RunOnE1ES4_EEmRKNS_3BoxEiiPKv
FN:2175,_ZN5amrex7BaseFabIN5Model5Solid6Affine2J2EE11copyFromMemILNS_5RunOnE1ES4_EEmRKNS_3BoxEiiPKv
FNDA:0,_ZN5amrex7BaseFabIN5Model5Solid6Affine2J2EE11copyFromMemILNS_5RunOnE1ES4_EEmRKNS_3BoxEiiPKv
FN:2188,_ZZN5amrex7BaseFabIN5Eigen6MatrixIdLi2ELi2ELi0ELi2ELi2EEEE11copyFromMemILNS_5RunOnE1ES3_EEmRKNS_3BoxEiiPKvENKUliiiiE_clEiiii
FNDA:0,_ZZN5amrex7BaseFabIN5Eigen6MatrixIdLi2ELi2ELi0ELi2ELi2EEEE11copyFromMemILNS_5RunOnE1ES3_EEmRKNS_3BoxEiiPKvENKUliiiiE_clEiiii
FN:2188,_ZZN5amrex7BaseFabIN5Model5Solid6Affine5CubicEE11copyFromMemILNS_5RunOnE1ES4_EEmRKNS_3BoxEiiPKvENKUliiiiE_clEiiii
FNDA:0,_ZZN5amrex7BaseFabIN5Model5Solid6Affine5CubicEE11copyFromMemILNS_5RunOnE1ES4_EEmRKNS_3BoxEiiPKvENKUliiiiE_clEiiii
FN:2188,_ZZN5amrex7BaseFabIN3Set7Matrix4ILi2ELi6EEEE11copyFromMemILNS_5RunOnE1ES3_EEmRKNS_3BoxEiiPKvENKUliiiiE_clEiiii
FNDA:0,_ZZN5amrex7BaseFabIN3Set7Matrix4ILi2ELi6EEEE11copyFromMemILNS_5RunOnE1ES3_EEmRKNS_3BoxEiiPKvENKUliiiiE_clEiiii
FN:2188,_ZZN5amrex7BaseFabIdE11copyFromMemILNS_5RunOnE1EdEEmRKNS_3BoxEiiPKvENKUliiiiE_clEiiii
FNDA:0,_ZZN5amrex7BaseFabIdE11copyFromMemILNS_5RunOnE1EdEEmRKNS_3BoxEiiPKvENKUliiiiE_clEiiii
FN:2188,_ZZN5amrex7BaseFabIN5Model5Solid6Affine9IsotropicEE11copyFromMemILNS_5RunOnE1ES4_EEmRKNS_3BoxEiiPKvENKUliiiiE_clEiiii
FNDA:0,_ZZN5amrex7BaseFabIN5Model5Solid6Affine9IsotropicEE11copyFromMemILNS_5RunOnE1ES4_EEmRKNS_3BoxEiiPKvENKUliiiiE_clEiiii
FN:2188,_ZZN5amrex7BaseFabIN5Model5Solid6Linear19IsotropicDegradableEE11copyFromMemILNS_5RunOnE1ES4_EEmRKNS_3BoxEiiPKvENKUliiiiE_clEiiii
FNDA:0,_ZZN5amrex7BaseFabIN5Model5Solid6Linear19IsotropicDegradableEE11copyFromMemILNS_5RunOnE1ES4_EEmRKNS_3BoxEiiPKvENKUliiiiE_clEiiii
FN:2188,_ZZN5amrex7BaseFabIN3Set7Matrix4ILi2ELi1EEEE11copyFromMemILNS_5RunOnE1ES3_EEmRKNS_3BoxEiiPKvENKUliiiiE_clEiiii
FNDA:0,_ZZN5amrex7BaseFabIN3Set7Matrix4ILi2ELi1EEEE11copyFromMemILNS_5RunOnE1ES3_EEmRKNS_3BoxEiiPKvENKUliiiiE_clEiiii
FN:2188,_ZZN5amrex7BaseFabIN5Model5Solid7Elastic28PseudoLinearCubicPredeformedEE11copyFromMemILNS_5RunOnE1ES4_EEmRKNS_3BoxEiiPKvENKUliiiiE_clEiiii
FNDA:0,_ZZN5amrex7BaseFabIN5Model5Solid7Elastic28PseudoLinearCubicPredeformedEE11copyFromMemILNS_5RunOnE1ES4_EEmRKNS_3BoxEiiPKvENKUliiiiE_clEiiii
FN:2188,_ZZN5amrex7BaseFabIN5Model5Solid6Linear5CubicEE11copyFromMemILNS_5RunOnE1ES4_EEmRKNS_3BoxEiiPKvENKUliiiiE_clEiiii
FNDA:0,_ZZN5amrex7BaseFabIN5Model5Solid6Linear5CubicEE11copyFromMemILNS_5RunOnE1ES4_EEmRKNS_3BoxEiiPKvENKUliiiiE_clEiiii
FN:2188,_ZZN5amrex7BaseFabIN5Model5Solid6Linear9IsotropicEE11copyFromMemILNS_5RunOnE1ES4_EEmRKNS_3BoxEiiPKvENKUliiiiE_clEiiii
FNDA:0,_ZZN5amrex7BaseFabIN5Model5Solid6Linear9IsotropicEE11copyFromMemILNS_5RunOnE1ES4_EEmRKNS_3BoxEiiPKvENKUliiiiE_clEiiii
FN:2188,_ZZN5amrex7BaseFabIN5Model5Solid7Elastic17PseudoLinearCubicEE11copyFromMemILNS_5RunOnE1ES4_EEmRKNS_3BoxEiiPKvENKUliiiiE_clEiiii
FNDA:0,_ZZN5amrex7BaseFabIN5Model5Solid7Elastic17PseudoLinearCubicEE11copyFromMemILNS_5RunOnE1ES4_EEmRKNS_3BoxEiiPKvENKUliiiiE_clEiiii
FN:2188,_ZZN5amrex7BaseFabIN3Set7Matrix4ILi2ELi4EEEE11copyFromMemILNS_5RunOnE1ES3_EEmRKNS_3BoxEiiPKvENKUliiiiE_clEiiii
FNDA:0,_ZZN5amrex7BaseFabIN3Set7Matrix4ILi2ELi4EEEE11copyFromMemILNS_5RunOnE1ES3_EEmRKNS_3BoxEiiPKvENKUliiiiE_clEiiii
FN:2188,_ZZN5amrex7BaseFabIN5Model5Solid7Elastic10NeoHookeanEE11copyFromMemILNS_5RunOnE1ES4_EEmRKNS_3BoxEiiPKvENKUliiiiE_clEiiii
FNDA:0,_ZZN5amrex7BaseFabIN5Model5Solid7Elastic10NeoHookeanEE11copyFromMemILNS_5RunOnE1ES4_EEmRKNS_3BoxEiiPKvENKUliiiiE_clEiiii
FN:2188,_ZZN5amrex7BaseFabIN3Set7Matrix4ILi2ELi3EEEE11copyFromMemILNS_5RunOnE1ES3_EEmRKNS_3BoxEiiPKvENKUliiiiE_clEiiii
FNDA:0,_ZZN5amrex7BaseFabIN3Set7Matrix4ILi2ELi3EEEE11copyFromMemILNS_5RunOnE1ES3_EEmRKNS_3BoxEiiPKvENKUliiiiE_clEiiii
FN:2188,_ZZN5amrex7BaseFabIN5Eigen6MatrixIdLi2ELi1ELi0ELi2ELi1EEEE11copyFromMemILNS_5RunOnE1ES3_EEmRKNS_3BoxEiiPKvENKUliiiiE_clEiiii
FNDA:0,_ZZN5amrex7BaseFabIN5Eigen6MatrixIdLi2ELi1ELi0ELi2ELi1EEEE11copyFromMemILNS_5RunOnE1ES3_EEmRKNS_3BoxEiiPKvENKUliiiiE_clEiiii
FN:2188,_ZZN5amrex7BaseFabIN5Model5Solid6Linear9LaplacianEE11copyFromMemILNS_5RunOnE1ES4_EEmRKNS_3BoxEiiPKvENKUliiiiE_clEiiii
FNDA:0,_ZZN5amrex7BaseFabIN5Model5Solid6Linear9LaplacianEE11copyFromMemILNS_5RunOnE1ES4_EEmRKNS_3BoxEiiPKvENKUliiiiE_clEiiii
FN:2188,_ZZN5amrex7BaseFabIN5Model5Solid6Affine2J2EE11copyFromMemILNS_5RunOnE1ES4_EEmRKNS_3BoxEiiPKvENKUliiiiE_clEiiii
FNDA:0,_ZZN5amrex7BaseFabIN5Model5Solid6Affine2J2EE11copyFromMemILNS_5RunOnE1ES4_EEmRKNS_3BoxEiiPKvENKUliiiiE_clEiiii
FN:2188,_ZZN5amrex7BaseFabIN5Model5Solid6Affine9HexagonalEE11copyFromMemILNS_5RunOnE1ES4_EEmRKNS_3BoxEiiPKvENKUliiiiE_clEiiii
FNDA:0,_ZZN5amrex7BaseFabIN5Model5Solid6Affine9HexagonalEE11copyFromMemILNS_5RunOnE1ES4_EEmRKNS_3BoxEiiPKvENKUliiiiE_clEiiii
FN:2203,_ZN5amrex7BaseFabIN5Eigen6MatrixIdLi2ELi2ELi0ELi2ELi2EEEE10addFromMemILNS_5RunOnE1ES3_EEmRKNS_3BoxEiiPKv
FNDA:0,_ZN5amrex7BaseFabIN5Eigen6MatrixIdLi2ELi2ELi0ELi2ELi2EEEE10addFromMemILNS_5RunOnE1ES3_EEmRKNS_3BoxEiiPKv
FN:2203,_ZN5amrex7BaseFabIN5Model5Solid6Linear5CubicEE10addFromMemILNS_5RunOnE1ES4_EEmRKNS_3BoxEiiPKv
FNDA:0,_ZN5amrex7BaseFabIN5Model5Solid6Linear5CubicEE10addFromMemILNS_5RunOnE1ES4_EEmRKNS_3BoxEiiPKv
FN:2203,_ZN5amrex7BaseFabIN5Model5Solid6Linear9IsotropicEE10addFromMemILNS_5RunOnE1ES4_EEmRKNS_3BoxEiiPKv
FNDA:0,_ZN5amrex7BaseFabIN5Model5Solid6Linear9IsotropicEE10addFromMemILNS_5RunOnE1ES4_EEmRKNS_3BoxEiiPKv
FN:2203,_ZN5amrex7BaseFabIN5Eigen6MatrixIdLi2ELi1ELi0ELi2ELi1EEEE10addFromMemILNS_5RunOnE1ES3_EEmRKNS_3BoxEiiPKv
FNDA:0,_ZN5amrex7BaseFabIN5Eigen6MatrixIdLi2ELi1ELi0ELi2ELi1EEEE10addFromMemILNS_5RunOnE1ES3_EEmRKNS_3BoxEiiPKv
FN:2203,_ZN5amrex7BaseFabIN3Set7Matrix4ILi2ELi6EEEE10addFromMemILNS_5RunOnE1ES3_EEmRKNS_3BoxEiiPKv
FNDA:0,_ZN5amrex7BaseFabIN3Set7Matrix4ILi2ELi6EEEE10addFromMemILNS_5RunOnE1ES3_EEmRKNS_3BoxEiiPKv
FN:2203,_ZN5amrex7BaseFabIN3Set7Matrix4ILi2ELi3EEEE10addFromMemILNS_5RunOnE1ES3_EEmRKNS_3BoxEiiPKv
FNDA:0,_ZN5amrex7BaseFabIN3Set7Matrix4ILi2ELi3EEEE10addFromMemILNS_5RunOnE1ES3_EEmRKNS_3BoxEiiPKv
FN:2203,_ZN5amrex7BaseFabIN3Set7Matrix4ILi2ELi4EEEE10addFromMemILNS_5RunOnE1ES3_EEmRKNS_3BoxEiiPKv
FNDA:0,_ZN5amrex7BaseFabIN3Set7Matrix4ILi2ELi4EEEE10addFromMemILNS_5RunOnE1ES3_EEmRKNS_3BoxEiiPKv
FN:2203,_ZN5amrex7BaseFabIN5Model5Solid6Affine9IsotropicEE10addFromMemILNS_5RunOnE1ES4_EEmRKNS_3BoxEiiPKv
FNDA:0,_ZN5amrex7BaseFabIN5Model5Solid6Affine9IsotropicEE10addFromMemILNS_5RunOnE1ES4_EEmRKNS_3BoxEiiPKv
FN:2203,_ZN5amrex7BaseFabIN5Model5Solid6Linear19IsotropicDegradableEE10addFromMemILNS_5RunOnE1ES4_EEmRKNS_3BoxEiiPKv
FNDA:0,_ZN5amrex7BaseFabIN5Model5Solid6Linear19IsotropicDegradableEE10addFromMemILNS_5RunOnE1ES4_EEmRKNS_3BoxEiiPKv
FN:2203,_ZN5amrex7BaseFabIdE10addFromMemILNS_5RunOnE1EdEEmRKNS_3BoxEiiPKv
FNDA:0,_ZN5amrex7BaseFabIdE10addFromMemILNS_5RunOnE1EdEEmRKNS_3BoxEiiPKv
FN:2203,_ZN5amrex7BaseFabIN3Set7Matrix4ILi2ELi1EEEE10addFromMemILNS_5RunOnE1ES3_EEmRKNS_3BoxEiiPKv
FNDA:0,_ZN5amrex7BaseFabIN3Set7Matrix4ILi2ELi1EEEE10addFromMemILNS_5RunOnE1ES3_EEmRKNS_3BoxEiiPKv
FN:2203,_ZN5amrex7BaseFabIN5Model5Solid6Affine5CubicEE10addFromMemILNS_5RunOnE1ES4_EEmRKNS_3BoxEiiPKv
FNDA:0,_ZN5amrex7BaseFabIN5Model5Solid6Affine5CubicEE10addFromMemILNS_5RunOnE1ES4_EEmRKNS_3BoxEiiPKv
FN:2203,_ZN5amrex7BaseFabIN5Model5Solid6Linear9LaplacianEE10addFromMemILNS_5RunOnE1ES4_EEmRKNS_3BoxEiiPKv
FNDA:0,_ZN5amrex7BaseFabIN5Model5Solid6Linear9LaplacianEE10addFromMemILNS_5RunOnE1ES4_EEmRKNS_3BoxEiiPKv
FN:2203,_ZN5amrex7BaseFabIN5Model5Solid6Affine9HexagonalEE10addFromMemILNS_5RunOnE1ES4_EEmRKNS_3BoxEiiPKv
FNDA:0,_ZN5amrex7BaseFabIN5Model5Solid6Affine9HexagonalEE10addFromMemILNS_5RunOnE1ES4_EEmRKNS_3BoxEiiPKv
FN:2203,_ZN5amrex7BaseFabIN5Model5Solid6Affine2J2EE10addFromMemILNS_5RunOnE1ES4_EEmRKNS_3BoxEiiPKv
FNDA:0,_ZN5amrex7BaseFabIN5Model5Solid6Affine2J2EE10addFromMemILNS_5RunOnE1ES4_EEmRKNS_3BoxEiiPKv
FN:2203,_ZN5amrex7BaseFabIN5Model5Solid7Elastic10NeoHookeanEE10addFromMemILNS_5RunOnE1ES4_EEmRKNS_3BoxEiiPKv
FNDA:0,_ZN5amrex7BaseFabIN5Model5Solid7Elastic10NeoHookeanEE10addFromMemILNS_5RunOnE1ES4_EEmRKNS_3BoxEiiPKv
FN:2203,_ZN5amrex7BaseFabIN5Model5Solid7Elastic17PseudoLinearCubicEE10addFromMemILNS_5RunOnE1ES4_EEmRKNS_3BoxEiiPKv
FNDA:0,_ZN5amrex7BaseFabIN5Model5Solid7Elastic17PseudoLinearCubicEE10addFromMemILNS_5RunOnE1ES4_EEmRKNS_3BoxEiiPKv
FN:2203,_ZN5amrex7BaseFabIN5Model5Solid7Elastic28PseudoLinearCubicPredeformedEE10addFromMemILNS_5RunOnE1ES4_EEmRKNS_3BoxEiiPKv
FNDA:0,_ZN5amrex7BaseFabIN5Model5Solid7Elastic28PseudoLinearCubicPredeformedEE10addFromMemILNS_5RunOnE1ES4_EEmRKNS_3BoxEiiPKv
FN:2216,_ZZN5amrex7BaseFabIN3Set7Matrix4ILi2ELi3EEEE10addFromMemILNS_5RunOnE1ES3_EEmRKNS_3BoxEiiPKvENKUliiiiE_clEiiii
FNDA:0,_ZZN5amrex7BaseFabIN3Set7Matrix4ILi2ELi3EEEE10addFromMemILNS_5RunOnE1ES3_EEmRKNS_3BoxEiiPKvENKUliiiiE_clEiiii
FN:2216,_ZZN5amrex7BaseFabIN5Model5Solid6Affine2J2EE10addFromMemILNS_5RunOnE1ES4_EEmRKNS_3BoxEiiPKvENKUliiiiE_clEiiii
FNDA:0,_ZZN5amrex7BaseFabIN5Model5Solid6Affine2J2EE10addFromMemILNS_5RunOnE1ES4_EEmRKNS_3BoxEiiPKvENKUliiiiE_clEiiii
FN:2216,_ZZN5amrex7BaseFabIN5Eigen6MatrixIdLi2ELi2ELi0ELi2ELi2EEEE10addFromMemILNS_5RunOnE1ES3_EEmRKNS_3BoxEiiPKvENKUliiiiE_clEiiii
FNDA:0,_ZZN5amrex7BaseFabIN5Eigen6MatrixIdLi2ELi2ELi0ELi2ELi2EEEE10addFromMemILNS_5RunOnE1ES3_EEmRKNS_3BoxEiiPKvENKUliiiiE_clEiiii
FN:2216,_ZZN5amrex7BaseFabIN5Model5Solid7Elastic10NeoHookeanEE10addFromMemILNS_5RunOnE1ES4_EEmRKNS_3BoxEiiPKvENKUliiiiE_clEiiii
FNDA:0,_ZZN5amrex7BaseFabIN5Model5Solid7Elastic10NeoHookeanEE10addFromMemILNS_5RunOnE1ES4_EEmRKNS_3BoxEiiPKvENKUliiiiE_clEiiii
FN:2216,_ZZN5amrex7BaseFabIN5Model5Solid7Elastic17PseudoLinearCubicEE10addFromMemILNS_5RunOnE1ES4_EEmRKNS_3BoxEiiPKvENKUliiiiE_clEiiii
FNDA:0,_ZZN5amrex7BaseFabIN5Model5Solid7Elastic17PseudoLinearCubicEE10addFromMemILNS_5RunOnE1ES4_EEmRKNS_3BoxEiiPKvENKUliiiiE_clEiiii
FN:2216,_ZZN5amrex7BaseFabIN5Model5Solid6Affine9IsotropicEE10addFromMemILNS_5RunOnE1ES4_EEmRKNS_3BoxEiiPKvENKUliiiiE_clEiiii
FNDA:0,_ZZN5amrex7BaseFabIN5Model5Solid6Affine9IsotropicEE10addFromMemILNS_5RunOnE1ES4_EEmRKNS_3BoxEiiPKvENKUliiiiE_clEiiii
FN:2216,_ZZN5amrex7BaseFabIN5Model5Solid6Linear19IsotropicDegradableEE10addFromMemILNS_5RunOnE1ES4_EEmRKNS_3BoxEiiPKvENKUliiiiE_clEiiii
FNDA:0,_ZZN5amrex7BaseFabIN5Model5Solid6Linear19IsotropicDegradableEE10addFromMemILNS_5RunOnE1ES4_EEmRKNS_3BoxEiiPKvENKUliiiiE_clEiiii
FN:2216,_ZZN5amrex7BaseFabIN3Set7Matrix4ILi2ELi4EEEE10addFromMemILNS_5RunOnE1ES3_EEmRKNS_3BoxEiiPKvENKUliiiiE_clEiiii
FNDA:0,_ZZN5amrex7BaseFabIN3Set7Matrix4ILi2ELi4EEEE10addFromMemILNS_5RunOnE1ES3_EEmRKNS_3BoxEiiPKvENKUliiiiE_clEiiii
FN:2216,_ZZN5amrex7BaseFabIN5Model5Solid7Elastic28PseudoLinearCubicPredeformedEE10addFromMemILNS_5RunOnE1ES4_EEmRKNS_3BoxEiiPKvENKUliiiiE_clEiiii
FNDA:0,_ZZN5amrex7BaseFabIN5Model5Solid7Elastic28PseudoLinearCubicPredeformedEE10addFromMemILNS_5RunOnE1ES4_EEmRKNS_3BoxEiiPKvENKUliiiiE_clEiiii
FN:2216,_ZZN5amrex7BaseFabIdE10addFromMemILNS_5RunOnE1EdEEmRKNS_3BoxEiiPKvENKUliiiiE_clEiiii
FNDA:0,_ZZN5amrex7BaseFabIdE10addFromMemILNS_5RunOnE1EdEEmRKNS_3BoxEiiPKvENKUliiiiE_clEiiii
FN:2216,_ZZN5amrex7BaseFabIN3Set7Matrix4ILi2ELi1EEEE10addFromMemILNS_5RunOnE1ES3_EEmRKNS_3BoxEiiPKvENKUliiiiE_clEiiii
FNDA:0,_ZZN5amrex7BaseFabIN3Set7Matrix4ILi2ELi1EEEE10addFromMemILNS_5RunOnE1ES3_EEmRKNS_3BoxEiiPKvENKUliiiiE_clEiiii
FN:2216,_ZZN5amrex7BaseFabIN5Model5Solid6Linear5CubicEE10addFromMemILNS_5RunOnE1ES4_EEmRKNS_3BoxEiiPKvENKUliiiiE_clEiiii
FNDA:0,_ZZN5amrex7BaseFabIN5Model5Solid6Linear5CubicEE10addFromMemILNS_5RunOnE1ES4_EEmRKNS_3BoxEiiPKvENKUliiiiE_clEiiii
FN:2216,_ZZN5amrex7BaseFabIN5Model5Solid6Linear9IsotropicEE10addFromMemILNS_5RunOnE1ES4_EEmRKNS_3BoxEiiPKvENKUliiiiE_clEiiii
FNDA:0,_ZZN5amrex7BaseFabIN5Model5Solid6Linear9IsotropicEE10addFromMemILNS_5RunOnE1ES4_EEmRKNS_3BoxEiiPKvENKUliiiiE_clEiiii
FN:2216,_ZZN5amrex7BaseFabIN5Model5Solid6Affine5CubicEE10addFromMemILNS_5RunOnE1ES4_EEmRKNS_3BoxEiiPKvENKUliiiiE_clEiiii
FNDA:0,_ZZN5amrex7BaseFabIN5Model5Solid6Affine5CubicEE10addFromMemILNS_5RunOnE1ES4_EEmRKNS_3BoxEiiPKvENKUliiiiE_clEiiii
FN:2216,_ZZN5amrex7BaseFabIN5Model5Solid6Linear9LaplacianEE10addFromMemILNS_5RunOnE1ES4_EEmRKNS_3BoxEiiPKvENKUliiiiE_clEiiii
FNDA:0,_ZZN5amrex7BaseFabIN5Model5Solid6Linear9LaplacianEE10addFromMemILNS_5RunOnE1ES4_EEmRKNS_3BoxEiiPKvENKUliiiiE_clEiiii
FN:2216,_ZZN5amrex7BaseFabIN5Eigen6MatrixIdLi2ELi1ELi0ELi2ELi1EEEE10addFromMemILNS_5RunOnE1ES3_EEmRKNS_3BoxEiiPKvENKUliiiiE_clEiiii
FNDA:0,_ZZN5amrex7BaseFabIN5Eigen6MatrixIdLi2ELi1ELi0ELi2ELi1EEEE10addFromMemILNS_5RunOnE1ES3_EEmRKNS_3BoxEiiPKvENKUliiiiE_clEiiii
FN:2216,_ZZN5amrex7BaseFabIN5Model5Solid6Affine9HexagonalEE10addFromMemILNS_5RunOnE1ES4_EEmRKNS_3BoxEiiPKvENKUliiiiE_clEiiii
FNDA:0,_ZZN5amrex7BaseFabIN5Model5Solid6Affine9HexagonalEE10addFromMemILNS_5RunOnE1ES4_EEmRKNS_3BoxEiiPKvENKUliiiiE_clEiiii
FN:2216,_ZZN5amrex7BaseFabIN3Set7Matrix4ILi2ELi6EEEE10addFromMemILNS_5RunOnE1ES3_EEmRKNS_3BoxEiiPKvENKUliiiiE_clEiiii
FNDA:0,_ZZN5amrex7BaseFabIN3Set7Matrix4ILi2ELi6EEEE10addFromMemILNS_5RunOnE1ES3_EEmRKNS_3BoxEiiPKvENKUliiiiE_clEiiii
FN:2231,_ZN5amrex7BaseFabIdE13setComplementILNS_5RunOnE1EEEvRKdRKNS_3BoxEii
FNDA:0,_ZN5amrex7BaseFabIdE13setComplementILNS_5RunOnE1EEEvRKdRKNS_3BoxEii
FN:3227,_ZN5amrex7BaseFabIN5Model5Solid6Linear9IsotropicEE4plusILNS_5RunOnE1EEERS5_RKS5_RKNS_3BoxESD_iii
FNDA:0,_ZN5amrex7BaseFabIN5Model5Solid6Linear9IsotropicEE4plusILNS_5RunOnE1EEERS5_RKS5_RKNS_3BoxESD_iii
FN:3227,_ZN5amrex7BaseFabIN5Model5Solid6Linear19IsotropicDegradableEE4plusILNS_5RunOnE1EEERS5_RKS5_RKNS_3BoxESD_iii
FNDA:0,_ZN5amrex7BaseFabIN5Model5Solid6Linear19IsotropicDegradableEE4plusILNS_5RunOnE1EEERS5_RKS5_RKNS_3BoxESD_iii
FN:3227,_ZN5amrex7BaseFabIN5Eigen6MatrixIdLi2ELi1ELi0ELi2ELi1EEEE4plusILNS_5RunOnE1EEERS4_RKS4_RKNS_3BoxESC_iii
FNDA:0,_ZN5amrex7BaseFabIN5Eigen6MatrixIdLi2ELi1ELi0ELi2ELi1EEEE4plusILNS_5RunOnE1EEERS4_RKS4_RKNS_3BoxESC_iii
FN:3227,_ZN5amrex7BaseFabIN5Eigen6MatrixIdLi2ELi2ELi0ELi2ELi2EEEE4plusILNS_5RunOnE1EEERS4_RKS4_RKNS_3BoxESC_iii
FNDA:0,_ZN5amrex7BaseFabIN5Eigen6MatrixIdLi2ELi2ELi0ELi2ELi2EEEE4plusILNS_5RunOnE1EEERS4_RKS4_RKNS_3BoxESC_iii
FN:3227,_ZN5amrex7BaseFabIN5Model5Solid6Affine9IsotropicEE4plusILNS_5RunOnE1EEERS5_RKS5_RKNS_3BoxESD_iii
FNDA:0,_ZN5amrex7BaseFabIN5Model5Solid6Affine9IsotropicEE4plusILNS_5RunOnE1EEERS5_RKS5_RKNS_3BoxESD_iii
FN:3227,_ZN5amrex7BaseFabIN5Model5Solid6Affine2J2EE4plusILNS_5RunOnE1EEERS5_RKS5_RKNS_3BoxESD_iii
FNDA:0,_ZN5amrex7BaseFabIN5Model5Solid6Affine2J2EE4plusILNS_5RunOnE1EEERS5_RKS5_RKNS_3BoxESD_iii
FN:3227,_ZN5amrex7BaseFabIN5Model5Solid7Elastic28PseudoLinearCubicPredeformedEE4plusILNS_5RunOnE1EEERS5_RKS5_RKNS_3BoxESD_iii
FNDA:0,_ZN5amrex7BaseFabIN5Model5Solid7Elastic28PseudoLinearCubicPredeformedEE4plusILNS_5RunOnE1EEERS5_RKS5_RKNS_3BoxESD_iii
FN:3227,_ZN5amrex7BaseFabIN5Model5Solid6Linear9LaplacianEE4plusILNS_5RunOnE1EEERS5_RKS5_RKNS_3BoxESD_iii
FNDA:0,_ZN5amrex7BaseFabIN5Model5Solid6Linear9LaplacianEE4plusILNS_5RunOnE1EEERS5_RKS5_RKNS_3BoxESD_iii
FN:3227,_ZN5amrex7BaseFabIN5Model5Solid6Affine9HexagonalEE4plusILNS_5RunOnE1EEERS5_RKS5_RKNS_3BoxESD_iii
FNDA:0,_ZN5amrex7BaseFabIN5Model5Solid6Affine9HexagonalEE4plusILNS_5RunOnE1EEERS5_RKS5_RKNS_3BoxESD_iii
FN:3227,_ZN5amrex7BaseFabIN5Model5Solid7Elastic10NeoHookeanEE4plusILNS_5RunOnE1EEERS5_RKS5_RKNS_3BoxESD_iii
FNDA:0,_ZN5amrex7BaseFabIN5Model5Solid7Elastic10NeoHookeanEE4plusILNS_5RunOnE1EEERS5_RKS5_RKNS_3BoxESD_iii
FN:3227,_ZN5amrex7BaseFabIN5Model5Solid6Linear5CubicEE4plusILNS_5RunOnE1EEERS5_RKS5_RKNS_3BoxESD_iii
FNDA:0,_ZN5amrex7BaseFabIN5Model5Solid6Linear5CubicEE4plusILNS_5RunOnE1EEERS5_RKS5_RKNS_3BoxESD_iii
FN:3227,_ZN5amrex7BaseFabIN5Model5Solid7Elastic17PseudoLinearCubicEE4plusILNS_5RunOnE1EEERS5_RKS5_RKNS_3BoxESD_iii
FNDA:0,_ZN5amrex7BaseFabIN5Model5Solid7Elastic17PseudoLinearCubicEE4plusILNS_5RunOnE1EEERS5_RKS5_RKNS_3BoxESD_iii
FN:3227,_ZN5amrex7BaseFabIN5Model5Solid6Affine5CubicEE4plusILNS_5RunOnE1EEERS5_RKS5_RKNS_3BoxESD_iii
FNDA:0,_ZN5amrex7BaseFabIN5Model5Solid6Affine5CubicEE4plusILNS_5RunOnE1EEERS5_RKS5_RKNS_3BoxESD_iii
FN:3242,_ZZN5amrex7BaseFabIN5Model5Solid6Linear9LaplacianEE4plusILNS_5RunOnE1EEERS5_RKS5_RKNS_3BoxESD_iiiENKUliiiiE_clEiiii
FNDA:0,_ZZN5amrex7BaseFabIN5Model5Solid6Linear9LaplacianEE4plusILNS_5RunOnE1EEERS5_RKS5_RKNS_3BoxESD_iiiENKUliiiiE_clEiiii
FN:3242,_ZZN5amrex7BaseFabIN5Model5Solid6Affine9HexagonalEE4plusILNS_5RunOnE1EEERS5_RKS5_RKNS_3BoxESD_iiiENKUliiiiE_clEiiii
FNDA:0,_ZZN5amrex7BaseFabIN5Model5Solid6Affine9HexagonalEE4plusILNS_5RunOnE1EEERS5_RKS5_RKNS_3BoxESD_iiiENKUliiiiE_clEiiii
FN:3242,_ZZN5amrex7BaseFabIN5Model5Solid6Linear19IsotropicDegradableEE4plusILNS_5RunOnE1EEERS5_RKS5_RKNS_3BoxESD_iiiENKUliiiiE_clEiiii
FNDA:0,_ZZN5amrex7BaseFabIN5Model5Solid6Linear19IsotropicDegradableEE4plusILNS_5RunOnE1EEERS5_RKS5_RKNS_3BoxESD_iiiENKUliiiiE_clEiiii
FN:3242,_ZZN5amrex7BaseFabIN5Model5Solid7Elastic10NeoHookeanEE4plusILNS_5RunOnE1EEERS5_RKS5_RKNS_3BoxESD_iiiENKUliiiiE_clEiiii
FNDA:0,_ZZN5amrex7BaseFabIN5Model5Solid7Elastic10NeoHookeanEE4plusILNS_5RunOnE1EEERS5_RKS5_RKNS_3BoxESD_iiiENKUliiiiE_clEiiii
FN:3242,_ZZN5amrex7BaseFabIN5Model5Solid6Affine5CubicEE4plusILNS_5RunOnE1EEERS5_RKS5_RKNS_3BoxESD_iiiENKUliiiiE_clEiiii
FNDA:0,_ZZN5amrex7BaseFabIN5Model5Solid6Affine5CubicEE4plusILNS_5RunOnE1EEERS5_RKS5_RKNS_3BoxESD_iiiENKUliiiiE_clEiiii
FN:3242,_ZZN5amrex7BaseFabIN5Eigen6MatrixIdLi2ELi1ELi0ELi2ELi1EEEE4plusILNS_5RunOnE1EEERS4_RKS4_RKNS_3BoxESC_iiiENKUliiiiE_clEiiii
FNDA:0,_ZZN5amrex7BaseFabIN5Eigen6MatrixIdLi2ELi1ELi0ELi2ELi1EEEE4plusILNS_5RunOnE1EEERS4_RKS4_RKNS_3BoxESC_iiiENKUliiiiE_clEiiii
FN:3242,_ZZN5amrex7BaseFabIN5Eigen6MatrixIdLi2ELi2ELi0ELi2ELi2EEEE4plusILNS_5RunOnE1EEERS4_RKS4_RKNS_3BoxESC_iiiENKUliiiiE_clEiiii
FNDA:0,_ZZN5amrex7BaseFabIN5Eigen6MatrixIdLi2ELi2ELi0ELi2ELi2EEEE4plusILNS_5RunOnE1EEERS4_RKS4_RKNS_3BoxESC_iiiENKUliiiiE_clEiiii
FN:3242,_ZZN5amrex7BaseFabIN5Model5Solid6Affine2J2EE4plusILNS_5RunOnE1EEERS5_RKS5_RKNS_3BoxESD_iiiENKUliiiiE_clEiiii
FNDA:0,_ZZN5amrex7BaseFabIN5Model5Solid6Affine2J2EE4plusILNS_5RunOnE1EEERS5_RKS5_RKNS_3BoxESD_iiiENKUliiiiE_clEiiii
FN:3242,_ZZN5amrex7BaseFabIN5Model5Solid6Linear5CubicEE4plusILNS_5RunOnE1EEERS5_RKS5_RKNS_3BoxESD_iiiENKUliiiiE_clEiiii
FNDA:0,_ZZN5amrex7BaseFabIN5Model5Solid6Linear5CubicEE4plusILNS_5RunOnE1EEERS5_RKS5_RKNS_3BoxESD_iiiENKUliiiiE_clEiiii
FN:3242,_ZZN5amrex7BaseFabIN5Model5Solid6Affine9IsotropicEE4plusILNS_5RunOnE1EEERS5_RKS5_RKNS_3BoxESD_iiiENKUliiiiE_clEiiii
FNDA:0,_ZZN5amrex7BaseFabIN5Model5Solid6Affine9IsotropicEE4plusILNS_5RunOnE1EEERS5_RKS5_RKNS_3BoxESD_iiiENKUliiiiE_clEiiii
FN:3242,_ZZN5amrex7BaseFabIN5Model5Solid7Elastic28PseudoLinearCubicPredeformedEE4plusILNS_5RunOnE1EEERS5_RKS5_RKNS_3BoxESD_iiiENKUliiiiE_clEiiii
FNDA:0,_ZZN5amrex7BaseFabIN5Model5Solid7Elastic28PseudoLinearCubicPredeformedEE4plusILNS_5RunOnE1EEERS5_RKS5_RKNS_3BoxESD_iiiENKUliiiiE_clEiiii
FN:3242,_ZZN5amrex7BaseFabIN5Model5Solid7Elastic17PseudoLinearCubicEE4plusILNS_5RunOnE1EEERS5_RKS5_RKNS_3BoxESD_iiiENKUliiiiE_clEiiii
FNDA:0,_ZZN5amrex7BaseFabIN5Model5Solid7Elastic17PseudoLinearCubicEE4plusILNS_5RunOnE1EEERS5_RKS5_RKNS_3BoxESD_iiiENKUliiiiE_clEiiii
FN:3242,_ZZN5amrex7BaseFabIN5Model5Solid6Linear9IsotropicEE4plusILNS_5RunOnE1EEERS5_RKS5_RKNS_3BoxESD_iiiENKUliiiiE_clEiiii
FNDA:0,_ZZN5amrex7BaseFabIN5Model5Solid6Linear9IsotropicEE4plusILNS_5RunOnE1EEERS5_RKS5_RKNS_3BoxESD_iiiENKUliiiiE_clEiiii
FN:3559,_ZN5amrex7BaseFabIiE6setValILNS_5RunOnE1EEEvRKiRKNS_3BoxENS_8DestCompENS_8NumCompsE
FNDA:0,_ZN5amrex7BaseFabIiE6setValILNS_5RunOnE1EEEvRKiRKNS_3BoxENS_8DestCompENS_8NumCompsE
FN:3559,_ZN5amrex7BaseFabIdE6setValILNS_5RunOnE1EEEvRKdRKNS_3BoxENS_8DestCompENS_8NumCompsE
FNDA:0,_ZN5amrex7BaseFabIdE6setValILNS_5RunOnE1EEEvRKdRKNS_3BoxENS_8DestCompENS_8NumCompsE
FN:3563,_ZZN5amrex7BaseFabIiE6setValILNS_5RunOnE1EEEvRKiRKNS_3BoxENS_8DestCompENS_8NumCompsEENKUliiiiE_clEiiii
FNDA:0,_ZZN5amrex7BaseFabIiE6setValILNS_5RunOnE1EEEvRKiRKNS_3BoxENS_8DestCompENS_8NumCompsEENKUliiiiE_clEiiii
FN:3563,_ZZN5amrex7BaseFabIdE6setValILNS_5RunOnE1EEEvRKdRKNS_3BoxENS_8DestCompENS_8NumCompsEENKUliiiiE_clEiiii
FNDA:0,_ZZN5amrex7BaseFabIdE6setValILNS_5RunOnE1EEEvRKdRKNS_3BoxENS_8DestCompENS_8NumCompsEENKUliiiiE_clEiiii
FN:3616,_ZN5amrex7BaseFabIdE13setComplementILNS_5RunOnE1EEEvRKdRKNS_3BoxENS_8DestCompENS_8NumCompsE
FNDA:0,_ZN5amrex7BaseFabIdE13setComplementILNS_5RunOnE1EEEvRKdRKNS_3BoxENS_8DestCompENS_8NumCompsE
DA:75,0
DA:81,0
DA:90,10892
DA:158,0
DA:160,0
DA:164,0
DA:158,0
DA:160,0
DA:164,0
DA:158,0
DA:160,0
DA:164,0
DA:158,49
DA:160,6359
DA:164,49
DA:158,0
DA:160,0
DA:164,0
DA:158,0
DA:160,0
DA:164,0
DA:158,63
DA:160,13513
DA:164,63
DA:158,1
DA:160,1370
DA:164,1
DA:158,0
DA:160,0
DA:164,0
DA:158,0
DA:160,0
DA:164,0
DA:158,0
DA:160,0
DA:164,0
DA:158,132
DA:160,44322
DA:164,132
DA:158,0
DA:160,0
DA:164,0
DA:158,0
DA:160,0
DA:164,0
DA:158,0
DA:160,0
DA:164,0
DA:158,0
DA:160,0
DA:164,0
DA:158,0
DA:160,0
DA:164,0
DA:168,0
DA:169,0
DA:168,0
DA:169,0
DA:168,0
DA:169,0
DA:168,0
DA:169,0
DA:168,0
DA:169,0
DA:168,0
DA:169,0
DA:173,0
DA:175,0
DA:179,0
DA:173,0
DA:175,0
DA:179,0
DA:173,132
DA:175,44322
DA:179,132
DA:173,0
DA:175,0
DA:179,0
DA:173,0
DA:175,0
DA:179,0
DA:173,0
DA:175,0
DA:179,0
DA:173,1
DA:175,1370
DA:179,1
DA:173,63
DA:175,13513
DA:179,63
DA:173,0
DA:175,0
DA:179,0
DA:173,0
DA:175,0
DA:179,0
DA:173,49
DA:175,6359
DA:179,49
DA:267,212
DA:267,0
DA:267,0
DA:267,0
DA:267,0
DA:267,0
DA:267,0
DA:267,0
DA:267,0
DA:267,0
DA:267,0
DA:267,0
DA:267,2
DA:267,96
DA:267,0
DA:267,0
DA:267,66
DA:267,0
DA:267,0
DA:269,212
DA:270,212
DA:269,0
DA:270,0
DA:269,0
DA:270,0
DA:269,0
DA:270,0
DA:269,0
DA:270,0
DA:269,0
DA:270,0
DA:269,0
DA:270,0
DA:269,0
DA:270,0
DA:269,0
DA:270,0
DA:269,0
DA:270,0
DA:269,0
DA:270,0
DA:269,0
DA:270,0
DA:269,2
DA:270,2
DA:269,96
DA:270,96
DA:269,0
DA:270,0
DA:269,0
DA:270,0
DA:269,66
DA:270,66
DA:269,0
DA:270,0
DA:269,0
DA:270,0
DA:292,0
DA:292,0
DA:292,0
DA:292,0
DA:292,78
DA:292,0
DA:292,0
DA:292,0
DA:292,0
DA:292,45
DA:292,0
DA:292,0
DA:292,48
DA:362,0
DA:363,0
DA:364,0
DA:366,0
DA:362,0
DA:363,0
DA:364,0
DA:366,0
DA:362,0
DA:363,0
DA:364,0
DA:366,0
DA:362,0
DA:363,0
DA:364,0
DA:366,0
DA:362,0
DA:363,0
DA:364,0
DA:366,0
DA:362,0
DA:363,0
DA:364,0
DA:366,0
DA:362,0
DA:363,0
DA:364,0
DA:366,0
DA:362,0
DA:363,0
DA:364,0
DA:366,0
DA:362,0
DA:363,0
DA:364,0
DA:366,0
DA:362,0
DA:363,0
DA:364,0
DA:366,0
DA:362,0
DA:363,0
DA:364,0
DA:366,0
DA:362,0
DA:363,0
DA:364,0
DA:366,0
DA:362,0
DA:363,0
DA:364,0
DA:366,0
DA:362,0
DA:363,0
DA:364,0
DA:366,0
DA:362,0
DA:363,0
DA:364,0
DA:366,0
DA:362,0
DA:363,0
DA:364,0
DA:366,0
DA:362,0
DA:363,0
DA:364,0
DA:366,0
DA:382,0
DA:400,8063
DA:418,1000
DA:1835,0
DA:1837,0
DA:1838,0
DA:1851,0
DA:1861,0
DA:1862,0
DA:1865,0
DA:1867,0
DA:1872,0
DA:1851,0
DA:1861,0
DA:1862,0
DA:1865,0
DA:1867,0
DA:1872,0
DA:1851,673
DA:1861,673
DA:1862,673
DA:1865,673
DA:1867,673
DA:1872,673
DA:1851,0
DA:1861,0
DA:1862,0
DA:1865,0
DA:1867,0
DA:1872,0
DA:1851,0
DA:1861,0
DA:1862,0
DA:1865,0
DA:1867,0
DA:1872,0
DA:1851,0
DA:1861,0
DA:1862,0
DA:1865,0
DA:1867,0
DA:1872,0
DA:1851,0
DA:1861,0
DA:1862,0
DA:1865,0
DA:1867,0
DA:1872,0
DA:1851,186
DA:1861,186
DA:1862,186
DA:1865,186
DA:1867,186
DA:1872,186
DA:1851,0
DA:1861,0
DA:1862,0
DA:1865,0
DA:1867,0
DA:1872,0
DA:1851,0
DA:1861,0
DA:1862,0
DA:1865,0
DA:1867,0
DA:1872,0
DA:1851,27
DA:1861,27
DA:1862,27
DA:1865,27
DA:1867,27
DA:1872,27
DA:1851,0
DA:1861,0
DA:1862,0
DA:1865,0
DA:1867,0
DA:1872,0
DA:1851,0
DA:1861,0
DA:1862,0
DA:1865,0
DA:1867,0
DA:1872,0
DA:1851,0
DA:1861,0
DA:1862,0
DA:1865,0
DA:1867,0
DA:1872,0
DA:1851,0
DA:1861,0
DA:1862,0
DA:1865,0
DA:1867,0
DA:1872,0
DA:1851,0
DA:1861,0
DA:1862,0
DA:1865,0
DA:1867,0
DA:1872,0
DA:1851,0
DA:1861,0
DA:1862,0
DA:1865,0
DA:1867,0
DA:1872,0
DA:1851,0
DA:1861,0
DA:1862,0
DA:1865,0
DA:1867,0
DA:1872,0
DA:1851,0
DA:1861,0
DA:1862,0
DA:1865,0
DA:1867,0
DA:1872,0
DA:1851,0
DA:1861,0
DA:1862,0
DA:1865,0
DA:1867,0
DA:1872,0
DA:1851,0
DA:1861,0
DA:1862,0
DA:1865,0
DA:1867,0
DA:1872,0
DA:1851,0
DA:1861,0
DA:1862,0
DA:1865,0
DA:1867,0
DA:1872,0
DA:1851,0
DA:1861,0
DA:1862,0
DA:1865,0
DA:1867,0
DA:1872,0
DA:1851,0
DA:1861,0
DA:1862,0
DA:1865,0
DA:1867,0
DA:1872,0
DA:1851,0
DA:1861,0
DA:1862,0
DA:1865,0
DA:1867,0
DA:1872,0
DA:1851,0
DA:1861,0
DA:1862,0
DA:1865,0
DA:1867,0
DA:1872,0
DA:1851,0
DA:1861,0
DA:1862,0
DA:1865,0
DA:1867,0
DA:1872,0
DA:1851,0
DA:1861,0
DA:1862,0
DA:1865,0
DA:1867,0
DA:1872,0
DA:1851,0
DA:1861,0
DA:1862,0
DA:1865,0
DA:1867,0
DA:1872,0
DA:1851,0
DA:1861,0
DA:1862,0
DA:1865,0
DA:1867,0
DA:1872,0
DA:1851,0
DA:1861,0
DA:1862,0
DA:1865,0
DA:1867,0
DA:1872,0
DA:1851,0
DA:1861,0
DA:1862,0
DA:1865,0
DA:1867,0
DA:1872,0
DA:1851,0
DA:1861,0
DA:1862,0
DA:1865,0
DA:1867,0
DA:1872,0
DA:1851,0
DA:1861,0
DA:1862,0
DA:1865,0
DA:1867,0
DA:1872,0
DA:1851,0
DA:1861,0
DA:1862,0
DA:1865,0
DA:1867,0
DA:1872,0
DA:1867,0
DA:1867,0
DA:1867,32049
DA:1867,0
DA:1867,0
DA:1867,0
DA:1867,0
DA:1867,13608
DA:1867,0
DA:1867,0
DA:1867,2754
DA:1867,0
DA:1867,0
DA:1867,0
DA:1867,0
DA:1867,0
DA:1867,0
DA:1867,0
DA:1867,0
DA:1867,0
DA:1867,0
DA:1867,0
DA:1867,0
DA:1867,0
DA:1867,0
DA:1867,0
DA:1867,0
DA:1867,0
DA:1867,0
DA:1867,0
DA:1867,0
DA:1867,0
DA:1867,0
DA:1867,0
DA:1867,0
DA:1893,0
DA:1898,0
DA:1901,0
DA:1902,0
DA:1903,0
DA:1905,0
DA:1907,0
DA:1893,0
DA:1898,0
DA:1901,0
DA:1902,0
DA:1903,0
DA:1905,0
DA:1907,0
DA:1893,0
DA:1898,0
DA:1901,0
DA:1902,0
DA:1903,0
DA:1905,0
DA:1907,0
DA:1893,49
DA:1898,49
DA:1901,49
DA:1902,49
DA:1903,49
DA:1905,49
DA:1907,49
DA:1893,0
DA:1898,0
DA:1901,0
DA:1902,0
DA:1903,0
DA:1905,0
DA:1907,0
DA:1893,0
DA:1898,0
DA:1901,0
DA:1902,0
DA:1903,0
DA:1905,0
DA:1907,0
DA:1893,63
DA:1898,63
DA:1901,63
DA:1902,63
DA:1903,63
DA:1905,63
DA:1907,63
DA:1893,1
DA:1898,1
DA:1901,1
DA:1902,1
DA:1903,1
DA:1905,1
DA:1907,1
DA:1893,0
DA:1898,0
DA:1901,0
DA:1902,0
DA:1903,0
DA:1905,0
DA:1907,0
DA:1893,0
DA:1898,0
DA:1901,0
DA:1902,0
DA:1903,0
DA:1905,0
DA:1907,0
DA:1893,0
DA:1898,0
DA:1901,0
DA:1902,0
DA:1903,0
DA:1905,0
DA:1907,0
DA:1893,132
DA:1898,132
DA:1901,132
DA:1902,132
DA:1903,132
DA:1905,132
DA:1907,132
DA:1893,0
DA:1898,0
DA:1901,0
DA:1902,0
DA:1903,0
DA:1905,0
DA:1907,0
DA:1893,0
DA:1898,0
DA:1901,0
DA:1902,0
DA:1903,0
DA:1905,0
DA:1907,0
DA:1893,0
DA:1898,0
DA:1901,0
DA:1902,0
DA:1903,0
DA:1905,0
DA:1907,0
DA:1893,0
DA:1898,0
DA:1901,0
DA:1902,0
DA:1903,0
DA:1905,0
DA:1907,0
DA:1893,0
DA:1898,0
DA:1901,0
DA:1902,0
DA:1903,0
DA:1905,0
DA:1907,0
DA:1923,0
DA:1924,0
DA:1926,0
DA:1927,0
DA:1923,0
DA:1924,0
DA:1926,0
DA:1927,0
DA:1923,0
DA:1924,0
DA:1926,0
DA:1927,0
DA:1923,49
DA:1924,49
DA:1926,49
DA:1927,49
DA:1923,0
DA:1924,0
DA:1926,0
DA:1927,0
DA:1923,0
DA:1924,0
DA:1926,0
DA:1927,0
DA:1923,63
DA:1924,63
DA:1926,63
DA:1927,63
DA:1923,1
DA:1924,1
DA:1926,1
DA:1927,1
DA:1923,0
DA:1924,0
DA:1926,0
DA:1927,0
DA:1923,0
DA:1924,0
DA:1926,0
DA:1927,0
DA:1923,0
DA:1924,0
DA:1926,0
DA:1927,0
DA:1923,132
DA:1924,132
DA:1926,132
DA:1927,132
DA:1923,0
DA:1924,0
DA:1926,0
DA:1927,0
DA:1923,0
DA:1924,0
DA:1926,0
DA:1927,0
DA:1923,0
DA:1924,0
DA:1926,0
DA:1927,0
DA:1923,0
DA:1924,0
DA:1926,0
DA:1927,0
DA:1923,0
DA:1924,0
DA:1926,0
DA:1927,0
DA:1930,0
DA:1932,0
DA:1934,0
DA:1937,0
DA:1939,0
DA:1940,0
DA:1941,0
DA:1942,0
DA:1947,0
DA:1930,0
DA:1932,0
DA:1934,0
DA:1937,0
DA:1939,0
DA:1940,0
DA:1941,0
DA:1942,0
DA:1947,0
DA:1930,0
DA:1932,0
DA:1934,0
DA:1937,0
DA:1939,0
DA:1940,0
DA:1941,0
DA:1942,0
DA:1947,0
DA:1930,0
DA:1932,0
DA:1934,0
DA:1937,0
DA:1939,0
DA:1940,0
DA:1941,0
DA:1942,0
DA:1947,0
DA:1930,0
DA:1932,0
DA:1934,0
DA:1937,0
DA:1939,0
DA:1940,0
DA:1941,0
DA:1942,0
DA:1947,0
DA:1930,0
DA:1932,0
DA:1934,0
DA:1937,0
DA:1939,0
DA:1940,0
DA:1941,0
DA:1942,0
DA:1947,0
DA:1930,0
DA:1932,0
DA:1934,0
DA:1937,0
DA:1939,0
DA:1940,0
DA:1941,0
DA:1942,0
DA:1947,0
DA:1930,0
DA:1932,0
DA:1934,0
DA:1937,0
DA:1939,0
DA:1940,0
DA:1941,0
DA:1942,0
DA:1947,0
DA:1930,0
DA:1932,0
DA:1934,0
DA:1937,0
DA:1939,0
DA:1940,0
DA:1941,0
DA:1942,0
DA:1947,0
DA:1930,0
DA:1932,0
DA:1934,0
DA:1937,0
DA:1939,0
DA:1940,0
DA:1941,0
DA:1942,0
DA:1947,0
DA:1930,0
DA:1932,0
DA:1934,0
DA:1937,0
DA:1939,0
DA:1940,0
DA:1941,0
DA:1942,0
DA:1947,0
DA:1930,0
DA:1932,0
DA:1934,0
DA:1937,0
DA:1939,0
DA:1940,0
DA:1941,0
DA:1942,0
DA:1947,0
DA:1930,0
DA:1932,0
DA:1934,0
DA:1937,0
DA:1939,0
DA:1940,0
DA:1941,0
DA:1942,0
DA:1947,0
DA:1930,0
DA:1932,0
DA:1934,0
DA:1937,0
DA:1939,0
DA:1940,0
DA:1941,0
DA:1942,0
DA:1947,0
DA:1930,0
DA:1932,0
DA:1934,0
DA:1937,0
DA:1939,0
DA:1940,0
DA:1941,0
DA:1942,0
DA:1947,0
DA:1930,0
DA:1932,0
DA:1934,0
DA:1937,0
DA:1939,0
DA:1940,0
DA:1941,0
DA:1942,0
DA:1947,0
DA:1930,0
DA:1932,0
DA:1934,0
DA:1937,0
DA:1939,0
DA:1940,0
DA:1941,0
DA:1942,0
DA:1947,0
DA:1994,0
DA:1997,0
DA:1994,0
DA:1997,0
DA:1994,0
DA:1996,0
DA:1997,0
DA:1994,1
DA:1997,1
DA:1994,1
DA:1996,1
DA:1997,1
DA:1994,48
DA:1997,48
DA:1994,63
DA:1996,63
DA:1997,63
DA:1994,0
DA:1997,0
DA:1994,0
DA:1996,0
DA:1997,0
DA:1994,0
DA:1996,0
DA:1997,0
DA:1994,0
DA:1996,0
DA:1997,0
DA:1994,33
DA:1997,33
DA:1994,49
DA:1996,49
DA:1997,49
DA:1994,0
DA:1997,0
DA:1994,0
DA:1996,0
DA:1997,0
DA:1994,0
DA:1997,0
DA:1994,0
DA:1996,0
DA:1997,0
DA:1994,0
DA:1996,0
DA:1997,0
DA:1994,0
DA:1996,0
DA:1997,0
DA:1994,0
DA:1997,0
DA:1994,0
DA:1996,0
DA:1997,0
DA:1994,0
DA:1997,0
DA:1994,0
DA:1996,0
DA:1997,0
DA:1994,0
DA:1997,0
DA:1994,0
DA:1996,0
DA:1997,0
DA:1994,0
DA:1997,0
DA:1994,0
DA:1997,0
DA:1994,0
DA:1997,0
DA:1994,0
DA:1996,0
DA:1997,0
DA:1994,106
DA:1997,106
DA:1994,132
DA:1996,132
DA:1997,132
DA:1994,0
DA:1997,0
DA:1994,0
DA:1996,0
DA:1997,0
DA:1994,0
DA:1997,0
DA:2098,0
DA:2100,0
DA:2105,0
DA:2107,0
DA:2112,0
DA:2114,0
DA:2116,0
DA:2117,0
DA:2119,0
DA:2123,0
DA:2124,0
DA:2126,0
DA:2098,0
DA:2100,0
DA:2105,0
DA:2107,0
DA:2112,0
DA:2114,0
DA:2116,0
DA:2117,0
DA:2119,0
DA:2123,0
DA:2124,0
DA:2126,0
DA:2098,0
DA:2100,0
DA:2105,0
DA:2107,0
DA:2112,0
DA:2114,0
DA:2116,0
DA:2117,0
DA:2119,0
DA:2123,0
DA:2124,0
DA:2126,0
DA:2098,49
DA:2100,49
DA:2105,49
DA:2107,49
DA:2112,49
DA:2114,49
DA:2116,49
DA:2117,16
DA:2119,33
DA:2123,49
DA:2124,49
DA:2126,49
DA:2098,0
DA:2100,0
DA:2105,0
DA:2107,0
DA:2112,0
DA:2114,0
DA:2116,0
DA:2117,0
DA:2119,0
DA:2123,0
DA:2124,0
DA:2126,0
DA:2098,0
DA:2100,0
DA:2105,0
DA:2107,0
DA:2112,0
DA:2114,0
DA:2116,0
DA:2117,0
DA:2119,0
DA:2123,0
DA:2124,0
DA:2126,0
DA:2098,63
DA:2100,63
DA:2105,63
DA:2107,63
DA:2112,63
DA:2114,63
DA:2116,63
DA:2117,15
DA:2119,48
DA:2123,63
DA:2124,63
DA:2126,63
DA:2098,1
DA:2100,1
DA:2105,1
DA:2107,1
DA:2112,1
DA:2114,1
DA:2116,1
DA:2117,0
DA:2119,1
DA:2123,1
DA:2124,1
DA:2126,1
DA:2098,0
DA:2100,0
DA:2105,0
DA:2107,0
DA:2112,0
DA:2114,0
DA:2116,0
DA:2117,0
DA:2119,0
DA:2123,0
DA:2124,0
DA:2126,0
DA:2098,0
DA:2100,0
DA:2105,0
DA:2107,0
DA:2112,0
DA:2114,0
DA:2116,0
DA:2117,0
DA:2119,0
DA:2123,0
DA:2124,0
DA:2126,0
DA:2098,0
DA:2100,0
DA:2105,0
DA:2107,0
DA:2112,0
DA:2114,0
DA:2116,0
DA:2117,0
DA:2119,0
DA:2123,0
DA:2124,0
DA:2126,0
DA:2098,132
DA:2100,132
DA:2105,132
DA:2107,132
DA:2112,132
DA:2114,132
DA:2116,132
DA:2117,26
DA:2119,106
DA:2123,132
DA:2124,132
DA:2126,132
DA:2098,0
DA:2100,0
DA:2105,0
DA:2107,0
DA:2112,0
DA:2114,0
DA:2116,0
DA:2117,0
DA:2119,0
DA:2123,0
DA:2124,0
DA:2126,0
DA:2098,0
DA:2100,0
DA:2105,0
DA:2107,0
DA:2112,0
DA:2114,0
DA:2116,0
DA:2117,0
DA:2119,0
DA:2123,0
DA:2124,0
DA:2126,0
DA:2098,0
DA:2100,0
DA:2105,0
DA:2107,0
DA:2112,0
DA:2114,0
DA:2116,0
DA:2117,0
DA:2119,0
DA:2123,0
DA:2124,0
DA:2126,0
DA:2098,0
DA:2100,0
DA:2105,0
DA:2107,0
DA:2112,0
DA:2114,0
DA:2116,0
DA:2117,0
DA:2119,0
DA:2123,0
DA:2124,0
DA:2126,0
DA:2098,0
DA:2100,0
DA:2105,0
DA:2107,0
DA:2112,0
DA:2114,0
DA:2116,0
DA:2117,0
DA:2119,0
DA:2123,0
DA:2124,0
DA:2126,0
DA:2175,0
DA:2183,0
DA:2185,0
DA:2186,0
DA:2187,0
DA:2188,0
DA:2192,0
DA:2196,0
DA:2175,0
DA:2183,0
DA:2185,0
DA:2186,0
DA:2187,0
DA:2188,0
DA:2192,0
DA:2196,0
DA:2175,0
DA:2183,0
DA:2185,0
DA:2186,0
DA:2187,0
DA:2188,0
DA:2192,0
DA:2196,0
DA:2175,0
DA:2183,0
DA:2185,0
DA:2186,0
DA:2187,0
DA:2188,0
DA:2192,0
DA:2196,0
DA:2175,0
DA:2183,0
DA:2185,0
DA:2186,0
DA:2187,0
DA:2188,0
DA:2192,0
DA:2196,0
DA:2175,0
DA:2183,0
DA:2185,0
DA:2186,0
DA:2187,0
DA:2188,0
DA:2192,0
DA:2196,0
DA:2175,0
DA:2183,0
DA:2185,0
DA:2186,0
DA:2187,0
DA:2188,0
DA:2192,0
DA:2196,0
DA:2175,0
DA:2183,0
DA:2185,0
DA:2186,0
DA:2187,0
DA:2188,0
DA:2192,0
DA:2196,0
DA:2175,0
DA:2183,0
DA:2185,0
DA:2186,0
DA:2187,0
DA:2188,0
DA:2192,0
DA:2196,0
DA:2175,0
DA:2183,0
DA:2185,0
DA:2186,0
DA:2187,0
DA:2188,0
DA:2192,0
DA:2196,0
DA:2175,0
DA:2183,0
DA:2185,0
DA:2186,0
DA:2187,0
DA:2188,0
DA:2192,0
DA:2196,0
DA:2175,0
DA:2183,0
DA:2185,0
DA:2186,0
DA:2187,0
DA:2188,0
DA:2192,0
DA:2196,0
DA:2175,0
DA:2183,0
DA:2185,0
DA:2186,0
DA:2187,0
DA:2188,0
DA:2192,0
DA:2196,0
DA:2175,0
DA:2183,0
DA:2185,0
DA:2186,0
DA:2187,0
DA:2188,0
DA:2192,0
DA:2196,0
DA:2175,0
DA:2183,0
DA:2185,0
DA:2186,0
DA:2187,0
DA:2188,0
DA:2192,0
DA:2196,0
DA:2175,0
DA:2183,0
DA:2185,0
DA:2186,0
DA:2187,0
DA:2188,0
DA:2192,0
DA:2196,0
DA:2175,0
DA:2183,0
DA:2185,0
DA:2186,0
DA:2187,0
DA:2188,0
DA:2192,0
DA:2196,0
DA:2175,0
DA:2183,0
DA:2185,0
DA:2186,0
DA:2187,0
DA:2188,0
DA:2192,0
DA:2196,0
DA:2188,0
DA:2188,0
DA:2188,0
DA:2188,0
DA:2188,0
DA:2188,0
DA:2188,0
DA:2188,0
DA:2188,0
DA:2188,0
DA:2188,0
DA:2188,0
DA:2188,0
DA:2188,0
DA:2188,0
DA:2188,0
DA:2188,0
DA:2188,0
DA:2203,0
DA:2211,0
DA:2213,0
DA:2214,0
DA:2215,0
DA:2216,0
DA:2220,0
DA:2224,0
DA:2203,0
DA:2211,0
DA:2213,0
DA:2214,0
DA:2215,0
DA:2216,0
DA:2220,0
DA:2224,0
DA:2203,0
DA:2211,0
DA:2213,0
DA:2214,0
DA:2215,0
DA:2216,0
DA:2220,0
DA:2224,0
DA:2203,0
DA:2211,0
DA:2213,0
DA:2214,0
DA:2215,0
DA:2216,0
DA:2220,0
DA:2224,0
DA:2203,0
DA:2211,0
DA:2213,0
DA:2214,0
DA:2215,0
DA:2216,0
DA:2220,0
DA:2224,0
DA:2203,0
DA:2211,0
DA:2213,0
DA:2214,0
DA:2215,0
DA:2216,0
DA:2220,0
DA:2224,0
DA:2203,0
DA:2211,0
DA:2213,0
DA:2214,0
DA:2215,0
DA:2216,0
DA:2220,0
DA:2224,0
DA:2203,0
DA:2211,0
DA:2213,0
DA:2214,0
DA:2215,0
DA:2216,0
DA:2220,0
DA:2224,0
DA:2203,0
DA:2211,0
DA:2213,0
DA:2214,0
DA:2215,0
DA:2216,0
DA:2220,0
DA:2224,0
DA:2203,0
DA:2211,0
DA:2213,0
DA:2214,0
DA:2215,0
DA:2216,0
DA:2220,0
DA:2224,0
DA:2203,0
DA:2211,0
DA:2213,0
DA:2214,0
DA:2215,0
DA:2216,0
DA:2220,0
DA:2224,0
DA:2203,0
DA:2211,0
DA:2213,0
DA:2214,0
DA:2215,0
DA:2216,0
DA:2220,0
DA:2224,0
DA:2203,0
DA:2211,0
DA:2213,0
DA:2214,0
DA:2215,0
DA:2216,0
DA:2220,0
DA:2224,0
DA:2203,0
DA:2211,0
DA:2213,0
DA:2214,0
DA:2215,0
DA:2216,0
DA:2220,0
DA:2224,0
DA:2203,0
DA:2211,0
DA:2213,0
DA:2214,0
DA:2215,0
DA:2216,0
DA:2220,0
DA:2224,0
DA:2203,0
DA:2211,0
DA:2213,0
DA:2214,0
DA:2215,0
DA:2216,0
DA:2220,0
DA:2224,0
DA:2203,0
DA:2211,0
DA:2213,0
DA:2214,0
DA:2215,0
DA:2216,0
DA:2220,0
DA:2224,0
DA:2203,0
DA:2211,0
DA:2213,0
DA:2214,0
DA:2215,0
DA:2216,0
DA:2220,0
DA:2224,0
DA:2216,0
DA:2216,0
DA:2216,0
DA:2216,0
DA:2216,0
DA:2216,0
DA:2216,0
DA:2216,0
DA:2216,0
DA:2216,0
DA:2216,0
DA:2216,0
DA:2216,0
DA:2216,0
DA:2216,0
DA:2216,0
DA:2216,0
DA:2216,0
DA:2231,0
DA:2233,0
DA:2234,0
DA:3227,0
DA:3237,0
DA:3238,0
DA:3241,0
DA:3242,0
DA:3247,0
DA:3227,0
DA:3237,0
DA:3238,0
DA:3241,0
DA:3242,0
DA:3247,0
DA:3227,0
DA:3237,0
DA:3238,0
DA:3241,0
DA:3242,0
DA:3247,0
DA:3227,0
DA:3237,0
DA:3238,0
DA:3241,0
DA:3242,0
DA:3247,0
DA:3227,0
DA:3237,0
DA:3238,0
DA:3241,0
DA:3242,0
DA:3247,0
DA:3227,0
DA:3237,0
DA:3238,0
DA:3241,0
DA:3242,0
DA:3247,0
DA:3227,0
DA:3237,0
DA:3238,0
DA:3241,0
DA:3242,0
DA:3247,0
DA:3227,0
DA:3237,0
DA:3238,0
DA:3241,0
DA:3242,0
DA:3247,0
DA:3227,0
DA:3237,0
DA:3238,0
DA:3241,0
DA:3242,0
DA:3247,0
DA:3227,0
DA:3237,0
DA:3238,0
DA:3241,0
DA:3242,0
DA:3247,0
DA:3227,0
DA:3237,0
DA:3238,0
DA:3241,0
DA:3242,0
DA:3247,0
DA:3227,0
DA:3237,0
DA:3238,0
DA:3241,0
DA:3242,0
DA:3247,0
DA:3227,0
DA:3237,0
DA:3238,0
DA:3241,0
DA:3242,0
DA:3247,0
DA:3242,0
DA:3242,0
DA:3242,0
DA:3242,0
DA:3242,0
DA:3242,0
DA:3242,0
DA:3242,0
DA:3242,0
DA:3242,0
DA:3242,0
DA:3242,0
DA:3242,0
DA:3559,0
DA:3562,0
DA:3563,0
DA:3567,0
DA:3559,0
DA:3562,0
DA:3563,0
DA:3567,0
DA:3563,0
DA:3563,0
DA:3616,0
DA:3632,0
DA:3633,0
DA:3634,0
DA:3637,0
end_of_record
SF:/home/brunnels/Research/alamo/ext/amrex/2d-coverage-g++-23.08/include/AMReX_DistributionMapping.H
FN:41,_ZN5amrex19DistributionMappingaSEOS0_
FNDA:0,_ZN5amrex19DistributionMappingaSEOS0_
FN:55,_ZN5amrex19DistributionMappingC2ERKS0_
FNDA:0,_ZN5amrex19DistributionMappingC2ERKS0_
FN:61,_ZN5amrex19DistributionMappingC2EOS0_
FNDA:0,_ZN5amrex19DistributionMappingC2EOS0_
FN:67,_ZN5amrex19DistributionMappingD2Ev
FNDA:0,_ZN5amrex19DistributionMappingD2Ev
FN:363,_ZN5amrex19DistributionMapping5RefIDC2Ev
FNDA:0,_ZN5amrex19DistributionMapping5RefIDC2Ev
FN:364,_ZN5amrex19DistributionMapping5RefIDC2EPNS0_3RefE
FNDA:0,_ZN5amrex19DistributionMapping5RefIDC2EPNS0_3RefE
FN:367,_ZNK5amrex19DistributionMapping5RefIDneERKS1_
FNDA:0,_ZNK5amrex19DistributionMapping5RefIDneERKS1_
FN:376,_ZNK5amrex19DistributionMapping8getRefIDEv
FNDA:0,_ZNK5amrex19DistributionMapping8getRefIDEv
DA:41,0
DA:55,0
DA:61,0
DA:67,0
DA:363,0
DA:364,0
DA:367,0
DA:376,0
end_of_record
SF:/home/brunnels/Research/alamo/ext/amrex/2d-coverage-g++-23.08/include/AMReX_IntVect.H
FN:87,_ZN5amrex7IntVectC2Ev
FNDA:0,_ZN5amrex7IntVectC2Ev
FN:96,_ZN5amrex7IntVectC2Eii
FNDA:0,_ZN5amrex7IntVectC2Eii
FN:100,_ZN5amrex7IntVectC2Ei
FNDA:0,_ZN5amrex7IntVectC2Ei
DA:28,10898
DA:29,0
DA:30,10898
DA:31,0
DA:32,0
DA:87,0
DA:96,0
DA:100,0
DA:134,0
DA:169,77
DA:196,0
DA:200,5031440
DA:222,0
DA:247,0
DA:254,0
DA:309,0
DA:327,0
DA:345,8154
DA:381,0
DA:399,12357
DA:435,0
DA:438,0
DA:444,0
DA:447,0
DA:467,234
DA:476,0
DA:493,38
DA:523,4105
DA:532,0
DA:585,0
DA:588,0
DA:777,0
DA:779,0
end_of_record
SF:/home/brunnels/Research/alamo/src/Integrator/PhaseFieldMicrostructure.H
FN:60,_ZN10Integrator24PhaseFieldMicrostructureIN5Model5Solid6Affine9HexagonalEEC1ERN2IO9ParmParseE
FNDA:0,_ZN10Integrator24PhaseFieldMicrostructureIN5Model5Solid6Affine9HexagonalEEC1ERN2IO9ParmParseE
FN:60,_ZN10Integrator24PhaseFieldMicrostructureIN5Model5Solid6Affine5CubicEEC1ERN2IO9ParmParseE
FNDA:0,_ZN10Integrator24PhaseFieldMicrostructureIN5Model5Solid6Affine5CubicEEC1ERN2IO9ParmParseE
FN:63,_ZN10Integrator24PhaseFieldMicrostructureIN5Model5Solid6Affine9HexagonalEE5ParseERS5_RN2IO9ParmParseE
FNDA:0,_ZN10Integrator24PhaseFieldMicrostructureIN5Model5Solid6Affine9HexagonalEE5ParseERS5_RN2IO9ParmParseE
FN:63,_ZN10Integrator24PhaseFieldMicrostructureIN5Model5Solid6Affine5CubicEE5ParseERS5_RN2IO9ParmParseE
FNDA:0,_ZN10Integrator24PhaseFieldMicrostructureIN5Model5Solid6Affine5CubicEE5ParseERS5_RN2IO9ParmParseE
DA:60,0
DA:61,0
DA:60,0
DA:61,0
DA:63,0
DA:67,0
DA:68,0
DA:69,0
DA:70,0
DA:71,0
DA:72,0
DA:73,0
DA:74,0
DA:75,0
DA:76,0
DA:78,0
DA:79,0
DA:82,0
DA:83,0
DA:84,0
DA:85,0
DA:88,0
DA:91,0
DA:92,0
DA:93,0
DA:96,0
DA:97,0
DA:98,0
DA:99,0
DA:103,0
DA:104,0
DA:106,0
DA:107,0
DA:108,0
DA:109,0
DA:113,0
DA:114,0
DA:115,0
DA:116,0
DA:117,0
DA:118,0
DA:119,0
DA:120,0
DA:121,0
DA:122,0
DA:123,0
DA:124,0
DA:125,0
DA:126,0
DA:129,0
DA:130,0
DA:131,0
DA:132,0
DA:133,0
DA:134,0
DA:136,0
DA:138,0
DA:139,0
DA:140,0
DA:141,0
DA:142,0
DA:145,0
DA:146,0
DA:148,0
DA:149,0
DA:152,0
DA:153,0
DA:155,0
DA:156,0
DA:157,0
DA:158,0
DA:159,0
DA:160,0
DA:161,0
DA:165,0
DA:166,0
DA:168,0
DA:169,0
DA:170,0
DA:171,0
DA:172,0
DA:175,0
DA:63,0
DA:67,0
DA:68,0
DA:69,0
DA:70,0
DA:71,0
DA:72,0
DA:73,0
DA:74,0
DA:75,0
DA:76,0
DA:78,0
DA:79,0
DA:82,0
DA:83,0
DA:84,0
DA:85,0
DA:88,0
DA:91,0
DA:92,0
DA:93,0
DA:96,0
DA:97,0
DA:98,0
DA:99,0
DA:103,0
DA:104,0
DA:106,0
DA:107,0
DA:108,0
DA:109,0
DA:113,0
DA:114,0
DA:115,0
DA:116,0
DA:117,0
DA:118,0
DA:119,0
DA:120,0
DA:121,0
DA:122,0
DA:123,0
DA:124,0
DA:125,0
DA:126,0
DA:129,0
DA:130,0
DA:131,0
DA:132,0
DA:133,0
DA:134,0
DA:136,0
DA:138,0
DA:139,0
DA:140,0
DA:141,0
DA:142,0
DA:145,0
DA:146,0
DA:148,0
DA:149,0
DA:152,0
DA:153,0
DA:155,0
DA:156,0
DA:157,0
DA:158,0
DA:159,0
DA:160,0
DA:161,0
DA:165,0
DA:166,0
DA:168,0
DA:169,0
DA:170,0
DA:171,0
DA:172,0
DA:175,0
end_of_record
SF:/home/brunnels/Research/alamo/src/Model/Solid/Affine/J2.H
FN:50,_ZN5Model5Solid6Affine2J2C2Ev
FNDA:28953,_ZN5Model5Solid6Affine2J2C2Ev
FN:52,_ZN5Model5Solid6Affine2J27AdvanceEdN5Eigen6MatrixIdLi2ELi2ELi0ELi2ELi2EEES5_
FNDA:6382,_ZN5Model5Solid6Affine2J27AdvanceEdN5Eigen6MatrixIdLi2ELi2ELi0ELi2ELi2EEES5_
FN:64,_ZN5Model5Solid6Affine2J24ZeroEv
FNDA:442,_ZN5Model5Solid6Affine2J24ZeroEv
FN:74,_ZN5Model5Solid6Affine2J25ParseERS2_RN2IO9ParmParseE
FNDA:1,_ZN5Model5Solid6Affine2J25ParseERS2_RN2IO9ParmParseE
FN:92,_ZNK3Set5FieldIN5Model5Solid6Affine2J2EE5NCompEv
FNDA:17,_ZNK3Set5FieldIN5Model5Solid6Affine2J2EE5NCompEv
FN:98,_ZNK3Set5FieldIN5Model5Solid6Affine2J2EE4NameB5cxx11Ei
FNDA:8,_ZNK3Set5FieldIN5Model5Solid6Affine2J2EE4NameB5cxx11Ei
FN:113,_ZNK3Set5FieldIN5Model5Solid6Affine2J2EE4CopyEiRN5amrex8MultiFabEii
FNDA:5,_ZNK3Set5FieldIN5Model5Solid6Affine2J2EE4CopyEiRN5amrex8MultiFabEii
FN:124,_ZZNK3Set5FieldIN5Model5Solid6Affine2J2EE4CopyEiRN5amrex8MultiFabEiiENKUliiiE_clEiii
FNDA:8840,_ZZNK3Set5FieldIN5Model5Solid6Affine2J2EE4CopyEiRN5amrex8MultiFabEiiENKUliiiE_clEiii
DA:50,28953
DA:52,6382
DA:54,6382
DA:55,6382
DA:56,6382
DA:57,6382
DA:58,131
DA:59,262
DA:64,442
DA:66,442
DA:67,442
DA:68,442
DA:69,442
DA:70,442
DA:74,1
DA:76,1
DA:78,1
DA:79,1
DA:92,17
DA:94,17
DA:98,8
DA:100,8
DA:101,6
DA:102,4
DA:103,2
DA:104,0
DA:105,0
DA:106,0
DA:107,0
DA:108,0
DA:109,0
DA:113,5
DA:115,23
DA:117,18
DA:118,18
DA:120,18
DA:121,18
DA:122,90
DA:124,72
DA:125,17680
DA:126,8840
DA:130,5
end_of_record
SF:/home/brunnels/Research/alamo/ext/amrex/2d-coverage-g++-23.08/include/AMReX_ParallelContext.H
FN:27,_ZNK5amrex15ParallelContext5Frame6MyProcEv
FNDA:0,_ZNK5amrex15ParallelContext5Frame6MyProcEv
FN:28,_ZNK5amrex15ParallelContext5Frame6NProcsEv
FNDA:0,_ZNK5amrex15ParallelContext5Frame6NProcsEv
FN:29,_ZNK5amrex15ParallelContext5Frame6IOProcEv
FNDA:0,_ZNK5amrex15ParallelContext5Frame6IOProcEv
FN:61,_ZN5amrex15ParallelContext9MyProcAllEv
FNDA:0,_ZN5amrex15ParallelContext9MyProcAllEv
FN:70,_ZN5amrex15ParallelContext15CommunicatorSubEv
FNDA:0,_ZN5amrex15ParallelContext15CommunicatorSubEv
FN:74,_ZN5amrex15ParallelContext9NProcsSubEv
FNDA:0,_ZN5amrex15ParallelContext9NProcsSubEv
FN:76,_ZN5amrex15ParallelContext9MyProcSubEv
FNDA:0,_ZN5amrex15ParallelContext9MyProcSubEv
FN:78,_ZN5amrex15ParallelContext20IOProcessorNumberSubEv
FNDA:0,_ZN5amrex15ParallelContext20IOProcessorNumberSubEv
FN:82,_ZN5amrex15ParallelContext9OFSPtrSubEv
FNDA:0,_ZN5amrex15ParallelContext9OFSPtrSubEv
FN:93,_ZN5amrex15ParallelContext15get_inc_mpi_tagEv
FNDA:0,_ZN5amrex15ParallelContext15get_inc_mpi_tagEv
FN:98,_ZN5amrex15ParallelContext20global_to_local_rankEi
FNDA:0,_ZN5amrex15ParallelContext20global_to_local_rankEi
DA:27,0
DA:28,0
DA:29,0
DA:61,0
DA:70,0
DA:74,0
DA:76,0
DA:78,0
DA:82,0
DA:93,0
DA:98,0
end_of_record
SF:/home/brunnels/Research/alamo/src/IC/Constant.H
FN:24,_ZN2IC8ConstantC2ERN5amrex6VectorINS1_8GeometryESaIS3_EEERN2IO9ParmParseENSt7__cxx1112basic_stringIcSt11char_traitsIcESaIcEEE
FNDA:0,_ZN2IC8ConstantC2ERN5amrex6VectorINS1_8GeometryESaIS3_EEERN2IO9ParmParseENSt7__cxx1112basic_stringIcSt11char_traitsIcESaIcEEE
FN:30,_ZN2IC8ConstantD0Ev
FNDA:0,_ZN2IC8ConstantD0Ev
FN:30,_ZN2IC8ConstantD2Ev
FNDA:0,_ZN2IC8ConstantD2Ev
FN:31,_ZN2IC8Constant3AddERKiRN3Set5FieldIdEEd
FNDA:0,_ZN2IC8Constant3AddERKiRN3Set5FieldIdEEd
FN:39,_ZZN2IC8Constant3AddERKiRN3Set5FieldIdEEdENKUliiiE_clEiii
FNDA:0,_ZZN2IC8Constant3AddERKiRN3Set5FieldIdEEdENKUliiiE_clEiii
FN:44,_ZN2IC8Constant5ParseERS0_RN2IO9ParmParseE
FNDA:0,_ZN2IC8Constant5ParseERS0_RN2IO9ParmParseE
DA:24,0
DA:25,0
DA:30,0
DA:30,0
DA:31,0
DA:33,0
DA:34,0
DA:36,0
DA:37,0
DA:38,0
DA:39,0
DA:40,0
DA:41,0
DA:43,0
DA:44,0
DA:47,0
DA:48,0
DA:49,0
DA:50,0
end_of_record
SF:/home/brunnels/Research/alamo/ext/amrex/2d-coverage-g++-23.08/include/AMReX_MultiFab.H
FN:37,_ZN5amrex8MultiFabaSEOS0_
FNDA:0,_ZN5amrex8MultiFabaSEOS0_
DA:37,0
end_of_record
SF:/home/brunnels/Research/alamo/src/Numeric/Stencil.H
DA:24,1234330
DA:33,1234330
DA:53,2915190
DA:54,130281
DA:56,2871760
DA:57,123081
DA:60,8492200
DA:73,2915190
DA:74,154329
DA:76,2863750
DA:77,147129
DA:80,8444110
DA:117,20021000
DA:118,80084200
DA:120,0
DA:133,20021000
DA:134,80084200
DA:136,0
DA:226,0
DA:227,0
DA:238,0
DA:239,0
DA:367,0
DA:368,0
DA:369,0
DA:370,0
DA:371,0
DA:372,0
DA:470,20021000
DA:471,20021000
DA:473,20021000
DA:478,20021000
DA:505,398420
DA:507,398420
DA:509,1876640
DA:513,23092
DA:515,51730
DA:519,12746
DA:521,63730
DA:527,398420
DA:529,1850080
DA:533,28404
DA:535,65010
DA:539,15402
DA:541,77010
DA:566,398420
DA:577,2256650
DA:578,2256650
DA:580,2256650
DA:585,2256650
DA:594,59353
DA:598,296765
DA:599,296765
DA:605,59353
DA:640,0
DA:641,0
DA:643,0
DA:644,0
DA:645,0
DA:654,0
DA:664,568924
DA:667,1137850
DA:670,1137850
DA:676,568924
DA:706,89613
DA:709,268839
DA:712,268839
DA:718,89613
DA:896,0
DA:901,0
DA:902,0
DA:910,0
DA:1125,59353
DA:1130,237412
DA:1136,59353
DA:1162,136064
DA:1168,34016
end_of_record
SF:/home/brunnels/Research/alamo/src/IC/Notch.H
FN:20,_ZN2IC5NotchC2ERN5amrex6VectorINS1_8GeometryESaIS3_EEE
FNDA:0,_ZN2IC5NotchC2ERN5amrex6VectorINS1_8GeometryESaIS3_EEE
FN:30,_ZN2IC5Notch3AddERKiRN3Set5FieldIdEEd
FNDA:0,_ZN2IC5Notch3AddERKiRN3Set5FieldIdEEd
FN:42,_ZZN2IC5Notch3AddERKiRN3Set5FieldIdEEdENKUliiiE_clEiii
FNDA:0,_ZZN2IC5Notch3AddERKiRN3Set5FieldIdEEdENKUliiiE_clEiii
FN:272,_ZN2IC5Notch5ParseERS0_RN2IO9ParmParseE
FNDA:0,_ZN2IC5Notch5ParseERS0_RN2IO9ParmParseE
DA:20,0
DA:22,0
DA:23,0
DA:24,0
DA:25,0
DA:26,0
DA:27,0
DA:28,0
DA:30,0
DA:32,0
DA:33,0
DA:35,0
DA:38,0
DA:39,0
DA:40,0
DA:41,0
DA:42,0
DA:44,0
DA:46,0
DA:48,0
DA:52,0
DA:54,0
DA:59,0
DA:61,0
DA:63,0
DA:64,0
DA:66,0
DA:67,0
DA:68,0
DA:70,0
DA:72,0
DA:73,0
DA:75,0
DA:77,0
DA:78,0
DA:79,0
DA:84,0
DA:85,0
DA:86,0
DA:87,0
DA:88,0
DA:90,0
DA:91,0
DA:94,0
DA:95,0
DA:96,0
DA:97,0
DA:98,0
DA:100,0
DA:101,0
DA:104,0
DA:106,0
DA:107,0
DA:109,0
DA:111,0
DA:113,0
DA:114,0
DA:116,0
DA:118,0
DA:119,0
DA:121,0
DA:123,0
DA:125,0
DA:126,0
DA:128,0
DA:130,0
DA:131,0
DA:132,0
DA:134,0
DA:136,0
DA:137,0
DA:138,0
DA:139,0
DA:143,0
DA:144,0
DA:145,0
DA:146,0
DA:152,0
DA:154,0
DA:155,0
DA:156,0
DA:161,0
DA:163,0
DA:164,0
DA:165,0
DA:166,0
DA:170,0
DA:171,0
DA:172,0
DA:173,0
DA:179,0
DA:181,0
DA:182,0
DA:184,0
DA:186,0
DA:188,0
DA:189,0
DA:191,0
DA:193,0
DA:194,0
DA:196,0
DA:198,0
DA:199,0
DA:200,0
DA:202,0
DA:204,0
DA:205,0
DA:206,0
DA:208,0
DA:210,0
DA:211,0
DA:212,0
DA:213,0
DA:217,0
DA:218,0
DA:219,0
DA:220,0
DA:226,0
DA:228,0
DA:229,0
DA:230,0
DA:235,0
DA:237,0
DA:238,0
DA:239,0
DA:240,0
DA:244,0
DA:245,0
DA:246,0
DA:247,0
DA:254,0
DA:256,0
DA:258,0
DA:259,0
DA:260,0
DA:262,0
DA:263,0
DA:272,0
DA:274,0
DA:275,0
DA:276,0
DA:277,0
DA:278,0
DA:279,0
DA:281,0
DA:282,0
DA:284,0
DA:286,0
DA:287,0
DA:291,0
DA:293,0
DA:294,0
DA:296,0
DA:298,0
DA:299,0
DA:303,0
DA:305,0
DA:306,0
DA:308,0
DA:309,0
DA:310,0
DA:311,0
DA:313,0
DA:315,0
DA:316,0
DA:318,0
DA:321,0
DA:322,0
DA:325,0
DA:326,0
DA:327,0
DA:329,0
DA:331,0
DA:332,0
DA:333,0
DA:335,0
DA:338,0
DA:340,0
DA:341,0
DA:345,0
DA:347,0
DA:348,0
DA:349,0
DA:350,0
DA:351,0
DA:353,0
DA:354,0
DA:355,0
DA:357,0
DA:359,0
DA:360,0
DA:361,0
DA:363,0
DA:364,0
DA:366,0
DA:368,0
DA:369,0
DA:371,0
DA:373,0
DA:375,0
DA:377,0
DA:378,0
DA:380,0
DA:381,0
DA:382,0
DA:384,0
DA:386,0
DA:387,0
DA:388,0
DA:392,0
end_of_record
SF:/home/brunnels/Research/alamo/src/Set/Matrix4_Diagonal.H
FN:14,_ZN3Set7Matrix4ILi2ELi4EEC2Ev
FNDA:0,_ZN3Set7Matrix4ILi2ELi4EEC2Ev
FN:15,_ZN3Set7Matrix4ILi2ELi4EEC2EN5Eigen6MatrixIdLi2ELi2ELi0ELi2ELi2EEE
FNDA:4109,_ZN3Set7Matrix4ILi2ELi4EEC2EN5Eigen6MatrixIdLi2ELi2ELi0ELi2ELi2EEE
FN:30,_ZN3Set7Matrix4ILi2ELi4EE4ZeroEv
FNDA:1371,_ZN3Set7Matrix4ILi2ELi4EE4ZeroEv
FN:46,_ZN3Set7Matrix4ILi2ELi4EEpLERKS1_
FNDA:0,_ZN3Set7Matrix4ILi2ELi4EEpLERKS1_
DA:14,0
DA:15,4109
DA:30,1371
DA:32,1371
DA:33,1371
DA:34,1371
DA:46,0
DA:67,2178
DA:69,6534
DA:71,13068
DA:73,8712
DA:77,2178
DA:101,0
DA:102,0
DA:103,0
DA:109,0
DA:110,0
DA:111,0
DA:117,1369
DA:118,1369
DA:119,1369
end_of_record
SF:/home/brunnels/Research/alamo/ext/amrex/2d-coverage-g++-23.08/include/AMReX_AmrMesh.H
FN:84,_ZNK5amrex7AmrMesh8maxLevelEv
FNDA:0,_ZNK5amrex7AmrMesh8maxLevelEv
FN:96,_ZNK5amrex7AmrMesh8refRatioEv
FNDA:0,_ZNK5amrex7AmrMesh8refRatioEv
FN:106,_ZNK5amrex7AmrMesh4GeomEii
FNDA:0,_ZNK5amrex7AmrMesh4GeomEii
FN:122,_ZNK5amrex7AmrMesh15DistributionMapEii
FNDA:0,_ZNK5amrex7AmrMesh15DistributionMapEii
FN:242,_ZN5amrex7AmrMesh19ManualTagsPlacementEiRNS_11TagBoxArrayERKNS_6VectorINS_7IntVectESaIS4_EEE
FNDA:0,_ZN5amrex7AmrMesh19ManualTagsPlacementEiRNS_11TagBoxArrayERKNS_6VectorINS_7IntVectESaIS4_EEE
FN:250,_ZNK5amrex7AmrMesh20PostProcessBaseGridsERNS_8BoxArrayE
FNDA:0,_ZNK5amrex7AmrMesh20PostProcessBaseGridsERNS_8BoxArrayE
FN:252,_ZN5amrex7AmrMesh15GetAreaNotToTagEi
FNDA:0,_ZN5amrex7AmrMesh15GetAreaNotToTagEi
DA:84,0
DA:96,0
DA:106,0
DA:107,0
DA:108,0
DA:109,0
DA:110,0
DA:112,0
DA:122,0
DA:123,0
DA:124,0
DA:125,0
DA:126,0
DA:128,0
DA:242,0
DA:250,0
DA:252,0
end_of_record
SF:/home/brunnels/Research/alamo/src/IC/Voronoi.H
FN:16,_ZN2IC7VoronoiC2ERN5amrex6VectorINS1_8GeometryESaIS3_EEERN2IO9ParmParseENSt7__cxx1112basic_stringIcSt11char_traitsIcESaIcEEE
FNDA:0,_ZN2IC7VoronoiC2ERN5amrex6VectorINS1_8GeometryESaIS3_EEERN2IO9ParmParseENSt7__cxx1112basic_stringIcSt11char_traitsIcESaIcEEE
FN:27,_ZN2IC7Voronoi6DefineEid
FNDA:0,_ZN2IC7Voronoi6DefineEid
FN:32,_ZN2IC7Voronoi6DefineEiSt6vectorIdSaIdEENS0_4TypeE
FNDA:0,_ZN2IC7Voronoi6DefineEiSt6vectorIdSaIdEENS0_4TypeE
FN:50,_ZN2IC7Voronoi3AddERKiRN3Set5FieldIdEEd
FNDA:0,_ZN2IC7Voronoi3AddERKiRN3Set5FieldIdEEd
FN:63,_ZZN2IC7Voronoi3AddERKiRN3Set5FieldIdEEdENKUliiiE_clEiii
FNDA:0,_ZZN2IC7Voronoi3AddERKiRN3Set5FieldIdEEdENKUliiiE_clEiii
FN:112,_ZN2IC7Voronoi5ParseERS0_RN2IO9ParmParseE
FNDA:0,_ZN2IC7Voronoi5ParseERS0_RN2IO9ParmParseE
DA:16,0
DA:17,0
DA:27,0
DA:29,0
DA:30,0
DA:32,0
DA:36,0
DA:37,0
DA:38,0
DA:40,0
DA:41,0
DA:42,0
DA:44,0
DA:48,0
DA:50,0
DA:52,0
DA:53,0
DA:57,0
DA:59,0
DA:60,0
DA:61,0
DA:62,0
DA:63,0
DA:65,0
DA:66,0
DA:70,0
DA:71,0
DA:73,0
DA:75,0
DA:77,0
DA:79,0
DA:80,0
DA:81,0
DA:84,0
DA:86,0
DA:87,0
DA:88,0
DA:99,0
DA:101,0
DA:102,0
DA:106,0
DA:107,0
DA:108,0
DA:110,0
DA:112,0
DA:114,0
DA:115,0
DA:117,0
DA:118,0
DA:122,0
DA:124,0
DA:125,0
end_of_record
SF:/home/brunnels/Research/alamo/src/Integrator/BaseField.H
FN:51,_ZN10Integrator5FieldIN5Eigen6MatrixIdLi2ELi1ELi0ELi2ELi1EEEE7EmptyBCclERN5amrex8FabArrayINS6_7BaseFabIS3_EEEEiiRKNS6_7IntVectEdi
FNDA:0,_ZN10Integrator5FieldIN5Eigen6MatrixIdLi2ELi1ELi0ELi2ELi1EEEE7EmptyBCclERN5amrex8FabArrayINS6_7BaseFabIS3_EEEEiiRKNS6_7IntVectEdi
FN:51,_ZN10Integrator5FieldIN5Model5Solid6Linear19IsotropicDegradableEE7EmptyBCclERN5amrex8FabArrayINS7_7BaseFabIS4_EEEEiiRKNS7_7IntVectEdi
FNDA:0,_ZN10Integrator5FieldIN5Model5Solid6Linear19IsotropicDegradableEE7EmptyBCclERN5amrex8FabArrayINS7_7BaseFabIS4_EEEEiiRKNS7_7IntVectEdi
FN:51,_ZN10Integrator5FieldIN5Model5Solid6Affine2J2EE7EmptyBCclERN5amrex8FabArrayINS7_7BaseFabIS4_EEEEiiRKNS7_7IntVectEdi
FNDA:6,_ZN10Integrator5FieldIN5Model5Solid6Affine2J2EE7EmptyBCclERN5amrex8FabArrayINS7_7BaseFabIS4_EEEEiiRKNS7_7IntVectEdi
FN:51,_ZN10Integrator5FieldIN5Model5Solid7Elastic28PseudoLinearCubicPredeformedEE7EmptyBCclERN5amrex8FabArrayINS7_7BaseFabIS4_EEEEiiRKNS7_7IntVectEdi
FNDA:0,_ZN10Integrator5FieldIN5Model5Solid7Elastic28PseudoLinearCubicPredeformedEE7EmptyBCclERN5amrex8FabArrayINS7_7BaseFabIS4_EEEEiiRKNS7_7IntVectEdi
FN:51,_ZN10Integrator5FieldIN5Model5Solid7Elastic17PseudoLinearCubicEE7EmptyBCclERN5amrex8FabArrayINS7_7BaseFabIS4_EEEEiiRKNS7_7IntVectEdi
FNDA:0,_ZN10Integrator5FieldIN5Model5Solid7Elastic17PseudoLinearCubicEE7EmptyBCclERN5amrex8FabArrayINS7_7BaseFabIS4_EEEEiiRKNS7_7IntVectEdi
FN:51,_ZN10Integrator5FieldIN5Model5Solid7Elastic10NeoHookeanEE7EmptyBCclERN5amrex8FabArrayINS7_7BaseFabIS4_EEEEiiRKNS7_7IntVectEdi
FNDA:2,_ZN10Integrator5FieldIN5Model5Solid7Elastic10NeoHookeanEE7EmptyBCclERN5amrex8FabArrayINS7_7BaseFabIS4_EEEEiiRKNS7_7IntVectEdi
FN:51,_ZN10Integrator5FieldIN5Model5Solid6Linear9LaplacianEE7EmptyBCclERN5amrex8FabArrayINS7_7BaseFabIS4_EEEEiiRKNS7_7IntVectEdi
FNDA:0,_ZN10Integrator5FieldIN5Model5Solid6Linear9LaplacianEE7EmptyBCclERN5amrex8FabArrayINS7_7BaseFabIS4_EEEEiiRKNS7_7IntVectEdi
FN:51,_ZN10Integrator5FieldIN5Model5Solid6Affine9HexagonalEE7EmptyBCclERN5amrex8FabArrayINS7_7BaseFabIS4_EEEEiiRKNS7_7IntVectEdi
FNDA:0,_ZN10Integrator5FieldIN5Model5Solid6Affine9HexagonalEE7EmptyBCclERN5amrex8FabArrayINS7_7BaseFabIS4_EEEEiiRKNS7_7IntVectEdi
FN:51,_ZN10Integrator5FieldIN5Model5Solid6Affine5CubicEE7EmptyBCclERN5amrex8FabArrayINS7_7BaseFabIS4_EEEEiiRKNS7_7IntVectEdi
FNDA:0,_ZN10Integrator5FieldIN5Model5Solid6Affine5CubicEE7EmptyBCclERN5amrex8FabArrayINS7_7BaseFabIS4_EEEEiiRKNS7_7IntVectEdi
FN:51,_ZN10Integrator5FieldIN5Model5Solid6Linear5CubicEE7EmptyBCclERN5amrex8FabArrayINS7_7BaseFabIS4_EEEEiiRKNS7_7IntVectEdi
FNDA:0,_ZN10Integrator5FieldIN5Model5Solid6Linear5CubicEE7EmptyBCclERN5amrex8FabArrayINS7_7BaseFabIS4_EEEEiiRKNS7_7IntVectEdi
FN:51,_ZN10Integrator5FieldIN5Model5Solid6Linear9IsotropicEE7EmptyBCclERN5amrex8FabArrayINS7_7BaseFabIS4_EEEEiiRKNS7_7IntVectEdi
FNDA:4,_ZN10Integrator5FieldIN5Model5Solid6Linear9IsotropicEE7EmptyBCclERN5amrex8FabArrayINS7_7BaseFabIS4_EEEEiiRKNS7_7IntVectEdi
FN:51,_ZN10Integrator5FieldIN5Model5Solid6Affine9IsotropicEE7EmptyBCclERN5amrex8FabArrayINS7_7BaseFabIS4_EEEEiiRKNS7_7IntVectEdi
FNDA:0,_ZN10Integrator5FieldIN5Model5Solid6Affine9IsotropicEE7EmptyBCclERN5amrex8FabArrayINS7_7BaseFabIS4_EEEEiiRKNS7_7IntVectEdi
FN:51,_ZN10Integrator5FieldIN5Eigen6MatrixIdLi2ELi2ELi0ELi2ELi2EEEE7EmptyBCclERN5amrex8FabArrayINS6_7BaseFabIS3_EEEEiiRKNS6_7IntVectEdi
FNDA:0,_ZN10Integrator5FieldIN5Eigen6MatrixIdLi2ELi2ELi0ELi2ELi2EEEE7EmptyBCclERN5amrex8FabArrayINS6_7BaseFabIS3_EEEEiiRKNS6_7IntVectEdi
FN:55,_ZN10Integrator5FieldIN5Model5Solid6Affine5CubicEE7EmptyBC8GetBCRecEv
FNDA:0,_ZN10Integrator5FieldIN5Model5Solid6Affine5CubicEE7EmptyBC8GetBCRecEv
FN:55,_ZN10Integrator5FieldIN5Model5Solid6Affine2J2EE7EmptyBC8GetBCRecEv
FNDA:3,_ZN10Integrator5FieldIN5Model5Solid6Affine2J2EE7EmptyBC8GetBCRecEv
FN:55,_ZN10Integrator5FieldIN5Model5Solid7Elastic28PseudoLinearCubicPredeformedEE7EmptyBC8GetBCRecEv
FNDA:0,_ZN10Integrator5FieldIN5Model5Solid7Elastic28PseudoLinearCubicPredeformedEE7EmptyBC8GetBCRecEv
FN:55,_ZN10Integrator5FieldIN5Model5Solid7Elastic17PseudoLinearCubicEE7EmptyBC8GetBCRecEv
FNDA:0,_ZN10Integrator5FieldIN5Model5Solid7Elastic17PseudoLinearCubicEE7EmptyBC8GetBCRecEv
FN:55,_ZN10Integrator5FieldIN5Model5Solid7Elastic10NeoHookeanEE7EmptyBC8GetBCRecEv
FNDA:1,_ZN10Integrator5FieldIN5Model5Solid7Elastic10NeoHookeanEE7EmptyBC8GetBCRecEv
FN:55,_ZN10Integrator5FieldIN5Model5Solid6Linear9LaplacianEE7EmptyBC8GetBCRecEv
FNDA:0,_ZN10Integrator5FieldIN5Model5Solid6Linear9LaplacianEE7EmptyBC8GetBCRecEv
FN:55,_ZN10Integrator5FieldIN5Model5Solid6Affine9HexagonalEE7EmptyBC8GetBCRecEv
FNDA:0,_ZN10Integrator5FieldIN5Model5Solid6Affine9HexagonalEE7EmptyBC8GetBCRecEv
FN:55,_ZN10Integrator5FieldIN5Model5Solid6Linear5CubicEE7EmptyBC8GetBCRecEv
FNDA:0,_ZN10Integrator5FieldIN5Model5Solid6Linear5CubicEE7EmptyBC8GetBCRecEv
FN:55,_ZN10Integrator5FieldIN5Model5Solid6Linear9IsotropicEE7EmptyBC8GetBCRecEv
FNDA:2,_ZN10Integrator5FieldIN5Model5Solid6Linear9IsotropicEE7EmptyBC8GetBCRecEv
FN:55,_ZN10Integrator5FieldIN5Model5Solid6Affine9IsotropicEE7EmptyBC8GetBCRecEv
FNDA:0,_ZN10Integrator5FieldIN5Model5Solid6Affine9IsotropicEE7EmptyBC8GetBCRecEv
FN:55,_ZN10Integrator5FieldIN5Eigen6MatrixIdLi2ELi2ELi0ELi2ELi2EEEE7EmptyBC8GetBCRecEv
FNDA:0,_ZN10Integrator5FieldIN5Eigen6MatrixIdLi2ELi2ELi0ELi2ELi2EEEE7EmptyBC8GetBCRecEv
FN:55,_ZN10Integrator5FieldIN5Eigen6MatrixIdLi2ELi1ELi0ELi2ELi1EEEE7EmptyBC8GetBCRecEv
FNDA:0,_ZN10Integrator5FieldIN5Eigen6MatrixIdLi2ELi1ELi0ELi2ELi1EEEE7EmptyBC8GetBCRecEv
FN:55,_ZN10Integrator5FieldIN5Model5Solid6Linear19IsotropicDegradableEE7EmptyBC8GetBCRecEv
FNDA:0,_ZN10Integrator5FieldIN5Model5Solid6Linear19IsotropicDegradableEE7EmptyBC8GetBCRecEv
FN:58,_ZN10Integrator5FieldIN5Model5Solid6Affine2J2EEC2ERN3Set5FieldIS4_EERKN5amrex6VectorINSA_8GeometryESaISC_EEERKNSB_INSA_7IntVectESaISH_EEEii
FNDA:1,_ZN10Integrator5FieldIN5Model5Solid6Affine2J2EEC2ERN3Set5FieldIS4_EERKN5amrex6VectorINSA_8GeometryESaISC_EEERKNSB_INSA_7IntVectESaISH_EEEii
FN:58,_ZN10Integrator5FieldIN5Model5Solid6Linear19IsotropicDegradableEEC2ERN3Set5FieldIS4_EERKN5amrex6VectorINSA_8GeometryESaISC_EEERKNSB_INSA_7IntVectESaISH_EEEii
FNDA:0,_ZN10Integrator5FieldIN5Model5Solid6Linear19IsotropicDegradableEEC2ERN3Set5FieldIS4_EERKN5amrex6VectorINSA_8GeometryESaISC_EEERKNSB_INSA_7IntVectESaISH_EEEii
FN:58,_ZN10Integrator5FieldIN5Model5Solid7Elastic28PseudoLinearCubicPredeformedEEC2ERN3Set5FieldIS4_EERKN5amrex6VectorINSA_8GeometryESaISC_EEERKNSB_INSA_7IntVectESaISH_EEEii
FNDA:0,_ZN10Integrator5FieldIN5Model5Solid7Elastic28PseudoLinearCubicPredeformedEEC2ERN3Set5FieldIS4_EERKN5amrex6VectorINSA_8GeometryESaISC_EEERKNSB_INSA_7IntVectESaISH_EEEii
FN:58,_ZN10Integrator5FieldIN5Model5Solid7Elastic17PseudoLinearCubicEEC2ERN3Set5FieldIS4_EERKN5amrex6VectorINSA_8GeometryESaISC_EEERKNSB_INSA_7IntVectESaISH_EEEii
FNDA:0,_ZN10Integrator5FieldIN5Model5Solid7Elastic17PseudoLinearCubicEEC2ERN3Set5FieldIS4_EERKN5amrex6VectorINSA_8GeometryESaISC_EEERKNSB_INSA_7IntVectESaISH_EEEii
FN:58,_ZN10Integrator5FieldIN5Model5Solid7Elastic10NeoHookeanEEC2ERN3Set5FieldIS4_EERKN5amrex6VectorINSA_8GeometryESaISC_EEERKNSB_INSA_7IntVectESaISH_EEEii
FNDA:3,_ZN10Integrator5FieldIN5Model5Solid7Elastic10NeoHookeanEEC2ERN3Set5FieldIS4_EERKN5amrex6VectorINSA_8GeometryESaISC_EEERKNSB_INSA_7IntVectESaISH_EEEii
FN:58,_ZN10Integrator5FieldIN5Model5Solid6Linear9LaplacianEEC2ERN3Set5FieldIS4_EERKN5amrex6VectorINSA_8GeometryESaISC_EEERKNSB_INSA_7IntVectESaISH_EEEii
FNDA:1,_ZN10Integrator5FieldIN5Model5Solid6Linear9LaplacianEEC2ERN3Set5FieldIS4_EERKN5amrex6VectorINSA_8GeometryESaISC_EEERKNSB_INSA_7IntVectESaISH_EEEii
FN:58,_ZN10Integrator5FieldIN5Model5Solid6Affine9HexagonalEEC2ERN3Set5FieldIS4_EERKN5amrex6VectorINSA_8GeometryESaISC_EEERKNSB_INSA_7IntVectESaISH_EEEii
FNDA:0,_ZN10Integrator5FieldIN5Model5Solid6Affine9HexagonalEEC2ERN3Set5FieldIS4_EERKN5amrex6VectorINSA_8GeometryESaISC_EEERKNSB_INSA_7IntVectESaISH_EEEii
FN:58,_ZN10Integrator5FieldIN5Model5Solid6Affine5CubicEEC2ERN3Set5FieldIS4_EERKN5amrex6VectorINSA_8GeometryESaISC_EEERKNSB_INSA_7IntVectESaISH_EEEii
FNDA:0,_ZN10Integrator5FieldIN5Model5Solid6Affine5CubicEEC2ERN3Set5FieldIS4_EERKN5amrex6VectorINSA_8GeometryESaISC_EEERKNSB_INSA_7IntVectESaISH_EEEii
FN:58,_ZN10Integrator5FieldIN5Model5Solid6Linear5CubicEEC2ERN3Set5FieldIS4_EERKN5amrex6VectorINSA_8GeometryESaISC_EEERKNSB_INSA_7IntVectESaISH_EEEii
FNDA:0,_ZN10Integrator5FieldIN5Model5Solid6Linear5CubicEEC2ERN3Set5FieldIS4_EERKN5amrex6VectorINSA_8GeometryESaISC_EEERKNSB_INSA_7IntVectESaISH_EEEii
FN:58,_ZN10Integrator5FieldIN5Model5Solid6Linear9IsotropicEEC2ERN3Set5FieldIS4_EERKN5amrex6VectorINSA_8GeometryESaISC_EEERKNSB_INSA_7IntVectESaISH_EEEii
FNDA:2,_ZN10Integrator5FieldIN5Model5Solid6Linear9IsotropicEEC2ERN3Set5FieldIS4_EERKN5amrex6VectorINSA_8GeometryESaISC_EEERKNSB_INSA_7IntVectESaISH_EEEii
FN:58,_ZN10Integrator5FieldIN5Model5Solid6Affine9IsotropicEEC2ERN3Set5FieldIS4_EERKN5amrex6VectorINSA_8GeometryESaISC_EEERKNSB_INSA_7IntVectESaISH_EEEii
FNDA:0,_ZN10Integrator5FieldIN5Model5Solid6Affine9IsotropicEEC2ERN3Set5FieldIS4_EERKN5amrex6VectorINSA_8GeometryESaISC_EEERKNSB_INSA_7IntVectESaISH_EEEii
FN:58,_ZN10Integrator5FieldIN5Eigen6MatrixIdLi2ELi2ELi0ELi2ELi2EEEEC2ERN3Set5FieldIS3_EERKN5amrex6VectorINS9_8GeometryESaISB_EEERKNSA_INS9_7IntVectESaISG_EEEii
FNDA:0,_ZN10Integrator5FieldIN5Eigen6MatrixIdLi2ELi2ELi0ELi2ELi2EEEEC2ERN3Set5FieldIS3_EERKN5amrex6VectorINS9_8GeometryESaISB_EEERKNSA_INS9_7IntVectESaISG_EEEii
FN:58,_ZN10Integrator5FieldIN5Eigen6MatrixIdLi2ELi1ELi0ELi2ELi1EEEEC2ERN3Set5FieldIS3_EERKN5amrex6VectorINS9_8GeometryESaISB_EEERKNSA_INS9_7IntVectESaISG_EEEii
FNDA:0,_ZN10Integrator5FieldIN5Eigen6MatrixIdLi2ELi1ELi0ELi2ELi1EEEEC2ERN3Set5FieldIS3_EERKN5amrex6VectorINS9_8GeometryESaISB_EEERKNSA_INS9_7IntVectESaISG_EEEii
FN:67,_ZN10Integrator5FieldIN5Model5Solid6Affine5CubicEE9FillPatchEidRN5amrex6VectorISt10unique_ptrINS6_8FabArrayINS6_7BaseFabIS4_EEEESt14default_deleteISC_EESaISF_EEERSC_i
FNDA:0,_ZN10Integrator5FieldIN5Model5Solid6Affine5CubicEE9FillPatchEidRN5amrex6VectorISt10unique_ptrINS6_8FabArrayINS6_7BaseFabIS4_EEEESt14default_deleteISC_EESaISF_EEERSC_i
FN:67,_ZN10Integrator5FieldIN5Model5Solid6Linear5CubicEE9FillPatchEidRN5amrex6VectorISt10unique_ptrINS6_8FabArrayINS6_7BaseFabIS4_EEEESt14default_deleteISC_EESaISF_EEERSC_i
FNDA:0,_ZN10Integrator5FieldIN5Model5Solid6Linear5CubicEE9FillPatchEidRN5amrex6VectorISt10unique_ptrINS6_8FabArrayINS6_7BaseFabIS4_EEEESt14default_deleteISC_EESaISF_EEERSC_i
FN:67,_ZN10Integrator5FieldIN5Model5Solid6Linear9IsotropicEE9FillPatchEidRN5amrex6VectorISt10unique_ptrINS6_8FabArrayINS6_7BaseFabIS4_EEEESt14default_deleteISC_EESaISF_EEERSC_i
FNDA:0,_ZN10Integrator5FieldIN5Model5Solid6Linear9IsotropicEE9FillPatchEidRN5amrex6VectorISt10unique_ptrINS6_8FabArrayINS6_7BaseFabIS4_EEEESt14default_deleteISC_EESaISF_EEERSC_i
FN:67,_ZN10Integrator5FieldIN5Model5Solid6Affine9IsotropicEE9FillPatchEidRN5amrex6VectorISt10unique_ptrINS6_8FabArrayINS6_7BaseFabIS4_EEEESt14default_deleteISC_EESaISF_EEERSC_i
FNDA:0,_ZN10Integrator5FieldIN5Model5Solid6Affine9IsotropicEE9FillPatchEidRN5amrex6VectorISt10unique_ptrINS6_8FabArrayINS6_7BaseFabIS4_EEEESt14default_deleteISC_EESaISF_EEERSC_i
FN:67,_ZN10Integrator5FieldIN5Eigen6MatrixIdLi2ELi2ELi0ELi2ELi2EEEE9FillPatchEidRN5amrex6VectorISt10unique_ptrINS5_8FabArrayINS5_7BaseFabIS3_EEEESt14default_deleteISB_EESaISE_EEERSB_i
FNDA:0,_ZN10Integrator5FieldIN5Eigen6MatrixIdLi2ELi2ELi0ELi2ELi2EEEE9FillPatchEidRN5amrex6VectorISt10unique_ptrINS5_8FabArrayINS5_7BaseFabIS3_EEEESt14default_deleteISB_EESaISE_EEERSB_i
FN:67,_ZN10Integrator5FieldIN5Model5Solid6Affine2J2EE9FillPatchEidRN5amrex6VectorISt10unique_ptrINS6_8FabArrayINS6_7BaseFabIS4_EEEESt14default_deleteISC_EESaISF_EEERSC_i
FNDA:0,_ZN10Integrator5FieldIN5Model5Solid6Affine2J2EE9FillPatchEidRN5amrex6VectorISt10unique_ptrINS6_8FabArrayINS6_7BaseFabIS4_EEEESt14default_deleteISC_EESaISF_EEERSC_i
FN:67,_ZN10Integrator5FieldIN5Model5Solid7Elastic28PseudoLinearCubicPredeformedEE9FillPatchEidRN5amrex6VectorISt10unique_ptrINS6_8FabArrayINS6_7BaseFabIS4_EEEESt14default_deleteISC_EESaISF_EEERSC_i
FNDA:0,_ZN10Integrator5FieldIN5Model5Solid7Elastic28PseudoLinearCubicPredeformedEE9FillPatchEidRN5amrex6VectorISt10unique_ptrINS6_8FabArrayINS6_7BaseFabIS4_EEEESt14default_deleteISC_EESaISF_EEERSC_i
FN:67,_ZN10Integrator5FieldIN5Eigen6MatrixIdLi2ELi1ELi0ELi2ELi1EEEE9FillPatchEidRN5amrex6VectorISt10unique_ptrINS5_8FabArrayINS5_7BaseFabIS3_EEEESt14default_deleteISB_EESaISE_EEERSB_i
FNDA:0,_ZN10Integrator5FieldIN5Eigen6MatrixIdLi2ELi1ELi0ELi2ELi1EEEE9FillPatchEidRN5amrex6VectorISt10unique_ptrINS5_8FabArrayINS5_7BaseFabIS3_EEEESt14default_deleteISB_EESaISE_EEERSB_i
FN:67,_ZN10Integrator5FieldIN5Model5Solid7Elastic10NeoHookeanEE9FillPatchEidRN5amrex6VectorISt10unique_ptrINS6_8FabArrayINS6_7BaseFabIS4_EEEESt14default_deleteISC_EESaISF_EEERSC_i
FNDA:1,_ZN10Integrator5FieldIN5Model5Solid7Elastic10NeoHookeanEE9FillPatchEidRN5amrex6VectorISt10unique_ptrINS6_8FabArrayINS6_7BaseFabIS4_EEEESt14default_deleteISC_EESaISF_EEERSC_i
FN:67,_ZN10Integrator5FieldIN5Model5Solid6Linear19IsotropicDegradableEE9FillPatchEidRN5amrex6VectorISt10unique_ptrINS6_8FabArrayINS6_7BaseFabIS4_EEEESt14default_deleteISC_EESaISF_EEERSC_i
FNDA:0,_ZN10Integrator5FieldIN5Model5Solid6Linear19IsotropicDegradableEE9FillPatchEidRN5amrex6VectorISt10unique_ptrINS6_8FabArrayINS6_7BaseFabIS4_EEEESt14default_deleteISC_EESaISF_EEERSC_i
FN:67,_ZN10Integrator5FieldIN5Model5Solid6Linear9LaplacianEE9FillPatchEidRN5amrex6VectorISt10unique_ptrINS6_8FabArrayINS6_7BaseFabIS4_EEEESt14default_deleteISC_EESaISF_EEERSC_i
FNDA:0,_ZN10Integrator5FieldIN5Model5Solid6Linear9LaplacianEE9FillPatchEidRN5amrex6VectorISt10unique_ptrINS6_8FabArrayINS6_7BaseFabIS4_EEEESt14default_deleteISC_EESaISF_EEERSC_i
FN:67,_ZN10Integrator5FieldIN5Model5Solid6Affine9HexagonalEE9FillPatchEidRN5amrex6VectorISt10unique_ptrINS6_8FabArrayINS6_7BaseFabIS4_EEEESt14default_deleteISC_EESaISF_EEERSC_i
FNDA:0,_ZN10Integrator5FieldIN5Model5Solid6Affine9HexagonalEE9FillPatchEidRN5amrex6VectorISt10unique_ptrINS6_8FabArrayINS6_7BaseFabIS4_EEEESt14default_deleteISC_EESaISF_EEERSC_i
FN:67,_ZN10Integrator5FieldIN5Model5Solid7Elastic17PseudoLinearCubicEE9FillPatchEidRN5amrex6VectorISt10unique_ptrINS6_8FabArrayINS6_7BaseFabIS4_EEEESt14default_deleteISC_EESaISF_EEERSC_i
FNDA:0,_ZN10Integrator5FieldIN5Model5Solid7Elastic17PseudoLinearCubicEE9FillPatchEidRN5amrex6VectorISt10unique_ptrINS6_8FabArrayINS6_7BaseFabIS4_EEEESt14default_deleteISC_EESaISF_EEERSC_i
FN:137,_ZN10Integrator5FieldIN5Model5Solid6Linear19IsotropicDegradableEE9FillPatchEid
FNDA:0,_ZN10Integrator5FieldIN5Model5Solid6Linear19IsotropicDegradableEE9FillPatchEid
FN:137,_ZN10Integrator5FieldIN5Eigen6MatrixIdLi2ELi1ELi0ELi2ELi1EEEE9FillPatchEid
FNDA:0,_ZN10Integrator5FieldIN5Eigen6MatrixIdLi2ELi1ELi0ELi2ELi1EEEE9FillPatchEid
FN:137,_ZN10Integrator5FieldIN5Eigen6MatrixIdLi2ELi2ELi0ELi2ELi2EEEE9FillPatchEid
FNDA:0,_ZN10Integrator5FieldIN5Eigen6MatrixIdLi2ELi2ELi0ELi2ELi2EEEE9FillPatchEid
FN:137,_ZN10Integrator5FieldIN5Model5Solid6Affine9IsotropicEE9FillPatchEid
FNDA:0,_ZN10Integrator5FieldIN5Model5Solid6Affine9IsotropicEE9FillPatchEid
FN:137,_ZN10Integrator5FieldIN5Model5Solid6Linear9IsotropicEE9FillPatchEid
FNDA:0,_ZN10Integrator5FieldIN5Model5Solid6Linear9IsotropicEE9FillPatchEid
FN:137,_ZN10Integrator5FieldIN5Model5Solid6Linear5CubicEE9FillPatchEid
FNDA:0,_ZN10Integrator5FieldIN5Model5Solid6Linear5CubicEE9FillPatchEid
FN:137,_ZN10Integrator5FieldIN5Model5Solid6Affine5CubicEE9FillPatchEid
FNDA:0,_ZN10Integrator5FieldIN5Model5Solid6Affine5CubicEE9FillPatchEid
FN:137,_ZN10Integrator5FieldIN5Model5Solid6Affine9HexagonalEE9FillPatchEid
FNDA:0,_ZN10Integrator5FieldIN5Model5Solid6Affine9HexagonalEE9FillPatchEid
FN:137,_ZN10Integrator5FieldIN5Model5Solid6Linear9LaplacianEE9FillPatchEid
FNDA:0,_ZN10Integrator5FieldIN5Model5Solid6Linear9LaplacianEE9FillPatchEid
FN:137,_ZN10Integrator5FieldIN5Model5Solid7Elastic10NeoHookeanEE9FillPatchEid
FNDA:0,_ZN10Integrator5FieldIN5Model5Solid7Elastic10NeoHookeanEE9FillPatchEid
FN:137,_ZN10Integrator5FieldIN5Model5Solid7Elastic17PseudoLinearCubicEE9FillPatchEid
FNDA:0,_ZN10Integrator5FieldIN5Model5Solid7Elastic17PseudoLinearCubicEE9FillPatchEid
FN:137,_ZN10Integrator5FieldIN5Model5Solid7Elastic28PseudoLinearCubicPredeformedEE9FillPatchEid
FNDA:0,_ZN10Integrator5FieldIN5Model5Solid7Elastic28PseudoLinearCubicPredeformedEE9FillPatchEid
FN:137,_ZN10Integrator5FieldIN5Model5Solid6Affine2J2EE9FillPatchEid
FNDA:0,_ZN10Integrator5FieldIN5Model5Solid6Affine2J2EE9FillPatchEid
FN:142,_ZN10Integrator5FieldIN5Model5Solid6Affine5CubicEE15FillCoarsePatchEidii
FNDA:0,_ZN10Integrator5FieldIN5Model5Solid6Affine5CubicEE15FillCoarsePatchEidii
FN:142,_ZN10Integrator5FieldIN5Model5Solid6Affine9HexagonalEE15FillCoarsePatchEidii
FNDA:0,_ZN10Integrator5FieldIN5Model5Solid6Affine9HexagonalEE15FillCoarsePatchEidii
FN:142,_ZN10Integrator5FieldIN5Model5Solid6Linear5CubicEE15FillCoarsePatchEidii
FNDA:0,_ZN10Integrator5FieldIN5Model5Solid6Linear5CubicEE15FillCoarsePatchEidii
FN:142,_ZN10Integrator5FieldIN5Model5Solid6Linear9IsotropicEE15FillCoarsePatchEidii
FNDA:2,_ZN10Integrator5FieldIN5Model5Solid6Linear9IsotropicEE15FillCoarsePatchEidii
FN:142,_ZN10Integrator5FieldIN5Model5Solid6Linear19IsotropicDegradableEE15FillCoarsePatchEidii
FNDA:0,_ZN10Integrator5FieldIN5Model5Solid6Linear19IsotropicDegradableEE15FillCoarsePatchEidii
FN:142,_ZN10Integrator5FieldIN5Model5Solid6Affine9IsotropicEE15FillCoarsePatchEidii
FNDA:0,_ZN10Integrator5FieldIN5Model5Solid6Affine9IsotropicEE15FillCoarsePatchEidii
FN:142,_ZN10Integrator5FieldIN5Eigen6MatrixIdLi2ELi2ELi0ELi2ELi2EEEE15FillCoarsePatchEidii
FNDA:0,_ZN10Integrator5FieldIN5Eigen6MatrixIdLi2ELi2ELi0ELi2ELi2EEEE15FillCoarsePatchEidii
FN:142,_ZN10Integrator5FieldIN5Eigen6MatrixIdLi2ELi1ELi0ELi2ELi1EEEE15FillCoarsePatchEidii
FNDA:0,_ZN10Integrator5FieldIN5Eigen6MatrixIdLi2ELi1ELi0ELi2ELi1EEEE15FillCoarsePatchEidii
FN:142,_ZN10Integrator5FieldIN5Model5Solid6Linear9LaplacianEE15FillCoarsePatchEidii
FNDA:0,_ZN10Integrator5FieldIN5Model5Solid6Linear9LaplacianEE15FillCoarsePatchEidii
FN:142,_ZN10Integrator5FieldIN5Model5Solid7Elastic10NeoHookeanEE15FillCoarsePatchEidii
FNDA:0,_ZN10Integrator5FieldIN5Model5Solid7Elastic10NeoHookeanEE15FillCoarsePatchEidii
FN:142,_ZN10Integrator5FieldIN5Model5Solid7Elastic17PseudoLinearCubicEE15FillCoarsePatchEidii
FNDA:0,_ZN10Integrator5FieldIN5Model5Solid7Elastic17PseudoLinearCubicEE15FillCoarsePatchEidii
FN:142,_ZN10Integrator5FieldIN5Model5Solid7Elastic28PseudoLinearCubicPredeformedEE15FillCoarsePatchEidii
FNDA:0,_ZN10Integrator5FieldIN5Model5Solid7Elastic28PseudoLinearCubicPredeformedEE15FillCoarsePatchEidii
FN:142,_ZN10Integrator5FieldIN5Model5Solid6Affine2J2EE15FillCoarsePatchEidii
FNDA:3,_ZN10Integrator5FieldIN5Model5Solid6Affine2J2EE15FillCoarsePatchEidii
FN:191,_ZN10Integrator5FieldIN5Model5Solid6Linear19IsotropicDegradableEE11RemakeLevelEidRKN5amrex8BoxArrayERKNS6_19DistributionMappingE
FNDA:0,_ZN10Integrator5FieldIN5Model5Solid6Linear19IsotropicDegradableEE11RemakeLevelEidRKN5amrex8BoxArrayERKNS6_19DistributionMappingE
FN:191,_ZN10Integrator5FieldIN5Model5Solid6Linear9LaplacianEE11RemakeLevelEidRKN5amrex8BoxArrayERKNS6_19DistributionMappingE
FNDA:0,_ZN10Integrator5FieldIN5Model5Solid6Linear9LaplacianEE11RemakeLevelEidRKN5amrex8BoxArrayERKNS6_19DistributionMappingE
FN:191,_ZN10Integrator5FieldIN5Model5Solid7Elastic10NeoHookeanEE11RemakeLevelEidRKN5amrex8BoxArrayERKNS6_19DistributionMappingE
FNDA:1,_ZN10Integrator5FieldIN5Model5Solid7Elastic10NeoHookeanEE11RemakeLevelEidRKN5amrex8BoxArrayERKNS6_19DistributionMappingE
FN:191,_ZN10Integrator5FieldIN5Model5Solid6Affine9HexagonalEE11RemakeLevelEidRKN5amrex8BoxArrayERKNS6_19DistributionMappingE
FNDA:0,_ZN10Integrator5FieldIN5Model5Solid6Affine9HexagonalEE11RemakeLevelEidRKN5amrex8BoxArrayERKNS6_19DistributionMappingE
FN:191,_ZN10Integrator5FieldIN5Model5Solid6Affine9IsotropicEE11RemakeLevelEidRKN5amrex8BoxArrayERKNS6_19DistributionMappingE
FNDA:0,_ZN10Integrator5FieldIN5Model5Solid6Affine9IsotropicEE11RemakeLevelEidRKN5amrex8BoxArrayERKNS6_19DistributionMappingE
FN:191,_ZN10Integrator5FieldIN5Eigen6MatrixIdLi2ELi2ELi0ELi2ELi2EEEE11RemakeLevelEidRKN5amrex8BoxArrayERKNS5_19DistributionMappingE
FNDA:0,_ZN10Integrator5FieldIN5Eigen6MatrixIdLi2ELi2ELi0ELi2ELi2EEEE11RemakeLevelEidRKN5amrex8BoxArrayERKNS5_19DistributionMappingE
FN:191,_ZN10Integrator5FieldIN5Model5Solid7Elastic17PseudoLinearCubicEE11RemakeLevelEidRKN5amrex8BoxArrayERKNS6_19DistributionMappingE
FNDA:0,_ZN10Integrator5FieldIN5Model5Solid7Elastic17PseudoLinearCubicEE11RemakeLevelEidRKN5amrex8BoxArrayERKNS6_19DistributionMappingE
FN:191,_ZN10Integrator5FieldIN5Model5Solid6Affine5CubicEE11RemakeLevelEidRKN5amrex8BoxArrayERKNS6_19DistributionMappingE
FNDA:0,_ZN10Integrator5FieldIN5Model5Solid6Affine5CubicEE11RemakeLevelEidRKN5amrex8BoxArrayERKNS6_19DistributionMappingE
FN:191,_ZN10Integrator5FieldIN5Model5Solid6Linear5CubicEE11RemakeLevelEidRKN5amrex8BoxArrayERKNS6_19DistributionMappingE
FNDA:0,_ZN10Integrator5FieldIN5Model5Solid6Linear5CubicEE11RemakeLevelEidRKN5amrex8BoxArrayERKNS6_19DistributionMappingE
FN:191,_ZN10Integrator5FieldIN5Model5Solid7Elastic28PseudoLinearCubicPredeformedEE11RemakeLevelEidRKN5amrex8BoxArrayERKNS6_19DistributionMappingE
FNDA:0,_ZN10Integrator5FieldIN5Model5Solid7Elastic28PseudoLinearCubicPredeformedEE11RemakeLevelEidRKN5amrex8BoxArrayERKNS6_19DistributionMappingE
FN:191,_ZN10Integrator5FieldIN5Model5Solid6Linear9IsotropicEE11RemakeLevelEidRKN5amrex8BoxArrayERKNS6_19DistributionMappingE
FNDA:0,_ZN10Integrator5FieldIN5Model5Solid6Linear9IsotropicEE11RemakeLevelEidRKN5amrex8BoxArrayERKNS6_19DistributionMappingE
FN:191,_ZN10Integrator5FieldIN5Model5Solid6Affine2J2EE11RemakeLevelEidRKN5amrex8BoxArrayERKNS6_19DistributionMappingE
FNDA:0,_ZN10Integrator5FieldIN5Model5Solid6Affine2J2EE11RemakeLevelEidRKN5amrex8BoxArrayERKNS6_19DistributionMappingE
FN:191,_ZN10Integrator5FieldIN5Eigen6MatrixIdLi2ELi1ELi0ELi2ELi1EEEE11RemakeLevelEidRKN5amrex8BoxArrayERKNS5_19DistributionMappingE
FNDA:0,_ZN10Integrator5FieldIN5Eigen6MatrixIdLi2ELi1ELi0ELi2ELi1EEEE11RemakeLevelEidRKN5amrex8BoxArrayERKNS5_19DistributionMappingE
FN:215,_ZN10Integrator5FieldIN5Model5Solid6Affine5CubicEE22MakeNewLevelFromCoarseEidRKN5amrex8BoxArrayERKNS6_19DistributionMappingE
FNDA:0,_ZN10Integrator5FieldIN5Model5Solid6Affine5CubicEE22MakeNewLevelFromCoarseEidRKN5amrex8BoxArrayERKNS6_19DistributionMappingE
FN:215,_ZN10Integrator5FieldIN5Model5Solid6Affine9HexagonalEE22MakeNewLevelFromCoarseEidRKN5amrex8BoxArrayERKNS6_19DistributionMappingE
FNDA:0,_ZN10Integrator5FieldIN5Model5Solid6Affine9HexagonalEE22MakeNewLevelFromCoarseEidRKN5amrex8BoxArrayERKNS6_19DistributionMappingE
FN:215,_ZN10Integrator5FieldIN5Model5Solid6Linear5CubicEE22MakeNewLevelFromCoarseEidRKN5amrex8BoxArrayERKNS6_19DistributionMappingE
FNDA:0,_ZN10Integrator5FieldIN5Model5Solid6Linear5CubicEE22MakeNewLevelFromCoarseEidRKN5amrex8BoxArrayERKNS6_19DistributionMappingE
FN:215,_ZN10Integrator5FieldIN5Model5Solid6Affine9IsotropicEE22MakeNewLevelFromCoarseEidRKN5amrex8BoxArrayERKNS6_19DistributionMappingE
FNDA:0,_ZN10Integrator5FieldIN5Model5Solid6Affine9IsotropicEE22MakeNewLevelFromCoarseEidRKN5amrex8BoxArrayERKNS6_19DistributionMappingE
FN:215,_ZN10Integrator5FieldIN5Model5Solid6Linear9LaplacianEE22MakeNewLevelFromCoarseEidRKN5amrex8BoxArrayERKNS6_19DistributionMappingE
FNDA:0,_ZN10Integrator5FieldIN5Model5Solid6Linear9LaplacianEE22MakeNewLevelFromCoarseEidRKN5amrex8BoxArrayERKNS6_19DistributionMappingE
FN:215,_ZN10Integrator5FieldIN5Model5Solid6Linear9IsotropicEE22MakeNewLevelFromCoarseEidRKN5amrex8BoxArrayERKNS6_19DistributionMappingE
FNDA:2,_ZN10Integrator5FieldIN5Model5Solid6Linear9IsotropicEE22MakeNewLevelFromCoarseEidRKN5amrex8BoxArrayERKNS6_19DistributionMappingE
FN:215,_ZN10Integrator5FieldIN5Model5Solid6Linear19IsotropicDegradableEE22MakeNewLevelFromCoarseEidRKN5amrex8BoxArrayERKNS6_19DistributionMappingE
FNDA:0,_ZN10Integrator5FieldIN5Model5Solid6Linear19IsotropicDegradableEE22MakeNewLevelFromCoarseEidRKN5amrex8BoxArrayERKNS6_19DistributionMappingE
FN:215,_ZN10Integrator5FieldIN5Model5Solid7Elastic10NeoHookeanEE22MakeNewLevelFromCoarseEidRKN5amrex8BoxArrayERKNS6_19DistributionMappingE
FNDA:0,_ZN10Integrator5FieldIN5Model5Solid7Elastic10NeoHookeanEE22MakeNewLevelFromCoarseEidRKN5amrex8BoxArrayERKNS6_19DistributionMappingE
FN:215,_ZN10Integrator5FieldIN5Model5Solid7Elastic17PseudoLinearCubicEE22MakeNewLevelFromCoarseEidRKN5amrex8BoxArrayERKNS6_19DistributionMappingE
FNDA:0,_ZN10Integrator5FieldIN5Model5Solid7Elastic17PseudoLinearCubicEE22MakeNewLevelFromCoarseEidRKN5amrex8BoxArrayERKNS6_19DistributionMappingE
FN:215,_ZN10Integrator5FieldIN5Eigen6MatrixIdLi2ELi2ELi0ELi2ELi2EEEE22MakeNewLevelFromCoarseEidRKN5amrex8BoxArrayERKNS5_19DistributionMappingE
FNDA:0,_ZN10Integrator5FieldIN5Eigen6MatrixIdLi2ELi2ELi0ELi2ELi2EEEE22MakeNewLevelFromCoarseEidRKN5amrex8BoxArrayERKNS5_19DistributionMappingE
FN:215,_ZN10Integrator5FieldIN5Model5Solid7Elastic28PseudoLinearCubicPredeformedEE22MakeNewLevelFromCoarseEidRKN5amrex8BoxArrayERKNS6_19DistributionMappingE
FNDA:0,_ZN10Integrator5FieldIN5Model5Solid7Elastic28PseudoLinearCubicPredeformedEE22MakeNewLevelFromCoarseEidRKN5amrex8BoxArrayERKNS6_19DistributionMappingE
FN:215,_ZN10Integrator5FieldIN5Model5Solid6Affine2J2EE22MakeNewLevelFromCoarseEidRKN5amrex8BoxArrayERKNS6_19DistributionMappingE
FNDA:3,_ZN10Integrator5FieldIN5Model5Solid6Affine2J2EE22MakeNewLevelFromCoarseEidRKN5amrex8BoxArrayERKNS6_19DistributionMappingE
FN:215,_ZN10Integrator5FieldIN5Eigen6MatrixIdLi2ELi1ELi0ELi2ELi1EEEE22MakeNewLevelFromCoarseEidRKN5amrex8BoxArrayERKNS5_19DistributionMappingE
FNDA:0,_ZN10Integrator5FieldIN5Eigen6MatrixIdLi2ELi1ELi0ELi2ELi1EEEE22MakeNewLevelFromCoarseEidRKN5amrex8BoxArrayERKNS5_19DistributionMappingE
FN:236,_ZN10Integrator5FieldIN5Model5Solid7Elastic10NeoHookeanEE23MakeNewLevelFromScratchEidRKN5amrex8BoxArrayERKNS6_19DistributionMappingE
FNDA:7,_ZN10Integrator5FieldIN5Model5Solid7Elastic10NeoHookeanEE23MakeNewLevelFromScratchEidRKN5amrex8BoxArrayERKNS6_19DistributionMappingE
FN:236,_ZN10Integrator5FieldIN5Model5Solid6Linear9LaplacianEE23MakeNewLevelFromScratchEidRKN5amrex8BoxArrayERKNS6_19DistributionMappingE
FNDA:1,_ZN10Integrator5FieldIN5Model5Solid6Linear9LaplacianEE23MakeNewLevelFromScratchEidRKN5amrex8BoxArrayERKNS6_19DistributionMappingE
FN:236,_ZN10Integrator5FieldIN5Model5Solid6Affine9HexagonalEE23MakeNewLevelFromScratchEidRKN5amrex8BoxArrayERKNS6_19DistributionMappingE
FNDA:0,_ZN10Integrator5FieldIN5Model5Solid6Affine9HexagonalEE23MakeNewLevelFromScratchEidRKN5amrex8BoxArrayERKNS6_19DistributionMappingE
FN:236,_ZN10Integrator5FieldIN5Model5Solid7Elastic17PseudoLinearCubicEE23MakeNewLevelFromScratchEidRKN5amrex8BoxArrayERKNS6_19DistributionMappingE
FNDA:0,_ZN10Integrator5FieldIN5Model5Solid7Elastic17PseudoLinearCubicEE23MakeNewLevelFromScratchEidRKN5amrex8BoxArrayERKNS6_19DistributionMappingE
FN:236,_ZN10Integrator5FieldIN5Model5Solid6Linear19IsotropicDegradableEE23MakeNewLevelFromScratchEidRKN5amrex8BoxArrayERKNS6_19DistributionMappingE
FNDA:0,_ZN10Integrator5FieldIN5Model5Solid6Linear19IsotropicDegradableEE23MakeNewLevelFromScratchEidRKN5amrex8BoxArrayERKNS6_19DistributionMappingE
FN:236,_ZN10Integrator5FieldIN5Model5Solid7Elastic28PseudoLinearCubicPredeformedEE23MakeNewLevelFromScratchEidRKN5amrex8BoxArrayERKNS6_19DistributionMappingE
FNDA:0,_ZN10Integrator5FieldIN5Model5Solid7Elastic28PseudoLinearCubicPredeformedEE23MakeNewLevelFromScratchEidRKN5amrex8BoxArrayERKNS6_19DistributionMappingE
FN:236,_ZN10Integrator5FieldIN5Model5Solid6Affine5CubicEE23MakeNewLevelFromScratchEidRKN5amrex8BoxArrayERKNS6_19DistributionMappingE
FNDA:0,_ZN10Integrator5FieldIN5Model5Solid6Affine5CubicEE23MakeNewLevelFromScratchEidRKN5amrex8BoxArrayERKNS6_19DistributionMappingE
FN:236,_ZN10Integrator5FieldIN5Model5Solid6Affine2J2EE23MakeNewLevelFromScratchEidRKN5amrex8BoxArrayERKNS6_19DistributionMappingE
FNDA:1,_ZN10Integrator5FieldIN5Model5Solid6Affine2J2EE23MakeNewLevelFromScratchEidRKN5amrex8BoxArrayERKNS6_19DistributionMappingE
FN:236,_ZN10Integrator5FieldIN5Model5Solid6Linear5CubicEE23MakeNewLevelFromScratchEidRKN5amrex8BoxArrayERKNS6_19DistributionMappingE
FNDA:0,_ZN10Integrator5FieldIN5Model5Solid6Linear5CubicEE23MakeNewLevelFromScratchEidRKN5amrex8BoxArrayERKNS6_19DistributionMappingE
FN:236,_ZN10Integrator5FieldIN5Model5Solid6Linear9IsotropicEE23MakeNewLevelFromScratchEidRKN5amrex8BoxArrayERKNS6_19DistributionMappingE
FNDA:13,_ZN10Integrator5FieldIN5Model5Solid6Linear9IsotropicEE23MakeNewLevelFromScratchEidRKN5amrex8BoxArrayERKNS6_19DistributionMappingE
FN:236,_ZN10Integrator5FieldIN5Eigen6MatrixIdLi2ELi1ELi0ELi2ELi1EEEE23MakeNewLevelFromScratchEidRKN5amrex8BoxArrayERKNS5_19DistributionMappingE
FNDA:0,_ZN10Integrator5FieldIN5Eigen6MatrixIdLi2ELi1ELi0ELi2ELi1EEEE23MakeNewLevelFromScratchEidRKN5amrex8BoxArrayERKNS5_19DistributionMappingE
FN:236,_ZN10Integrator5FieldIN5Model5Solid6Affine9IsotropicEE23MakeNewLevelFromScratchEidRKN5amrex8BoxArrayERKNS6_19DistributionMappingE
FNDA:0,_ZN10Integrator5FieldIN5Model5Solid6Affine9IsotropicEE23MakeNewLevelFromScratchEidRKN5amrex8BoxArrayERKNS6_19DistributionMappingE
FN:236,_ZN10Integrator5FieldIN5Eigen6MatrixIdLi2ELi2ELi0ELi2ELi2EEEE23MakeNewLevelFromScratchEidRKN5amrex8BoxArrayERKNS5_19DistributionMappingE
FNDA:0,_ZN10Integrator5FieldIN5Eigen6MatrixIdLi2ELi2ELi0ELi2ELi2EEEE23MakeNewLevelFromScratchEidRKN5amrex8BoxArrayERKNS5_19DistributionMappingE
FN:257,_ZN10Integrator5FieldIN5Eigen6MatrixIdLi2ELi1ELi0ELi2ELi1EEEE14SetFinestLevelEi
FNDA:0,_ZN10Integrator5FieldIN5Eigen6MatrixIdLi2ELi1ELi0ELi2ELi1EEEE14SetFinestLevelEi
FN:257,_ZN10Integrator5FieldIN5Model5Solid6Linear9LaplacianEE14SetFinestLevelEi
FNDA:2,_ZN10Integrator5FieldIN5Model5Solid6Linear9LaplacianEE14SetFinestLevelEi
FN:257,_ZN10Integrator5FieldIN5Model5Solid6Affine9IsotropicEE14SetFinestLevelEi
FNDA:0,_ZN10Integrator5FieldIN5Model5Solid6Affine9IsotropicEE14SetFinestLevelEi
FN:257,_ZN10Integrator5FieldIN5Model5Solid6Linear9IsotropicEE14SetFinestLevelEi
FNDA:71,_ZN10Integrator5FieldIN5Model5Solid6Linear9IsotropicEE14SetFinestLevelEi
FN:257,_ZN10Integrator5FieldIN5Model5Solid6Affine9HexagonalEE14SetFinestLevelEi
FNDA:0,_ZN10Integrator5FieldIN5Model5Solid6Affine9HexagonalEE14SetFinestLevelEi
FN:257,_ZN10Integrator5FieldIN5Model5Solid7Elastic10NeoHookeanEE14SetFinestLevelEi
FNDA:243,_ZN10Integrator5FieldIN5Model5Solid7Elastic10NeoHookeanEE14SetFinestLevelEi
FN:257,_ZN10Integrator5FieldIN5Model5Solid7Elastic17PseudoLinearCubicEE14SetFinestLevelEi
FNDA:0,_ZN10Integrator5FieldIN5Model5Solid7Elastic17PseudoLinearCubicEE14SetFinestLevelEi
FN:257,_ZN10Integrator5FieldIN5Model5Solid6Affine5CubicEE14SetFinestLevelEi
FNDA:0,_ZN10Integrator5FieldIN5Model5Solid6Affine5CubicEE14SetFinestLevelEi
FN:257,_ZN10Integrator5FieldIN5Eigen6MatrixIdLi2ELi2ELi0ELi2ELi2EEEE14SetFinestLevelEi
FNDA:0,_ZN10Integrator5FieldIN5Eigen6MatrixIdLi2ELi2ELi0ELi2ELi2EEEE14SetFinestLevelEi
FN:257,_ZN10Integrator5FieldIN5Model5Solid7Elastic28PseudoLinearCubicPredeformedEE14SetFinestLevelEi
FNDA:0,_ZN10Integrator5FieldIN5Model5Solid7Elastic28PseudoLinearCubicPredeformedEE14SetFinestLevelEi
FN:257,_ZN10Integrator5FieldIN5Model5Solid6Linear5CubicEE14SetFinestLevelEi
FNDA:0,_ZN10Integrator5FieldIN5Model5Solid6Linear5CubicEE14SetFinestLevelEi
FN:257,_ZN10Integrator5FieldIN5Model5Solid6Linear19IsotropicDegradableEE14SetFinestLevelEi
FNDA:0,_ZN10Integrator5FieldIN5Model5Solid6Linear19IsotropicDegradableEE14SetFinestLevelEi
FN:257,_ZN10Integrator5FieldIN5Model5Solid6Affine2J2EE14SetFinestLevelEi
FNDA:9,_ZN10Integrator5FieldIN5Model5Solid6Affine2J2EE14SetFinestLevelEi
FN:262,_ZN10Integrator5FieldIN5Model5Solid6Affine2J2EE12FillBoundaryEid
FNDA:1,_ZN10Integrator5FieldIN5Model5Solid6Affine2J2EE12FillBoundaryEid
FN:262,_ZN10Integrator5FieldIN5Model5Solid6Linear9LaplacianEE12FillBoundaryEid
FNDA:1,_ZN10Integrator5FieldIN5Model5Solid6Linear9LaplacianEE12FillBoundaryEid
FN:262,_ZN10Integrator5FieldIN5Model5Solid6Linear9IsotropicEE12FillBoundaryEid
FNDA:13,_ZN10Integrator5FieldIN5Model5Solid6Linear9IsotropicEE12FillBoundaryEid
FN:262,_ZN10Integrator5FieldIN5Model5Solid6Affine9IsotropicEE12FillBoundaryEid
FNDA:0,_ZN10Integrator5FieldIN5Model5Solid6Affine9IsotropicEE12FillBoundaryEid
FN:262,_ZN10Integrator5FieldIN5Model5Solid7Elastic10NeoHookeanEE12FillBoundaryEid
FNDA:7,_ZN10Integrator5FieldIN5Model5Solid7Elastic10NeoHookeanEE12FillBoundaryEid
FN:262,_ZN10Integrator5FieldIN5Eigen6MatrixIdLi2ELi1ELi0ELi2ELi1EEEE12FillBoundaryEid
FNDA:0,_ZN10Integrator5FieldIN5Eigen6MatrixIdLi2ELi1ELi0ELi2ELi1EEEE12FillBoundaryEid
FN:262,_ZN10Integrator5FieldIN5Model5Solid6Linear19IsotropicDegradableEE12FillBoundaryEid
FNDA:0,_ZN10Integrator5FieldIN5Model5Solid6Linear19IsotropicDegradableEE12FillBoundaryEid
FN:262,_ZN10Integrator5FieldIN5Model5Solid6Affine9HexagonalEE12FillBoundaryEid
FNDA:0,_ZN10Integrator5FieldIN5Model5Solid6Affine9HexagonalEE12FillBoundaryEid
FN:262,_ZN10Integrator5FieldIN5Model5Solid7Elastic17PseudoLinearCubicEE12FillBoundaryEid
FNDA:0,_ZN10Integrator5FieldIN5Model5Solid7Elastic17PseudoLinearCubicEE12FillBoundaryEid
FN:262,_ZN10Integrator5FieldIN5Model5Solid7Elastic28PseudoLinearCubicPredeformedEE12FillBoundaryEid
FNDA:0,_ZN10Integrator5FieldIN5Model5Solid7Elastic28PseudoLinearCubicPredeformedEE12FillBoundaryEid
FN:262,_ZN10Integrator5FieldIN5Model5Solid6Affine5CubicEE12FillBoundaryEid
FNDA:0,_ZN10Integrator5FieldIN5Model5Solid6Affine5CubicEE12FillBoundaryEid
FN:262,_ZN10Integrator5FieldIN5Eigen6MatrixIdLi2ELi2ELi0ELi2ELi2EEEE12FillBoundaryEid
FNDA:0,_ZN10Integrator5FieldIN5Eigen6MatrixIdLi2ELi2ELi0ELi2ELi2EEEE12FillBoundaryEid
FN:262,_ZN10Integrator5FieldIN5Model5Solid6Linear5CubicEE12FillBoundaryEid
FNDA:0,_ZN10Integrator5FieldIN5Model5Solid6Linear5CubicEE12FillBoundaryEid
FN:278,_ZN10Integrator5FieldIN5Model5Solid6Affine9IsotropicEE11AverageDownEiN5amrex7IntVectE
FNDA:0,_ZN10Integrator5FieldIN5Model5Solid6Affine9IsotropicEE11AverageDownEiN5amrex7IntVectE
FN:278,_ZN10Integrator5FieldIN5Model5Solid6Linear9IsotropicEE11AverageDownEiN5amrex7IntVectE
FNDA:0,_ZN10Integrator5FieldIN5Model5Solid6Linear9IsotropicEE11AverageDownEiN5amrex7IntVectE
FN:278,_ZN10Integrator5FieldIN5Model5Solid6Linear9LaplacianEE11AverageDownEiN5amrex7IntVectE
FNDA:0,_ZN10Integrator5FieldIN5Model5Solid6Linear9LaplacianEE11AverageDownEiN5amrex7IntVectE
FN:278,_ZN10Integrator5FieldIN5Model5Solid6Affine2J2EE11AverageDownEiN5amrex7IntVectE
FNDA:0,_ZN10Integrator5FieldIN5Model5Solid6Affine2J2EE11AverageDownEiN5amrex7IntVectE
FN:278,_ZN10Integrator5FieldIN5Model5Solid7Elastic10NeoHookeanEE11AverageDownEiN5amrex7IntVectE
FNDA:0,_ZN10Integrator5FieldIN5Model5Solid7Elastic10NeoHookeanEE11AverageDownEiN5amrex7IntVectE
FN:278,_ZN10Integrator5FieldIN5Model5Solid6Linear19IsotropicDegradableEE11AverageDownEiN5amrex7IntVectE
FNDA:0,_ZN10Integrator5FieldIN5Model5Solid6Linear19IsotropicDegradableEE11AverageDownEiN5amrex7IntVectE
FN:278,_ZN10Integrator5FieldIN5Eigen6MatrixIdLi2ELi2ELi0ELi2ELi2EEEE11AverageDownEiN5amrex7IntVectE
FNDA:0,_ZN10Integrator5FieldIN5Eigen6MatrixIdLi2ELi2ELi0ELi2ELi2EEEE11AverageDownEiN5amrex7IntVectE
FN:278,_ZN10Integrator5FieldIN5Eigen6MatrixIdLi2ELi1ELi0ELi2ELi1EEEE11AverageDownEiN5amrex7IntVectE
FNDA:0,_ZN10Integrator5FieldIN5Eigen6MatrixIdLi2ELi1ELi0ELi2ELi1EEEE11AverageDownEiN5amrex7IntVectE
FN:278,_ZN10Integrator5FieldIN5Model5Solid6Affine5CubicEE11AverageDownEiN5amrex7IntVectE
FNDA:0,_ZN10Integrator5FieldIN5Model5Solid6Affine5CubicEE11AverageDownEiN5amrex7IntVectE
FN:278,_ZN10Integrator5FieldIN5Model5Solid6Affine9HexagonalEE11AverageDownEiN5amrex7IntVectE
FNDA:0,_ZN10Integrator5FieldIN5Model5Solid6Affine9HexagonalEE11AverageDownEiN5amrex7IntVectE
FN:278,_ZN10Integrator5FieldIN5Model5Solid7Elastic17PseudoLinearCubicEE11AverageDownEiN5amrex7IntVectE
FNDA:0,_ZN10Integrator5FieldIN5Model5Solid7Elastic17PseudoLinearCubicEE11AverageDownEiN5amrex7IntVectE
FN:278,_ZN10Integrator5FieldIN5Model5Solid6Linear5CubicEE11AverageDownEiN5amrex7IntVectE
FNDA:0,_ZN10Integrator5FieldIN5Model5Solid6Linear5CubicEE11AverageDownEiN5amrex7IntVectE
FN:278,_ZN10Integrator5FieldIN5Model5Solid7Elastic28PseudoLinearCubicPredeformedEE11AverageDownEiN5amrex7IntVectE
FNDA:0,_ZN10Integrator5FieldIN5Model5Solid7Elastic28PseudoLinearCubicPredeformedEE11AverageDownEiN5amrex7IntVectE
FN:299,_ZN10Integrator5FieldIN5Eigen6MatrixIdLi2ELi2ELi0ELi2ELi2EEEE5NCompEv
FNDA:0,_ZN10Integrator5FieldIN5Eigen6MatrixIdLi2ELi2ELi0ELi2ELi2EEEE5NCompEv
FN:299,_ZN10Integrator5FieldIN5Model5Solid6Affine9IsotropicEE5NCompEv
FNDA:0,_ZN10Integrator5FieldIN5Model5Solid6Affine9IsotropicEE5NCompEv
FN:299,_ZN10Integrator5FieldIN5Model5Solid7Elastic17PseudoLinearCubicEE5NCompEv
FNDA:0,_ZN10Integrator5FieldIN5Model5Solid7Elastic17PseudoLinearCubicEE5NCompEv
FN:299,_ZN10Integrator5FieldIN5Model5Solid6Linear19IsotropicDegradableEE5NCompEv
FNDA:0,_ZN10Integrator5FieldIN5Model5Solid6Linear19IsotropicDegradableEE5NCompEv
FN:299,_ZN10Integrator5FieldIN5Model5Solid6Affine2J2EE5NCompEv
FNDA:17,_ZN10Integrator5FieldIN5Model5Solid6Affine2J2EE5NCompEv
FN:299,_ZN10Integrator5FieldIN5Eigen6MatrixIdLi2ELi1ELi0ELi2ELi1EEEE5NCompEv
FNDA:0,_ZN10Integrator5FieldIN5Eigen6MatrixIdLi2ELi1ELi0ELi2ELi1EEEE5NCompEv
FN:299,_ZN10Integrator5FieldIN5Model5Solid7Elastic10NeoHookeanEE5NCompEv
FNDA:176,_ZN10Integrator5FieldIN5Model5Solid7Elastic10NeoHookeanEE5NCompEv
FN:299,_ZN10Integrator5FieldIN5Model5Solid7Elastic28PseudoLinearCubicPredeformedEE5NCompEv
FNDA:0,_ZN10Integrator5FieldIN5Model5Solid7Elastic28PseudoLinearCubicPredeformedEE5NCompEv
FN:299,_ZN10Integrator5FieldIN5Model5Solid6Linear9LaplacianEE5NCompEv
FNDA:8,_ZN10Integrator5FieldIN5Model5Solid6Linear9LaplacianEE5NCompEv
FN:299,_ZN10Integrator5FieldIN5Model5Solid6Linear5CubicEE5NCompEv
FNDA:0,_ZN10Integrator5FieldIN5Model5Solid6Linear5CubicEE5NCompEv
FN:299,_ZN10Integrator5FieldIN5Model5Solid6Linear9IsotropicEE5NCompEv
FNDA:39,_ZN10Integrator5FieldIN5Model5Solid6Linear9IsotropicEE5NCompEv
FN:299,_ZN10Integrator5FieldIN5Model5Solid6Affine5CubicEE5NCompEv
FNDA:0,_ZN10Integrator5FieldIN5Model5Solid6Affine5CubicEE5NCompEv
FN:299,_ZN10Integrator5FieldIN5Model5Solid6Affine9HexagonalEE5NCompEv
FNDA:0,_ZN10Integrator5FieldIN5Model5Solid6Affine9HexagonalEE5NCompEv
FN:302,_ZN10Integrator5FieldIN5Eigen6MatrixIdLi2ELi1ELi0ELi2ELi1EEEE4CopyEiRN5amrex8MultiFabEii
FNDA:0,_ZN10Integrator5FieldIN5Eigen6MatrixIdLi2ELi1ELi0ELi2ELi1EEEE4CopyEiRN5amrex8MultiFabEii
FN:302,_ZN10Integrator5FieldIN5Model5Solid6Linear19IsotropicDegradableEE4CopyEiRN5amrex8MultiFabEii
FNDA:0,_ZN10Integrator5FieldIN5Model5Solid6Linear19IsotropicDegradableEE4CopyEiRN5amrex8MultiFabEii
FN:302,_ZN10Integrator5FieldIN5Eigen6MatrixIdLi2ELi2ELi0ELi2ELi2EEEE4CopyEiRN5amrex8MultiFabEii
FNDA:0,_ZN10Integrator5FieldIN5Eigen6MatrixIdLi2ELi2ELi0ELi2ELi2EEEE4CopyEiRN5amrex8MultiFabEii
FN:302,_ZN10Integrator5FieldIN5Model5Solid6Linear5CubicEE4CopyEiRN5amrex8MultiFabEii
FNDA:0,_ZN10Integrator5FieldIN5Model5Solid6Linear5CubicEE4CopyEiRN5amrex8MultiFabEii
FN:302,_ZN10Integrator5FieldIN5Model5Solid6Linear9IsotropicEE4CopyEiRN5amrex8MultiFabEii
FNDA:29,_ZN10Integrator5FieldIN5Model5Solid6Linear9IsotropicEE4CopyEiRN5amrex8MultiFabEii
FN:302,_ZN10Integrator5FieldIN5Model5Solid6Affine2J2EE4CopyEiRN5amrex8MultiFabEii
FNDA:5,_ZN10Integrator5FieldIN5Model5Solid6Affine2J2EE4CopyEiRN5amrex8MultiFabEii
FN:302,_ZN10Integrator5FieldIN5Model5Solid6Affine5CubicEE4CopyEiRN5amrex8MultiFabEii
FNDA:0,_ZN10Integrator5FieldIN5Model5Solid6Affine5CubicEE4CopyEiRN5amrex8MultiFabEii
FN:302,_ZN10Integrator5FieldIN5Model5Solid7Elastic28PseudoLinearCubicPredeformedEE4CopyEiRN5amrex8MultiFabEii
FNDA:0,_ZN10Integrator5FieldIN5Model5Solid7Elastic28PseudoLinearCubicPredeformedEE4CopyEiRN5amrex8MultiFabEii
FN:302,_ZN10Integrator5FieldIN5Model5Solid7Elastic17PseudoLinearCubicEE4CopyEiRN5amrex8MultiFabEii
FNDA:0,_ZN10Integrator5FieldIN5Model5Solid7Elastic17PseudoLinearCubicEE4CopyEiRN5amrex8MultiFabEii
FN:302,_ZN10Integrator5FieldIN5Model5Solid6Affine9IsotropicEE4CopyEiRN5amrex8MultiFabEii
FNDA:0,_ZN10Integrator5FieldIN5Model5Solid6Affine9IsotropicEE4CopyEiRN5amrex8MultiFabEii
FN:302,_ZN10Integrator5FieldIN5Model5Solid6Affine9HexagonalEE4CopyEiRN5amrex8MultiFabEii
FNDA:0,_ZN10Integrator5FieldIN5Model5Solid6Affine9HexagonalEE4CopyEiRN5amrex8MultiFabEii
FN:302,_ZN10Integrator5FieldIN5Model5Solid7Elastic10NeoHookeanEE4CopyEiRN5amrex8MultiFabEii
FNDA:110,_ZN10Integrator5FieldIN5Model5Solid7Elastic10NeoHookeanEE4CopyEiRN5amrex8MultiFabEii
FN:302,_ZN10Integrator5FieldIN5Model5Solid6Linear9LaplacianEE4CopyEiRN5amrex8MultiFabEii
FNDA:4,_ZN10Integrator5FieldIN5Model5Solid6Linear9LaplacianEE4CopyEiRN5amrex8MultiFabEii
FN:306,_ZN10Integrator5FieldIN5Model5Solid6Linear9IsotropicEE7setNameENSt7__cxx1112basic_stringIcSt11char_traitsIcESaIcEEE
FNDA:2,_ZN10Integrator5FieldIN5Model5Solid6Linear9IsotropicEE7setNameENSt7__cxx1112basic_stringIcSt11char_traitsIcESaIcEEE
FN:306,_ZN10Integrator5FieldIN5Model5Solid7Elastic28PseudoLinearCubicPredeformedEE7setNameENSt7__cxx1112basic_stringIcSt11char_traitsIcESaIcEEE
FNDA:0,_ZN10Integrator5FieldIN5Model5Solid7Elastic28PseudoLinearCubicPredeformedEE7setNameENSt7__cxx1112basic_stringIcSt11char_traitsIcESaIcEEE
FN:306,_ZN10Integrator5FieldIN5Eigen6MatrixIdLi2ELi1ELi0ELi2ELi1EEEE7setNameENSt7__cxx1112basic_stringIcSt11char_traitsIcESaIcEEE
FNDA:0,_ZN10Integrator5FieldIN5Eigen6MatrixIdLi2ELi1ELi0ELi2ELi1EEEE7setNameENSt7__cxx1112basic_stringIcSt11char_traitsIcESaIcEEE
FN:306,_ZN10Integrator5FieldIN5Model5Solid6Linear9LaplacianEE7setNameENSt7__cxx1112basic_stringIcSt11char_traitsIcESaIcEEE
FNDA:1,_ZN10Integrator5FieldIN5Model5Solid6Linear9LaplacianEE7setNameENSt7__cxx1112basic_stringIcSt11char_traitsIcESaIcEEE
FN:306,_ZN10Integrator5FieldIN5Model5Solid6Linear5CubicEE7setNameENSt7__cxx1112basic_stringIcSt11char_traitsIcESaIcEEE
FNDA:0,_ZN10Integrator5FieldIN5Model5Solid6Linear5CubicEE7setNameENSt7__cxx1112basic_stringIcSt11char_traitsIcESaIcEEE
FN:306,_ZN10Integrator5FieldIN5Model5Solid6Affine9IsotropicEE7setNameENSt7__cxx1112basic_stringIcSt11char_traitsIcESaIcEEE
FNDA:0,_ZN10Integrator5FieldIN5Model5Solid6Affine9IsotropicEE7setNameENSt7__cxx1112basic_stringIcSt11char_traitsIcESaIcEEE
FN:306,_ZN10Integrator5FieldIN5Model5Solid6Linear19IsotropicDegradableEE7setNameENSt7__cxx1112basic_stringIcSt11char_traitsIcESaIcEEE
FNDA:0,_ZN10Integrator5FieldIN5Model5Solid6Linear19IsotropicDegradableEE7setNameENSt7__cxx1112basic_stringIcSt11char_traitsIcESaIcEEE
FN:306,_ZN10Integrator5FieldIN5Model5Solid6Affine9HexagonalEE7setNameENSt7__cxx1112basic_stringIcSt11char_traitsIcESaIcEEE
FNDA:0,_ZN10Integrator5FieldIN5Model5Solid6Affine9HexagonalEE7setNameENSt7__cxx1112basic_stringIcSt11char_traitsIcESaIcEEE
FN:306,_ZN10Integrator5FieldIN5Model5Solid6Affine5CubicEE7setNameENSt7__cxx1112basic_stringIcSt11char_traitsIcESaIcEEE
FNDA:0,_ZN10Integrator5FieldIN5Model5Solid6Affine5CubicEE7setNameENSt7__cxx1112basic_stringIcSt11char_traitsIcESaIcEEE
FN:306,_ZN10Integrator5FieldIN5Model5Solid7Elastic10NeoHookeanEE7setNameENSt7__cxx1112basic_stringIcSt11char_traitsIcESaIcEEE
FNDA:3,_ZN10Integrator5FieldIN5Model5Solid7Elastic10NeoHookeanEE7setNameENSt7__cxx1112basic_stringIcSt11char_traitsIcESaIcEEE
FN:306,_ZN10Integrator5FieldIN5Model5Solid7Elastic17PseudoLinearCubicEE7setNameENSt7__cxx1112basic_stringIcSt11char_traitsIcESaIcEEE
FNDA:0,_ZN10Integrator5FieldIN5Model5Solid7Elastic17PseudoLinearCubicEE7setNameENSt7__cxx1112basic_stringIcSt11char_traitsIcESaIcEEE
FN:306,_ZN10Integrator5FieldIN5Eigen6MatrixIdLi2ELi2ELi0ELi2ELi2EEEE7setNameENSt7__cxx1112basic_stringIcSt11char_traitsIcESaIcEEE
FNDA:0,_ZN10Integrator5FieldIN5Eigen6MatrixIdLi2ELi2ELi0ELi2ELi2EEEE7setNameENSt7__cxx1112basic_stringIcSt11char_traitsIcESaIcEEE
FN:306,_ZN10Integrator5FieldIN5Model5Solid6Affine2J2EE7setNameENSt7__cxx1112basic_stringIcSt11char_traitsIcESaIcEEE
FNDA:1,_ZN10Integrator5FieldIN5Model5Solid6Affine2J2EE7setNameENSt7__cxx1112basic_stringIcSt11char_traitsIcESaIcEEE
FN:309,_ZN10Integrator5FieldIN5Model5Solid6Affine5CubicEE4NameB5cxx11Ei
FNDA:0,_ZN10Integrator5FieldIN5Model5Solid6Affine5CubicEE4NameB5cxx11Ei
FN:309,_ZN10Integrator5FieldIN5Eigen6MatrixIdLi2ELi1ELi0ELi2ELi1EEEE4NameB5cxx11Ei
FNDA:0,_ZN10Integrator5FieldIN5Eigen6MatrixIdLi2ELi1ELi0ELi2ELi1EEEE4NameB5cxx11Ei
FN:309,_ZN10Integrator5FieldIN5Model5Solid6Affine2J2EE4NameB5cxx11Ei
FNDA:8,_ZN10Integrator5FieldIN5Model5Solid6Affine2J2EE4NameB5cxx11Ei
FN:309,_ZN10Integrator5FieldIN5Model5Solid6Linear9IsotropicEE4NameB5cxx11Ei
FNDA:0,_ZN10Integrator5FieldIN5Model5Solid6Linear9IsotropicEE4NameB5cxx11Ei
FN:309,_ZN10Integrator5FieldIN5Model5Solid7Elastic10NeoHookeanEE4NameB5cxx11Ei
FNDA:0,_ZN10Integrator5FieldIN5Model5Solid7Elastic10NeoHookeanEE4NameB5cxx11Ei
FN:309,_ZN10Integrator5FieldIN5Model5Solid6Linear9LaplacianEE4NameB5cxx11Ei
FNDA:0,_ZN10Integrator5FieldIN5Model5Solid6Linear9LaplacianEE4NameB5cxx11Ei
FN:309,_ZN10Integrator5FieldIN5Model5Solid7Elastic28PseudoLinearCubicPredeformedEE4NameB5cxx11Ei
FNDA:0,_ZN10Integrator5FieldIN5Model5Solid7Elastic28PseudoLinearCubicPredeformedEE4NameB5cxx11Ei
FN:309,_ZN10Integrator5FieldIN5Eigen6MatrixIdLi2ELi2ELi0ELi2ELi2EEEE4NameB5cxx11Ei
FNDA:0,_ZN10Integrator5FieldIN5Eigen6MatrixIdLi2ELi2ELi0ELi2ELi2EEEE4NameB5cxx11Ei
FN:309,_ZN10Integrator5FieldIN5Model5Solid6Linear5CubicEE4NameB5cxx11Ei
FNDA:0,_ZN10Integrator5FieldIN5Model5Solid6Linear5CubicEE4NameB5cxx11Ei
FN:309,_ZN10Integrator5FieldIN5Model5Solid6Linear19IsotropicDegradableEE4NameB5cxx11Ei
FNDA:0,_ZN10Integrator5FieldIN5Model5Solid6Linear19IsotropicDegradableEE4NameB5cxx11Ei
FN:309,_ZN10Integrator5FieldIN5Model5Solid6Affine9HexagonalEE4NameB5cxx11Ei
FNDA:0,_ZN10Integrator5FieldIN5Model5Solid6Affine9HexagonalEE4NameB5cxx11Ei
FN:309,_ZN10Integrator5FieldIN5Model5Solid7Elastic17PseudoLinearCubicEE4NameB5cxx11Ei
FNDA:0,_ZN10Integrator5FieldIN5Model5Solid7Elastic17PseudoLinearCubicEE4NameB5cxx11Ei
FN:309,_ZN10Integrator5FieldIN5Model5Solid6Affine9IsotropicEE4NameB5cxx11Ei
FNDA:0,_ZN10Integrator5FieldIN5Model5Solid6Affine9IsotropicEE4NameB5cxx11Ei
FN:312,_ZN10Integrator5FieldIN5Model5Solid6Linear5CubicEE5setBCEPv
FNDA:0,_ZN10Integrator5FieldIN5Model5Solid6Linear5CubicEE5setBCEPv
FN:312,_ZN10Integrator5FieldIN5Model5Solid6Linear19IsotropicDegradableEE5setBCEPv
FNDA:0,_ZN10Integrator5FieldIN5Model5Solid6Linear19IsotropicDegradableEE5setBCEPv
FN:312,_ZN10Integrator5FieldIN5Model5Solid7Elastic10NeoHookeanEE5setBCEPv
FNDA:0,_ZN10Integrator5FieldIN5Model5Solid7Elastic10NeoHookeanEE5setBCEPv
FN:312,_ZN10Integrator5FieldIN5Eigen6MatrixIdLi2ELi2ELi0ELi2ELi2EEEE5setBCEPv
FNDA:0,_ZN10Integrator5FieldIN5Eigen6MatrixIdLi2ELi2ELi0ELi2ELi2EEEE5setBCEPv
FN:312,_ZN10Integrator5FieldIN5Eigen6MatrixIdLi2ELi1ELi0ELi2ELi1EEEE5setBCEPv
FNDA:0,_ZN10Integrator5FieldIN5Eigen6MatrixIdLi2ELi1ELi0ELi2ELi1EEEE5setBCEPv
FN:312,_ZN10Integrator5FieldIN5Model5Solid6Affine2J2EE5setBCEPv
FNDA:0,_ZN10Integrator5FieldIN5Model5Solid6Affine2J2EE5setBCEPv
FN:312,_ZN10Integrator5FieldIN5Model5Solid6Affine5CubicEE5setBCEPv
FNDA:0,_ZN10Integrator5FieldIN5Model5Solid6Affine5CubicEE5setBCEPv
FN:312,_ZN10Integrator5FieldIN5Model5Solid6Linear9LaplacianEE5setBCEPv
FNDA:0,_ZN10Integrator5FieldIN5Model5Solid6Linear9LaplacianEE5setBCEPv
FN:312,_ZN10Integrator5FieldIN5Model5Solid7Elastic28PseudoLinearCubicPredeformedEE5setBCEPv
FNDA:0,_ZN10Integrator5FieldIN5Model5Solid7Elastic28PseudoLinearCubicPredeformedEE5setBCEPv
FN:312,_ZN10Integrator5FieldIN5Model5Solid6Linear9IsotropicEE5setBCEPv
FNDA:0,_ZN10Integrator5FieldIN5Model5Solid6Linear9IsotropicEE5setBCEPv
FN:312,_ZN10Integrator5FieldIN5Model5Solid7Elastic17PseudoLinearCubicEE5setBCEPv
FNDA:0,_ZN10Integrator5FieldIN5Model5Solid7Elastic17PseudoLinearCubicEE5setBCEPv
FN:312,_ZN10Integrator5FieldIN5Model5Solid6Affine9IsotropicEE5setBCEPv
FNDA:0,_ZN10Integrator5FieldIN5Model5Solid6Affine9IsotropicEE5setBCEPv
FN:312,_ZN10Integrator5FieldIN5Model5Solid6Affine9HexagonalEE5setBCEPv
FNDA:0,_ZN10Integrator5FieldIN5Model5Solid6Affine9HexagonalEE5setBCEPv
FN:315,_ZN10Integrator5FieldIN5Eigen6MatrixIdLi2ELi1ELi0ELi2ELi1EEEE5getBCEv
FNDA:0,_ZN10Integrator5FieldIN5Eigen6MatrixIdLi2ELi1ELi0ELi2ELi1EEEE5getBCEv
FN:315,_ZN10Integrator5FieldIN5Model5Solid6Affine5CubicEE5getBCEv
FNDA:0,_ZN10Integrator5FieldIN5Model5Solid6Affine5CubicEE5getBCEv
FN:315,_ZN10Integrator5FieldIN5Model5Solid6Linear5CubicEE5getBCEv
FNDA:0,_ZN10Integrator5FieldIN5Model5Solid6Linear5CubicEE5getBCEv
FN:315,_ZN10Integrator5FieldIN5Eigen6MatrixIdLi2ELi2ELi0ELi2ELi2EEEE5getBCEv
FNDA:0,_ZN10Integrator5FieldIN5Eigen6MatrixIdLi2ELi2ELi0ELi2ELi2EEEE5getBCEv
FN:315,_ZN10Integrator5FieldIN5Model5Solid7Elastic17PseudoLinearCubicEE5getBCEv
FNDA:0,_ZN10Integrator5FieldIN5Model5Solid7Elastic17PseudoLinearCubicEE5getBCEv
FN:315,_ZN10Integrator5FieldIN5Model5Solid6Linear19IsotropicDegradableEE5getBCEv
FNDA:0,_ZN10Integrator5FieldIN5Model5Solid6Linear19IsotropicDegradableEE5getBCEv
FN:315,_ZN10Integrator5FieldIN5Model5Solid6Linear9IsotropicEE5getBCEv
FNDA:0,_ZN10Integrator5FieldIN5Model5Solid6Linear9IsotropicEE5getBCEv
FN:315,_ZN10Integrator5FieldIN5Model5Solid6Affine9HexagonalEE5getBCEv
FNDA:0,_ZN10Integrator5FieldIN5Model5Solid6Affine9HexagonalEE5getBCEv
FN:315,_ZN10Integrator5FieldIN5Model5Solid6Affine9IsotropicEE5getBCEv
FNDA:0,_ZN10Integrator5FieldIN5Model5Solid6Affine9IsotropicEE5getBCEv
FN:315,_ZN10Integrator5FieldIN5Model5Solid7Elastic28PseudoLinearCubicPredeformedEE5getBCEv
FNDA:0,_ZN10Integrator5FieldIN5Model5Solid7Elastic28PseudoLinearCubicPredeformedEE5getBCEv
FN:315,_ZN10Integrator5FieldIN5Model5Solid6Linear9LaplacianEE5getBCEv
FNDA:0,_ZN10Integrator5FieldIN5Model5Solid6Linear9LaplacianEE5getBCEv
FN:315,_ZN10Integrator5FieldIN5Model5Solid7Elastic10NeoHookeanEE5getBCEv
FNDA:0,_ZN10Integrator5FieldIN5Model5Solid7Elastic10NeoHookeanEE5getBCEv
FN:315,_ZN10Integrator5FieldIN5Model5Solid6Affine2J2EE5getBCEv
FNDA:0,_ZN10Integrator5FieldIN5Model5Solid6Affine2J2EE5getBCEv
DA:51,0
DA:54,0
DA:51,0
DA:54,0
DA:51,0
DA:54,0
DA:51,0
DA:54,0
DA:51,4
DA:54,4
DA:51,0
DA:54,0
DA:51,0
DA:54,0
DA:51,0
DA:54,0
DA:51,0
DA:54,0
DA:51,2
DA:54,2
DA:51,0
DA:54,0
DA:51,0
DA:54,0
DA:51,6
DA:54,6
DA:55,0
DA:55,0
DA:55,0
DA:55,0
DA:55,8
DA:55,0
DA:55,0
DA:55,0
DA:55,0
DA:55,4
DA:55,0
DA:55,0
DA:55,12
DA:58,1
DA:63,1
DA:64,1
DA:58,0
DA:63,0
DA:64,0
DA:58,0
DA:63,0
DA:64,0
DA:58,3
DA:63,3
DA:64,3
DA:58,1
DA:63,1
DA:64,1
DA:58,0
DA:63,0
DA:64,0
DA:58,0
DA:63,0
DA:64,0
DA:58,0
DA:63,0
DA:64,0
DA:58,2
DA:63,2
DA:64,2
DA:58,0
DA:63,0
DA:64,0
DA:58,0
DA:63,0
DA:64,0
DA:58,0
DA:63,0
DA:64,0
DA:58,0
DA:63,0
DA:64,0
DA:67,0
DA:72,0
DA:73,0
DA:75,0
DA:76,0
DA:77,0
DA:78,0
DA:80,0
DA:82,0
DA:83,0
DA:84,0
DA:85,0
DA:87,0
DA:89,0
DA:90,0
DA:96,0
DA:97,0
DA:98,0
DA:99,0
DA:100,0
DA:101,0
DA:103,0
DA:105,0
DA:107,0
DA:108,0
DA:110,0
DA:111,0
DA:114,0
DA:120,0
DA:135,0
DA:67,0
DA:72,0
DA:73,0
DA:75,0
DA:76,0
DA:77,0
DA:78,0
DA:80,0
DA:82,0
DA:83,0
DA:84,0
DA:85,0
DA:87,0
DA:89,0
DA:90,0
DA:96,0
DA:97,0
DA:98,0
DA:99,0
DA:100,0
DA:101,0
DA:103,0
DA:105,0
DA:107,0
DA:108,0
DA:110,0
DA:111,0
DA:114,0
DA:120,0
DA:135,0
DA:67,0
DA:72,0
DA:73,0
DA:75,0
DA:76,0
DA:77,0
DA:78,0
DA:80,0
DA:82,0
DA:83,0
DA:84,0
DA:85,0
DA:87,0
DA:89,0
DA:90,0
DA:96,0
DA:97,0
DA:98,0
DA:99,0
DA:100,0
DA:101,0
DA:103,0
DA:105,0
DA:107,0
DA:108,0
DA:110,0
DA:111,0
DA:114,0
DA:120,0
DA:135,0
DA:67,0
DA:72,0
DA:73,0
DA:75,0
DA:76,0
DA:77,0
DA:78,0
DA:80,0
DA:82,0
DA:83,0
DA:84,0
DA:85,0
DA:87,0
DA:89,0
DA:90,0
DA:96,0
DA:97,0
DA:98,0
DA:99,0
DA:100,0
DA:101,0
DA:103,0
DA:105,0
DA:107,0
DA:108,0
DA:110,0
DA:111,0
DA:114,0
DA:120,0
DA:135,0
DA:67,0
DA:72,0
DA:73,0
DA:75,0
DA:76,0
DA:77,0
DA:78,0
DA:80,0
DA:82,0
DA:83,0
DA:84,0
DA:85,0
DA:87,0
DA:89,0
DA:90,0
DA:96,0
DA:97,0
DA:98,0
DA:99,0
DA:100,0
DA:101,0
DA:103,0
DA:105,0
DA:107,0
DA:108,0
DA:110,0
DA:111,0
DA:114,0
DA:120,0
DA:135,0
DA:67,0
DA:72,0
DA:73,0
DA:75,0
DA:76,0
DA:77,0
DA:78,0
DA:80,0
DA:82,0
DA:83,0
DA:84,0
DA:85,0
DA:87,0
DA:89,0
DA:90,0
DA:96,0
DA:97,0
DA:98,0
DA:99,0
DA:100,0
DA:101,0
DA:103,0
DA:105,0
DA:107,0
DA:108,0
DA:110,0
DA:111,0
DA:114,0
DA:120,0
DA:135,0
DA:67,0
DA:72,0
DA:73,0
DA:75,0
DA:76,0
DA:77,0
DA:78,0
DA:80,0
DA:82,0
DA:83,0
DA:84,0
DA:85,0
DA:87,0
DA:89,0
DA:90,0
DA:96,0
DA:97,0
DA:98,0
DA:99,0
DA:100,0
DA:101,0
DA:103,0
DA:105,0
DA:107,0
DA:108,0
DA:110,0
DA:111,0
DA:114,0
DA:120,0
DA:135,0
DA:67,0
DA:72,0
DA:73,0
DA:75,0
DA:76,0
DA:77,0
DA:78,0
DA:80,0
DA:82,0
DA:83,0
DA:84,0
DA:85,0
DA:87,0
DA:89,0
DA:90,0
DA:96,0
DA:97,0
DA:98,0
DA:99,0
DA:100,0
DA:101,0
DA:103,0
DA:105,0
DA:107,0
DA:108,0
DA:110,0
DA:111,0
DA:114,0
DA:120,0
DA:135,0
DA:67,0
DA:72,0
DA:73,0
DA:75,0
DA:76,0
DA:77,0
DA:78,0
DA:80,0
DA:82,0
DA:83,0
DA:84,0
DA:85,0
DA:87,0
DA:89,0
DA:90,0
DA:96,0
DA:97,0
DA:98,0
DA:99,0
DA:100,0
DA:101,0
DA:103,0
DA:105,0
DA:107,0
DA:108,0
DA:110,0
DA:111,0
DA:114,0
DA:120,0
DA:135,0
DA:67,1
DA:72,1
DA:73,1
DA:75,0
DA:76,0
DA:77,0
DA:78,0
DA:80,0
DA:82,0
DA:83,0
DA:84,0
DA:85,0
DA:87,0
DA:89,0
DA:90,0
DA:96,2
DA:97,1
DA:98,1
DA:99,2
DA:100,1
DA:101,1
DA:103,2
DA:105,2
DA:107,1
DA:108,1
DA:110,1
DA:111,1
DA:114,1
DA:120,0
DA:135,1
DA:67,0
DA:72,0
DA:73,0
DA:75,0
DA:76,0
DA:77,0
DA:78,0
DA:80,0
DA:82,0
DA:83,0
DA:84,0
DA:85,0
DA:87,0
DA:89,0
DA:90,0
DA:96,0
DA:97,0
DA:98,0
DA:99,0
DA:100,0
DA:101,0
DA:103,0
DA:105,0
DA:107,0
DA:108,0
DA:110,0
DA:111,0
DA:114,0
DA:120,0
DA:135,0
DA:67,0
DA:72,0
DA:73,0
DA:75,0
DA:76,0
DA:77,0
DA:78,0
DA:80,0
DA:82,0
DA:83,0
DA:84,0
DA:85,0
DA:87,0
DA:89,0
DA:90,0
DA:96,0
DA:97,0
DA:98,0
DA:99,0
DA:100,0
DA:101,0
DA:103,0
DA:105,0
DA:107,0
DA:108,0
DA:110,0
DA:111,0
DA:114,0
DA:120,0
DA:135,0
DA:67,0
DA:72,0
DA:73,0
DA:75,0
DA:76,0
DA:77,0
DA:78,0
DA:80,0
DA:82,0
DA:83,0
DA:84,0
DA:85,0
DA:87,0
DA:89,0
DA:90,0
DA:96,0
DA:97,0
DA:98,0
DA:99,0
DA:100,0
DA:101,0
DA:103,0
DA:105,0
DA:107,0
DA:108,0
DA:110,0
DA:111,0
DA:114,0
DA:120,0
DA:135,0
DA:137,0
DA:139,0
DA:140,0
DA:137,0
DA:139,0
DA:140,0
DA:137,0
DA:139,0
DA:140,0
DA:137,0
DA:139,0
DA:140,0
DA:137,0
DA:139,0
DA:140,0
DA:137,0
DA:139,0
DA:140,0
DA:137,0
DA:139,0
DA:140,0
DA:137,0
DA:139,0
DA:140,0
DA:137,0
DA:139,0
DA:140,0
DA:137,0
DA:139,0
DA:140,0
DA:137,0
DA:139,0
DA:140,0
DA:137,0
DA:139,0
DA:140,0
DA:137,0
DA:139,0
DA:140,0
DA:142,0
DA:150,0
DA:152,0
DA:153,0
DA:154,0
DA:155,0
DA:156,0
DA:157,0
DA:158,0
DA:159,0
DA:160,0
DA:161,0
DA:164,0
DA:167,0
DA:169,0
DA:187,0
DA:188,0
DA:142,0
DA:150,0
DA:152,0
DA:153,0
DA:154,0
DA:155,0
DA:156,0
DA:157,0
DA:158,0
DA:159,0
DA:160,0
DA:161,0
DA:164,0
DA:167,0
DA:169,0
DA:187,0
DA:188,0
DA:142,0
DA:150,0
DA:152,0
DA:153,0
DA:154,0
DA:155,0
DA:156,0
DA:157,0
DA:158,0
DA:159,0
DA:160,0
DA:161,0
DA:164,0
DA:167,0
DA:169,0
DA:187,0
DA:188,0
DA:142,0
DA:150,0
DA:152,0
DA:153,0
DA:154,0
DA:155,0
DA:156,0
DA:157,0
DA:158,0
DA:159,0
DA:160,0
DA:161,0
DA:164,0
DA:167,0
DA:169,0
DA:187,0
DA:188,0
DA:142,2
DA:150,2
DA:152,6
DA:153,2
DA:154,4
DA:155,2
DA:156,4
DA:157,2
DA:158,2
DA:159,2
DA:160,2
DA:161,2
DA:164,2
DA:167,0
DA:169,0
DA:187,0
DA:188,2
DA:142,0
DA:150,0
DA:152,0
DA:153,0
DA:154,0
DA:155,0
DA:156,0
DA:157,0
DA:158,0
DA:159,0
DA:160,0
DA:161,0
DA:164,0
DA:167,0
DA:169,0
DA:187,0
DA:188,0
DA:142,0
DA:150,0
DA:152,0
DA:153,0
DA:154,0
DA:155,0
DA:156,0
DA:157,0
DA:158,0
DA:159,0
DA:160,0
DA:161,0
DA:164,0
DA:167,0
DA:169,0
DA:187,0
DA:188,0
DA:142,0
DA:150,0
DA:152,0
DA:153,0
DA:154,0
DA:155,0
DA:156,0
DA:157,0
DA:158,0
DA:159,0
DA:160,0
DA:161,0
DA:164,0
DA:167,0
DA:169,0
DA:187,0
DA:188,0
DA:142,0
DA:150,0
DA:152,0
DA:153,0
DA:154,0
DA:155,0
DA:156,0
DA:157,0
DA:158,0
DA:159,0
DA:160,0
DA:161,0
DA:164,0
DA:167,0
DA:169,0
DA:187,0
DA:188,0
DA:142,0
DA:150,0
DA:152,0
DA:153,0
DA:154,0
DA:155,0
DA:156,0
DA:157,0
DA:158,0
DA:159,0
DA:160,0
DA:161,0
DA:164,0
DA:167,0
DA:169,0
DA:187,0
DA:188,0
DA:142,0
DA:150,0
DA:152,0
DA:153,0
DA:154,0
DA:155,0
DA:156,0
DA:157,0
DA:158,0
DA:159,0
DA:160,0
DA:161,0
DA:164,0
DA:167,0
DA:169,0
DA:187,0
DA:188,0
DA:142,0
DA:150,0
DA:152,0
DA:153,0
DA:154,0
DA:155,0
DA:156,0
DA:157,0
DA:158,0
DA:159,0
DA:160,0
DA:161,0
DA:164,0
DA:167,0
DA:169,0
DA:187,0
DA:188,0
DA:142,3
DA:150,3
DA:152,9
DA:153,3
DA:154,6
DA:155,3
DA:156,6
DA:157,3
DA:158,3
DA:159,3
DA:160,3
DA:161,3
DA:164,3
DA:167,0
DA:169,0
DA:187,0
DA:188,3
DA:191,0
DA:196,0
DA:198,0
DA:199,0
DA:200,0
DA:201,0
DA:202,0
DA:203,0
DA:205,0
DA:207,0
DA:208,0
DA:209,0
DA:212,0
DA:213,0
DA:191,0
DA:196,0
DA:198,0
DA:199,0
DA:200,0
DA:201,0
DA:202,0
DA:203,0
DA:205,0
DA:207,0
DA:208,0
DA:209,0
DA:212,0
DA:213,0
DA:191,0
DA:196,0
DA:198,0
DA:199,0
DA:200,0
DA:201,0
DA:202,0
DA:203,0
DA:205,0
DA:207,0
DA:208,0
DA:209,0
DA:212,0
DA:213,0
DA:191,0
DA:196,0
DA:198,0
DA:199,0
DA:200,0
DA:201,0
DA:202,0
DA:203,0
DA:205,0
DA:207,0
DA:208,0
DA:209,0
DA:212,0
DA:213,0
DA:191,0
DA:196,0
DA:198,0
DA:199,0
DA:200,0
DA:201,0
DA:202,0
DA:203,0
DA:205,0
DA:207,0
DA:208,0
DA:209,0
DA:212,0
DA:213,0
DA:191,0
DA:196,0
DA:198,0
DA:199,0
DA:200,0
DA:201,0
DA:202,0
DA:203,0
DA:205,0
DA:207,0
DA:208,0
DA:209,0
DA:212,0
DA:213,0
DA:191,0
DA:196,0
DA:198,0
DA:199,0
DA:200,0
DA:201,0
DA:202,0
DA:203,0
DA:205,0
DA:207,0
DA:208,0
DA:209,0
DA:212,0
DA:213,0
DA:191,0
DA:196,0
DA:198,0
DA:199,0
DA:200,0
DA:201,0
DA:202,0
DA:203,0
DA:205,0
DA:207,0
DA:208,0
DA:209,0
DA:212,0
DA:213,0
DA:191,0
DA:196,0
DA:198,0
DA:199,0
DA:200,0
DA:201,0
DA:202,0
DA:203,0
DA:205,0
DA:207,0
DA:208,0
DA:209,0
DA:212,0
DA:213,0
DA:191,1
DA:196,1
DA:198,3
DA:199,2
DA:200,1
DA:201,3
DA:202,1
DA:203,1
DA:205,0
DA:207,0
DA:208,0
DA:209,0
DA:212,0
DA:213,1
DA:191,0
DA:196,0
DA:198,0
DA:199,0
DA:200,0
DA:201,0
DA:202,0
DA:203,0
DA:205,0
DA:207,0
DA:208,0
DA:209,0
DA:212,0
DA:213,0
DA:191,0
DA:196,0
DA:198,0
DA:199,0
DA:200,0
DA:201,0
DA:202,0
DA:203,0
DA:205,0
DA:207,0
DA:208,0
DA:209,0
DA:212,0
DA:213,0
DA:191,0
DA:196,0
DA:198,0
DA:199,0
DA:200,0
DA:201,0
DA:202,0
DA:203,0
DA:205,0
DA:207,0
DA:208,0
DA:209,0
DA:212,0
DA:213,0
DA:215,0
DA:220,0
DA:222,0
DA:223,0
DA:224,0
DA:225,0
DA:227,0
DA:229,0
DA:230,0
DA:233,0
DA:234,0
DA:215,0
DA:220,0
DA:222,0
DA:223,0
DA:224,0
DA:225,0
DA:227,0
DA:229,0
DA:230,0
DA:233,0
DA:234,0
DA:215,0
DA:220,0
DA:222,0
DA:223,0
DA:224,0
DA:225,0
DA:227,0
DA:229,0
DA:230,0
DA:233,0
DA:234,0
DA:215,0
DA:220,0
DA:222,0
DA:223,0
DA:224,0
DA:225,0
DA:227,0
DA:229,0
DA:230,0
DA:233,0
DA:234,0
DA:215,2
DA:220,2
DA:222,4
DA:223,2
DA:224,2
DA:225,2
DA:227,0
DA:229,0
DA:230,0
DA:233,0
DA:234,2
DA:215,0
DA:220,0
DA:222,0
DA:223,0
DA:224,0
DA:225,0
DA:227,0
DA:229,0
DA:230,0
DA:233,0
DA:234,0
DA:215,0
DA:220,0
DA:222,0
DA:223,0
DA:224,0
DA:225,0
DA:227,0
DA:229,0
DA:230,0
DA:233,0
DA:234,0
DA:215,0
DA:220,0
DA:222,0
DA:223,0
DA:224,0
DA:225,0
DA:227,0
DA:229,0
DA:230,0
DA:233,0
DA:234,0
DA:215,0
DA:220,0
DA:222,0
DA:223,0
DA:224,0
DA:225,0
DA:227,0
DA:229,0
DA:230,0
DA:233,0
DA:234,0
DA:215,0
DA:220,0
DA:222,0
DA:223,0
DA:224,0
DA:225,0
DA:227,0
DA:229,0
DA:230,0
DA:233,0
DA:234,0
DA:215,0
DA:220,0
DA:222,0
DA:223,0
DA:224,0
DA:225,0
DA:227,0
DA:229,0
DA:230,0
DA:233,0
DA:234,0
DA:215,0
DA:220,0
DA:222,0
DA:223,0
DA:224,0
DA:225,0
DA:227,0
DA:229,0
DA:230,0
DA:233,0
DA:234,0
DA:215,3
DA:220,3
DA:222,6
DA:223,3
DA:224,3
DA:225,3
DA:227,0
DA:229,0
DA:230,0
DA:233,0
DA:234,3
DA:236,0
DA:241,0
DA:243,0
DA:244,0
DA:245,0
DA:246,0
DA:248,0
DA:250,0
DA:251,0
DA:254,0
DA:255,0
DA:236,0
DA:241,0
DA:243,0
DA:244,0
DA:245,0
DA:246,0
DA:248,0
DA:250,0
DA:251,0
DA:254,0
DA:255,0
DA:236,0
DA:241,0
DA:243,0
DA:244,0
DA:245,0
DA:246,0
DA:248,0
DA:250,0
DA:251,0
DA:254,0
DA:255,0
DA:236,0
DA:241,0
DA:243,0
DA:244,0
DA:245,0
DA:246,0
DA:248,0
DA:250,0
DA:251,0
DA:254,0
DA:255,0
DA:236,13
DA:241,13
DA:243,13
DA:244,13
DA:245,13
DA:246,13
DA:248,0
DA:250,0
DA:251,0
DA:254,0
DA:255,13
DA:236,0
DA:241,0
DA:243,0
DA:244,0
DA:245,0
DA:246,0
DA:248,0
DA:250,0
DA:251,0
DA:254,0
DA:255,0
DA:236,0
DA:241,0
DA:243,0
DA:244,0
DA:245,0
DA:246,0
DA:248,0
DA:250,0
DA:251,0
DA:254,0
DA:255,0
DA:236,0
DA:241,0
DA:243,0
DA:244,0
DA:245,0
DA:246,0
DA:248,0
DA:250,0
DA:251,0
DA:254,0
DA:255,0
DA:236,1
DA:241,1
DA:243,1
DA:244,1
DA:245,1
DA:246,1
DA:248,0
DA:250,0
DA:251,0
DA:254,0
DA:255,1
DA:236,7
DA:241,7
DA:243,7
DA:244,7
DA:245,7
DA:246,7
DA:248,0
DA:250,0
DA:251,0
DA:254,0
DA:255,7
DA:236,0
DA:241,0
DA:243,0
DA:244,0
DA:245,0
DA:246,0
DA:248,0
DA:250,0
DA:251,0
DA:254,0
DA:255,0
DA:236,0
DA:241,0
DA:243,0
DA:244,0
DA:245,0
DA:246,0
DA:248,0
DA:250,0
DA:251,0
DA:254,0
DA:255,0
DA:236,1
DA:241,1
DA:243,1
DA:244,1
DA:245,1
DA:246,1
DA:248,0
DA:250,0
DA:251,0
DA:254,0
DA:255,1
DA:257,0
DA:259,0
DA:260,0
DA:257,0
DA:259,0
DA:260,0
DA:257,0
DA:259,0
DA:260,0
DA:257,0
DA:259,0
DA:260,0
DA:257,71
DA:259,71
DA:260,71
DA:257,0
DA:259,0
DA:260,0
DA:257,0
DA:259,0
DA:260,0
DA:257,0
DA:259,0
DA:260,0
DA:257,2
DA:259,2
DA:260,2
DA:257,243
DA:259,243
DA:260,243
DA:257,0
DA:259,0
DA:260,0
DA:257,0
DA:259,0
DA:260,0
DA:257,9
DA:259,9
DA:260,9
DA:262,0
DA:264,0
DA:265,0
DA:267,0
DA:268,0
DA:270,0
DA:271,0
DA:272,0
DA:276,0
DA:262,0
DA:264,0
DA:265,0
DA:267,0
DA:268,0
DA:270,0
DA:271,0
DA:272,0
DA:276,0
DA:262,0
DA:264,0
DA:265,0
DA:267,0
DA:268,0
DA:270,0
DA:271,0
DA:272,0
DA:276,0
DA:262,0
DA:264,0
DA:265,0
DA:267,0
DA:268,0
DA:270,0
DA:271,0
DA:272,0
DA:276,0
DA:262,13
DA:264,13
DA:265,13
DA:267,0
DA:268,0
DA:270,0
DA:271,0
DA:272,0
DA:276,13
DA:262,0
DA:264,0
DA:265,0
DA:267,0
DA:268,0
DA:270,0
DA:271,0
DA:272,0
DA:276,0
DA:262,0
DA:264,0
DA:265,0
DA:267,0
DA:268,0
DA:270,0
DA:271,0
DA:272,0
DA:276,0
DA:262,0
DA:264,0
DA:265,0
DA:267,0
DA:268,0
DA:270,0
DA:271,0
DA:272,0
DA:276,0
DA:262,1
DA:264,1
DA:265,1
DA:267,0
DA:268,0
DA:270,0
DA:271,0
DA:272,0
DA:276,1
DA:262,7
DA:264,7
DA:265,7
DA:267,0
DA:268,0
DA:270,0
DA:271,0
DA:272,0
DA:276,7
DA:262,0
DA:264,0
DA:265,0
DA:267,0
DA:268,0
DA:270,0
DA:271,0
DA:272,0
DA:276,0
DA:262,0
DA:264,0
DA:265,0
DA:267,0
DA:268,0
DA:270,0
DA:271,0
DA:272,0
DA:276,0
DA:262,1
DA:264,1
DA:265,1
DA:267,0
DA:268,0
DA:270,0
DA:271,0
DA:272,0
DA:276,1
DA:278,0
DA:280,0
DA:281,0
DA:282,0
DA:283,0
DA:287,0
DA:288,0
DA:278,0
DA:280,0
DA:281,0
DA:282,0
DA:283,0
DA:287,0
DA:288,0
DA:278,0
DA:280,0
DA:281,0
DA:282,0
DA:283,0
DA:287,0
DA:288,0
DA:278,0
DA:280,0
DA:281,0
DA:282,0
DA:283,0
DA:287,0
DA:288,0
DA:278,0
DA:280,0
DA:281,0
DA:282,0
DA:283,0
DA:287,0
DA:288,0
DA:278,0
DA:280,0
DA:281,0
DA:282,0
DA:283,0
DA:287,0
DA:288,0
DA:278,0
DA:280,0
DA:281,0
DA:282,0
DA:283,0
DA:287,0
DA:288,0
DA:278,0
DA:280,0
DA:281,0
DA:282,0
DA:283,0
DA:287,0
DA:288,0
DA:278,0
DA:280,0
DA:281,0
DA:282,0
DA:283,0
DA:287,0
DA:288,0
DA:278,0
DA:280,0
DA:281,0
DA:282,0
DA:283,0
DA:287,0
DA:288,0
DA:278,0
DA:280,0
DA:281,0
DA:282,0
DA:283,0
DA:287,0
DA:288,0
DA:278,0
DA:280,0
DA:281,0
DA:282,0
DA:283,0
DA:287,0
DA:288,0
DA:278,0
DA:280,0
DA:281,0
DA:282,0
DA:283,0
DA:287,0
DA:288,0
DA:299,0
DA:300,0
DA:299,0
DA:300,0
DA:299,0
DA:300,0
DA:299,0
DA:300,0
DA:299,39
DA:300,39
DA:299,0
DA:300,0
DA:299,0
DA:300,0
DA:299,0
DA:300,0
DA:299,8
DA:300,8
DA:299,176
DA:300,176
DA:299,0
DA:300,0
DA:299,0
DA:300,0
DA:299,17
DA:300,17
DA:302,0
DA:304,0
DA:305,0
DA:302,0
DA:304,0
DA:305,0
DA:302,0
DA:304,0
DA:305,0
DA:302,0
DA:304,0
DA:305,0
DA:302,29
DA:304,29
DA:305,29
DA:302,0
DA:304,0
DA:305,0
DA:302,0
DA:304,0
DA:305,0
DA:302,0
DA:304,0
DA:305,0
DA:302,4
DA:304,4
DA:305,4
DA:302,110
DA:304,110
DA:305,110
DA:302,0
DA:304,0
DA:305,0
DA:302,0
DA:304,0
DA:305,0
DA:302,5
DA:304,5
DA:305,5
DA:306,0
DA:307,0
DA:308,0
DA:306,0
DA:307,0
DA:308,0
DA:306,0
DA:307,0
DA:308,0
DA:306,0
DA:307,0
DA:308,0
DA:306,2
DA:307,2
DA:308,2
DA:306,0
DA:307,0
DA:308,0
DA:306,0
DA:307,0
DA:308,0
DA:306,0
DA:307,0
DA:308,0
DA:306,1
DA:307,1
DA:308,1
DA:306,3
DA:307,3
DA:308,3
DA:306,0
DA:307,0
DA:308,0
DA:306,0
DA:307,0
DA:308,0
DA:306,1
DA:307,1
DA:308,1
DA:309,0
DA:310,0
DA:309,0
DA:310,0
DA:309,0
DA:310,0
DA:309,0
DA:310,0
DA:309,0
DA:310,0
DA:309,0
DA:310,0
DA:309,0
DA:310,0
DA:309,0
DA:310,0
DA:309,0
DA:310,0
DA:309,0
DA:310,0
DA:309,0
DA:310,0
DA:309,0
DA:310,0
DA:309,8
DA:310,8
DA:312,0
DA:313,0
DA:314,0
DA:312,0
DA:313,0
DA:314,0
DA:312,0
DA:313,0
DA:314,0
DA:312,0
DA:313,0
DA:314,0
DA:312,0
DA:313,0
DA:314,0
DA:312,0
DA:313,0
DA:314,0
DA:312,0
DA:313,0
DA:314,0
DA:312,0
DA:313,0
DA:314,0
DA:312,0
DA:313,0
DA:314,0
DA:312,0
DA:313,0
DA:314,0
DA:312,0
DA:313,0
DA:314,0
DA:312,0
DA:313,0
DA:314,0
DA:312,0
DA:313,0
DA:314,0
DA:315,0
DA:316,0
DA:315,0
DA:316,0
DA:315,0
DA:316,0
DA:315,0
DA:316,0
DA:315,0
DA:316,0
DA:315,0
DA:316,0
DA:315,0
DA:316,0
DA:315,0
DA:316,0
DA:315,0
DA:316,0
DA:315,0
DA:316,0
DA:315,0
DA:316,0
DA:315,0
DA:316,0
DA:315,0
DA:316,0
end_of_record
SF:/home/brunnels/Research/alamo/src/Model/Solid/Affine/Affine.H
end_of_record
SF:/home/brunnels/Research/alamo/src/Set/Matrix4_Major.H
FN:16,_ZN3Set7Matrix4ILi2ELi1EEC2Ev
FNDA:0,_ZN3Set7Matrix4ILi2ELi1EEC2Ev
FN:141,_ZN3Set7Matrix4ILi2ELi1EE4ZeroEv
FNDA:160,_ZN3Set7Matrix4ILi2ELi1EE4ZeroEv
FN:225,_ZN3Set7Matrix4ILi3ELi1EEC2Ev
FNDA:399990,_ZN3Set7Matrix4ILi3ELi1EEC2Ev
DA:16,0
DA:70,6399840
DA:71,6399840
DA:72,5999850
DA:73,5199870
DA:74,4399890
DA:75,3599910
DA:76,3199920
DA:77,2399940
DA:78,1599960
DA:79,1199970
DA:80,399990
DA:82,0
DA:83,0
DA:117,0
DA:141,160
DA:143,160
DA:144,1760
DA:145,160
DA:225,399990
DA:260,71198200
DA:262,71198200
DA:263,69998200
DA:264,67598300
DA:265,65998400
DA:266,63598400
DA:267,61198500
DA:268,59598500
DA:269,57998600
DA:270,56398600
DA:271,54798600
DA:272,53598700
DA:273,51998700
DA:274,49598800
DA:275,47198800
DA:276,45598900
DA:277,43998900
DA:278,42398900
DA:279,40799000
DA:280,39999000
DA:281,38399000
DA:282,36799100
DA:283,35199100
DA:284,33599200
DA:285,31999200
DA:286,30399200
DA:287,29199300
DA:288,26799300
DA:289,25199400
DA:290,23599400
DA:291,21999400
DA:292,20399500
DA:293,19199500
DA:294,17599600
DA:295,15999600
DA:296,14399600
DA:297,12799700
DA:298,11999700
DA:299,10399700
DA:300,8799780
DA:301,7199820
DA:302,6399840
DA:303,4799880
DA:304,3199920
DA:305,2399940
DA:306,799980
DA:308,0
DA:309,0
end_of_record
SF:/home/brunnels/Research/alamo/src/Model/Interface/Crack/Constant.H
FN:21,_ZN5Model9Interface5Crack8ConstantC2Ev
FNDA:0,_ZN5Model9Interface5Crack8ConstantC2Ev
FN:23,_ZN5Model9Interface5Crack8Constant2GcEd
FNDA:0,_ZN5Model9Interface5Crack8Constant2GcEd
FN:24,_ZN5Model9Interface5Crack8Constant3DGcEd
FNDA:0,_ZN5Model9Interface5Crack8Constant3DGcEd
FN:25,_ZN5Model9Interface5Crack8Constant4DDGcEd
FNDA:0,_ZN5Model9Interface5Crack8Constant4DDGcEd
FN:26,_ZN5Model9Interface5Crack8Constant4ZetaEd
FNDA:0,_ZN5Model9Interface5Crack8Constant4ZetaEd
FN:27,_ZN5Model9Interface5Crack8Constant8MobilityEd
FNDA:0,_ZN5Model9Interface5Crack8Constant8MobilityEd
FN:28,_ZN5Model9Interface5Crack8Constant21DrivingForceThresholdEd
FNDA:0,_ZN5Model9Interface5Crack8Constant21DrivingForceThresholdEd
FN:33,_ZN5Model9Interface5Crack8Constant5ParseERS2_RN2IO9ParmParseE
FNDA:0,_ZN5Model9Interface5Crack8Constant5ParseERS2_RN2IO9ParmParseE
DA:21,0
DA:23,0
DA:24,0
DA:25,0
DA:26,0
DA:27,0
DA:28,0
DA:33,0
DA:35,0
DA:36,0
DA:37,0
DA:38,0
DA:40,0
DA:41,0
DA:42,0
DA:43,0
DA:45,0
DA:46,0
DA:48,0
DA:49,0
DA:50,0
DA:51,0
DA:52,0
DA:53,0
DA:54,0
DA:56,0
DA:57,0
DA:58,0
DA:59,0
DA:60,0
DA:62,0
DA:63,0
DA:65,0
DA:66,0
end_of_record
SF:/home/brunnels/Research/alamo/src/Solver/Nonlocal/Newton.H
FN:19,_ZN6Solver8Nonlocal6NewtonIN5Model5Solid7Elastic17PseudoLinearCubicEEC2Ev
FNDA:0,_ZN6Solver8Nonlocal6NewtonIN5Model5Solid7Elastic17PseudoLinearCubicEEC2Ev
FN:19,_ZN6Solver8Nonlocal6NewtonIN5Model5Solid6Affine5CubicEEC2Ev
FNDA:0,_ZN6Solver8Nonlocal6NewtonIN5Model5Solid6Affine5CubicEEC2Ev
FN:19,_ZN6Solver8Nonlocal6NewtonIN5Model5Solid6Affine9HexagonalEEC2Ev
FNDA:0,_ZN6Solver8Nonlocal6NewtonIN5Model5Solid6Affine9HexagonalEEC2Ev
FN:19,_ZN6Solver8Nonlocal6NewtonIN5Model5Solid6Linear9IsotropicEEC2Ev
FNDA:2,_ZN6Solver8Nonlocal6NewtonIN5Model5Solid6Linear9IsotropicEEC2Ev
FN:19,_ZN6Solver8Nonlocal6NewtonIN5Model5Solid6Linear5CubicEEC2Ev
FNDA:0,_ZN6Solver8Nonlocal6NewtonIN5Model5Solid6Linear5CubicEEC2Ev
FN:19,_ZN6Solver8Nonlocal6NewtonIN5Model5Solid6Affine9IsotropicEEC2Ev
FNDA:0,_ZN6Solver8Nonlocal6NewtonIN5Model5Solid6Affine9IsotropicEEC2Ev
FN:19,_ZN6Solver8Nonlocal6NewtonIN5Model5Solid6Linear9LaplacianEEC2Ev
FNDA:1,_ZN6Solver8Nonlocal6NewtonIN5Model5Solid6Linear9LaplacianEEC2Ev
FN:19,_ZN6Solver8Nonlocal6NewtonIN5Model5Solid7Elastic10NeoHookeanEEC2Ev
FNDA:3,_ZN6Solver8Nonlocal6NewtonIN5Model5Solid7Elastic10NeoHookeanEEC2Ev
FN:19,_ZN6Solver8Nonlocal6NewtonIN5Model5Solid6Affine2J2EEC2Ev
FNDA:1,_ZN6Solver8Nonlocal6NewtonIN5Model5Solid6Affine2J2EEC2Ev
FN:19,_ZN6Solver8Nonlocal6NewtonIN5Model5Solid7Elastic28PseudoLinearCubicPredeformedEEC2Ev
FNDA:0,_ZN6Solver8Nonlocal6NewtonIN5Model5Solid7Elastic28PseudoLinearCubicPredeformedEEC2Ev
FN:21,_ZN6Solver8Nonlocal6NewtonIN5Model5Solid6Linear19IsotropicDegradableEEC2ERN8Operator7ElasticILi6EEE
FNDA:0,_ZN6Solver8Nonlocal6NewtonIN5Model5Solid6Linear19IsotropicDegradableEEC2ERN8Operator7ElasticILi6EEE
FN:26,_ZN6Solver8Nonlocal6NewtonIN5Model5Solid6Linear5CubicEED2Ev
FNDA:0,_ZN6Solver8Nonlocal6NewtonIN5Model5Solid6Linear5CubicEED2Ev
FN:26,_ZN6Solver8Nonlocal6NewtonIN5Model5Solid7Elastic28PseudoLinearCubicPredeformedEED2Ev
FNDA:0,_ZN6Solver8Nonlocal6NewtonIN5Model5Solid7Elastic28PseudoLinearCubicPredeformedEED2Ev
FN:26,_ZN6Solver8Nonlocal6NewtonIN5Model5Solid7Elastic17PseudoLinearCubicEED2Ev
FNDA:0,_ZN6Solver8Nonlocal6NewtonIN5Model5Solid7Elastic17PseudoLinearCubicEED2Ev
FN:26,_ZN6Solver8Nonlocal6NewtonIN5Model5Solid6Affine2J2EED2Ev
FNDA:1,_ZN6Solver8Nonlocal6NewtonIN5Model5Solid6Affine2J2EED2Ev
FN:26,_ZN6Solver8Nonlocal6NewtonIN5Model5Solid7Elastic10NeoHookeanEED2Ev
FNDA:3,_ZN6Solver8Nonlocal6NewtonIN5Model5Solid7Elastic10NeoHookeanEED2Ev
FN:26,_ZN6Solver8Nonlocal6NewtonIN5Model5Solid6Linear9LaplacianEED2Ev
FNDA:1,_ZN6Solver8Nonlocal6NewtonIN5Model5Solid6Linear9LaplacianEED2Ev
FN:26,_ZN6Solver8Nonlocal6NewtonIN5Model5Solid6Affine5CubicEED2Ev
FNDA:0,_ZN6Solver8Nonlocal6NewtonIN5Model5Solid6Affine5CubicEED2Ev
FN:26,_ZN6Solver8Nonlocal6NewtonIN5Model5Solid6Linear9IsotropicEED2Ev
FNDA:2,_ZN6Solver8Nonlocal6NewtonIN5Model5Solid6Linear9IsotropicEED2Ev
FN:26,_ZN6Solver8Nonlocal6NewtonIN5Model5Solid6Affine9IsotropicEED2Ev
FNDA:0,_ZN6Solver8Nonlocal6NewtonIN5Model5Solid6Affine9IsotropicEED2Ev
FN:26,_ZN6Solver8Nonlocal6NewtonIN5Model5Solid6Affine9HexagonalEED2Ev
FNDA:0,_ZN6Solver8Nonlocal6NewtonIN5Model5Solid6Affine9HexagonalEED2Ev
FN:26,_ZN6Solver8Nonlocal6NewtonIN5Model5Solid6Linear19IsotropicDegradableEED2Ev
FNDA:0,_ZN6Solver8Nonlocal6NewtonIN5Model5Solid6Linear19IsotropicDegradableEED2Ev
FN:31,_ZN6Solver8Nonlocal6NewtonIN5Model5Solid6Affine9IsotropicEE6DefineERN8Operator7ElasticILi6EEE
FNDA:0,_ZN6Solver8Nonlocal6NewtonIN5Model5Solid6Affine9IsotropicEE6DefineERN8Operator7ElasticILi6EEE
FN:31,_ZN6Solver8Nonlocal6NewtonIN5Model5Solid6Linear9LaplacianEE6DefineERN8Operator7ElasticILi4EEE
FNDA:1,_ZN6Solver8Nonlocal6NewtonIN5Model5Solid6Linear9LaplacianEE6DefineERN8Operator7ElasticILi4EEE
FN:31,_ZN6Solver8Nonlocal6NewtonIN5Model5Solid6Affine9HexagonalEE6DefineERN8Operator7ElasticILi3EEE
FNDA:0,_ZN6Solver8Nonlocal6NewtonIN5Model5Solid6Affine9HexagonalEE6DefineERN8Operator7ElasticILi3EEE
FN:31,_ZN6Solver8Nonlocal6NewtonIN5Model5Solid6Affine5CubicEE6DefineERN8Operator7ElasticILi3EEE
FNDA:0,_ZN6Solver8Nonlocal6NewtonIN5Model5Solid6Affine5CubicEE6DefineERN8Operator7ElasticILi3EEE
FN:31,_ZN6Solver8Nonlocal6NewtonIN5Model5Solid6Linear5CubicEE6DefineERN8Operator7ElasticILi3EEE
FNDA:0,_ZN6Solver8Nonlocal6NewtonIN5Model5Solid6Linear5CubicEE6DefineERN8Operator7ElasticILi3EEE
FN:31,_ZN6Solver8Nonlocal6NewtonIN5Model5Solid7Elastic10NeoHookeanEE6DefineERN8Operator7ElasticILi1EEE
FNDA:120,_ZN6Solver8Nonlocal6NewtonIN5Model5Solid7Elastic10NeoHookeanEE6DefineERN8Operator7ElasticILi1EEE
FN:31,_ZN6Solver8Nonlocal6NewtonIN5Model5Solid7Elastic17PseudoLinearCubicEE6DefineERN8Operator7ElasticILi1EEE
FNDA:0,_ZN6Solver8Nonlocal6NewtonIN5Model5Solid7Elastic17PseudoLinearCubicEE6DefineERN8Operator7ElasticILi1EEE
FN:31,_ZN6Solver8Nonlocal6NewtonIN5Model5Solid7Elastic28PseudoLinearCubicPredeformedEE6DefineERN8Operator7ElasticILi1EEE
FNDA:0,_ZN6Solver8Nonlocal6NewtonIN5Model5Solid7Elastic28PseudoLinearCubicPredeformedEE6DefineERN8Operator7ElasticILi1EEE
FN:31,_ZN6Solver8Nonlocal6NewtonIN5Model5Solid6Affine2J2EE6DefineERN8Operator7ElasticILi6EEE
FNDA:2,_ZN6Solver8Nonlocal6NewtonIN5Model5Solid6Affine2J2EE6DefineERN8Operator7ElasticILi6EEE
FN:31,_ZN6Solver8Nonlocal6NewtonIN5Model5Solid6Linear9IsotropicEE6DefineERN8Operator7ElasticILi6EEE
FNDA:3,_ZN6Solver8Nonlocal6NewtonIN5Model5Solid6Linear9IsotropicEE6DefineERN8Operator7ElasticILi6EEE
FN:31,_ZN6Solver8Nonlocal6NewtonIN5Model5Solid6Linear19IsotropicDegradableEE6DefineERN8Operator7ElasticILi6EEE
FNDA:0,_ZN6Solver8Nonlocal6NewtonIN5Model5Solid6Linear19IsotropicDegradableEE6DefineERN8Operator7ElasticILi6EEE
FN:37,_ZN6Solver8Nonlocal6NewtonIN5Model5Solid6Affine5CubicEE5ClearEv
FNDA:0,_ZN6Solver8Nonlocal6NewtonIN5Model5Solid6Affine5CubicEE5ClearEv
FN:37,_ZN6Solver8Nonlocal6NewtonIN5Model5Solid6Affine9HexagonalEE5ClearEv
FNDA:0,_ZN6Solver8Nonlocal6NewtonIN5Model5Solid6Affine9HexagonalEE5ClearEv
FN:37,_ZN6Solver8Nonlocal6NewtonIN5Model5Solid6Linear9IsotropicEE5ClearEv
FNDA:3,_ZN6Solver8Nonlocal6NewtonIN5Model5Solid6Linear9IsotropicEE5ClearEv
FN:37,_ZN6Solver8Nonlocal6NewtonIN5Model5Solid6Linear5CubicEE5ClearEv
FNDA:0,_ZN6Solver8Nonlocal6NewtonIN5Model5Solid6Linear5CubicEE5ClearEv
FN:37,_ZN6Solver8Nonlocal6NewtonIN5Model5Solid6Linear9LaplacianEE5ClearEv
FNDA:1,_ZN6Solver8Nonlocal6NewtonIN5Model5Solid6Linear9LaplacianEE5ClearEv
FN:37,_ZN6Solver8Nonlocal6NewtonIN5Model5Solid6Affine2J2EE5ClearEv
FNDA:2,_ZN6Solver8Nonlocal6NewtonIN5Model5Solid6Affine2J2EE5ClearEv
FN:37,_ZN6Solver8Nonlocal6NewtonIN5Model5Solid7Elastic28PseudoLinearCubicPredeformedEE5ClearEv
FNDA:0,_ZN6Solver8Nonlocal6NewtonIN5Model5Solid7Elastic28PseudoLinearCubicPredeformedEE5ClearEv
FN:37,_ZN6Solver8Nonlocal6NewtonIN5Model5Solid7Elastic17PseudoLinearCubicEE5ClearEv
FNDA:0,_ZN6Solver8Nonlocal6NewtonIN5Model5Solid7Elastic17PseudoLinearCubicEE5ClearEv
FN:37,_ZN6Solver8Nonlocal6NewtonIN5Model5Solid7Elastic10NeoHookeanEE5ClearEv
FNDA:120,_ZN6Solver8Nonlocal6NewtonIN5Model5Solid7Elastic10NeoHookeanEE5ClearEv
FN:37,_ZN6Solver8Nonlocal6NewtonIN5Model5Solid6Linear19IsotropicDegradableEE5ClearEv
FNDA:0,_ZN6Solver8Nonlocal6NewtonIN5Model5Solid6Linear19IsotropicDegradableEE5ClearEv
FN:37,_ZN6Solver8Nonlocal6NewtonIN5Model5Solid6Affine9IsotropicEE5ClearEv
FNDA:0,_ZN6Solver8Nonlocal6NewtonIN5Model5Solid6Affine9IsotropicEE5ClearEv
FN:47,_ZN6Solver8Nonlocal6NewtonIN5Model5Solid6Affine9IsotropicEE6setPsiERN3Set5FieldIdEE
FNDA:0,_ZN6Solver8Nonlocal6NewtonIN5Model5Solid6Affine9IsotropicEE6setPsiERN3Set5FieldIdEE
FN:47,_ZN6Solver8Nonlocal6NewtonIN5Model5Solid6Linear9IsotropicEE6setPsiERN3Set5FieldIdEE
FNDA:3,_ZN6Solver8Nonlocal6NewtonIN5Model5Solid6Linear9IsotropicEE6setPsiERN3Set5FieldIdEE
FN:47,_ZN6Solver8Nonlocal6NewtonIN5Model5Solid6Affine2J2EE6setPsiERN3Set5FieldIdEE
FNDA:0,_ZN6Solver8Nonlocal6NewtonIN5Model5Solid6Affine2J2EE6setPsiERN3Set5FieldIdEE
FN:47,_ZN6Solver8Nonlocal6NewtonIN5Model5Solid6Affine5CubicEE6setPsiERN3Set5FieldIdEE
FNDA:0,_ZN6Solver8Nonlocal6NewtonIN5Model5Solid6Affine5CubicEE6setPsiERN3Set5FieldIdEE
FN:47,_ZN6Solver8Nonlocal6NewtonIN5Model5Solid7Elastic28PseudoLinearCubicPredeformedEE6setPsiERN3Set5FieldIdEE
FNDA:0,_ZN6Solver8Nonlocal6NewtonIN5Model5Solid7Elastic28PseudoLinearCubicPredeformedEE6setPsiERN3Set5FieldIdEE
FN:47,_ZN6Solver8Nonlocal6NewtonIN5Model5Solid7Elastic17PseudoLinearCubicEE6setPsiERN3Set5FieldIdEE
FNDA:0,_ZN6Solver8Nonlocal6NewtonIN5Model5Solid7Elastic17PseudoLinearCubicEE6setPsiERN3Set5FieldIdEE
FN:47,_ZN6Solver8Nonlocal6NewtonIN5Model5Solid7Elastic10NeoHookeanEE6setPsiERN3Set5FieldIdEE
FNDA:10,_ZN6Solver8Nonlocal6NewtonIN5Model5Solid7Elastic10NeoHookeanEE6setPsiERN3Set5FieldIdEE
FN:47,_ZN6Solver8Nonlocal6NewtonIN5Model5Solid6Linear5CubicEE6setPsiERN3Set5FieldIdEE
FNDA:0,_ZN6Solver8Nonlocal6NewtonIN5Model5Solid6Linear5CubicEE6setPsiERN3Set5FieldIdEE
FN:47,_ZN6Solver8Nonlocal6NewtonIN5Model5Solid6Linear9LaplacianEE6setPsiERN3Set5FieldIdEE
FNDA:0,_ZN6Solver8Nonlocal6NewtonIN5Model5Solid6Linear9LaplacianEE6setPsiERN3Set5FieldIdEE
FN:47,_ZN6Solver8Nonlocal6NewtonIN5Model5Solid6Affine9HexagonalEE6setPsiERN3Set5FieldIdEE
FNDA:0,_ZN6Solver8Nonlocal6NewtonIN5Model5Solid6Affine9HexagonalEE6setPsiERN3Set5FieldIdEE
FN:53,_ZN6Solver8Nonlocal6NewtonIN5Model5Solid6Linear19IsotropicDegradableEE15prepareForSolveERKN3Set5FieldIdEESB_RS9_RNS8_IN5Eigen6MatrixIdLi2ELi2ELi0ELi2ELi2EEEEERNS8_INS7_7Matrix4ILi2ELi6EEEEERNS8_IS5_EE
FNDA:0,_ZN6Solver8Nonlocal6NewtonIN5Model5Solid6Linear19IsotropicDegradableEE15prepareForSolveERKN3Set5FieldIdEESB_RS9_RNS8_IN5Eigen6MatrixIdLi2ELi2ELi0ELi2ELi2EEEEERNS8_INS7_7Matrix4ILi2ELi6EEEEERNS8_IS5_EE
FN:77,_ZZN6Solver8Nonlocal6NewtonIN5Model5Solid6Linear19IsotropicDegradableEE15prepareForSolveERKN3Set5FieldIdEESB_RS9_RNS8_IN5Eigen6MatrixIdLi2ELi2ELi0ELi2ELi2EEEEERNS8_INS7_7Matrix4ILi2ELi6EEEEERNS8_IS5_EEENKUliiiE_clEiii
FNDA:0,_ZZN6Solver8Nonlocal6NewtonIN5Model5Solid6Linear19IsotropicDegradableEE15prepareForSolveERKN3Set5FieldIdEESB_RS9_RNS8_IN5Eigen6MatrixIdLi2ELi2ELi0ELi2ELi2EEEEERNS8_INS7_7Matrix4ILi2ELi6EEEEERNS8_IS5_EEENKUliiiE_clEiii
FN:122,_ZZN6Solver8Nonlocal6NewtonIN5Model5Solid6Linear19IsotropicDegradableEE15prepareForSolveERKN3Set5FieldIdEESB_RS9_RNS8_IN5Eigen6MatrixIdLi2ELi2ELi0ELi2ELi2EEEEERNS8_INS7_7Matrix4ILi2ELi6EEEEERNS8_IS5_EEENKUliiiE0_clEiii
FNDA:0,_ZZN6Solver8Nonlocal6NewtonIN5Model5Solid6Linear19IsotropicDegradableEE15prepareForSolveERKN3Set5FieldIdEESB_RS9_RNS8_IN5Eigen6MatrixIdLi2ELi2ELi0ELi2ELi2EEEEERNS8_INS7_7Matrix4ILi2ELi6EEEEERNS8_IS5_EEENKUliiiE0_clEiii
FN:145,_ZN6Solver8Nonlocal6NewtonIN5Model5Solid6Affine9HexagonalEE15prepareForSolveERKN3Set5FieldIN5Eigen6MatrixIdLi2ELi1ELi0ELi2ELi1EEEEESE_RNS8_IdEERNS8_INSA_IdLi2ELi2ELi0ELi2ELi2EEEEERNS8_INS7_7Matrix4ILi2ELi3EEEEERNS8_IS5_EE
FNDA:0,_ZN6Solver8Nonlocal6NewtonIN5Model5Solid6Affine9HexagonalEE15prepareForSolveERKN3Set5FieldIN5Eigen6MatrixIdLi2ELi1ELi0ELi2ELi1EEEEESE_RNS8_IdEERNS8_INSA_IdLi2ELi2ELi0ELi2ELi2EEEEERNS8_INS7_7Matrix4ILi2ELi3EEEEERNS8_IS5_EE
FN:145,_ZN6Solver8Nonlocal6NewtonIN5Model5Solid7Elastic17PseudoLinearCubicEE15prepareForSolveERKN3Set5FieldIN5Eigen6MatrixIdLi2ELi1ELi0ELi2ELi1EEEEESE_RNS8_IdEERNS8_INSA_IdLi2ELi2ELi0ELi2ELi2EEEEERNS8_INS7_7Matrix4ILi2ELi1EEEEERNS8_IS5_EE
FNDA:0,_ZN6Solver8Nonlocal6NewtonIN5Model5Solid7Elastic17PseudoLinearCubicEE15prepareForSolveERKN3Set5FieldIN5Eigen6MatrixIdLi2ELi1ELi0ELi2ELi1EEEEESE_RNS8_IdEERNS8_INSA_IdLi2ELi2ELi0ELi2ELi2EEEEERNS8_INS7_7Matrix4ILi2ELi1EEEEERNS8_IS5_EE
FN:145,_ZN6Solver8Nonlocal6NewtonIN5Model5Solid7Elastic10NeoHookeanEE15prepareForSolveERKN3Set5FieldIN5Eigen6MatrixIdLi2ELi1ELi0ELi2ELi1EEEEESE_RNS8_IdEERNS8_INSA_IdLi2ELi2ELi0ELi2ELi2EEEEERNS8_INS7_7Matrix4ILi2ELi1EEEEERNS8_IS5_EE
FNDA:1090,_ZN6Solver8Nonlocal6NewtonIN5Model5Solid7Elastic10NeoHookeanEE15prepareForSolveERKN3Set5FieldIN5Eigen6MatrixIdLi2ELi1ELi0ELi2ELi1EEEEESE_RNS8_IdEERNS8_INSA_IdLi2ELi2ELi0ELi2ELi2EEEEERNS8_INS7_7Matrix4ILi2ELi1EEEEERNS8_IS5_EE
FN:145,_ZN6Solver8Nonlocal6NewtonIN5Model5Solid6Affine9IsotropicEE15prepareForSolveERKN3Set5FieldIN5Eigen6MatrixIdLi2ELi1ELi0ELi2ELi1EEEEESE_RNS8_IdEERNS8_INSA_IdLi2ELi2ELi0ELi2ELi2EEEEERNS8_INS7_7Matrix4ILi2ELi6EEEEERNS8_IS5_EE
FNDA:0,_ZN6Solver8Nonlocal6NewtonIN5Model5Solid6Affine9IsotropicEE15prepareForSolveERKN3Set5FieldIN5Eigen6MatrixIdLi2ELi1ELi0ELi2ELi1EEEEESE_RNS8_IdEERNS8_INSA_IdLi2ELi2ELi0ELi2ELi2EEEEERNS8_INS7_7Matrix4ILi2ELi6EEEEERNS8_IS5_EE
FN:145,_ZN6Solver8Nonlocal6NewtonIN5Model5Solid6Linear9LaplacianEE15prepareForSolveERKN3Set5FieldIN5Eigen6MatrixIdLi2ELi1ELi0ELi2ELi1EEEEESE_RNS8_IdEERNS8_INSA_IdLi2ELi2ELi0ELi2ELi2EEEEERNS8_INS7_7Matrix4ILi2ELi4EEEEERNS8_IS5_EE
FNDA:1,_ZN6Solver8Nonlocal6NewtonIN5Model5Solid6Linear9LaplacianEE15prepareForSolveERKN3Set5FieldIN5Eigen6MatrixIdLi2ELi1ELi0ELi2ELi1EEEEESE_RNS8_IdEERNS8_INSA_IdLi2ELi2ELi0ELi2ELi2EEEEERNS8_INS7_7Matrix4ILi2ELi4EEEEERNS8_IS5_EE
FN:145,_ZN6Solver8Nonlocal6NewtonIN5Model5Solid7Elastic28PseudoLinearCubicPredeformedEE15prepareForSolveERKN3Set5FieldIN5Eigen6MatrixIdLi2ELi1ELi0ELi2ELi1EEEEESE_RNS8_IdEERNS8_INSA_IdLi2ELi2ELi0ELi2ELi2EEEEERNS8_INS7_7Matrix4ILi2ELi1EEEEERNS8_IS5_EE
FNDA:0,_ZN6Solver8Nonlocal6NewtonIN5Model5Solid7Elastic28PseudoLinearCubicPredeformedEE15prepareForSolveERKN3Set5FieldIN5Eigen6MatrixIdLi2ELi1ELi0ELi2ELi1EEEEESE_RNS8_IdEERNS8_INSA_IdLi2ELi2ELi0ELi2ELi2EEEEERNS8_INS7_7Matrix4ILi2ELi1EEEEERNS8_IS5_EE
FN:145,_ZN6Solver8Nonlocal6NewtonIN5Model5Solid6Affine5CubicEE15prepareForSolveERKN3Set5FieldIN5Eigen6MatrixIdLi2ELi1ELi0ELi2ELi1EEEEESE_RNS8_IdEERNS8_INSA_IdLi2ELi2ELi0ELi2ELi2EEEEERNS8_INS7_7Matrix4ILi2ELi3EEEEERNS8_IS5_EE
FNDA:0,_ZN6Solver8Nonlocal6NewtonIN5Model5Solid6Affine5CubicEE15prepareForSolveERKN3Set5FieldIN5Eigen6MatrixIdLi2ELi1ELi0ELi2ELi1EEEEESE_RNS8_IdEERNS8_INSA_IdLi2ELi2ELi0ELi2ELi2EEEEERNS8_INS7_7Matrix4ILi2ELi3EEEEERNS8_IS5_EE
FN:145,_ZN6Solver8Nonlocal6NewtonIN5Model5Solid6Affine2J2EE15prepareForSolveERKN3Set5FieldIN5Eigen6MatrixIdLi2ELi1ELi0ELi2ELi1EEEEESE_RNS8_IdEERNS8_INSA_IdLi2ELi2ELi0ELi2ELi2EEEEERNS8_INS7_7Matrix4ILi2ELi6EEEEERNS8_IS5_EE
FNDA:2,_ZN6Solver8Nonlocal6NewtonIN5Model5Solid6Affine2J2EE15prepareForSolveERKN3Set5FieldIN5Eigen6MatrixIdLi2ELi1ELi0ELi2ELi1EEEEESE_RNS8_IdEERNS8_INSA_IdLi2ELi2ELi0ELi2ELi2EEEEERNS8_INS7_7Matrix4ILi2ELi6EEEEERNS8_IS5_EE
FN:145,_ZN6Solver8Nonlocal6NewtonIN5Model5Solid6Linear5CubicEE15prepareForSolveERKN3Set5FieldIN5Eigen6MatrixIdLi2ELi1ELi0ELi2ELi1EEEEESE_RNS8_IdEERNS8_INSA_IdLi2ELi2ELi0ELi2ELi2EEEEERNS8_INS7_7Matrix4ILi2ELi3EEEEERNS8_IS5_EE
FNDA:0,_ZN6Solver8Nonlocal6NewtonIN5Model5Solid6Linear5CubicEE15prepareForSolveERKN3Set5FieldIN5Eigen6MatrixIdLi2ELi1ELi0ELi2ELi1EEEEESE_RNS8_IdEERNS8_INSA_IdLi2ELi2ELi0ELi2ELi2EEEEERNS8_INS7_7Matrix4ILi2ELi3EEEEERNS8_IS5_EE
FN:145,_ZN6Solver8Nonlocal6NewtonIN5Model5Solid6Linear9IsotropicEE15prepareForSolveERKN3Set5FieldIN5Eigen6MatrixIdLi2ELi1ELi0ELi2ELi1EEEEESE_RNS8_IdEERNS8_INSA_IdLi2ELi2ELi0ELi2ELi2EEEEERNS8_INS7_7Matrix4ILi2ELi6EEEEERNS8_IS5_EE
FNDA:3,_ZN6Solver8Nonlocal6NewtonIN5Model5Solid6Linear9IsotropicEE15prepareForSolveERKN3Set5FieldIN5Eigen6MatrixIdLi2ELi1ELi0ELi2ELi1EEEEESE_RNS8_IdEERNS8_INSA_IdLi2ELi2ELi0ELi2ELi2EEEEERNS8_INS7_7Matrix4ILi2ELi6EEEEERNS8_IS5_EE
FN:169,_ZZN6Solver8Nonlocal6NewtonIN5Model5Solid6Affine2J2EE15prepareForSolveERKN3Set5FieldIN5Eigen6MatrixIdLi2ELi1ELi0ELi2ELi1EEEEESE_RNS8_IdEERNS8_INSA_IdLi2ELi2ELi0ELi2ELi2EEEEERNS8_INS7_7Matrix4ILi2ELi6EEEEERNS8_IS5_EEENKUliiiE_clEiii
FNDA:578,_ZZN6Solver8Nonlocal6NewtonIN5Model5Solid6Affine2J2EE15prepareForSolveERKN3Set5FieldIN5Eigen6MatrixIdLi2ELi1ELi0ELi2ELi1EEEEESE_RNS8_IdEERNS8_INSA_IdLi2ELi2ELi0ELi2ELi2EEEEERNS8_INS7_7Matrix4ILi2ELi6EEEEERNS8_IS5_EEENKUliiiE_clEiii
FN:169,_ZZN6Solver8Nonlocal6NewtonIN5Model5Solid6Affine9HexagonalEE15prepareForSolveERKN3Set5FieldIN5Eigen6MatrixIdLi2ELi1ELi0ELi2ELi1EEEEESE_RNS8_IdEERNS8_INSA_IdLi2ELi2ELi0ELi2ELi2EEEEERNS8_INS7_7Matrix4ILi2ELi3EEEEERNS8_IS5_EEENKUliiiE_clEiii
FNDA:0,_ZZN6Solver8Nonlocal6NewtonIN5Model5Solid6Affine9HexagonalEE15prepareForSolveERKN3Set5FieldIN5Eigen6MatrixIdLi2ELi1ELi0ELi2ELi1EEEEESE_RNS8_IdEERNS8_INSA_IdLi2ELi2ELi0ELi2ELi2EEEEERNS8_INS7_7Matrix4ILi2ELi3EEEEERNS8_IS5_EEENKUliiiE_clEiii
FN:169,_ZZN6Solver8Nonlocal6NewtonIN5Model5Solid6Affine5CubicEE15prepareForSolveERKN3Set5FieldIN5Eigen6MatrixIdLi2ELi1ELi0ELi2ELi1EEEEESE_RNS8_IdEERNS8_INSA_IdLi2ELi2ELi0ELi2ELi2EEEEERNS8_INS7_7Matrix4ILi2ELi3EEEEERNS8_IS5_EEENKUliiiE_clEiii
FNDA:0,_ZZN6Solver8Nonlocal6NewtonIN5Model5Solid6Affine5CubicEE15prepareForSolveERKN3Set5FieldIN5Eigen6MatrixIdLi2ELi1ELi0ELi2ELi1EEEEESE_RNS8_IdEERNS8_INSA_IdLi2ELi2ELi0ELi2ELi2EEEEERNS8_INS7_7Matrix4ILi2ELi3EEEEERNS8_IS5_EEENKUliiiE_clEiii
FN:169,_ZZN6Solver8Nonlocal6NewtonIN5Model5Solid6Linear9LaplacianEE15prepareForSolveERKN3Set5FieldIN5Eigen6MatrixIdLi2ELi1ELi0ELi2ELi1EEEEESE_RNS8_IdEERNS8_INSA_IdLi2ELi2ELi0ELi2ELi2EEEEERNS8_INS7_7Matrix4ILi2ELi4EEEEERNS8_IS5_EEENKUliiiE_clEiii
FNDA:1089,_ZZN6Solver8Nonlocal6NewtonIN5Model5Solid6Linear9LaplacianEE15prepareForSolveERKN3Set5FieldIN5Eigen6MatrixIdLi2ELi1ELi0ELi2ELi1EEEEESE_RNS8_IdEERNS8_INSA_IdLi2ELi2ELi0ELi2ELi2EEEEERNS8_INS7_7Matrix4ILi2ELi4EEEEERNS8_IS5_EEENKUliiiE_clEiii
FN:169,_ZZN6Solver8Nonlocal6NewtonIN5Model5Solid6Linear5CubicEE15prepareForSolveERKN3Set5FieldIN5Eigen6MatrixIdLi2ELi1ELi0ELi2ELi1EEEEESE_RNS8_IdEERNS8_INSA_IdLi2ELi2ELi0ELi2ELi2EEEEERNS8_INS7_7Matrix4ILi2ELi3EEEEERNS8_IS5_EEENKUliiiE_clEiii
FNDA:0,_ZZN6Solver8Nonlocal6NewtonIN5Model5Solid6Linear5CubicEE15prepareForSolveERKN3Set5FieldIN5Eigen6MatrixIdLi2ELi1ELi0ELi2ELi1EEEEESE_RNS8_IdEERNS8_INSA_IdLi2ELi2ELi0ELi2ELi2EEEEERNS8_INS7_7Matrix4ILi2ELi3EEEEERNS8_IS5_EEENKUliiiE_clEiii
FN:169,_ZZN6Solver8Nonlocal6NewtonIN5Model5Solid7Elastic10NeoHookeanEE15prepareForSolveERKN3Set5FieldIN5Eigen6MatrixIdLi2ELi1ELi0ELi2ELi1EEEEESE_RNS8_IdEERNS8_INSA_IdLi2ELi2ELi0ELi2ELi2EEEEERNS8_INS7_7Matrix4ILi2ELi1EEEEERNS8_IS5_EEENKUliiiE_clEiii
FNDA:399990,_ZZN6Solver8Nonlocal6NewtonIN5Model5Solid7Elastic10NeoHookeanEE15prepareForSolveERKN3Set5FieldIN5Eigen6MatrixIdLi2ELi1ELi0ELi2ELi1EEEEESE_RNS8_IdEERNS8_INSA_IdLi2ELi2ELi0ELi2ELi2EEEEERNS8_INS7_7Matrix4ILi2ELi1EEEEERNS8_IS5_EEENKUliiiE_clEiii
FN:169,_ZZN6Solver8Nonlocal6NewtonIN5Model5Solid7Elastic17PseudoLinearCubicEE15prepareForSolveERKN3Set5FieldIN5Eigen6MatrixIdLi2ELi1ELi0ELi2ELi1EEEEESE_RNS8_IdEERNS8_INSA_IdLi2ELi2ELi0ELi2ELi2EEEEERNS8_INS7_7Matrix4ILi2ELi1EEEEERNS8_IS5_EEENKUliiiE_clEiii
FNDA:0,_ZZN6Solver8Nonlocal6NewtonIN5Model5Solid7Elastic17PseudoLinearCubicEE15prepareForSolveERKN3Set5FieldIN5Eigen6MatrixIdLi2ELi1ELi0ELi2ELi1EEEEESE_RNS8_IdEERNS8_INSA_IdLi2ELi2ELi0ELi2ELi2EEEEERNS8_INS7_7Matrix4ILi2ELi1EEEEERNS8_IS5_EEENKUliiiE_clEiii
FN:169,_ZZN6Solver8Nonlocal6NewtonIN5Model5Solid6Linear9IsotropicEE15prepareForSolveERKN3Set5FieldIN5Eigen6MatrixIdLi2ELi1ELi0ELi2ELi1EEEEESE_RNS8_IdEERNS8_INSA_IdLi2ELi2ELi0ELi2ELi2EEEEERNS8_INS7_7Matrix4ILi2ELi6EEEEERNS8_IS5_EEENKUliiiE_clEiii
FNDA:25451,_ZZN6Solver8Nonlocal6NewtonIN5Model5Solid6Linear9IsotropicEE15prepareForSolveERKN3Set5FieldIN5Eigen6MatrixIdLi2ELi1ELi0ELi2ELi1EEEEESE_RNS8_IdEERNS8_INSA_IdLi2ELi2ELi0ELi2ELi2EEEEERNS8_INS7_7Matrix4ILi2ELi6EEEEERNS8_IS5_EEENKUliiiE_clEiii
FN:169,_ZZN6Solver8Nonlocal6NewtonIN5Model5Solid6Affine9IsotropicEE15prepareForSolveERKN3Set5FieldIN5Eigen6MatrixIdLi2ELi1ELi0ELi2ELi1EEEEESE_RNS8_IdEERNS8_INSA_IdLi2ELi2ELi0ELi2ELi2EEEEERNS8_INS7_7Matrix4ILi2ELi6EEEEERNS8_IS5_EEENKUliiiE_clEiii
FNDA:0,_ZZN6Solver8Nonlocal6NewtonIN5Model5Solid6Affine9IsotropicEE15prepareForSolveERKN3Set5FieldIN5Eigen6MatrixIdLi2ELi1ELi0ELi2ELi1EEEEESE_RNS8_IdEERNS8_INSA_IdLi2ELi2ELi0ELi2ELi2EEEEERNS8_INS7_7Matrix4ILi2ELi6EEEEERNS8_IS5_EEENKUliiiE_clEiii
FN:169,_ZZN6Solver8Nonlocal6NewtonIN5Model5Solid7Elastic28PseudoLinearCubicPredeformedEE15prepareForSolveERKN3Set5FieldIN5Eigen6MatrixIdLi2ELi1ELi0ELi2ELi1EEEEESE_RNS8_IdEERNS8_INSA_IdLi2ELi2ELi0ELi2ELi2EEEEERNS8_INS7_7Matrix4ILi2ELi1EEEEERNS8_IS5_EEENKUliiiE_clEiii
FNDA:0,_ZZN6Solver8Nonlocal6NewtonIN5Model5Solid7Elastic28PseudoLinearCubicPredeformedEE15prepareForSolveERKN3Set5FieldIN5Eigen6MatrixIdLi2ELi1ELi0ELi2ELi1EEEEESE_RNS8_IdEERNS8_INSA_IdLi2ELi2ELi0ELi2ELi2EEEEERNS8_INS7_7Matrix4ILi2ELi1EEEEERNS8_IS5_EEENKUliiiE_clEiii
FN:215,_ZZN6Solver8Nonlocal6NewtonIN5Model5Solid7Elastic10NeoHookeanEE15prepareForSolveERKN3Set5FieldIN5Eigen6MatrixIdLi2ELi1ELi0ELi2ELi1EEEEESE_RNS8_IdEERNS8_INSA_IdLi2ELi2ELi0ELi2ELi2EEEEERNS8_INS7_7Matrix4ILi2ELi1EEEEERNS8_IS5_EEENKUliiiE0_clEiii
FNDA:358120,_ZZN6Solver8Nonlocal6NewtonIN5Model5Solid7Elastic10NeoHookeanEE15prepareForSolveERKN3Set5FieldIN5Eigen6MatrixIdLi2ELi1ELi0ELi2ELi1EEEEESE_RNS8_IdEERNS8_INSA_IdLi2ELi2ELi0ELi2ELi2EEEEERNS8_INS7_7Matrix4ILi2ELi1EEEEERNS8_IS5_EEENKUliiiE0_clEiii
FN:215,_ZZN6Solver8Nonlocal6NewtonIN5Model5Solid7Elastic17PseudoLinearCubicEE15prepareForSolveERKN3Set5FieldIN5Eigen6MatrixIdLi2ELi1ELi0ELi2ELi1EEEEESE_RNS8_IdEERNS8_INSA_IdLi2ELi2ELi0ELi2ELi2EEEEERNS8_INS7_7Matrix4ILi2ELi1EEEEERNS8_IS5_EEENKUliiiE0_clEiii
FNDA:0,_ZZN6Solver8Nonlocal6NewtonIN5Model5Solid7Elastic17PseudoLinearCubicEE15prepareForSolveERKN3Set5FieldIN5Eigen6MatrixIdLi2ELi1ELi0ELi2ELi1EEEEESE_RNS8_IdEERNS8_INSA_IdLi2ELi2ELi0ELi2ELi2EEEEERNS8_INS7_7Matrix4ILi2ELi1EEEEERNS8_IS5_EEENKUliiiE0_clEiii
FN:215,_ZZN6Solver8Nonlocal6NewtonIN5Model5Solid6Linear9LaplacianEE15prepareForSolveERKN3Set5FieldIN5Eigen6MatrixIdLi2ELi1ELi0ELi2ELi1EEEEESE_RNS8_IdEERNS8_INSA_IdLi2ELi2ELi0ELi2ELi2EEEEERNS8_INS7_7Matrix4ILi2ELi4EEEEERNS8_IS5_EEENKUliiiE0_clEiii
FNDA:1089,_ZZN6Solver8Nonlocal6NewtonIN5Model5Solid6Linear9LaplacianEE15prepareForSolveERKN3Set5FieldIN5Eigen6MatrixIdLi2ELi1ELi0ELi2ELi1EEEEESE_RNS8_IdEERNS8_INSA_IdLi2ELi2ELi0ELi2ELi2EEEEERNS8_INS7_7Matrix4ILi2ELi4EEEEERNS8_IS5_EEENKUliiiE0_clEiii
FN:215,_ZZN6Solver8Nonlocal6NewtonIN5Model5Solid6Affine9IsotropicEE15prepareForSolveERKN3Set5FieldIN5Eigen6MatrixIdLi2ELi1ELi0ELi2ELi1EEEEESE_RNS8_IdEERNS8_INSA_IdLi2ELi2ELi0ELi2ELi2EEEEERNS8_INS7_7Matrix4ILi2ELi6EEEEERNS8_IS5_EEENKUliiiE0_clEiii
FNDA:0,_ZZN6Solver8Nonlocal6NewtonIN5Model5Solid6Affine9IsotropicEE15prepareForSolveERKN3Set5FieldIN5Eigen6MatrixIdLi2ELi1ELi0ELi2ELi1EEEEESE_RNS8_IdEERNS8_INSA_IdLi2ELi2ELi0ELi2ELi2EEEEERNS8_INS7_7Matrix4ILi2ELi6EEEEERNS8_IS5_EEENKUliiiE0_clEiii
FN:215,_ZZN6Solver8Nonlocal6NewtonIN5Model5Solid6Affine9HexagonalEE15prepareForSolveERKN3Set5FieldIN5Eigen6MatrixIdLi2ELi1ELi0ELi2ELi1EEEEESE_RNS8_IdEERNS8_INSA_IdLi2ELi2ELi0ELi2ELi2EEEEERNS8_INS7_7Matrix4ILi2ELi3EEEEERNS8_IS5_EEENKUliiiE0_clEiii
FNDA:0,_ZZN6Solver8Nonlocal6NewtonIN5Model5Solid6Affine9HexagonalEE15prepareForSolveERKN3Set5FieldIN5Eigen6MatrixIdLi2ELi1ELi0ELi2ELi1EEEEESE_RNS8_IdEERNS8_INSA_IdLi2ELi2ELi0ELi2ELi2EEEEERNS8_INS7_7Matrix4ILi2ELi3EEEEERNS8_IS5_EEENKUliiiE0_clEiii
FN:215,_ZZN6Solver8Nonlocal6NewtonIN5Model5Solid6Linear9IsotropicEE15prepareForSolveERKN3Set5FieldIN5Eigen6MatrixIdLi2ELi1ELi0ELi2ELi1EEEEESE_RNS8_IdEERNS8_INSA_IdLi2ELi2ELi0ELi2ELi2EEEEERNS8_INS7_7Matrix4ILi2ELi6EEEEERNS8_IS5_EEENKUliiiE0_clEiii
FNDA:0,_ZZN6Solver8Nonlocal6NewtonIN5Model5Solid6Linear9IsotropicEE15prepareForSolveERKN3Set5FieldIN5Eigen6MatrixIdLi2ELi1ELi0ELi2ELi1EEEEESE_RNS8_IdEERNS8_INSA_IdLi2ELi2ELi0ELi2ELi2EEEEERNS8_INS7_7Matrix4ILi2ELi6EEEEERNS8_IS5_EEENKUliiiE0_clEiii
FN:215,_ZZN6Solver8Nonlocal6NewtonIN5Model5Solid6Affine5CubicEE15prepareForSolveERKN3Set5FieldIN5Eigen6MatrixIdLi2ELi1ELi0ELi2ELi1EEEEESE_RNS8_IdEERNS8_INSA_IdLi2ELi2ELi0ELi2ELi2EEEEERNS8_INS7_7Matrix4ILi2ELi3EEEEERNS8_IS5_EEENKUliiiE0_clEiii
FNDA:0,_ZZN6Solver8Nonlocal6NewtonIN5Model5Solid6Affine5CubicEE15prepareForSolveERKN3Set5FieldIN5Eigen6MatrixIdLi2ELi1ELi0ELi2ELi1EEEEESE_RNS8_IdEERNS8_INSA_IdLi2ELi2ELi0ELi2ELi2EEEEERNS8_INS7_7Matrix4ILi2ELi3EEEEERNS8_IS5_EEENKUliiiE0_clEiii
FN:215,_ZZN6Solver8Nonlocal6NewtonIN5Model5Solid7Elastic28PseudoLinearCubicPredeformedEE15prepareForSolveERKN3Set5FieldIN5Eigen6MatrixIdLi2ELi1ELi0ELi2ELi1EEEEESE_RNS8_IdEERNS8_INSA_IdLi2ELi2ELi0ELi2ELi2EEEEERNS8_INS7_7Matrix4ILi2ELi1EEEEERNS8_IS5_EEENKUliiiE0_clEiii
FNDA:0,_ZZN6Solver8Nonlocal6NewtonIN5Model5Solid7Elastic28PseudoLinearCubicPredeformedEE15prepareForSolveERKN3Set5FieldIN5Eigen6MatrixIdLi2ELi1ELi0ELi2ELi1EEEEESE_RNS8_IdEERNS8_INSA_IdLi2ELi2ELi0ELi2ELi2EEEEERNS8_INS7_7Matrix4ILi2ELi1EEEEERNS8_IS5_EEENKUliiiE0_clEiii
FN:215,_ZZN6Solver8Nonlocal6NewtonIN5Model5Solid6Linear5CubicEE15prepareForSolveERKN3Set5FieldIN5Eigen6MatrixIdLi2ELi1ELi0ELi2ELi1EEEEESE_RNS8_IdEERNS8_INSA_IdLi2ELi2ELi0ELi2ELi2EEEEERNS8_INS7_7Matrix4ILi2ELi3EEEEERNS8_IS5_EEENKUliiiE0_clEiii
FNDA:0,_ZZN6Solver8Nonlocal6NewtonIN5Model5Solid6Linear5CubicEE15prepareForSolveERKN3Set5FieldIN5Eigen6MatrixIdLi2ELi1ELi0ELi2ELi1EEEEESE_RNS8_IdEERNS8_INSA_IdLi2ELi2ELi0ELi2ELi2EEEEERNS8_INS7_7Matrix4ILi2ELi3EEEEERNS8_IS5_EEENKUliiiE0_clEiii
FN:215,_ZZN6Solver8Nonlocal6NewtonIN5Model5Solid6Affine2J2EE15prepareForSolveERKN3Set5FieldIN5Eigen6MatrixIdLi2ELi1ELi0ELi2ELi1EEEEESE_RNS8_IdEERNS8_INSA_IdLi2ELi2ELi0ELi2ELi2EEEEERNS8_INS7_7Matrix4ILi2ELi6EEEEERNS8_IS5_EEENKUliiiE0_clEiii
FNDA:578,_ZZN6Solver8Nonlocal6NewtonIN5Model5Solid6Affine2J2EE15prepareForSolveERKN3Set5FieldIN5Eigen6MatrixIdLi2ELi1ELi0ELi2ELi1EEEEESE_RNS8_IdEERNS8_INSA_IdLi2ELi2ELi0ELi2ELi2EEEEERNS8_INS7_7Matrix4ILi2ELi6EEEEERNS8_IS5_EEENKUliiiE0_clEiii
FN:239,_ZZN6Solver8Nonlocal6NewtonIN5Model5Solid6Linear5CubicEE15prepareForSolveERKN3Set5FieldIN5Eigen6MatrixIdLi2ELi1ELi0ELi2ELi1EEEEESE_RNS8_IdEERNS8_INSA_IdLi2ELi2ELi0ELi2ELi2EEEEERNS8_INS7_7Matrix4ILi2ELi3EEEEERNS8_IS5_EEENKUliiiE1_clEiii
FNDA:0,_ZZN6Solver8Nonlocal6NewtonIN5Model5Solid6Linear5CubicEE15prepareForSolveERKN3Set5FieldIN5Eigen6MatrixIdLi2ELi1ELi0ELi2ELi1EEEEESE_RNS8_IdEERNS8_INSA_IdLi2ELi2ELi0ELi2ELi2EEEEERNS8_INS7_7Matrix4ILi2ELi3EEEEERNS8_IS5_EEENKUliiiE1_clEiii
FN:239,_ZZN6Solver8Nonlocal6NewtonIN5Model5Solid6Affine9IsotropicEE15prepareForSolveERKN3Set5FieldIN5Eigen6MatrixIdLi2ELi1ELi0ELi2ELi1EEEEESE_RNS8_IdEERNS8_INSA_IdLi2ELi2ELi0ELi2ELi2EEEEERNS8_INS7_7Matrix4ILi2ELi6EEEEERNS8_IS5_EEENKUliiiE1_clEiii
FNDA:0,_ZZN6Solver8Nonlocal6NewtonIN5Model5Solid6Affine9IsotropicEE15prepareForSolveERKN3Set5FieldIN5Eigen6MatrixIdLi2ELi1ELi0ELi2ELi1EEEEESE_RNS8_IdEERNS8_INSA_IdLi2ELi2ELi0ELi2ELi2EEEEERNS8_INS7_7Matrix4ILi2ELi6EEEEERNS8_IS5_EEENKUliiiE1_clEiii
FN:239,_ZZN6Solver8Nonlocal6NewtonIN5Model5Solid6Affine5CubicEE15prepareForSolveERKN3Set5FieldIN5Eigen6MatrixIdLi2ELi1ELi0ELi2ELi1EEEEESE_RNS8_IdEERNS8_INSA_IdLi2ELi2ELi0ELi2ELi2EEEEERNS8_INS7_7Matrix4ILi2ELi3EEEEERNS8_IS5_EEENKUliiiE1_clEiii
FNDA:0,_ZZN6Solver8Nonlocal6NewtonIN5Model5Solid6Affine5CubicEE15prepareForSolveERKN3Set5FieldIN5Eigen6MatrixIdLi2ELi1ELi0ELi2ELi1EEEEESE_RNS8_IdEERNS8_INSA_IdLi2ELi2ELi0ELi2ELi2EEEEERNS8_INS7_7Matrix4ILi2ELi3EEEEERNS8_IS5_EEENKUliiiE1_clEiii
FN:239,_ZZN6Solver8Nonlocal6NewtonIN5Model5Solid6Affine9HexagonalEE15prepareForSolveERKN3Set5FieldIN5Eigen6MatrixIdLi2ELi1ELi0ELi2ELi1EEEEESE_RNS8_IdEERNS8_INSA_IdLi2ELi2ELi0ELi2ELi2EEEEERNS8_INS7_7Matrix4ILi2ELi3EEEEERNS8_IS5_EEENKUliiiE1_clEiii
FNDA:0,_ZZN6Solver8Nonlocal6NewtonIN5Model5Solid6Affine9HexagonalEE15prepareForSolveERKN3Set5FieldIN5Eigen6MatrixIdLi2ELi1ELi0ELi2ELi1EEEEESE_RNS8_IdEERNS8_INSA_IdLi2ELi2ELi0ELi2ELi2EEEEERNS8_INS7_7Matrix4ILi2ELi3EEEEERNS8_IS5_EEENKUliiiE1_clEiii
FN:239,_ZZN6Solver8Nonlocal6NewtonIN5Model5Solid6Linear9LaplacianEE15prepareForSolveERKN3Set5FieldIN5Eigen6MatrixIdLi2ELi1ELi0ELi2ELi1EEEEESE_RNS8_IdEERNS8_INSA_IdLi2ELi2ELi0ELi2ELi2EEEEERNS8_INS7_7Matrix4ILi2ELi4EEEEERNS8_IS5_EEENKUliiiE1_clEiii
FNDA:0,_ZZN6Solver8Nonlocal6NewtonIN5Model5Solid6Linear9LaplacianEE15prepareForSolveERKN3Set5FieldIN5Eigen6MatrixIdLi2ELi1ELi0ELi2ELi1EEEEESE_RNS8_IdEERNS8_INSA_IdLi2ELi2ELi0ELi2ELi2EEEEERNS8_INS7_7Matrix4ILi2ELi4EEEEERNS8_IS5_EEENKUliiiE1_clEiii
FN:239,_ZZN6Solver8Nonlocal6NewtonIN5Model5Solid7Elastic10NeoHookeanEE15prepareForSolveERKN3Set5FieldIN5Eigen6MatrixIdLi2ELi1ELi0ELi2ELi1EEEEESE_RNS8_IdEERNS8_INSA_IdLi2ELi2ELi0ELi2ELi2EEEEERNS8_INS7_7Matrix4ILi2ELi1EEEEERNS8_IS5_EEENKUliiiE1_clEiii
FNDA:41870,_ZZN6Solver8Nonlocal6NewtonIN5Model5Solid7Elastic10NeoHookeanEE15prepareForSolveERKN3Set5FieldIN5Eigen6MatrixIdLi2ELi1ELi0ELi2ELi1EEEEESE_RNS8_IdEERNS8_INSA_IdLi2ELi2ELi0ELi2ELi2EEEEERNS8_INS7_7Matrix4ILi2ELi1EEEEERNS8_IS5_EEENKUliiiE1_clEiii
FN:239,_ZZN6Solver8Nonlocal6NewtonIN5Model5Solid7Elastic17PseudoLinearCubicEE15prepareForSolveERKN3Set5FieldIN5Eigen6MatrixIdLi2ELi1ELi0ELi2ELi1EEEEESE_RNS8_IdEERNS8_INSA_IdLi2ELi2ELi0ELi2ELi2EEEEERNS8_INS7_7Matrix4ILi2ELi1EEEEERNS8_IS5_EEENKUliiiE1_clEiii
FNDA:0,_ZZN6Solver8Nonlocal6NewtonIN5Model5Solid7Elastic17PseudoLinearCubicEE15prepareForSolveERKN3Set5FieldIN5Eigen6MatrixIdLi2ELi1ELi0ELi2ELi1EEEEESE_RNS8_IdEERNS8_INSA_IdLi2ELi2ELi0ELi2ELi2EEEEERNS8_INS7_7Matrix4ILi2ELi1EEEEERNS8_IS5_EEENKUliiiE1_clEiii
FN:239,_ZZN6Solver8Nonlocal6NewtonIN5Model5Solid7Elastic28PseudoLinearCubicPredeformedEE15prepareForSolveERKN3Set5FieldIN5Eigen6MatrixIdLi2ELi1ELi0ELi2ELi1EEEEESE_RNS8_IdEERNS8_INSA_IdLi2ELi2ELi0ELi2ELi2EEEEERNS8_INS7_7Matrix4ILi2ELi1EEEEERNS8_IS5_EEENKUliiiE1_clEiii
FNDA:0,_ZZN6Solver8Nonlocal6NewtonIN5Model5Solid7Elastic28PseudoLinearCubicPredeformedEE15prepareForSolveERKN3Set5FieldIN5Eigen6MatrixIdLi2ELi1ELi0ELi2ELi1EEEEESE_RNS8_IdEERNS8_INSA_IdLi2ELi2ELi0ELi2ELi2EEEEERNS8_INS7_7Matrix4ILi2ELi1EEEEERNS8_IS5_EEENKUliiiE1_clEiii
FN:239,_ZZN6Solver8Nonlocal6NewtonIN5Model5Solid6Affine2J2EE15prepareForSolveERKN3Set5FieldIN5Eigen6MatrixIdLi2ELi1ELi0ELi2ELi1EEEEESE_RNS8_IdEERNS8_INSA_IdLi2ELi2ELi0ELi2ELi2EEEEERNS8_INS7_7Matrix4ILi2ELi6EEEEERNS8_IS5_EEENKUliiiE1_clEiii
FNDA:0,_ZZN6Solver8Nonlocal6NewtonIN5Model5Solid6Affine2J2EE15prepareForSolveERKN3Set5FieldIN5Eigen6MatrixIdLi2ELi1ELi0ELi2ELi1EEEEESE_RNS8_IdEERNS8_INSA_IdLi2ELi2ELi0ELi2ELi2EEEEERNS8_INS7_7Matrix4ILi2ELi6EEEEERNS8_IS5_EEENKUliiiE1_clEiii
FN:239,_ZZN6Solver8Nonlocal6NewtonIN5Model5Solid6Linear9IsotropicEE15prepareForSolveERKN3Set5FieldIN5Eigen6MatrixIdLi2ELi1ELi0ELi2ELi1EEEEESE_RNS8_IdEERNS8_INSA_IdLi2ELi2ELi0ELi2ELi2EEEEERNS8_INS7_7Matrix4ILi2ELi6EEEEERNS8_IS5_EEENKUliiiE1_clEiii
FNDA:25451,_ZZN6Solver8Nonlocal6NewtonIN5Model5Solid6Linear9IsotropicEE15prepareForSolveERKN3Set5FieldIN5Eigen6MatrixIdLi2ELi1ELi0ELi2ELi1EEEEESE_RNS8_IdEERNS8_INSA_IdLi2ELi2ELi0ELi2ELi2EEEEERNS8_INS7_7Matrix4ILi2ELi6EEEEERNS8_IS5_EEENKUliiiE1_clEiii
FN:276,_ZN6Solver8Nonlocal6NewtonIN5Model5Solid6Linear9LaplacianEE5solveERKN3Set5FieldIN5Eigen6MatrixIdLi2ELi1ELi0ELi2ELi1EEEEESE_RNS8_IS5_EEddPKc
FNDA:1,_ZN6Solver8Nonlocal6NewtonIN5Model5Solid6Linear9LaplacianEE5solveERKN3Set5FieldIN5Eigen6MatrixIdLi2ELi1ELi0ELi2ELi1EEEEESE_RNS8_IS5_EEddPKc
FN:276,_ZN6Solver8Nonlocal6NewtonIN5Model5Solid6Linear5CubicEE5solveERKN3Set5FieldIN5Eigen6MatrixIdLi2ELi1ELi0ELi2ELi1EEEEESE_RNS8_IS5_EEddPKc
FNDA:0,_ZN6Solver8Nonlocal6NewtonIN5Model5Solid6Linear5CubicEE5solveERKN3Set5FieldIN5Eigen6MatrixIdLi2ELi1ELi0ELi2ELi1EEEEESE_RNS8_IS5_EEddPKc
FN:276,_ZN6Solver8Nonlocal6NewtonIN5Model5Solid6Affine5CubicEE5solveERKN3Set5FieldIN5Eigen6MatrixIdLi2ELi1ELi0ELi2ELi1EEEEESE_RNS8_IS5_EEddPKc
FNDA:0,_ZN6Solver8Nonlocal6NewtonIN5Model5Solid6Affine5CubicEE5solveERKN3Set5FieldIN5Eigen6MatrixIdLi2ELi1ELi0ELi2ELi1EEEEESE_RNS8_IS5_EEddPKc
FN:276,_ZN6Solver8Nonlocal6NewtonIN5Model5Solid6Affine9IsotropicEE5solveERKN3Set5FieldIN5Eigen6MatrixIdLi2ELi1ELi0ELi2ELi1EEEEESE_RNS8_IS5_EEddPKc
FNDA:0,_ZN6Solver8Nonlocal6NewtonIN5Model5Solid6Affine9IsotropicEE5solveERKN3Set5FieldIN5Eigen6MatrixIdLi2ELi1ELi0ELi2ELi1EEEEESE_RNS8_IS5_EEddPKc
FN:276,_ZN6Solver8Nonlocal6NewtonIN5Model5Solid6Affine9HexagonalEE5solveERKN3Set5FieldIN5Eigen6MatrixIdLi2ELi1ELi0ELi2ELi1EEEEESE_RNS8_IS5_EEddPKc
FNDA:0,_ZN6Solver8Nonlocal6NewtonIN5Model5Solid6Affine9HexagonalEE5solveERKN3Set5FieldIN5Eigen6MatrixIdLi2ELi1ELi0ELi2ELi1EEEEESE_RNS8_IS5_EEddPKc
FN:276,_ZN6Solver8Nonlocal6NewtonIN5Model5Solid7Elastic10NeoHookeanEE5solveERKN3Set5FieldIN5Eigen6MatrixIdLi2ELi1ELi0ELi2ELi1EEEEESE_RNS8_IS5_EEddPKc
FNDA:120,_ZN6Solver8Nonlocal6NewtonIN5Model5Solid7Elastic10NeoHookeanEE5solveERKN3Set5FieldIN5Eigen6MatrixIdLi2ELi1ELi0ELi2ELi1EEEEESE_RNS8_IS5_EEddPKc
FN:276,_ZN6Solver8Nonlocal6NewtonIN5Model5Solid7Elastic17PseudoLinearCubicEE5solveERKN3Set5FieldIN5Eigen6MatrixIdLi2ELi1ELi0ELi2ELi1EEEEESE_RNS8_IS5_EEddPKc
FNDA:0,_ZN6Solver8Nonlocal6NewtonIN5Model5Solid7Elastic17PseudoLinearCubicEE5solveERKN3Set5FieldIN5Eigen6MatrixIdLi2ELi1ELi0ELi2ELi1EEEEESE_RNS8_IS5_EEddPKc
FN:276,_ZN6Solver8Nonlocal6NewtonIN5Model5Solid7Elastic28PseudoLinearCubicPredeformedEE5solveERKN3Set5FieldIN5Eigen6MatrixIdLi2ELi1ELi0ELi2ELi1EEEEESE_RNS8_IS5_EEddPKc
FNDA:0,_ZN6Solver8Nonlocal6NewtonIN5Model5Solid7Elastic28PseudoLinearCubicPredeformedEE5solveERKN3Set5FieldIN5Eigen6MatrixIdLi2ELi1ELi0ELi2ELi1EEEEESE_RNS8_IS5_EEddPKc
FN:276,_ZN6Solver8Nonlocal6NewtonIN5Model5Solid6Linear9IsotropicEE5solveERKN3Set5FieldIN5Eigen6MatrixIdLi2ELi1ELi0ELi2ELi1EEEEESE_RNS8_IS5_EEddPKc
FNDA:3,_ZN6Solver8Nonlocal6NewtonIN5Model5Solid6Linear9IsotropicEE5solveERKN3Set5FieldIN5Eigen6MatrixIdLi2ELi1ELi0ELi2ELi1EEEEESE_RNS8_IS5_EEddPKc
FN:276,_ZN6Solver8Nonlocal6NewtonIN5Model5Solid6Affine2J2EE5solveERKN3Set5FieldIN5Eigen6MatrixIdLi2ELi1ELi0ELi2ELi1EEEEESE_RNS8_IS5_EEddPKc
FNDA:2,_ZN6Solver8Nonlocal6NewtonIN5Model5Solid6Affine2J2EE5solveERKN3Set5FieldIN5Eigen6MatrixIdLi2ELi1ELi0ELi2ELi1EEEEESE_RNS8_IS5_EEddPKc
FN:357,_ZN6Solver8Nonlocal6NewtonIN5Model5Solid6Linear19IsotropicDegradableEE5solveERKN3Set5FieldIdEESB_RNS8_IS5_EEddPKc
FNDA:0,_ZN6Solver8Nonlocal6NewtonIN5Model5Solid6Linear19IsotropicDegradableEE5solveERKN3Set5FieldIdEESB_RNS8_IS5_EEddPKc
FN:443,_ZN6Solver8Nonlocal6NewtonIN5Model5Solid6Linear19IsotropicDegradableEE12compResidualERN3Set5FieldIdEESA_SA_RNS8_IS5_EE
FNDA:0,_ZN6Solver8Nonlocal6NewtonIN5Model5Solid6Linear19IsotropicDegradableEE12compResidualERN3Set5FieldIdEESA_SA_RNS8_IS5_EE
FN:500,_ZN6Solver8Nonlocal6NewtonIN5Model5Solid6Affine9IsotropicEE24compLinearSolverResidualERN3Set5FieldIN5Eigen6MatrixIdLi2ELi1ELi0ELi2ELi1EEEEESD_SD_
FNDA:0,_ZN6Solver8Nonlocal6NewtonIN5Model5Solid6Affine9IsotropicEE24compLinearSolverResidualERN3Set5FieldIN5Eigen6MatrixIdLi2ELi1ELi0ELi2ELi1EEEEESD_SD_
FN:500,_ZN6Solver8Nonlocal6NewtonIN5Model5Solid6Linear5CubicEE24compLinearSolverResidualERN3Set5FieldIN5Eigen6MatrixIdLi2ELi1ELi0ELi2ELi1EEEEESD_SD_
FNDA:0,_ZN6Solver8Nonlocal6NewtonIN5Model5Solid6Linear5CubicEE24compLinearSolverResidualERN3Set5FieldIN5Eigen6MatrixIdLi2ELi1ELi0ELi2ELi1EEEEESD_SD_
FN:500,_ZN6Solver8Nonlocal6NewtonIN5Model5Solid6Affine5CubicEE24compLinearSolverResidualERN3Set5FieldIN5Eigen6MatrixIdLi2ELi1ELi0ELi2ELi1EEEEESD_SD_
FNDA:0,_ZN6Solver8Nonlocal6NewtonIN5Model5Solid6Affine5CubicEE24compLinearSolverResidualERN3Set5FieldIN5Eigen6MatrixIdLi2ELi1ELi0ELi2ELi1EEEEESD_SD_
FN:500,_ZN6Solver8Nonlocal6NewtonIN5Model5Solid6Linear9IsotropicEE24compLinearSolverResidualERN3Set5FieldIN5Eigen6MatrixIdLi2ELi1ELi0ELi2ELi1EEEEESD_SD_
FNDA:3,_ZN6Solver8Nonlocal6NewtonIN5Model5Solid6Linear9IsotropicEE24compLinearSolverResidualERN3Set5FieldIN5Eigen6MatrixIdLi2ELi1ELi0ELi2ELi1EEEEESD_SD_
FN:500,_ZN6Solver8Nonlocal6NewtonIN5Model5Solid6Affine9HexagonalEE24compLinearSolverResidualERN3Set5FieldIN5Eigen6MatrixIdLi2ELi1ELi0ELi2ELi1EEEEESD_SD_
FNDA:0,_ZN6Solver8Nonlocal6NewtonIN5Model5Solid6Affine9HexagonalEE24compLinearSolverResidualERN3Set5FieldIN5Eigen6MatrixIdLi2ELi1ELi0ELi2ELi1EEEEESD_SD_
FN:500,_ZN6Solver8Nonlocal6NewtonIN5Model5Solid6Linear9LaplacianEE24compLinearSolverResidualERN3Set5FieldIN5Eigen6MatrixIdLi2ELi1ELi0ELi2ELi1EEEEESD_SD_
FNDA:0,_ZN6Solver8Nonlocal6NewtonIN5Model5Solid6Linear9LaplacianEE24compLinearSolverResidualERN3Set5FieldIN5Eigen6MatrixIdLi2ELi1ELi0ELi2ELi1EEEEESD_SD_
FN:500,_ZN6Solver8Nonlocal6NewtonIN5Model5Solid7Elastic28PseudoLinearCubicPredeformedEE24compLinearSolverResidualERN3Set5FieldIN5Eigen6MatrixIdLi2ELi1ELi0ELi2ELi1EEEEESD_SD_
FNDA:0,_ZN6Solver8Nonlocal6NewtonIN5Model5Solid7Elastic28PseudoLinearCubicPredeformedEE24compLinearSolverResidualERN3Set5FieldIN5Eigen6MatrixIdLi2ELi1ELi0ELi2ELi1EEEEESD_SD_
FN:500,_ZN6Solver8Nonlocal6NewtonIN5Model5Solid7Elastic10NeoHookeanEE24compLinearSolverResidualERN3Set5FieldIN5Eigen6MatrixIdLi2ELi1ELi0ELi2ELi1EEEEESD_SD_
FNDA:0,_ZN6Solver8Nonlocal6NewtonIN5Model5Solid7Elastic10NeoHookeanEE24compLinearSolverResidualERN3Set5FieldIN5Eigen6MatrixIdLi2ELi1ELi0ELi2ELi1EEEEESD_SD_
FN:500,_ZN6Solver8Nonlocal6NewtonIN5Model5Solid6Affine2J2EE24compLinearSolverResidualERN3Set5FieldIN5Eigen6MatrixIdLi2ELi1ELi0ELi2ELi1EEEEESD_SD_
FNDA:0,_ZN6Solver8Nonlocal6NewtonIN5Model5Solid6Affine2J2EE24compLinearSolverResidualERN3Set5FieldIN5Eigen6MatrixIdLi2ELi1ELi0ELi2ELi1EEEEESD_SD_
FN:500,_ZN6Solver8Nonlocal6NewtonIN5Model5Solid7Elastic17PseudoLinearCubicEE24compLinearSolverResidualERN3Set5FieldIN5Eigen6MatrixIdLi2ELi1ELi0ELi2ELi1EEEEESD_SD_
FNDA:0,_ZN6Solver8Nonlocal6NewtonIN5Model5Solid7Elastic17PseudoLinearCubicEE24compLinearSolverResidualERN3Set5FieldIN5Eigen6MatrixIdLi2ELi1ELi0ELi2ELi1EEEEESD_SD_
FN:641,_ZN6Solver8Nonlocal6NewtonIN5Model5Solid6Linear9IsotropicEE5ParseERS6_RN5amrex9ParmParseE
FNDA:2,_ZN6Solver8Nonlocal6NewtonIN5Model5Solid6Linear9IsotropicEE5ParseERS6_RN5amrex9ParmParseE
FN:641,_ZN6Solver8Nonlocal6NewtonIN5Model5Solid6Linear5CubicEE5ParseERS6_RN5amrex9ParmParseE
FNDA:0,_ZN6Solver8Nonlocal6NewtonIN5Model5Solid6Linear5CubicEE5ParseERS6_RN5amrex9ParmParseE
FN:641,_ZN6Solver8Nonlocal6NewtonIN5Model5Solid6Affine5CubicEE5ParseERS6_RN5amrex9ParmParseE
FNDA:0,_ZN6Solver8Nonlocal6NewtonIN5Model5Solid6Affine5CubicEE5ParseERS6_RN5amrex9ParmParseE
FN:641,_ZN6Solver8Nonlocal6NewtonIN5Model5Solid6Affine9HexagonalEE5ParseERS6_RN5amrex9ParmParseE
FNDA:0,_ZN6Solver8Nonlocal6NewtonIN5Model5Solid6Affine9HexagonalEE5ParseERS6_RN5amrex9ParmParseE
FN:641,_ZN6Solver8Nonlocal6NewtonIN5Model5Solid6Linear9LaplacianEE5ParseERS6_RN5amrex9ParmParseE
FNDA:1,_ZN6Solver8Nonlocal6NewtonIN5Model5Solid6Linear9LaplacianEE5ParseERS6_RN5amrex9ParmParseE
FN:641,_ZN6Solver8Nonlocal6NewtonIN5Model5Solid6Linear19IsotropicDegradableEE5ParseERS6_RN5amrex9ParmParseE
FNDA:0,_ZN6Solver8Nonlocal6NewtonIN5Model5Solid6Linear19IsotropicDegradableEE5ParseERS6_RN5amrex9ParmParseE
FN:641,_ZN6Solver8Nonlocal6NewtonIN5Model5Solid7Elastic10NeoHookeanEE5ParseERS6_RN5amrex9ParmParseE
FNDA:3,_ZN6Solver8Nonlocal6NewtonIN5Model5Solid7Elastic10NeoHookeanEE5ParseERS6_RN5amrex9ParmParseE
FN:641,_ZN6Solver8Nonlocal6NewtonIN5Model5Solid7Elastic17PseudoLinearCubicEE5ParseERS6_RN5amrex9ParmParseE
FNDA:0,_ZN6Solver8Nonlocal6NewtonIN5Model5Solid7Elastic17PseudoLinearCubicEE5ParseERS6_RN5amrex9ParmParseE
FN:641,_ZN6Solver8Nonlocal6NewtonIN5Model5Solid7Elastic28PseudoLinearCubicPredeformedEE5ParseERS6_RN5amrex9ParmParseE
FNDA:0,_ZN6Solver8Nonlocal6NewtonIN5Model5Solid7Elastic28PseudoLinearCubicPredeformedEE5ParseERS6_RN5amrex9ParmParseE
FN:641,_ZN6Solver8Nonlocal6NewtonIN5Model5Solid6Affine2J2EE5ParseERS6_RN5amrex9ParmParseE
FNDA:1,_ZN6Solver8Nonlocal6NewtonIN5Model5Solid6Affine2J2EE5ParseERS6_RN5amrex9ParmParseE
FN:641,_ZN6Solver8Nonlocal6NewtonIN5Model5Solid6Affine9IsotropicEE5ParseERS6_RN5amrex9ParmParseE
FNDA:0,_ZN6Solver8Nonlocal6NewtonIN5Model5Solid6Affine9IsotropicEE5ParseERS6_RN5amrex9ParmParseE
DA:19,1
DA:19,0
DA:19,0
DA:19,3
DA:19,1
DA:19,0
DA:19,2
DA:19,0
DA:19,0
DA:19,0
DA:21,0
DA:22,0
DA:23,0
DA:24,0
DA:26,1
DA:28,1
DA:29,1
DA:26,0
DA:28,0
DA:29,0
DA:26,0
DA:28,0
DA:29,0
DA:26,3
DA:28,3
DA:29,3
DA:26,1
DA:28,1
DA:29,1
DA:26,0
DA:28,0
DA:29,0
DA:26,2
DA:28,2
DA:29,2
DA:26,0
DA:28,0
DA:29,0
DA:26,0
DA:28,0
DA:29,0
DA:26,0
DA:28,0
DA:29,0
DA:26,0
DA:28,0
DA:29,0
DA:31,0
DA:33,0
DA:34,0
DA:36,0
DA:31,0
DA:33,0
DA:34,0
DA:36,0
DA:31,0
DA:33,0
DA:34,0
DA:36,0
DA:31,1
DA:33,1
DA:34,1
DA:36,1
DA:31,120
DA:33,120
DA:34,120
DA:36,120
DA:31,0
DA:33,0
DA:34,0
DA:36,0
DA:31,0
DA:33,0
DA:34,0
DA:36,0
DA:31,2
DA:33,2
DA:34,2
DA:36,2
DA:31,3
DA:33,3
DA:34,3
DA:36,3
DA:31,0
DA:33,0
DA:34,0
DA:36,0
DA:31,0
DA:33,0
DA:34,0
DA:36,0
DA:37,2
DA:39,2
DA:40,2
DA:42,2
DA:37,0
DA:39,0
DA:40,0
DA:42,0
DA:37,0
DA:39,0
DA:40,0
DA:42,0
DA:37,120
DA:39,120
DA:40,120
DA:42,120
DA:37,1
DA:39,1
DA:40,1
DA:42,1
DA:37,0
DA:39,0
DA:40,0
DA:42,0
DA:37,3
DA:39,3
DA:40,3
DA:42,3
DA:37,0
DA:39,0
DA:40,0
DA:42,0
DA:37,0
DA:39,0
DA:40,0
DA:42,0
DA:37,0
DA:39,0
DA:40,0
DA:42,0
DA:37,0
DA:39,0
DA:40,0
DA:42,0
DA:47,0
DA:49,0
DA:50,0
DA:47,0
DA:49,0
DA:50,0
DA:47,0
DA:49,0
DA:50,0
DA:47,0
DA:49,0
DA:50,0
DA:47,10
DA:49,10
DA:50,10
DA:47,0
DA:49,0
DA:50,0
DA:47,0
DA:49,0
DA:50,0
DA:47,0
DA:49,0
DA:50,0
DA:47,3
DA:49,3
DA:50,3
DA:47,0
DA:49,0
DA:50,0
DA:53,0
DA:60,0
DA:62,0
DA:63,0
DA:64,0
DA:65,0
DA:66,0
DA:68,0
DA:69,0
DA:71,0
DA:72,0
DA:73,0
DA:74,0
DA:77,0
DA:78,0
DA:80,0
DA:82,0
DA:84,0
DA:85,0
DA:87,0
DA:89,0
DA:90,0
DA:91,0
DA:93,0
DA:95,0
DA:96,0
DA:97,0
DA:102,0
DA:103,0
DA:106,0
DA:108,0
DA:110,0
DA:111,0
DA:112,0
DA:113,0
DA:114,0
DA:116,0
DA:117,0
DA:118,0
DA:119,0
DA:120,0
DA:121,0
DA:122,0
DA:124,0
DA:126,0
DA:128,0
DA:129,0
DA:130,0
DA:131,0
DA:135,0
DA:136,0
DA:140,0
DA:141,0
DA:143,0
DA:145,0
DA:152,0
DA:154,0
DA:155,0
DA:156,0
DA:157,0
DA:158,0
DA:160,0
DA:161,0
DA:163,0
DA:164,0
DA:165,0
DA:166,0
DA:169,0
DA:188,0
DA:189,0
DA:192,0
DA:193,0
DA:194,0
DA:195,0
DA:198,0
DA:200,0
DA:201,0
DA:202,0
DA:203,0
DA:204,0
DA:206,0
DA:207,0
DA:208,0
DA:209,0
DA:210,0
DA:213,0
DA:215,0
DA:237,0
DA:238,0
DA:239,0
DA:269,0
DA:270,0
DA:272,0
DA:145,0
DA:152,0
DA:154,0
DA:155,0
DA:156,0
DA:157,0
DA:158,0
DA:160,0
DA:161,0
DA:163,0
DA:164,0
DA:165,0
DA:166,0
DA:169,0
DA:188,0
DA:189,0
DA:192,0
DA:193,0
DA:194,0
DA:195,0
DA:198,0
DA:200,0
DA:201,0
DA:202,0
DA:203,0
DA:204,0
DA:206,0
DA:207,0
DA:208,0
DA:209,0
DA:210,0
DA:213,0
DA:215,0
DA:237,0
DA:238,0
DA:239,0
DA:269,0
DA:270,0
DA:272,0
DA:145,0
DA:152,0
DA:154,0
DA:155,0
DA:156,0
DA:157,0
DA:158,0
DA:160,0
DA:161,0
DA:163,0
DA:164,0
DA:165,0
DA:166,0
DA:169,0
DA:188,0
DA:189,0
DA:192,0
DA:193,0
DA:194,0
DA:195,0
DA:198,0
DA:200,0
DA:201,0
DA:202,0
DA:203,0
DA:204,0
DA:206,0
DA:207,0
DA:208,0
DA:209,0
DA:210,0
DA:213,0
DA:215,0
DA:237,0
DA:238,0
DA:239,0
DA:269,0
DA:270,0
DA:272,0
DA:145,1
DA:152,2
DA:154,1
DA:155,1
DA:156,1
DA:157,1
DA:158,2
DA:160,1
DA:161,1
DA:163,1
DA:164,1
DA:165,1
DA:166,1
DA:169,1
DA:188,1
DA:189,1
DA:192,1
DA:193,1
DA:194,0
DA:195,0
DA:198,2
DA:200,1
DA:201,1
DA:202,1
DA:203,1
DA:204,2
DA:206,1
DA:207,1
DA:208,1
DA:209,1
DA:210,1
DA:213,1
DA:215,1
DA:237,0
DA:238,0
DA:239,0
DA:269,1
DA:270,1
DA:272,1
DA:145,1090
DA:152,2360
DA:154,1270
DA:155,1270
DA:156,1270
DA:157,1270
DA:158,2940
DA:160,1670
DA:161,1670
DA:163,1670
DA:164,1670
DA:165,1670
DA:166,1670
DA:169,1670
DA:188,1270
DA:189,1270
DA:192,1090
DA:193,1090
DA:194,40
DA:195,30
DA:198,2360
DA:200,1270
DA:201,1270
DA:202,1270
DA:203,1270
DA:204,2940
DA:206,1670
DA:207,1670
DA:208,1670
DA:209,1670
DA:210,1670
DA:213,1670
DA:215,1640
DA:237,30
DA:238,30
DA:239,30
DA:269,1270
DA:270,1270
DA:272,1090
DA:145,0
DA:152,0
DA:154,0
DA:155,0
DA:156,0
DA:157,0
DA:158,0
DA:160,0
DA:161,0
DA:163,0
DA:164,0
DA:165,0
DA:166,0
DA:169,0
DA:188,0
DA:189,0
DA:192,0
DA:193,0
DA:194,0
DA:195,0
DA:198,0
DA:200,0
DA:201,0
DA:202,0
DA:203,0
DA:204,0
DA:206,0
DA:207,0
DA:208,0
DA:209,0
DA:210,0
DA:213,0
DA:215,0
DA:237,0
DA:238,0
DA:239,0
DA:269,0
DA:270,0
DA:272,0
DA:145,0
DA:152,0
DA:154,0
DA:155,0
DA:156,0
DA:157,0
DA:158,0
DA:160,0
DA:161,0
DA:163,0
DA:164,0
DA:165,0
DA:166,0
DA:169,0
DA:188,0
DA:189,0
DA:192,0
DA:193,0
DA:194,0
DA:195,0
DA:198,0
DA:200,0
DA:201,0
DA:202,0
DA:203,0
DA:204,0
DA:206,0
DA:207,0
DA:208,0
DA:209,0
DA:210,0
DA:213,0
DA:215,0
DA:237,0
DA:238,0
DA:239,0
DA:269,0
DA:270,0
DA:272,0
DA:145,2
DA:152,4
DA:154,2
DA:155,2
DA:156,2
DA:157,2
DA:158,4
DA:160,2
DA:161,2
DA:163,2
DA:164,2
DA:165,2
DA:166,2
DA:169,2
DA:188,2
DA:189,2
DA:192,2
DA:193,2
DA:194,0
DA:195,0
DA:198,4
DA:200,2
DA:201,2
DA:202,2
DA:203,2
DA:204,4
DA:206,2
DA:207,2
DA:208,2
DA:209,2
DA:210,2
DA:213,2
DA:215,2
DA:237,0
DA:238,0
DA:239,0
DA:269,2
DA:270,2
DA:272,2
DA:145,3
DA:152,11
DA:154,8
DA:155,8
DA:156,8
DA:157,8
DA:158,51
DA:160,43
DA:161,43
DA:163,43
DA:164,43
DA:165,43
DA:166,43
DA:169,43
DA:188,8
DA:189,8
DA:192,3
DA:193,3
DA:194,11
DA:195,8
DA:198,11
DA:200,8
DA:201,8
DA:202,8
DA:203,8
DA:204,51
DA:206,43
DA:207,43
DA:208,43
DA:209,43
DA:210,43
DA:213,43
DA:215,0
DA:237,43
DA:238,43
DA:239,43
DA:269,8
DA:270,8
DA:272,3
DA:145,0
DA:152,0
DA:154,0
DA:155,0
DA:156,0
DA:157,0
DA:158,0
DA:160,0
DA:161,0
DA:163,0
DA:164,0
DA:165,0
DA:166,0
DA:169,0
DA:188,0
DA:189,0
DA:192,0
DA:193,0
DA:194,0
DA:195,0
DA:198,0
DA:200,0
DA:201,0
DA:202,0
DA:203,0
DA:204,0
DA:206,0
DA:207,0
DA:208,0
DA:209,0
DA:210,0
DA:213,0
DA:215,0
DA:237,0
DA:238,0
DA:239,0
DA:269,0
DA:270,0
DA:272,0
DA:169,0
DA:169,0
DA:169,0
DA:169,3267
DA:169,1199970
DA:169,0
DA:169,0
DA:169,1734
DA:169,76353
DA:169,0
DA:171,427108
DA:173,427108
DA:174,427108
DA:175,854216
DA:176,27118
DA:177,799980
DA:178,0
DA:179,799980
DA:180,399990
DA:182,1281320
DA:183,1281320
DA:215,0
DA:215,0
DA:215,0
DA:215,1089
DA:215,358120
DA:215,0
DA:215,0
DA:215,578
DA:215,0
DA:215,0
DA:217,359787
DA:219,359787
DA:221,26256
DA:222,78768
DA:223,131280
DA:227,333531
DA:228,1667660
DA:239,0
DA:239,0
DA:239,0
DA:239,0
DA:239,41870
DA:239,0
DA:239,0
DA:239,0
DA:239,25451
DA:239,0
DA:241,67321
DA:243,67321
DA:245,2432
DA:246,2432
DA:247,2432
DA:249,0
DA:251,7296
DA:252,12160
DA:256,64889
DA:257,64889
DA:259,118706
DA:260,59353
DA:261,118706
DA:263,324445
DA:276,0
DA:281,0
DA:282,0
DA:283,0
DA:285,0
DA:286,0
DA:287,0
DA:288,0
DA:289,0
DA:291,0
DA:292,0
DA:294,0
DA:295,0
DA:296,0
DA:298,0
DA:299,0
DA:300,0
DA:302,0
DA:303,0
DA:304,0
DA:306,0
DA:308,0
DA:309,0
DA:310,0
DA:312,0
DA:316,0
DA:318,0
DA:320,0
DA:323,0
DA:325,0
DA:327,0
DA:328,0
DA:330,0
DA:332,0
DA:333,0
DA:341,0
DA:342,0
DA:343,0
DA:345,0
DA:346,0
DA:349,0
DA:350,0
DA:354,0
DA:276,0
DA:281,0
DA:282,0
DA:283,0
DA:285,0
DA:286,0
DA:287,0
DA:288,0
DA:289,0
DA:291,0
DA:292,0
DA:294,0
DA:295,0
DA:296,0
DA:298,0
DA:299,0
DA:300,0
DA:302,0
DA:303,0
DA:304,0
DA:306,0
DA:308,0
DA:309,0
DA:310,0
DA:312,0
DA:316,0
DA:318,0
DA:320,0
DA:323,0
DA:325,0
DA:327,0
DA:328,0
DA:330,0
DA:332,0
DA:333,0
DA:341,0
DA:342,0
DA:343,0
DA:345,0
DA:346,0
DA:349,0
DA:350,0
DA:354,0
DA:276,0
DA:281,0
DA:282,0
DA:283,0
DA:285,0
DA:286,0
DA:287,0
DA:288,0
DA:289,0
DA:291,0
DA:292,0
DA:294,0
DA:295,0
DA:296,0
DA:298,0
DA:299,0
DA:300,0
DA:302,0
DA:303,0
DA:304,0
DA:306,0
DA:308,0
DA:309,0
DA:310,0
DA:312,0
DA:316,0
DA:318,0
DA:320,0
DA:323,0
DA:325,0
DA:327,0
DA:328,0
DA:330,0
DA:332,0
DA:333,0
DA:341,0
DA:342,0
DA:343,0
DA:345,0
DA:346,0
DA:349,0
DA:350,0
DA:354,0
DA:276,1
DA:281,2
DA:282,2
DA:283,2
DA:285,1
DA:286,1
DA:287,1
DA:288,1
DA:289,2
DA:291,2
DA:292,1
DA:294,1
DA:295,2
DA:296,1
DA:298,1
DA:299,2
DA:300,1
DA:302,1
DA:303,2
DA:304,1
DA:306,1
DA:308,1
DA:309,1
DA:310,1
DA:312,1
DA:316,2
DA:318,1
DA:320,1
DA:323,1
DA:325,1
DA:327,1
DA:328,2
DA:330,3
DA:332,2
DA:333,2
DA:341,1
DA:342,0
DA:343,1
DA:345,2
DA:346,1
DA:349,1
DA:350,0
DA:354,1
DA:276,120
DA:281,240
DA:282,240
DA:283,240
DA:285,120
DA:286,120
DA:287,120
DA:288,120
DA:289,280
DA:291,320
DA:292,160
DA:294,160
DA:295,320
DA:296,160
DA:298,160
DA:299,320
DA:300,160
DA:302,160
DA:303,320
DA:304,160
DA:306,160
DA:308,160
DA:309,160
DA:310,160
DA:312,160
DA:316,1199
DA:318,1090
DA:320,1090
DA:323,1090
DA:325,1090
DA:327,1090
DA:328,2360
DA:330,3810
DA:332,2540
DA:333,2540
DA:341,1090
DA:342,0
DA:343,1090
DA:345,2360
DA:346,1270
DA:349,1090
DA:350,11
DA:354,109
DA:276,0
DA:281,0
DA:282,0
DA:283,0
DA:285,0
DA:286,0
DA:287,0
DA:288,0
DA:289,0
DA:291,0
DA:292,0
DA:294,0
DA:295,0
DA:296,0
DA:298,0
DA:299,0
DA:300,0
DA:302,0
DA:303,0
DA:304,0
DA:306,0
DA:308,0
DA:309,0
DA:310,0
DA:312,0
DA:316,0
DA:318,0
DA:320,0
DA:323,0
DA:325,0
DA:327,0
DA:328,0
DA:330,0
DA:332,0
DA:333,0
DA:341,0
DA:342,0
DA:343,0
DA:345,0
DA:346,0
DA:349,0
DA:350,0
DA:354,0
DA:276,0
DA:281,0
DA:282,0
DA:283,0
DA:285,0
DA:286,0
DA:287,0
DA:288,0
DA:289,0
DA:291,0
DA:292,0
DA:294,0
DA:295,0
DA:296,0
DA:298,0
DA:299,0
DA:300,0
DA:302,0
DA:303,0
DA:304,0
DA:306,0
DA:308,0
DA:309,0
DA:310,0
DA:312,0
DA:316,0
DA:318,0
DA:320,0
DA:323,0
DA:325,0
DA:327,0
DA:328,0
DA:330,0
DA:332,0
DA:333,0
DA:341,0
DA:342,0
DA:343,0
DA:345,0
DA:346,0
DA:349,0
DA:350,0
DA:354,0
DA:276,2
DA:281,4
DA:282,4
DA:283,4
DA:285,2
DA:286,2
DA:287,2
DA:288,2
DA:289,4
DA:291,4
DA:292,2
DA:294,2
DA:295,4
DA:296,2
DA:298,2
DA:299,4
DA:300,2
DA:302,2
DA:303,4
DA:304,2
DA:306,2
DA:308,2
DA:309,2
DA:310,2
DA:312,2
DA:316,4
DA:318,2
DA:320,2
DA:323,2
DA:325,2
DA:327,2
DA:328,4
DA:330,6
DA:332,4
DA:333,4
DA:341,2
DA:342,0
DA:343,2
DA:345,4
DA:346,2
DA:349,2
DA:350,0
DA:354,2
DA:276,3
DA:281,6
DA:282,6
DA:283,6
DA:285,3
DA:286,3
DA:287,3
DA:288,3
DA:289,11
DA:291,16
DA:292,8
DA:294,8
DA:295,16
DA:296,8
DA:298,8
DA:299,16
DA:300,8
DA:302,8
DA:303,16
DA:304,8
DA:306,8
DA:308,8
DA:309,8
DA:310,8
DA:312,8
DA:316,6
DA:318,3
DA:320,3
DA:323,3
DA:325,3
DA:327,3
DA:328,11
DA:330,24
DA:332,16
DA:333,16
DA:341,3
DA:342,0
DA:343,3
DA:345,11
DA:346,8
DA:349,3
DA:350,0
DA:354,3
DA:276,0
DA:281,0
DA:282,0
DA:283,0
DA:285,0
DA:286,0
DA:287,0
DA:288,0
DA:289,0
DA:291,0
DA:292,0
DA:294,0
DA:295,0
DA:296,0
DA:298,0
DA:299,0
DA:300,0
DA:302,0
DA:303,0
DA:304,0
DA:306,0
DA:308,0
DA:309,0
DA:310,0
DA:312,0
DA:316,0
DA:318,0
DA:320,0
DA:323,0
DA:325,0
DA:327,0
DA:328,0
DA:330,0
DA:332,0
DA:333,0
DA:341,0
DA:342,0
DA:343,0
DA:345,0
DA:346,0
DA:349,0
DA:350,0
DA:354,0
DA:357,0
DA:362,0
DA:363,0
DA:364,0
DA:366,0
DA:367,0
DA:368,0
DA:369,0
DA:370,0
DA:372,0
DA:373,0
DA:374,0
DA:375,0
DA:376,0
DA:377,0
DA:379,0
DA:380,0
DA:381,0
DA:383,0
DA:384,0
DA:385,0
DA:386,0
DA:387,0
DA:389,0
DA:390,0
DA:391,0
DA:393,0
DA:396,0
DA:398,0
DA:400,0
DA:403,0
DA:405,0
DA:408,0
DA:409,0
DA:411,0
DA:413,0
DA:414,0
DA:416,0
DA:417,0
DA:422,0
DA:423,0
DA:424,0
DA:426,0
DA:427,0
DA:429,0
DA:430,0
DA:434,0
DA:443,0
DA:448,0
DA:449,0
DA:450,0
DA:451,0
DA:452,0
DA:454,0
DA:455,0
DA:456,0
DA:457,0
DA:458,0
DA:459,0
DA:460,0
DA:463,0
DA:464,0
DA:500,0
DA:504,0
DA:505,0
DA:506,0
DA:507,0
DA:509,0
DA:510,0
DA:511,0
DA:513,0
DA:514,0
DA:517,0
DA:519,0
DA:521,0
DA:523,0
DA:500,0
DA:504,0
DA:505,0
DA:506,0
DA:507,0
DA:509,0
DA:510,0
DA:511,0
DA:513,0
DA:514,0
DA:517,0
DA:519,0
DA:521,0
DA:523,0
DA:500,0
DA:504,0
DA:505,0
DA:506,0
DA:507,0
DA:509,0
DA:510,0
DA:511,0
DA:513,0
DA:514,0
DA:517,0
DA:519,0
DA:521,0
DA:523,0
DA:500,0
DA:504,0
DA:505,0
DA:506,0
DA:507,0
DA:509,0
DA:510,0
DA:511,0
DA:513,0
DA:514,0
DA:517,0
DA:519,0
DA:521,0
DA:523,0
DA:500,0
DA:504,0
DA:505,0
DA:506,0
DA:507,0
DA:509,0
DA:510,0
DA:511,0
DA:513,0
DA:514,0
DA:517,0
DA:519,0
DA:521,0
DA:523,0
DA:500,0
DA:504,0
DA:505,0
DA:506,0
DA:507,0
DA:509,0
DA:510,0
DA:511,0
DA:513,0
DA:514,0
DA:517,0
DA:519,0
DA:521,0
DA:523,0
DA:500,0
DA:504,0
DA:505,0
DA:506,0
DA:507,0
DA:509,0
DA:510,0
DA:511,0
DA:513,0
DA:514,0
DA:517,0
DA:519,0
DA:521,0
DA:523,0
DA:500,0
DA:504,0
DA:505,0
DA:506,0
DA:507,0
DA:509,0
DA:510,0
DA:511,0
DA:513,0
DA:514,0
DA:517,0
DA:519,0
DA:521,0
DA:523,0
DA:500,3
DA:504,6
DA:505,6
DA:506,6
DA:507,11
DA:509,8
DA:510,8
DA:511,8
DA:513,8
DA:514,8
DA:517,3
DA:519,11
DA:521,8
DA:523,3
DA:500,0
DA:504,0
DA:505,0
DA:506,0
DA:507,0
DA:509,0
DA:510,0
DA:511,0
DA:513,0
DA:514,0
DA:517,0
DA:519,0
DA:521,0
DA:523,0
DA:641,1
DA:643,1
DA:646,1
DA:650,1
DA:651,1
DA:641,0
DA:643,0
DA:646,0
DA:650,0
DA:651,0
DA:641,0
DA:643,0
DA:646,0
DA:650,0
DA:651,0
DA:641,3
DA:643,3
DA:646,3
DA:650,3
DA:651,3
DA:641,1
DA:643,1
DA:646,1
DA:650,1
DA:651,1
DA:641,0
DA:643,0
DA:646,0
DA:650,0
DA:651,0
DA:641,0
DA:643,0
DA:646,0
DA:650,0
DA:651,0
DA:641,0
DA:643,0
DA:646,0
DA:650,0
DA:651,0
DA:641,2
DA:643,2
DA:646,2
DA:650,2
DA:651,2
DA:641,0
DA:643,0
DA:646,0
DA:650,0
DA:651,0
DA:641,0
DA:643,0
DA:646,0
DA:650,0
DA:651,0
end_of_record
SF:/home/brunnels/Research/alamo/ext/amrex/2d-coverage-g++-23.08/include/AMReX_FabArrayCommI.H
FN:8,_ZN5amrex8FabArrayINS_7BaseFabIN5Model5Solid6Linear9LaplacianEEEE11FBEP_nowaitIS5_S6_Li0EEEviiRKNS_7IntVectERKNS_11PeriodicityEbbb
FNDA:2,_ZN5amrex8FabArrayINS_7BaseFabIN5Model5Solid6Linear9LaplacianEEEE11FBEP_nowaitIS5_S6_Li0EEEviiRKNS_7IntVectERKNS_11PeriodicityEbbb
FN:8,_ZN5amrex8FabArrayINS_7BaseFabIdEEE11FBEP_nowaitIdS2_Li0EEEviiRKNS_7IntVectERKNS_11PeriodicityEbbb
FNDA:0,_ZN5amrex8FabArrayINS_7BaseFabIdEEE11FBEP_nowaitIdS2_Li0EEEviiRKNS_7IntVectERKNS_11PeriodicityEbbb
FN:8,_ZN5amrex8FabArrayINS_7BaseFabIN5Model5Solid6Affine2J2EEEE11FBEP_nowaitIS5_S6_Li0EEEviiRKNS_7IntVectERKNS_11PeriodicityEbbb
FNDA:2,_ZN5amrex8FabArrayINS_7BaseFabIN5Model5Solid6Affine2J2EEEE11FBEP_nowaitIS5_S6_Li0EEEviiRKNS_7IntVectERKNS_11PeriodicityEbbb
FN:8,_ZN5amrex8FabArrayINS_7BaseFabIN5Model5Solid6Linear5CubicEEEE11FBEP_nowaitIS5_S6_Li0EEEviiRKNS_7IntVectERKNS_11PeriodicityEbbb
FNDA:0,_ZN5amrex8FabArrayINS_7BaseFabIN5Model5Solid6Linear5CubicEEEE11FBEP_nowaitIS5_S6_Li0EEEviiRKNS_7IntVectERKNS_11PeriodicityEbbb
FN:8,_ZN5amrex8FabArrayINS_7BaseFabIN5Model5Solid6Affine5CubicEEEE11FBEP_nowaitIS5_S6_Li0EEEviiRKNS_7IntVectERKNS_11PeriodicityEbbb
FNDA:0,_ZN5amrex8FabArrayINS_7BaseFabIN5Model5Solid6Affine5CubicEEEE11FBEP_nowaitIS5_S6_Li0EEEviiRKNS_7IntVectERKNS_11PeriodicityEbbb
FN:8,_ZN5amrex8FabArrayINS_7BaseFabIN5Model5Solid7Elastic28PseudoLinearCubicPredeformedEEEE11FBEP_nowaitIS5_S6_Li0EEEviiRKNS_7IntVectERKNS_11PeriodicityEbbb
FNDA:0,_ZN5amrex8FabArrayINS_7BaseFabIN5Model5Solid7Elastic28PseudoLinearCubicPredeformedEEEE11FBEP_nowaitIS5_S6_Li0EEEviiRKNS_7IntVectERKNS_11PeriodicityEbbb
FN:8,_ZN5amrex8FabArrayINS_7BaseFabIN3Set7Matrix4ILi2ELi1EEEEEE11FBEP_nowaitIS4_S5_Li0EEEviiRKNS_7IntVectERKNS_11PeriodicityEbbb
FNDA:0,_ZN5amrex8FabArrayINS_7BaseFabIN3Set7Matrix4ILi2ELi1EEEEEE11FBEP_nowaitIS4_S5_Li0EEEviiRKNS_7IntVectERKNS_11PeriodicityEbbb
FN:8,_ZN5amrex8FabArrayINS_7BaseFabIN3Set7Matrix4ILi2ELi4EEEEEE11FBEP_nowaitIS4_S5_Li0EEEviiRKNS_7IntVectERKNS_11PeriodicityEbbb
FNDA:0,_ZN5amrex8FabArrayINS_7BaseFabIN3Set7Matrix4ILi2ELi4EEEEEE11FBEP_nowaitIS4_S5_Li0EEEviiRKNS_7IntVectERKNS_11PeriodicityEbbb
FN:8,_ZN5amrex8FabArrayINS_7BaseFabIN3Set7Matrix4ILi2ELi3EEEEEE11FBEP_nowaitIS4_S5_Li0EEEviiRKNS_7IntVectERKNS_11PeriodicityEbbb
FNDA:0,_ZN5amrex8FabArrayINS_7BaseFabIN3Set7Matrix4ILi2ELi3EEEEEE11FBEP_nowaitIS4_S5_Li0EEEviiRKNS_7IntVectERKNS_11PeriodicityEbbb
FN:8,_ZN5amrex8FabArrayINS_7BaseFabIN5Model5Solid6Linear9IsotropicEEEE11FBEP_nowaitIS5_S6_Li0EEEviiRKNS_7IntVectERKNS_11PeriodicityEbbb
FNDA:20,_ZN5amrex8FabArrayINS_7BaseFabIN5Model5Solid6Linear9IsotropicEEEE11FBEP_nowaitIS5_S6_Li0EEEviiRKNS_7IntVectERKNS_11PeriodicityEbbb
FN:8,_ZN5amrex8FabArrayINS_7BaseFabIN3Set7Matrix4ILi2ELi6EEEEEE11FBEP_nowaitIS4_S5_Li0EEEviiRKNS_7IntVectERKNS_11PeriodicityEbbb
FNDA:0,_ZN5amrex8FabArrayINS_7BaseFabIN3Set7Matrix4ILi2ELi6EEEEEE11FBEP_nowaitIS4_S5_Li0EEEviiRKNS_7IntVectERKNS_11PeriodicityEbbb
FN:8,_ZN5amrex8FabArrayINS_7BaseFabIN5Eigen6MatrixIdLi2ELi2ELi0ELi2ELi2EEEEEE11FBEP_nowaitIS4_S5_Li0EEEviiRKNS_7IntVectERKNS_11PeriodicityEbbb
FNDA:0,_ZN5amrex8FabArrayINS_7BaseFabIN5Eigen6MatrixIdLi2ELi2ELi0ELi2ELi2EEEEEE11FBEP_nowaitIS4_S5_Li0EEEviiRKNS_7IntVectERKNS_11PeriodicityEbbb
FN:8,_ZN5amrex8FabArrayINS_7BaseFabIN5Model5Solid7Elastic17PseudoLinearCubicEEEE11FBEP_nowaitIS5_S6_Li0EEEviiRKNS_7IntVectERKNS_11PeriodicityEbbb
FNDA:0,_ZN5amrex8FabArrayINS_7BaseFabIN5Model5Solid7Elastic17PseudoLinearCubicEEEE11FBEP_nowaitIS5_S6_Li0EEEviiRKNS_7IntVectERKNS_11PeriodicityEbbb
FN:8,_ZN5amrex8FabArrayINS_7BaseFabIN5Eigen6MatrixIdLi2ELi1ELi0ELi2ELi1EEEEEE11FBEP_nowaitIS4_S5_Li0EEEviiRKNS_7IntVectERKNS_11PeriodicityEbbb
FNDA:0,_ZN5amrex8FabArrayINS_7BaseFabIN5Eigen6MatrixIdLi2ELi1ELi0ELi2ELi1EEEEEE11FBEP_nowaitIS4_S5_Li0EEEviiRKNS_7IntVectERKNS_11PeriodicityEbbb
FN:8,_ZN5amrex8FabArrayINS_7BaseFabIN5Model5Solid6Affine9IsotropicEEEE11FBEP_nowaitIS5_S6_Li0EEEviiRKNS_7IntVectERKNS_11PeriodicityEbbb
FNDA:0,_ZN5amrex8FabArrayINS_7BaseFabIN5Model5Solid6Affine9IsotropicEEEE11FBEP_nowaitIS5_S6_Li0EEEviiRKNS_7IntVectERKNS_11PeriodicityEbbb
FN:8,_ZN5amrex8FabArrayINS_7BaseFabIN5Model5Solid6Linear19IsotropicDegradableEEEE11FBEP_nowaitIS5_S6_Li0EEEviiRKNS_7IntVectERKNS_11PeriodicityEbbb
FNDA:0,_ZN5amrex8FabArrayINS_7BaseFabIN5Model5Solid6Linear19IsotropicDegradableEEEE11FBEP_nowaitIS5_S6_Li0EEEviiRKNS_7IntVectERKNS_11PeriodicityEbbb
FN:8,_ZN5amrex8FabArrayINS_7BaseFabIN5Model5Solid7Elastic10NeoHookeanEEEE11FBEP_nowaitIS5_S6_Li0EEEviiRKNS_7IntVectERKNS_11PeriodicityEbbb
FNDA:14,_ZN5amrex8FabArrayINS_7BaseFabIN5Model5Solid7Elastic10NeoHookeanEEEE11FBEP_nowaitIS5_S6_Li0EEEviiRKNS_7IntVectERKNS_11PeriodicityEbbb
FN:8,_ZN5amrex8FabArrayINS_7BaseFabIN5Model5Solid6Affine9HexagonalEEEE11FBEP_nowaitIS5_S6_Li0EEEviiRKNS_7IntVectERKNS_11PeriodicityEbbb
FNDA:0,_ZN5amrex8FabArrayINS_7BaseFabIN5Model5Solid6Affine9HexagonalEEEE11FBEP_nowaitIS5_S6_Li0EEEviiRKNS_7IntVectERKNS_11PeriodicityEbbb
FN:8,_ZN5amrex8FabArrayINS_9FArrayBoxEE11FBEP_nowaitIdS1_Li0EEEviiRKNS_7IntVectERKNS_11PeriodicityEbbb
FNDA:0,_ZN5amrex8FabArrayINS_9FArrayBoxEE11FBEP_nowaitIdS1_Li0EEEviiRKNS_7IntVectERKNS_11PeriodicityEbbb
FN:168,_ZN5amrex8FabArrayINS_7BaseFabIN5Model5Solid6Affine5CubicEEEE19FillBoundary_finishIS5_S6_Li0EEEvv
FNDA:0,_ZN5amrex8FabArrayINS_7BaseFabIN5Model5Solid6Affine5CubicEEEE19FillBoundary_finishIS5_S6_Li0EEEvv
FN:168,_ZN5amrex8FabArrayINS_7BaseFabIN5Eigen6MatrixIdLi2ELi1ELi0ELi2ELi1EEEEEE19FillBoundary_finishIS4_S5_Li0EEEvv
FNDA:0,_ZN5amrex8FabArrayINS_7BaseFabIN5Eigen6MatrixIdLi2ELi1ELi0ELi2ELi1EEEEEE19FillBoundary_finishIS4_S5_Li0EEEvv
FN:168,_ZN5amrex8FabArrayINS_7BaseFabIN5Model5Solid6Linear9IsotropicEEEE19FillBoundary_finishIS5_S6_Li0EEEvv
FNDA:20,_ZN5amrex8FabArrayINS_7BaseFabIN5Model5Solid6Linear9IsotropicEEEE19FillBoundary_finishIS5_S6_Li0EEEvv
FN:168,_ZN5amrex8FabArrayINS_7BaseFabIN5Model5Solid6Linear5CubicEEEE19FillBoundary_finishIS5_S6_Li0EEEvv
FNDA:0,_ZN5amrex8FabArrayINS_7BaseFabIN5Model5Solid6Linear5CubicEEEE19FillBoundary_finishIS5_S6_Li0EEEvv
FN:168,_ZN5amrex8FabArrayINS_7BaseFabIN5Model5Solid6Affine9HexagonalEEEE19FillBoundary_finishIS5_S6_Li0EEEvv
FNDA:0,_ZN5amrex8FabArrayINS_7BaseFabIN5Model5Solid6Affine9HexagonalEEEE19FillBoundary_finishIS5_S6_Li0EEEvv
FN:168,_ZN5amrex8FabArrayINS_7BaseFabIN5Model5Solid6Linear9LaplacianEEEE19FillBoundary_finishIS5_S6_Li0EEEvv
FNDA:2,_ZN5amrex8FabArrayINS_7BaseFabIN5Model5Solid6Linear9LaplacianEEEE19FillBoundary_finishIS5_S6_Li0EEEvv
FN:168,_ZN5amrex8FabArrayINS_7BaseFabIN5Model5Solid7Elastic10NeoHookeanEEEE19FillBoundary_finishIS5_S6_Li0EEEvv
FNDA:14,_ZN5amrex8FabArrayINS_7BaseFabIN5Model5Solid7Elastic10NeoHookeanEEEE19FillBoundary_finishIS5_S6_Li0EEEvv
FN:168,_ZN5amrex8FabArrayINS_9FArrayBoxEE19FillBoundary_finishIdS1_Li0EEEvv
FNDA:0,_ZN5amrex8FabArrayINS_9FArrayBoxEE19FillBoundary_finishIdS1_Li0EEEvv
FN:168,_ZN5amrex8FabArrayINS_7BaseFabIN5Model5Solid6Linear19IsotropicDegradableEEEE19FillBoundary_finishIS5_S6_Li0EEEvv
FNDA:0,_ZN5amrex8FabArrayINS_7BaseFabIN5Model5Solid6Linear19IsotropicDegradableEEEE19FillBoundary_finishIS5_S6_Li0EEEvv
FN:168,_ZN5amrex8FabArrayINS_7BaseFabIN5Model5Solid6Affine9IsotropicEEEE19FillBoundary_finishIS5_S6_Li0EEEvv
FNDA:0,_ZN5amrex8FabArrayINS_7BaseFabIN5Model5Solid6Affine9IsotropicEEEE19FillBoundary_finishIS5_S6_Li0EEEvv
FN:168,_ZN5amrex8FabArrayINS_7BaseFabIN5Eigen6MatrixIdLi2ELi2ELi0ELi2ELi2EEEEEE19FillBoundary_finishIS4_S5_Li0EEEvv
FNDA:0,_ZN5amrex8FabArrayINS_7BaseFabIN5Eigen6MatrixIdLi2ELi2ELi0ELi2ELi2EEEEEE19FillBoundary_finishIS4_S5_Li0EEEvv
FN:168,_ZN5amrex8FabArrayINS_7BaseFabIN3Set7Matrix4ILi2ELi6EEEEEE19FillBoundary_finishIS4_S5_Li0EEEvv
FNDA:0,_ZN5amrex8FabArrayINS_7BaseFabIN3Set7Matrix4ILi2ELi6EEEEEE19FillBoundary_finishIS4_S5_Li0EEEvv
FN:168,_ZN5amrex8FabArrayINS_7BaseFabIdEEE19FillBoundary_finishIdS2_Li0EEEvv
FNDA:0,_ZN5amrex8FabArrayINS_7BaseFabIdEEE19FillBoundary_finishIdS2_Li0EEEvv
FN:168,_ZN5amrex8FabArrayINS_7BaseFabIN3Set7Matrix4ILi2ELi3EEEEEE19FillBoundary_finishIS4_S5_Li0EEEvv
FNDA:0,_ZN5amrex8FabArrayINS_7BaseFabIN3Set7Matrix4ILi2ELi3EEEEEE19FillBoundary_finishIS4_S5_Li0EEEvv
FN:168,_ZN5amrex8FabArrayINS_7BaseFabIN3Set7Matrix4ILi2ELi4EEEEEE19FillBoundary_finishIS4_S5_Li0EEEvv
FNDA:0,_ZN5amrex8FabArrayINS_7BaseFabIN3Set7Matrix4ILi2ELi4EEEEEE19FillBoundary_finishIS4_S5_Li0EEEvv
FN:168,_ZN5amrex8FabArrayINS_7BaseFabIN3Set7Matrix4ILi2ELi1EEEEEE19FillBoundary_finishIS4_S5_Li0EEEvv
FNDA:0,_ZN5amrex8FabArrayINS_7BaseFabIN3Set7Matrix4ILi2ELi1EEEEEE19FillBoundary_finishIS4_S5_Li0EEEvv
FN:168,_ZN5amrex8FabArrayINS_7BaseFabIN5Model5Solid6Affine2J2EEEE19FillBoundary_finishIS5_S6_Li0EEEvv
FNDA:2,_ZN5amrex8FabArrayINS_7BaseFabIN5Model5Solid6Affine2J2EEEE19FillBoundary_finishIS5_S6_Li0EEEvv
FN:168,_ZN5amrex8FabArrayINS_7BaseFabIN5Model5Solid7Elastic28PseudoLinearCubicPredeformedEEEE19FillBoundary_finishIS5_S6_Li0EEEvv
FNDA:0,_ZN5amrex8FabArrayINS_7BaseFabIN5Model5Solid7Elastic28PseudoLinearCubicPredeformedEEEE19FillBoundary_finishIS5_S6_Li0EEEvv
FN:168,_ZN5amrex8FabArrayINS_7BaseFabIN5Model5Solid7Elastic17PseudoLinearCubicEEEE19FillBoundary_finishIS5_S6_Li0EEEvv
FNDA:0,_ZN5amrex8FabArrayINS_7BaseFabIN5Model5Solid7Elastic17PseudoLinearCubicEEEE19FillBoundary_finishIS5_S6_Li0EEEvv
FN:252,_ZN5amrex8FabArrayINS_7BaseFabIN5Model5Solid6Affine5CubicEEEE12ParallelCopyERKS7_iiiRKNS_7IntVectESC_RKNS_11PeriodicityENS_12FabArrayBase4CpOpEPKNSG_3CPCE
FNDA:0,_ZN5amrex8FabArrayINS_7BaseFabIN5Model5Solid6Affine5CubicEEEE12ParallelCopyERKS7_iiiRKNS_7IntVectESC_RKNS_11PeriodicityENS_12FabArrayBase4CpOpEPKNSG_3CPCE
FN:252,_ZN5amrex8FabArrayINS_7BaseFabIN5Model5Solid7Elastic10NeoHookeanEEEE12ParallelCopyERKS7_iiiRKNS_7IntVectESC_RKNS_11PeriodicityENS_12FabArrayBase4CpOpEPKNSG_3CPCE
FNDA:3,_ZN5amrex8FabArrayINS_7BaseFabIN5Model5Solid7Elastic10NeoHookeanEEEE12ParallelCopyERKS7_iiiRKNS_7IntVectESC_RKNS_11PeriodicityENS_12FabArrayBase4CpOpEPKNSG_3CPCE
FN:252,_ZN5amrex8FabArrayINS_7BaseFabIN5Model5Solid6Linear9LaplacianEEEE12ParallelCopyERKS7_iiiRKNS_7IntVectESC_RKNS_11PeriodicityENS_12FabArrayBase4CpOpEPKNSG_3CPCE
FNDA:0,_ZN5amrex8FabArrayINS_7BaseFabIN5Model5Solid6Linear9LaplacianEEEE12ParallelCopyERKS7_iiiRKNS_7IntVectESC_RKNS_11PeriodicityENS_12FabArrayBase4CpOpEPKNSG_3CPCE
