TN:
SF:/home/brunnels/Research/alamo/ext/amrex/3d-coverage-g++-23.08/include/AMReX_Geometry.H
FN:210,_ZNK5amrex8Geometry6DomainEv
FNDA:1254360,_ZNK5amrex8Geometry6DomainEv
FN:317,_ZNK5amrex8Geometry10isPeriodicEi
FNDA:1698,_ZNK5amrex8Geometry10isPeriodicEi
FN:341,_ZNK5amrex8Geometry11periodicityEv
FNDA:16784,_ZNK5amrex8Geometry11periodicityEv
FN:347,_ZNK5amrex8Geometry11periodicityERKNS_3BoxE
FNDA:0,_ZNK5amrex8Geometry11periodicityERKNS_3BoxE
DA:210,1254360
DA:317,1698
DA:341,16784
DA:342,16784
DA:344,16784
DA:347,0
DA:349,0
DA:351,0
end_of_record
SF:/home/brunnels/Research/alamo/src/Util/Color.H
end_of_record
SF:/home/brunnels/Research/alamo/ext/amrex/3d-coverage-g++-23.08/include/AMReX_DistributionMapping.H
FN:67,_ZN5amrex19DistributionMappingD2Ev
FNDA:1384630,_ZN5amrex19DistributionMappingD2Ev
FN:363,_ZN5amrex19DistributionMapping5RefIDC2Ev
FNDA:12489,_ZN5amrex19DistributionMapping5RefIDC2Ev
DA:67,1384630
DA:363,12489
end_of_record
SF:/home/brunnels/Research/alamo/ext/amrex/3d-coverage-g++-23.08/include/AMReX_ParallelDescriptor.H
FN:74,_ZNK5amrex18ParallelDescriptor7Message3reqEv
FNDA:0,_ZNK5amrex18ParallelDescriptor7Message3reqEv
FN:125,_ZN5amrex18ParallelDescriptor6MyProcEv
FNDA:2707,_ZN5amrex18ParallelDescriptor6MyProcEv
FN:266,_ZN5amrex18ParallelDescriptor17IOProcessorNumberEv
FNDA:2719,_ZN5amrex18ParallelDescriptor17IOProcessorNumberEv
FN:275,_ZN5amrex18ParallelDescriptor11IOProcessorEv
FNDA:2707,_ZN5amrex18ParallelDescriptor11IOProcessorEv
FN:613,_ZN5amrex18ParallelDescriptor6SeqNumEv
FNDA:0,_ZN5amrex18ParallelDescriptor6SeqNumEv
DA:74,0
DA:125,2707
DA:127,2707
DA:266,2719
DA:268,2719
DA:275,2707
DA:277,2707
DA:613,0
end_of_record
SF:/home/brunnels/Research/alamo/ext/amrex/3d-coverage-g++-23.08/include/AMReX_FabArrayBase.H
FN:39,_ZN5amrex12FabArrayBaseC2Ev
FNDA:12489,_ZN5amrex12FabArrayBaseC2Ev
FN:40,_ZN5amrex12FabArrayBaseD2Ev
FNDA:1383130,_ZN5amrex12FabArrayBaseD2Ev
FN:68,_ZNK5amrex12FabArrayBase5nGrowEi
FNDA:50466,_ZNK5amrex12FabArrayBase5nGrowEi
FN:73,_ZNK5amrex12FabArrayBase5nCompEv
FNDA:865093,_ZNK5amrex12FabArrayBase5nCompEv
FN:85,_ZNK5amrex12FabArrayBase8boxArrayEv
FNDA:180064,_ZNK5amrex12FabArrayBase8boxArrayEv
FN:103,_ZNK5amrex12FabArrayBase10local_sizeEv
FNDA:0,_ZNK5amrex12FabArrayBase10local_sizeEv
FN:109,_ZNK5amrex12FabArrayBase10localindexEi
FNDA:90988,_ZNK5amrex12FabArrayBase10localindexEi
FN:121,_ZNK5amrex12FabArrayBase15DistributionMapEv
FNDA:134066,_ZNK5amrex12FabArrayBase15DistributionMapEv
FN:221,_ZN5amrex12FabArrayBase5BDKeyC2Ev
FNDA:12489,_ZN5amrex12FabArrayBase5BDKeyC2Ev
DA:39,12489
DA:40,1383130
DA:68,100932
DA:73,865093
DA:85,180064
DA:103,0
DA:109,90988
DA:111,90988
DA:112,90988
DA:113,90988
DA:116,0
DA:121,134066
DA:221,12489
end_of_record
SF:/home/brunnels/Research/alamo/ext/amrex/3d-coverage-g++-23.08/include/AMReX_IntVect.H
FN:87,_ZN5amrex7IntVectC2Ev
FNDA:24978,_ZN5amrex7IntVectC2Ev
FN:96,_ZN5amrex7IntVectC2Eiii
FNDA:172887000,_ZN5amrex7IntVectC2Eiii
FN:100,_ZN5amrex7IntVectC2Ei
FNDA:2063640,_ZN5amrex7IntVectC2Ei
DA:87,24978
DA:96,172887000
DA:100,2063640
DA:136,0
DA:171,0
DA:172,0
DA:196,68370300
DA:200,1042880000
DA:327,4907350
DA:399,0
DA:476,2409880
DA:493,0
end_of_record
SF:/home/brunnels/Research/alamo/ext/amrex/3d-coverage-g++-23.08/include/AMReX_Periodicity.H
FN:20,_ZN5amrex11PeriodicityC2ERKNS_7IntVectE
FNDA:16784,_ZN5amrex11PeriodicityC2ERKNS_7IntVectE
FN:22,_ZNK5amrex11Periodicity13isAnyPeriodicEv
FNDA:0,_ZNK5amrex11Periodicity13isAnyPeriodicEv
DA:20,16784
DA:22,0
DA:23,0
end_of_record
SF:/home/brunnels/Research/alamo/ext/amrex/3d-coverage-g++-23.08/include/AMReX_Loop.H
FN:201,_ZN5amrex19LoopConcurrentOnCpuIZNS_8FabArrayINS_7BaseFabIdEEE20pack_send_buffer_cpuIdEEvRKS4_iiRKNS_6VectorIPcSaIS9_EEERKNS8_ImSaImEEERKNS8_IPKSt6vectorINS_12FabArrayBase10CopyComTagESaISK_EESaISO_EEEEUliiiiE_EEvRKNS_3BoxEiOT_
FNDA:0,_ZN5amrex19LoopConcurrentOnCpuIZNS_8FabArrayINS_7BaseFabIdEEE20pack_send_buffer_cpuIdEEvRKS4_iiRKNS_6VectorIPcSaIS9_EEERKNS8_ImSaImEEERKNS8_IPKSt6vectorINS_12FabArrayBase10CopyComTagESaISK_EESaISO_EEEEUliiiiE_EEvRKNS_3BoxEiOT_
FN:201,_ZN5amrex19LoopConcurrentOnCpuIZNS_8FabArrayINS_7BaseFabIdEEE17FB_local_copy_cpuERKNS_12FabArrayBase2FBEiiEUliiiiE_EEvRKNS_3BoxEiOT_
FNDA:0,_ZN5amrex19LoopConcurrentOnCpuIZNS_8FabArrayINS_7BaseFabIdEEE17FB_local_copy_cpuERKNS_12FabArrayBase2FBEiiEUliiiiE_EEvRKNS_3BoxEiOT_
FN:201,_ZN5amrex19LoopConcurrentOnCpuIZNS_8FabArrayINS_7BaseFabIdEEE22unpack_recv_buffer_cpuIdEEvRS4_iiRKNS_6VectorIPcSaIS8_EEERKNS7_ImSaImEEERKNS7_IPKSt6vectorINS_12FabArrayBase10CopyComTagESaISJ_EESaISN_EEENSI_4CpOpEbEUliiiiE0_EEvRKNS_3BoxEiOT_
FNDA:0,_ZN5amrex19LoopConcurrentOnCpuIZNS_8FabArrayINS_7BaseFabIdEEE22unpack_recv_buffer_cpuIdEEvRS4_iiRKNS_6VectorIPcSaIS8_EEERKNS7_ImSaImEEERKNS7_IPKSt6vectorINS_12FabArrayBase10CopyComTagESaISJ_EESaISN_EEENSI_4CpOpEbEUliiiiE0_EEvRKNS_3BoxEiOT_
FN:201,_ZN5amrex19LoopConcurrentOnCpuIZNS_8FabArrayINS_7BaseFabIdEEE22unpack_recv_buffer_cpuIdEEvRS4_iiRKNS_6VectorIPcSaIS8_EEERKNS7_ImSaImEEERKNS7_IPKSt6vectorINS_12FabArrayBase10CopyComTagESaISJ_EESaISN_EEENSI_4CpOpEbEUliiiiE_EEvRKNS_3BoxEiOT_
FNDA:0,_ZN5amrex19LoopConcurrentOnCpuIZNS_8FabArrayINS_7BaseFabIdEEE22unpack_recv_buffer_cpuIdEEvRS4_iiRKNS_6VectorIPcSaIS8_EEERKNS7_ImSaImEEERKNS7_IPKSt6vectorINS_12FabArrayBase10CopyComTagESaISJ_EESaISN_EEENSI_4CpOpEbEUliiiiE_EEvRKNS_3BoxEiOT_
FN:201,_ZN5amrex19LoopConcurrentOnCpuIZNS_7BaseFabIdE4copyILNS_5RunOnE1EEERS2_RKS2_RKNS_3BoxEiSA_iiEUliiiiE_EEvSA_iOT_
FNDA:38994,_ZN5amrex19LoopConcurrentOnCpuIZNS_7BaseFabIdE4copyILNS_5RunOnE1EEERS2_RKS2_RKNS_3BoxEiSA_iiEUliiiiE_EEvSA_iOT_
FN:201,_ZN5amrex19LoopConcurrentOnCpuIZNS_7BaseFabIdE10addFromMemILNS_5RunOnE1EdEEmRKNS_3BoxEiiPKvEUliiiiE_EEvS7_iOT_
FNDA:0,_ZN5amrex19LoopConcurrentOnCpuIZNS_7BaseFabIdE10addFromMemILNS_5RunOnE1EdEEmRKNS_3BoxEiiPKvEUliiiiE_EEvS7_iOT_
FN:201,_ZN5amrex19LoopConcurrentOnCpuIZNS_7BaseFabIdE11copyFromMemILNS_5RunOnE1EdEEmRKNS_3BoxEiiPKvEUliiiiE_EEvS7_iOT_
FNDA:0,_ZN5amrex19LoopConcurrentOnCpuIZNS_7BaseFabIdE11copyFromMemILNS_5RunOnE1EdEEmRKNS_3BoxEiiPKvEUliiiiE_EEvS7_iOT_
DA:201,0
DA:205,0
DA:206,0
DA:207,0
DA:209,0
DA:210,0
DA:212,0
DA:201,0
DA:205,0
DA:206,0
DA:207,0
DA:209,0
DA:210,0
DA:212,0
DA:201,0
DA:205,0
DA:206,0
DA:207,0
DA:209,0
DA:210,0
DA:212,0
DA:201,0
DA:205,0
DA:206,0
DA:207,0
DA:209,0
DA:210,0
DA:212,0
DA:201,38994
DA:205,133428
DA:206,433954
DA:207,1716850
DA:209,7030500
DA:210,5653160
DA:212,38994
DA:201,0
DA:205,0
DA:206,0
DA:207,0
DA:209,0
DA:210,0
DA:212,0
DA:201,0
DA:205,0
DA:206,0
DA:207,0
DA:209,0
DA:210,0
DA:212,0
end_of_record
SF:/home/brunnels/Research/alamo/ext/amrex/3d-coverage-g++-23.08/include/AMReX_Box.H
FN:102,_ZNKR5amrex3Box8smallEndEv
FNDA:0,_ZNKR5amrex3Box8smallEndEv
FN:154,_ZNK5amrex3Box6lengthEi
FNDA:520903000,_ZNK5amrex3Box6lengthEi
FN:213,_ZNK5amrex3Box2okEv
FNDA:1226840,_ZNK5amrex3Box2okEv
FN:340,_ZNK5amrex3Box6numPtsEv
FNDA:104175000,_ZNK5amrex3Box6numPtsEv
FN:598,_ZN5amrex3Box4growEi
FNDA:1204940,_ZN5amrex3Box4growEi
DA:102,0
DA:154,1562710000
DA:213,3680510
DA:340,104175000
DA:341,104175000
DA:598,3614820
DA:1596,506936
DA:1610,194984
DA:1624,331456
DA:1638,331456
end_of_record
SF:/home/brunnels/Research/alamo/src/BC/Constant.cpp
FN:7,_ZN2BC8ConstantC2EiN5amrex6VectorINSt7__cxx1112basic_stringIcSt11char_traitsIcESaIcEEESaIS8_EEESA_NS2_IdSaIdEEESC_SC_SC_SC_SC_
FNDA:0,_ZN2BC8ConstantC2EiN5amrex6VectorINSt7__cxx1112basic_stringIcSt11char_traitsIcESaIcEEESaIS8_EEESA_NS2_IdSaIdEEESC_SC_SC_SC_SC_
FN:59,_ZN2BC8Constant12FillBoundaryERN5amrex7BaseFabIdEERKNS1_3BoxEiiidNS_11OrientationEPKNS1_4MaskE
FNDA:4876,_ZN2BC8Constant12FillBoundaryERN5amrex7BaseFabIdEERKNS1_3BoxEiiidNS_11OrientationEPKNS1_4MaskE
FN:75,_ZZN2BC8Constant12FillBoundaryERN5amrex7BaseFabIdEERKNS1_3BoxEiiidNS_11OrientationEPKNS1_4MaskEENKUliiiE_clEiii
FNDA:8473470,_ZZN2BC8Constant12FillBoundaryERN5amrex7BaseFabIdEERKNS1_3BoxEiiidNS_11OrientationEPKNS1_4MaskEENKUliiiE_clEiii
FN:174,_ZN2BC8Constant8GetBCRecEv
FNDA:66,_ZN2BC8Constant8GetBCRecEv
FN:183,_ZN2BC8Constant10IsPeriodicEv
FNDA:0,_ZN2BC8Constant10IsPeriodicEv
FN:189,_ZNK2BC8Constant11PeriodicityEv
FNDA:0,_ZNK2BC8Constant11PeriodicityEv
FN:195,_ZN2BC8Constant11PeriodicityERKN5amrex3BoxE
FNDA:0,_ZN2BC8Constant11PeriodicityERKN5amrex3BoxE
DA:7,0
DA:15,0
DA:20,0
DA:22,0
DA:24,0
DA:25,0
DA:26,0
DA:27,0
DA:29,0
DA:30,0
DA:34,0
DA:35,0
DA:36,0
DA:37,0
DA:39,0
DA:40,0
DA:43,0
DA:45,0
DA:46,0
DA:47,0
DA:48,0
DA:50,0
DA:51,0
DA:54,0
DA:59,4876
DA:64,4876
DA:66,9752
DA:68,4876
DA:69,4876
DA:70,14628
DA:72,4876
DA:74,9752
DA:75,4876
DA:77,8473470
DA:78,33893900
DA:82,8473470
DA:84,899264
DA:85,1798530
DA:86,0
DA:87,0
DA:88,0
DA:89,0
DA:90,0
DA:91,0
DA:92,0
DA:94,0
DA:96,7574210
DA:98,165568
DA:99,331136
DA:100,0
DA:101,0
DA:102,0
DA:103,0
DA:104,0
DA:105,0
DA:106,0
DA:108,0
DA:111,7408640
DA:113,630912
DA:114,1261820
DA:115,0
DA:116,0
DA:117,0
DA:118,0
DA:119,0
DA:120,0
DA:121,0
DA:123,0
DA:125,6777730
DA:127,119680
DA:128,239360
DA:129,0
DA:130,0
DA:131,0
DA:132,0
DA:133,0
DA:134,0
DA:135,0
DA:137,0
DA:141,6658050
DA:143,600256
DA:144,1200510
DA:145,0
DA:146,0
DA:147,0
DA:148,0
DA:149,0
DA:150,0
DA:151,0
DA:152,0
DA:154,6057790
DA:156,102144
DA:157,204288
DA:158,0
DA:159,0
DA:160,0
DA:161,0
DA:162,0
DA:163,0
DA:164,0
DA:165,0
DA:170,8473470
DA:171,4876
DA:174,66
DA:176,66
DA:177,66
DA:179,66
DA:183,0
DA:185,0
DA:187,0
DA:189,0
DA:191,0
DA:193,0
DA:195,0
DA:196,0
DA:198,0
end_of_record
SF:/home/brunnels/Research/alamo/ext/amrex/3d-coverage-g++-23.08/include/AMReX_Array4.H
FN:85,_ZN5amrex6Array4IKdEC2EPS1_RKNS_4Dim3ES6_i
FNDA:10228500,_ZN5amrex6Array4IKdEC2EPS1_RKNS_4Dim3ES6_i
FN:85,_ZN5amrex6Array4IdEC2EPdRKNS_4Dim3ES5_i
FNDA:8777540,_ZN5amrex6Array4IdEC2EPdRKNS_4Dim3ES5_i
DA:85,10228500
DA:87,10228500
DA:88,10228500
DA:89,10228500
DA:92,10228500
DA:93,10228500
DA:85,8777540
DA:87,8777540
DA:88,8777540
DA:89,8777540
DA:92,8777540
DA:93,8777540
DA:143,13824100
DA:219,0
end_of_record
SF:/home/brunnels/Research/alamo/ext/amrex/3d-coverage-g++-23.08/include/AMReX_GpuLaunchFunctsC.H
FN:26,_ZN5amrex6detail6call_fIZN2BC8Constant12FillBoundaryERNS_7BaseFabIdEERKNS_3BoxEiiidNS2_11OrientationEPKNS_4MaskEEUliiiE_EEDTclfp_Li0ELi0ELi0EEERKT_iii
FNDA:8473470,_ZN5amrex6detail6call_fIZN2BC8Constant12FillBoundaryERNS_7BaseFabIdEERKNS_3BoxEiiidNS2_11OrientationEPKNS_4MaskEEUliiiE_EEDTclfp_Li0ELi0ELi0EEERKT_iii
FN:160,_ZN5amrex11ParallelForIZN2BC8Constant12FillBoundaryERNS_7BaseFabIdEERKNS_3BoxEiiidNS1_11OrientationEPKNS_4MaskEEUliiiE_EEvS8_OT_
FNDA:4876,_ZN5amrex11ParallelForIZN2BC8Constant12FillBoundaryERNS_7BaseFabIdEERKNS_3BoxEiiidNS1_11OrientationEPKNS_4MaskEEUliiiE_EEvS8_OT_
DA:26,8473470
DA:29,8473470
DA:30,8473470
DA:160,4876
DA:164,56624
DA:165,618344
DA:167,9040070
DA:168,8473470
DA:170,4876
end_of_record
SF:/home/brunnels/Research/alamo/src/Numeric/Interpolator/Interpolator.H
FN:24,_ZN7Numeric12Interpolator12InterpolatorIdEC2Ev
FNDA:831,_ZN7Numeric12Interpolator12InterpolatorIdEC2Ev
DA:24,831
end_of_record
SF:/home/brunnels/Research/alamo/ext/amrex/3d-coverage-g++-23.08/include/AMReX_BaseFab.H
FN:278,_ZNK5amrex7BaseFabIdE5nCompEv
FNDA:14628,_ZNK5amrex7BaseFabIdE5nCompEv
FN:1851,_ZN5amrex7BaseFabIdE4copyILNS_5RunOnE1EEERS1_RKS1_RKNS_3BoxEiS9_ii
FNDA:38994,_ZN5amrex7BaseFabIdE4copyILNS_5RunOnE1EEERS1_RKS1_RKNS_3BoxEiS9_ii
FN:1867,_ZZN5amrex7BaseFabIdE4copyILNS_5RunOnE1EEERS1_RKS1_RKNS_3BoxEiS9_iiENKUliiiiE_clEiiii
FNDA:5653160,_ZZN5amrex7BaseFabIdE4copyILNS_5RunOnE1EEERS1_RKS1_RKNS_3BoxEiS9_iiENKUliiiiE_clEiiii
FN:2175,_ZN5amrex7BaseFabIdE11copyFromMemILNS_5RunOnE1EdEEmRKNS_3BoxEiiPKv
FNDA:0,_ZN5amrex7BaseFabIdE11copyFromMemILNS_5RunOnE1EdEEmRKNS_3BoxEiiPKv
FN:2188,_ZZN5amrex7BaseFabIdE11copyFromMemILNS_5RunOnE1EdEEmRKNS_3BoxEiiPKvENKUliiiiE_clEiiii
FNDA:0,_ZZN5amrex7BaseFabIdE11copyFromMemILNS_5RunOnE1EdEEmRKNS_3BoxEiiPKvENKUliiiiE_clEiiii
FN:2203,_ZN5amrex7BaseFabIdE10addFromMemILNS_5RunOnE1EdEEmRKNS_3BoxEiiPKv
FNDA:0,_ZN5amrex7BaseFabIdE10addFromMemILNS_5RunOnE1EdEEmRKNS_3BoxEiiPKv
FN:2216,_ZZN5amrex7BaseFabIdE10addFromMemILNS_5RunOnE1EdEEmRKNS_3BoxEiiPKvENKUliiiiE_clEiiii
FNDA:0,_ZZN5amrex7BaseFabIdE10addFromMemILNS_5RunOnE1EdEEmRKNS_3BoxEiiPKvENKUliiiiE_clEiiii
DA:90,165728
DA:278,14628
DA:382,0
DA:400,48746
DA:418,38994
DA:1851,38994
DA:1861,38994
DA:1862,38994
DA:1865,38994
DA:1867,11345300
DA:1872,38994
DA:2175,0
DA:2183,0
DA:2185,0
DA:2186,0
DA:2187,0
DA:2188,0
DA:2192,0
DA:2196,0
DA:2203,0
DA:2211,0
DA:2213,0
DA:2214,0
DA:2215,0
DA:2216,0
DA:2220,0
DA:2224,0
end_of_record
SF:/home/brunnels/Research/alamo/ext/amrex/3d-coverage-g++-23.08/include/AMReX_FabArray.H
FN:475,_ZN5amrex8FabArrayINS_7BaseFabIdEEEixERKNS_6MFIterE
FNDA:0,_ZN5amrex8FabArrayINS_7BaseFabIdEEEixERKNS_6MFIterE
FN:487,_ZN5amrex8FabArrayINS_7BaseFabIdEEEixEi
FNDA:0,_ZN5amrex8FabArrayINS_7BaseFabIdEEEixEi
FN:490,_ZN5amrex8FabArrayINS_7BaseFabIdEEE3getEi
FNDA:0,_ZN5amrex8FabArrayINS_7BaseFabIdEEE3getEi
FN:1456,_ZN5amrex8FabArrayINS_7BaseFabIdEEE6fabPtrERKNS_6MFIterE
FNDA:0,_ZN5amrex8FabArrayINS_7BaseFabIdEEE6fabPtrERKNS_6MFIterE
FN:1476,_ZN5amrex8FabArrayINS_7BaseFabIdEEE6fabPtrEi
FNDA:0,_ZN5amrex8FabArrayINS_7BaseFabIdEEE6fabPtrEi
FN:1485,_ZNK5amrex8FabArrayINS_7BaseFabIdEEE6fabPtrEi
FNDA:0,_ZNK5amrex8FabArrayINS_7BaseFabIdEEE6fabPtrEi
FN:1527,_ZN5amrex8FabArrayINS_7BaseFabIdEEE5arrayIS2_Li0EEENS_6Array4IdEERKNS_6MFIterE
FNDA:0,_ZN5amrex8FabArrayINS_7BaseFabIdEEE5arrayIS2_Li0EEENS_6Array4IdEERKNS_6MFIterE
FN:1535,_ZNK5amrex8FabArrayINS_7BaseFabIdEEE5arrayIS2_Li0EEENS_6Array4IKdEEi
FNDA:0,_ZNK5amrex8FabArrayINS_7BaseFabIdEEE5arrayIS2_Li0EEENS_6Array4IKdEEi
FN:3001,_ZN5amrex8FabArrayINS_7BaseFabIdEEE12FillBoundaryIdEEvRKNS_11PeriodicityEb
FNDA:0,_ZN5amrex8FabArrayINS_7BaseFabIdEEE12FillBoundaryIdEEvRKNS_11PeriodicityEb
FN:3317,_ZN5amrex8FabArrayINS_7BaseFabIdEEE19FillBoundary_nowaitIdEEviiRKNS_7IntVectERKNS_11PeriodicityEb
FNDA:0,_ZN5amrex8FabArrayINS_7BaseFabIdEEE19FillBoundary_nowaitIdEEviiRKNS_7IntVectERKNS_11PeriodicityEb
DA:475,0
DA:487,0
DA:490,0
DA:1456,0
DA:1460,0
DA:1461,0
DA:1476,0
DA:1478,0
DA:1480,0
DA:1485,0
DA:1487,0
DA:1489,0
DA:1527,0
DA:1529,0
DA:1535,0
DA:1537,0
DA:3001,0
DA:3004,0
DA:3005,0
DA:3006,0
DA:3008,0
DA:3317,0
DA:3320,0
DA:3321,0
end_of_record
SF:/home/brunnels/Research/alamo/ext/amrex/3d-coverage-g++-23.08/include/AMReX_BCRec.H
FN:40,_ZN5amrex5BCRecC2EPKiS2_
FNDA:66,_ZN5amrex5BCRecC2EPKiS2_
DA:40,66
DA:41,66
DA:42,66
DA:43,66
end_of_record
SF:/home/brunnels/Research/alamo/ext/amrex/3d-coverage-g++-23.08/include/AMReX_FabArrayCommI.H
FN:8,_ZN5amrex8FabArrayINS_7BaseFabIdEEE11FBEP_nowaitIdS2_Li0EEEviiRKNS_7IntVectERKNS_11PeriodicityEbbb
FNDA:0,_ZN5amrex8FabArrayINS_7BaseFabIdEEE11FBEP_nowaitIdS2_Li0EEEviiRKNS_7IntVectERKNS_11PeriodicityEbbb
FN:168,_ZN5amrex8FabArrayINS_7BaseFabIdEEE19FillBoundary_finishIdS2_Li0EEEvv
FNDA:0,_ZN5amrex8FabArrayINS_7BaseFabIdEEE19FillBoundary_finishIdS2_Li0EEEvv
FN:635,_ZNK5amrex8FabArrayINS_7BaseFabIdEEE18PrepareSendBuffersIdEEvRKSt3mapIiSt6vectorINS_12FabArrayBase10CopyComTagESaIS8_EESt4lessIiESaISt4pairIKiSA_EEERPcRNS_6VectorISK_SaISK_EEERNSM_ImSaImEEERNSM_IiSaIiEEESV_RNSM_IPKSA_SaISX_EEEi
FNDA:0,_ZNK5amrex8FabArrayINS_7BaseFabIdEEE18PrepareSendBuffersIdEEvRKSt3mapIiSt6vectorINS_12FabArrayBase10CopyComTagESaIS8_EESt4lessIiESaISt4pairIKiSA_EEERPcRNS_6VectorISK_SaISK_EEERNSM_ImSaImEEERNSM_IiSaIiEEESV_RNSM_IPKSA_SaISX_EEEi
FN:699,_ZN5amrex8FabArrayINS_7BaseFabIdEEE8PostSndsERKNS_6VectorIPcSaIS5_EEERKNS4_ImSaImEEERKNS4_IiSaIiEEERSF_i
FNDA:0,_ZN5amrex8FabArrayINS_7BaseFabIdEEE8PostSndsERKNS_6VectorIPcSaIS5_EEERKNS4_ImSaImEEERKNS4_IiSaIiEEERSF_i
FN:736,_ZNK5amrex8FabArrayINS_7BaseFabIdEEE8PostRcvsIdEEvRKSt3mapIiSt6vectorINS_12FabArrayBase10CopyComTagESaIS8_EESt4lessIiESaISt4pairIKiSA_EEERPcRNS_6VectorISK_SaISK_EEERNSM_ImSaImEEERNSM_IiSaIiEEESV_ii
FNDA:0,_ZNK5amrex8FabArrayINS_7BaseFabIdEEE8PostRcvsIdEEvRKSt3mapIiSt6vectorINS_12FabArrayBase10CopyComTagESaIS8_EESt4lessIiESaISt4pairIKiSA_EEERPcRNS_6VectorISK_SaISK_EEERNSM_ImSaImEEERNSM_IiSaIiEEESV_ii
FN:831,_ZN5amrex8FabArrayINS_7BaseFabIdEEE17FillBoundary_testEv
FNDA:0,_ZN5amrex8FabArrayINS_7BaseFabIdEEE17FillBoundary_testEv
DA:8,0
DA:20,0
DA:21,0
DA:22,0
DA:23,0
DA:25,0
DA:27,0
DA:29,0
DA:31,0
DA:36,0
DA:37,0
DA:55,0
DA:58,0
DA:67,0
DA:69,0
DA:70,0
DA:71,0
DA:73,0
DA:75,0
DA:78,0
DA:79,0
DA:80,0
DA:81,0
DA:82,0
DA:88,0
DA:89,0
DA:90,0
DA:92,0
DA:98,0
DA:99,0
DA:100,0
DA:101,0
DA:102,0
DA:103,0
DA:105,0
DA:107,0
DA:126,0
DA:130,0
DA:133,0
DA:138,0
DA:156,0
DA:159,0
DA:168,0
DA:175,0
DA:177,0
DA:178,0
DA:179,0
DA:181,0
DA:182,0
DA:184,0
DA:186,0
DA:187,0
DA:191,0
DA:193,0
DA:194,0
DA:203,0
DA:225,0
DA:229,0
DA:231,0
DA:232,0
DA:236,0
DA:237,0
DA:238,0
DA:239,0
DA:240,0
DA:241,0
DA:244,0
DA:635,0
DA:644,0
DA:645,0
DA:646,0
DA:647,0
DA:648,0
DA:649,0
DA:650,0
DA:651,0
DA:652,0
DA:653,0
DA:654,0
DA:655,0
DA:657,0
DA:658,0
DA:659,0
DA:661,0
DA:663,0
DA:664,0
DA:666,0
DA:669,0
DA:670,0
DA:673,0
DA:676,0
DA:677,0
DA:679,0
DA:680,0
DA:681,0
DA:682,0
DA:683,0
DA:686,0
DA:688,0
DA:689,0
DA:690,0
DA:693,0
DA:699,0
DA:705,0
DA:707,0
DA:708,0
DA:710,0
DA:711,0
DA:712,0
DA:713,0
DA:716,0
DA:736,0
DA:745,0
DA:746,0
DA:747,0
DA:748,0
DA:750,0
DA:751,0
DA:752,0
DA:754,0
DA:755,0
DA:757,0
DA:760,0
DA:761,0
DA:764,0
DA:767,0
DA:768,0
DA:770,0
DA:771,0
DA:772,0
DA:773,0
DA:776,0
DA:778,0
DA:780,0
DA:782,0
DA:786,0
DA:788,0
DA:790,0
DA:791,0
DA:793,0
DA:794,0
DA:795,0
DA:799,0
DA:831,0
DA:837,0
DA:839,0
end_of_record
SF:/home/brunnels/Research/alamo/src/Util/Util.H
FN:82,_ZN4Util5AbortIJA30_cEEEvNSt7__cxx1112basic_stringIcSt11char_traitsIcESaIcEEES7_iDpRKT_
FNDA:0,_ZN4Util5AbortIJA30_cEEEvNSt7__cxx1112basic_stringIcSt11char_traitsIcESaIcEEES7_iDpRKT_
FN:163,_ZN4Util7WarningIJA63_cEEEvNSt7__cxx1112basic_stringIcSt11char_traitsIcESaIcEEES7_iDpRKT_
FNDA:25,_ZN4Util7WarningIJA63_cEEEvNSt7__cxx1112basic_stringIcSt11char_traitsIcESaIcEEES7_iDpRKT_
DA:60,4876
DA:62,0
DA:63,0
DA:64,0
DA:65,0
DA:66,0
DA:67,0
DA:70,0
DA:72,0
DA:73,0
DA:74,0
DA:76,0
DA:78,0
DA:82,0
DA:84,0
DA:86,0
DA:87,0
DA:88,0
DA:89,0
DA:90,0
DA:92,0
DA:94,0
DA:95,0
DA:97,0
DA:98,0
DA:100,0
DA:101,0
DA:163,25
DA:165,25
DA:167,50
DA:168,25
DA:169,25
DA:170,25
DA:171,50
DA:173,50
DA:175,25
DA:176,50
DA:178,25
DA:180,25
DA:182,25
end_of_record
SF:/home/brunnels/Research/alamo/ext/amrex/3d-coverage-g++-23.08/include/AMReX_LayoutData.H
FN:17,_ZN5amrex10LayoutDataINS_6VectorINS_11VoidCopyTagESaIS2_EEEEC2Ev
FNDA:0,_ZN5amrex10LayoutDataINS_6VectorINS_11VoidCopyTagESaIS2_EEEEC2Ev
FN:19,_ZN5amrex10LayoutDataINS_6VectorINS_10FabCopyTagINS_7BaseFabIdEEEESaIS5_EEEEC2ERKNS_8BoxArrayERKNS_19DistributionMappingE
FNDA:0,_ZN5amrex10LayoutDataINS_6VectorINS_10FabCopyTagINS_7BaseFabIdEEEESaIS5_EEEEC2ERKNS_8BoxArrayERKNS_19DistributionMappingE
FN:25,_ZN5amrex10LayoutDataINS_6VectorINS_10FabCopyTagINS_7BaseFabIdEEEESaIS5_EEEE6defineERKNS_8BoxArrayERKNS_19DistributionMappingE
FNDA:0,_ZN5amrex10LayoutDataINS_6VectorINS_10FabCopyTagINS_7BaseFabIdEEEESaIS5_EEEE6defineERKNS_8BoxArrayERKNS_19DistributionMappingE
FN:25,_ZN5amrex10LayoutDataINS_6VectorINS_11VoidCopyTagESaIS2_EEEE6defineERKNS_8BoxArrayERKNS_19DistributionMappingE
FNDA:0,_ZN5amrex10LayoutDataINS_6VectorINS_11VoidCopyTagESaIS2_EEEE6defineERKNS_8BoxArrayERKNS_19DistributionMappingE
FN:34,_ZN5amrex10LayoutDataINS_6VectorINS_10FabCopyTagINS_7BaseFabIdEEEESaIS5_EEEED2Ev
FNDA:0,_ZN5amrex10LayoutDataINS_6VectorINS_10FabCopyTagINS_7BaseFabIdEEEESaIS5_EEEED2Ev
FN:34,_ZN5amrex10LayoutDataINS_6VectorINS_11VoidCopyTagESaIS2_EEEED2Ev
FNDA:0,_ZN5amrex10LayoutDataINS_6VectorINS_11VoidCopyTagESaIS2_EEEED2Ev
FN:84,_ZN5amrex10LayoutDataINS_6VectorINS_10FabCopyTagINS_7BaseFabIdEEEESaIS5_EEEEixERKNS_6MFIterE
FNDA:0,_ZN5amrex10LayoutDataINS_6VectorINS_10FabCopyTagINS_7BaseFabIdEEEESaIS5_EEEEixERKNS_6MFIterE
FN:84,_ZN5amrex10LayoutDataINS_6VectorINS_11VoidCopyTagESaIS2_EEEEixERKNS_6MFIterE
FNDA:0,_ZN5amrex10LayoutDataINS_6VectorINS_11VoidCopyTagESaIS2_EEEEixERKNS_6MFIterE
FN:101,_ZN5amrex10LayoutDataINS_6VectorINS_10FabCopyTagINS_7BaseFabIdEEEESaIS5_EEEEixEi
FNDA:0,_ZN5amrex10LayoutDataINS_6VectorINS_10FabCopyTagINS_7BaseFabIdEEEESaIS5_EEEEixEi
FN:101,_ZN5amrex10LayoutDataINS_6VectorINS_11VoidCopyTagESaIS2_EEEEixEi
FNDA:0,_ZN5amrex10LayoutDataINS_6VectorINS_11VoidCopyTagESaIS2_EEEEixEi
DA:17,0
DA:19,0
DA:21,0
DA:22,0
DA:23,0
DA:25,0
DA:28,0
DA:29,0
DA:30,0
DA:31,0
DA:32,0
DA:25,0
DA:28,0
DA:29,0
DA:30,0
DA:31,0
DA:32,0
DA:34,0
DA:34,0
DA:84,0
DA:86,0
DA:89,0
DA:84,0
DA:86,0
DA:89,0
DA:101,0
DA:103,0
DA:105,0
DA:101,0
DA:103,0
DA:105,0
end_of_record
SF:/home/brunnels/Research/alamo/ext/amrex/3d-coverage-g++-23.08/include/AMReX_BoxArray.H
FN:537,_ZN5amrex8BoxArrayD2Ev
FNDA:1402140,_ZN5amrex8BoxArrayD2Ev
FN:787,_ZN5amrex8BoxArray5RefIDC2Ev
FNDA:12489,_ZN5amrex8BoxArray5RefIDC2Ev
DA:537,1402140
DA:787,12489
end_of_record
SF:/home/brunnels/Research/alamo/ext/amrex/3d-coverage-g++-23.08/include/AMReX_Vector.H
FN:34,_ZN5amrex6VectorIPKSt6vectorINS_12FabArrayBase10CopyComTagESaIS3_EESaIS7_EEixEm
FNDA:0,_ZN5amrex6VectorIPKSt6vectorINS_12FabArrayBase10CopyComTagESaIS3_EESaIS7_EEixEm
FN:34,_ZN5amrex6VectorINS_15ParallelContext5FrameESaIS2_EEixEm
FNDA:3281,_ZN5amrex6VectorINS_15ParallelContext5FrameESaIS2_EEixEm
FN:34,_ZN5amrex6VectorIiSaIiEEixEm
FNDA:1348200,_ZN5amrex6VectorIiSaIiEEixEm
FN:34,_ZN5amrex6VectorINSt7__cxx1112basic_stringIcSt11char_traitsIcESaIcEEESaIS6_EEixEm
FNDA:0,_ZN5amrex6VectorINSt7__cxx1112basic_stringIcSt11char_traitsIcESaIcEEESaIS6_EEixEm
FN:34,_ZN5amrex6VectorIdSaIdEEixEm
FNDA:6623,_ZN5amrex6VectorIdSaIdEEixEm
FN:34,_ZN5amrex6VectorImSaImEEixEm
FNDA:0,_ZN5amrex6VectorImSaImEEixEm
FN:34,_ZN5amrex6VectorINS0_INS_10FabCopyTagINS_7BaseFabIdEEEESaIS4_EEESaIS6_EEixEm
FNDA:0,_ZN5amrex6VectorINS0_INS_10FabCopyTagINS_7BaseFabIdEEEESaIS4_EEESaIS6_EEixEm
FN:34,_ZN5amrex6VectorIPcSaIS1_EEixEm
FNDA:0,_ZN5amrex6VectorIPcSaIS1_EEixEm
FN:34,_ZN5amrex6VectorINS0_INS_11VoidCopyTagESaIS1_EEESaIS3_EEixEm
FNDA:0,_ZN5amrex6VectorINS0_INS_11VoidCopyTagESaIS1_EEESaIS3_EEixEm
FN:40,_ZNK5amrex6VectorImSaImEEixEm
FNDA:0,_ZNK5amrex6VectorImSaImEEixEm
FN:40,_ZNK5amrex6VectorIPcSaIS1_EEixEm
FNDA:0,_ZNK5amrex6VectorIPcSaIS1_EEixEm
FN:40,_ZNK5amrex6VectorIPKSt6vectorINS_12FabArrayBase10CopyComTagESaIS3_EESaIS7_EEixEm
FNDA:0,_ZNK5amrex6VectorIPKSt6vectorINS_12FabArrayBase10CopyComTagESaIS3_EESaIS7_EEixEm
FN:40,_ZNK5amrex6VectorIiSaIiEEixEm
FNDA:20499300,_ZNK5amrex6VectorIiSaIiEEixEm
FN:51,_ZNK5amrex6VectorIPKSt6vectorINS_12FabArrayBase10CopyComTagESaIS3_EESaIS7_EE4sizeEv
FNDA:0,_ZNK5amrex6VectorIPKSt6vectorINS_12FabArrayBase10CopyComTagESaIS3_EESaIS7_EE4sizeEv
FN:51,_ZNK5amrex6VectorIdSaIdEE4sizeEv
FNDA:500,_ZNK5amrex6VectorIdSaIdEE4sizeEv
FN:51,_ZNK5amrex6VectorImSaImEE4sizeEv
FNDA:0,_ZNK5amrex6VectorImSaImEE4sizeEv
FN:51,_ZNK5amrex6VectorIPcSaIS1_EE4sizeEv
FNDA:0,_ZNK5amrex6VectorIPcSaIS1_EE4sizeEv
FN:51,_ZNK5amrex6VectorIiSaIiEE4sizeEv
FNDA:1337370,_ZNK5amrex6VectorIiSaIiEE4sizeEv
DA:34,0
DA:37,0
DA:34,0
DA:37,0
DA:34,0
DA:37,0
DA:34,0
DA:37,0
DA:34,0
DA:37,0
DA:34,6623
DA:37,6623
DA:34,0
DA:37,0
DA:34,1348200
DA:37,1348200
DA:34,3281
DA:37,3281
DA:40,0
DA:43,0
DA:40,0
DA:43,0
DA:40,0
DA:43,0
DA:40,20499300
DA:43,20499300
DA:51,0
DA:51,0
DA:51,0
DA:51,500
DA:51,1337370
end_of_record
SF:/home/brunnels/Research/alamo/ext/amrex/3d-coverage-g++-23.08/include/AMReX_Arena.H
FN:18,_ZN5amrex12aligned_sizeEmm
FNDA:0,_ZN5amrex12aligned_sizeEmm
DA:18,0
DA:20,0
end_of_record
SF:/home/brunnels/Research/alamo/ext/amrex/3d-coverage-g++-23.08/include/AMReX_FBI.H
FN:211,_ZN5amrex8FabArrayINS_7BaseFabIdEEE17FB_local_copy_cpuERKNS_12FabArrayBase2FBEii
FNDA:0,_ZN5amrex8FabArrayINS_7BaseFabIdEEE17FB_local_copy_cpuERKNS_12FabArrayBase2FBEii
FN:259,_ZZN5amrex8FabArrayINS_7BaseFabIdEEE17FB_local_copy_cpuERKNS_12FabArrayBase2FBEiiENKUliiiiE_clEiiii
FNDA:0,_ZZN5amrex8FabArrayINS_7BaseFabIdEEE17FB_local_copy_cpuERKNS_12FabArrayBase2FBEiiENKUliiiiE_clEiiii
FN:900,_ZN5amrex8FabArrayINS_7BaseFabIdEEE20pack_send_buffer_cpuIdEEvRKS3_iiRKNS_6VectorIPcSaIS8_EEERKNS7_ImSaImEEERKNS7_IPKSt6vectorINS_12FabArrayBase10CopyComTagESaISJ_EESaISN_EEE
FNDA:0,_ZN5amrex8FabArrayINS_7BaseFabIdEEE20pack_send_buffer_cpuIdEEvRKS3_iiRKNS_6VectorIPcSaIS8_EEERKNS7_ImSaImEEERKNS7_IPKSt6vectorINS_12FabArrayBase10CopyComTagESaISJ_EESaISN_EEE
FN:925,_ZZN5amrex8FabArrayINS_7BaseFabIdEEE20pack_send_buffer_cpuIdEEvRKS3_iiRKNS_6VectorIPcSaIS8_EEERKNS7_ImSaImEEERKNS7_IPKSt6vectorINS_12FabArrayBase10CopyComTagESaISJ_EESaISN_EEEENKUliiiiE_clEiiii
FNDA:0,_ZZN5amrex8FabArrayINS_7BaseFabIdEEE20pack_send_buffer_cpuIdEEvRKS3_iiRKNS_6VectorIPcSaIS8_EEERKNS7_ImSaImEEERKNS7_IPKSt6vectorINS_12FabArrayBase10CopyComTagESaISJ_EESaISN_EEEENKUliiiiE_clEiiii
FN:939,_ZN5amrex8FabArrayINS_7BaseFabIdEEE22unpack_recv_buffer_cpuIdEEvRS3_iiRKNS_6VectorIPcSaIS7_EEERKNS6_ImSaImEEERKNS6_IPKSt6vectorINS_12FabArrayBase10CopyComTagESaISI_EESaISM_EEENSH_4CpOpEb
FNDA:0,_ZN5amrex8FabArrayINS_7BaseFabIdEEE22unpack_recv_buffer_cpuIdEEvRS3_iiRKNS_6VectorIPcSaIS7_EEERKNS6_ImSaImEEERKNS6_IPKSt6vectorINS_12FabArrayBase10CopyComTagESaISI_EESaISM_EEENSH_4CpOpEb
FN:1011,_ZZN5amrex8FabArrayINS_7BaseFabIdEEE22unpack_recv_buffer_cpuIdEEvRS3_iiRKNS_6VectorIPcSaIS7_EEERKNS6_ImSaImEEERKNS6_IPKSt6vectorINS_12FabArrayBase10CopyComTagESaISI_EESaISM_EEENSH_4CpOpEbENKUliiiiE_clEiiii
FNDA:0,_ZZN5amrex8FabArrayINS_7BaseFabIdEEE22unpack_recv_buffer_cpuIdEEvRS3_iiRKNS_6VectorIPcSaIS7_EEERKNS6_ImSaImEEERKNS6_IPKSt6vectorINS_12FabArrayBase10CopyComTagESaISI_EESaISM_EEENSH_4CpOpEbENKUliiiiE_clEiiii
FN:1019,_ZZN5amrex8FabArrayINS_7BaseFabIdEEE22unpack_recv_buffer_cpuIdEEvRS3_iiRKNS_6VectorIPcSaIS7_EEERKNS6_ImSaImEEERKNS6_IPKSt6vectorINS_12FabArrayBase10CopyComTagESaISI_EESaISM_EEENSH_4CpOpEbENKUliiiiE0_clEiiii
FNDA:0,_ZZN5amrex8FabArrayINS_7BaseFabIdEEE22unpack_recv_buffer_cpuIdEEvRS3_iiRKNS_6VectorIPcSaIS7_EEERKNS6_ImSaImEEERKNS6_IPKSt6vectorINS_12FabArrayBase10CopyComTagESaISI_EESaISM_EEENSH_4CpOpEbENKUliiiiE0_clEiiii
DA:211,0
DA:213,0
DA:214,0
DA:215,0
DA:216,0
DA:217,0
DA:222,0
DA:224,0
DA:229,0
DA:230,0
DA:231,0
DA:236,0
DA:237,0
DA:239,0
DA:244,0
DA:245,0
DA:250,0
DA:252,0
DA:253,0
DA:254,0
DA:256,0
DA:257,0
DA:258,0
DA:259,0
DA:261,0
DA:900,0
DA:907,0
DA:908,0
DA:913,0
DA:915,0
DA:917,0
DA:918,0
DA:919,0
DA:921,0
DA:922,0
DA:924,0
DA:925,0
DA:927,0
DA:929,0
DA:939,0
DA:947,0
DA:948,0
DA:950,0
DA:955,0
DA:957,0
DA:959,0
DA:960,0
DA:961,0
DA:963,0
DA:964,0
DA:965,0
DA:967,0
DA:971,0
DA:973,0
DA:981,0
DA:982,0
DA:983,0
DA:985,0
DA:987,0
DA:988,0
DA:989,0
DA:991,0
DA:992,0
DA:1001,0
DA:1003,0
DA:1004,0
DA:1005,0
DA:1007,0
DA:1008,0
DA:1010,0
DA:1011,0
DA:1013,0
DA:1018,0
DA:1019,0
DA:1021,0
end_of_record
SF:/home/brunnels/Research/alamo/src/BC/Constant.H
FN:119,_ZN2BC8ConstantD0Ev
FNDA:0,_ZN2BC8ConstantD0Ev
FN:119,_ZN2BC8ConstantD2Ev
FNDA:0,_ZN2BC8ConstantD2Ev
DA:119,0
DA:119,0
end_of_record
SF:/home/brunnels/Research/alamo/src/BC/BC.H
FN:47,_ZN2BC2BCIdED0Ev
FNDA:0,_ZN2BC2BCIdED0Ev
FN:47,_ZN2BC2BCIdED2Ev
FNDA:6,_ZN2BC2BCIdED2Ev
FN:58,_ZN2BC2BCIdE12FillBoundaryERN5amrex8FabArrayINS2_7BaseFabIdEEEEiidi
FNDA:0,_ZN2BC2BCIdE12FillBoundaryERN5amrex8FabArrayINS2_7BaseFabIdEEEEiidi
FN:71,_ZN2BC2BCIdE12FillBoundaryERN5amrex8FabArrayINS2_7BaseFabIdEEEEiiRKNS2_7IntVectEdi
FNDA:0,_ZN2BC2BCIdE12FillBoundaryERN5amrex8FabArrayINS2_7BaseFabIdEEEEiiRKNS2_7IntVectEdi
FN:114,_ZN2BC2BCIdE10IsPeriodicEv
FNDA:0,_ZN2BC2BCIdE10IsPeriodicEv
FN:119,_ZNK2BC2BCIdE11PeriodicityEv
FNDA:0,_ZNK2BC2BCIdE11PeriodicityEv
FN:123,_ZN2BC2BCIdE11PeriodicityERKN5amrex3BoxE
FNDA:0,_ZN2BC2BCIdE11PeriodicityERKN5amrex3BoxE
DA:47,0
DA:47,6
DA:58,0
DA:62,0
DA:63,0
DA:65,0
DA:66,0
DA:67,0
DA:69,0
DA:71,0
DA:75,0
DA:76,0
DA:114,0
DA:116,0
DA:119,0
DA:120,0
DA:123,0
DA:124,0
end_of_record
SF:/home/brunnels/Research/alamo/ext/amrex/3d-coverage-g++-23.08/include/AMReX_ParallelContext.H
FN:27,_ZNK5amrex15ParallelContext5Frame6MyProcEv
FNDA:11670,_ZNK5amrex15ParallelContext5Frame6MyProcEv
FN:28,_ZNK5amrex15ParallelContext5Frame6NProcsEv
FNDA:793487,_ZNK5amrex15ParallelContext5Frame6NProcsEv
FN:61,_ZN5amrex15ParallelContext9MyProcAllEv
FNDA:2707,_ZN5amrex15ParallelContext9MyProcAllEv
FN:70,_ZN5amrex15ParallelContext15CommunicatorSubEv
FNDA:9930,_ZN5amrex15ParallelContext15CommunicatorSubEv
FN:74,_ZN5amrex15ParallelContext9NProcsSubEv
FNDA:792913,_ZN5amrex15ParallelContext9NProcsSubEv
FN:93,_ZN5amrex15ParallelContext15get_inc_mpi_tagEv
FNDA:0,_ZN5amrex15ParallelContext15get_inc_mpi_tagEv
FN:98,_ZN5amrex15ParallelContext20global_to_local_rankEi
FNDA:0,_ZN5amrex15ParallelContext20global_to_local_rankEi
DA:27,11670
DA:28,793487
DA:61,2707
DA:70,9930
DA:74,792913
DA:93,0
DA:98,0
end_of_record
SF:/home/brunnels/Research/alamo/ext/amrex/3d-coverage-g++-23.08/include/AMReX_CoordSys.H
FN:72,_ZNK5amrex8CoordSys8CellSizeEv
FNDA:999952,_ZNK5amrex8CoordSys8CellSizeEv
DA:72,999952
end_of_record
SF:/home/brunnels/Research/alamo/src/Numeric/Interpolator/Linear.H
FN:56,_ZN7Numeric12Interpolator6LinearIdED2Ev
FNDA:441,_ZN7Numeric12Interpolator6LinearIdED2Ev
FN:57,_ZN7Numeric12Interpolator6LinearIdEC2ERKd
FNDA:390,_ZN7Numeric12Interpolator6LinearIdEC2ERKd
FN:114,_ZNK7Numeric12Interpolator6LinearIdEclEd
FNDA:2664820,_ZNK7Numeric12Interpolator6LinearIdEclEd
DA:56,441
DA:57,390
DA:58,390
DA:59,390
DA:60,390
DA:61,390
DA:114,2664820
DA:117,2664820
DA:120,12500
DA:122,0
DA:125,12500
DA:126,12500
DA:127,12500
DA:129,12500
DA:130,12500
DA:131,12500
DA:132,12500
DA:136,12500
DA:138,12500
DA:140,12500
DA:141,12500
DA:142,12500
DA:149,0
end_of_record
SF:/home/brunnels/Research/alamo/ext/amrex/3d-coverage-g++-23.08/include/AMReX_IndexType.H
DA:69,1226840
end_of_record
SF:/home/brunnels/Research/alamo/ext/amrex/3d-coverage-g++-23.08/include/AMReX.H
DA:107,38994
end_of_record
SF:/home/brunnels/Research/alamo/ext/amrex/3d-coverage-g++-23.08/include/AMReX_MFIter.H
FN:141,_ZNK5amrex6MFIter7isValidEv
FNDA:5104150,_ZNK5amrex6MFIter7isValidEv
FN:159,_ZNK5amrex6MFIter10LocalIndexEv
FNDA:19793700,_ZNK5amrex6MFIter10LocalIndexEv
DA:141,5104150
DA:159,19793700
end_of_record
TN:
SF:/home/brunnels/Research/alamo/ext/amrex/3d-coverage-g++-23.08/include/AMReX_ParallelDescriptor.H
end_of_record
SF:/home/brunnels/Research/alamo/src/Util/Color.H
end_of_record
SF:/home/brunnels/Research/alamo/src/BC/BC.cpp
FN:7,_ZN2BC6BCUtil10ReadStringENSt7__cxx1112basic_stringIcSt11char_traitsIcESaIcEEE
FNDA:0,_ZN2BC6BCUtil10ReadStringENSt7__cxx1112basic_stringIcSt11char_traitsIcESaIcEEE
FN:39,_ZN2BC6BCUtil10IsPeriodicEi
FNDA:0,_ZN2BC6BCUtil10IsPeriodicEi
FN:48,_ZN2BC6BCUtil9IsNeumannEi
FNDA:0,_ZN2BC6BCUtil9IsNeumannEi
FN:55,_ZN2BC6BCUtil11IsDirichletEi
FNDA:2517820,_ZN2BC6BCUtil11IsDirichletEi
FN:61,_ZN2BC6BCUtil13IsReflectEvenEi
FNDA:0,_ZN2BC6BCUtil13IsReflectEvenEi
FN:66,_ZN2BC6BCUtil12IsReflectOddEi
FNDA:0,_ZN2BC6BCUtil12IsReflectOddEi
DA:7,0
DA:10,0
DA:11,0
DA:12,0
DA:13,0
DA:14,0
DA:15,0
DA:16,0
DA:17,0
DA:18,0
DA:19,0
DA:20,0
DA:21,0
DA:22,0
DA:23,0
DA:26,0
DA:27,0
DA:28,0
DA:29,0
DA:30,0
DA:31,0
DA:32,0
DA:33,0
DA:34,0
DA:35,0
DA:36,0
DA:37,0
DA:39,0
DA:42,0
DA:43,0
DA:44,0
DA:45,0
DA:46,0
DA:48,0
DA:52,0
DA:53,0
DA:55,2517820
DA:57,2517820
DA:58,2517820
DA:59,0
DA:61,0
DA:63,0
DA:64,0
DA:66,0
DA:68,0
DA:69,0
end_of_record
TN:
SF:/home/brunnels/Research/alamo/ext/amrex/3d-coverage-g++-23.08/include/AMReX_iMultiFab.H
FN:92,_ZN5amrex9iMultiFabD2Ev
FNDA:0,_ZN5amrex9iMultiFabD2Ev
DA:92,0
end_of_record
SF:/home/brunnels/Research/alamo/src/Integrator/AllenCahn.H
FN:43,_ZN10Integrator9AllenCahnC1Ev
FNDA:0,_ZN10Integrator9AllenCahnC1Ev
FN:47,_ZN10Integrator9AllenCahnC1ERN2IO9ParmParseE
FNDA:0,_ZN10Integrator9AllenCahnC1ERN2IO9ParmParseE
FN:58,_ZN10Integrator9AllenCahn5ParseERS0_RN2IO9ParmParseE
FNDA:0,_ZN10Integrator9AllenCahn5ParseERS0_RN2IO9ParmParseE
FN:95,_ZN10Integrator9AllenCahn10InitializeEi
FNDA:0,_ZN10Integrator9AllenCahn10InitializeEi
FN:102,_ZN10Integrator9AllenCahn7AdvanceEidd
FNDA:0,_ZN10Integrator9AllenCahn7AdvanceEidd
FN:114,_ZZN10Integrator9AllenCahn7AdvanceEiddENKUliiiE_clEiii
FNDA:0,_ZZN10Integrator9AllenCahn7AdvanceEiddENKUliiiE_clEiii
FN:132,_ZN10Integrator9AllenCahn21TagCellsForRefinementEiRN5amrex11TagBoxArrayEdi
FNDA:0,_ZN10Integrator9AllenCahn21TagCellsForRefinementEiRN5amrex11TagBoxArrayEdi
FN:148,_ZZN10Integrator9AllenCahn21TagCellsForRefinementEiRN5amrex11TagBoxArrayEdiENKUliiiE_clEiii
FNDA:0,_ZZN10Integrator9AllenCahn21TagCellsForRefinementEiRN5amrex11TagBoxArrayEdiENKUliiiE_clEiii
DA:43,0
DA:44,0
DA:47,0
DA:49,0
DA:50,0
DA:58,0
DA:61,0
DA:64,0
DA:66,0
DA:68,0
DA:70,0
DA:72,0
DA:74,0
DA:75,0
DA:76,0
DA:77,0
DA:78,0
DA:79,0
DA:82,0
DA:84,0
DA:88,0
DA:89,0
DA:90,0
DA:95,0
DA:97,0
DA:98,0
DA:99,0
DA:102,0
DA:104,0
DA:106,0
DA:108,0
DA:110,0
DA:111,0
DA:112,0
DA:114,0
DA:116,0
DA:118,0
DA:119,0
DA:120,0
DA:122,0
DA:123,0
DA:125,0
DA:126,0
DA:127,0
DA:129,0
DA:132,0
DA:135,0
DA:137,0
DA:140,0
DA:143,0
DA:144,0
DA:145,0
DA:148,0
DA:151,0
DA:155,0
DA:156,0
DA:157,0
DA:159,0
end_of_record
SF:/home/brunnels/Research/alamo/src/Model/Solid/Linear/IsotropicDegradable.H
FN:17,_ZN5Model5Solid6Linear19IsotropicDegradableC2Ev
FNDA:0,_ZN5Model5Solid6Linear19IsotropicDegradableC2Ev
FN:18,_ZN5Model5Solid6Linear19IsotropicDegradableC2Edd
FNDA:0,_ZN5Model5Solid6Linear19IsotropicDegradableC2Edd
FN:23,_ZN5Model5Solid6Linear19IsotropicDegradable6DefineEdddd
FNDA:0,_ZN5Model5Solid6Linear19IsotropicDegradable6DefineEdddd
FN:29,_ZN5Model5Solid6Linear19IsotropicDegradableD0Ev
FNDA:0,_ZN5Model5Solid6Linear19IsotropicDegradableD0Ev
FN:29,_ZN5Model5Solid6Linear19IsotropicDegradableD2Ev
FNDA:0,_ZN5Model5Solid6Linear19IsotropicDegradableD2Ev
FN:31,_ZN5Model5Solid6Linear19IsotropicDegradable14DegradeModulusEd
FNDA:0,_ZN5Model5Solid6Linear19IsotropicDegradable14DegradeModulusEd
FN:66,_ZN5Model5Solid6Linear19IsotropicDegradable5ParseERS2_RN2IO9ParmParseE
FNDA:0,_ZN5Model5Solid6Linear19IsotropicDegradable5ParseERS2_RN2IO9ParmParseE
FN:88,_ZN5Model5Solid6Linear19IsotropicDegradable4ZeroEv
FNDA:0,_ZN5Model5Solid6Linear19IsotropicDegradable4ZeroEv
FN:94,_ZNK5Model5Solid6Linear19IsotropicDegradable5PrintERSo
FNDA:0,_ZNK5Model5Solid6Linear19IsotropicDegradable5PrintERSo
DA:17,0
DA:18,0
DA:19,0
DA:20,0
DA:21,0
DA:23,0
DA:25,0
DA:26,0
DA:27,0
DA:29,0
DA:29,0
DA:31,0
DA:33,0
DA:34,0
DA:35,0
DA:36,0
DA:38,0
DA:39,0
DA:66,0
DA:68,0
DA:69,0
DA:71,0
DA:72,0
DA:74,0
DA:76,0
DA:77,0
DA:78,0
DA:79,0
DA:80,0
DA:84,0
DA:86,0
DA:87,0
DA:88,0
DA:90,0
DA:91,0
DA:92,0
DA:94,0
DA:96,0
DA:97,0
DA:98,0
DA:99,0
DA:104,0
DA:105,0
DA:106,0
DA:107,0
DA:124,0
DA:125,0
DA:126,0
DA:127,0
DA:128,0
DA:133,0
DA:134,0
DA:135,0
DA:136,0
DA:137,0
DA:142,0
DA:143,0
DA:144,0
DA:145,0
DA:146,0
end_of_record
SF:/home/brunnels/Research/alamo/src/IC/Notch.H
FN:20,_ZN2IC5NotchC2ERN5amrex6VectorINS1_8GeometryESaIS3_EEE
FNDA:0,_ZN2IC5NotchC2ERN5amrex6VectorINS1_8GeometryESaIS3_EEE
FN:30,_ZN2IC5Notch3AddERKiRN3Set5FieldIdEEd
FNDA:0,_ZN2IC5Notch3AddERKiRN3Set5FieldIdEEd
FN:42,_ZZN2IC5Notch3AddERKiRN3Set5FieldIdEEdENKUliiiE_clEiii
FNDA:0,_ZZN2IC5Notch3AddERKiRN3Set5FieldIdEEdENKUliiiE_clEiii
FN:272,_ZN2IC5Notch5ParseERS0_RN2IO9ParmParseE
FNDA:0,_ZN2IC5Notch5ParseERS0_RN2IO9ParmParseE
DA:20,0
DA:22,0
DA:23,0
DA:24,0
DA:25,0
DA:26,0
DA:27,0
DA:28,0
DA:30,0
DA:32,0
DA:33,0
DA:35,0
DA:38,0
DA:39,0
DA:40,0
DA:41,0
DA:42,0
DA:44,0
DA:46,0
DA:48,0
DA:52,0
DA:54,0
DA:59,0
DA:61,0
DA:63,0
DA:64,0
DA:66,0
DA:67,0
DA:68,0
DA:70,0
DA:72,0
DA:73,0
DA:75,0
DA:77,0
DA:78,0
DA:79,0
DA:84,0
DA:85,0
DA:86,0
DA:87,0
DA:88,0
DA:90,0
DA:91,0
DA:94,0
DA:95,0
DA:96,0
DA:97,0
DA:98,0
DA:100,0
DA:101,0
DA:104,0
DA:106,0
DA:107,0
DA:109,0
DA:111,0
DA:113,0
DA:114,0
DA:116,0
DA:118,0
DA:119,0
DA:121,0
DA:123,0
DA:125,0
DA:126,0
DA:128,0
DA:130,0
DA:131,0
DA:132,0
DA:134,0
DA:136,0
DA:137,0
DA:138,0
DA:139,0
DA:143,0
DA:144,0
DA:145,0
DA:146,0
DA:152,0
DA:154,0
DA:155,0
DA:156,0
DA:161,0
DA:163,0
DA:164,0
DA:165,0
DA:166,0
DA:170,0
DA:171,0
DA:172,0
DA:173,0
DA:179,0
DA:181,0
DA:182,0
DA:184,0
DA:186,0
DA:188,0
DA:189,0
DA:191,0
DA:193,0
DA:194,0
DA:196,0
DA:198,0
DA:199,0
DA:200,0
DA:202,0
DA:204,0
DA:205,0
DA:206,0
DA:208,0
DA:210,0
DA:211,0
DA:212,0
DA:213,0
DA:217,0
DA:218,0
DA:219,0
DA:220,0
DA:226,0
DA:228,0
DA:229,0
DA:230,0
DA:235,0
DA:237,0
DA:238,0
DA:239,0
DA:240,0
DA:244,0
DA:245,0
DA:246,0
DA:247,0
DA:254,0
DA:256,0
DA:258,0
DA:259,0
DA:260,0
DA:262,0
DA:263,0
DA:272,0
DA:274,0
DA:275,0
DA:276,0
DA:277,0
DA:278,0
DA:279,0
DA:281,0
DA:282,0
DA:284,0
DA:286,0
DA:287,0
DA:291,0
DA:293,0
DA:294,0
DA:296,0
DA:298,0
DA:299,0
DA:303,0
DA:305,0
DA:306,0
DA:308,0
DA:309,0
DA:310,0
DA:311,0
DA:313,0
DA:315,0
DA:316,0
DA:318,0
DA:321,0
DA:322,0
DA:325,0
DA:326,0
DA:327,0
DA:329,0
DA:331,0
DA:332,0
DA:333,0
DA:335,0
DA:338,0
DA:340,0
DA:341,0
DA:345,0
DA:347,0
DA:348,0
DA:349,0
DA:350,0
DA:351,0
DA:353,0
DA:354,0
DA:355,0
DA:357,0
DA:359,0
DA:360,0
DA:361,0
DA:363,0
DA:364,0
DA:366,0
DA:368,0
DA:369,0
DA:371,0
DA:373,0
DA:375,0
DA:377,0
DA:378,0
DA:380,0
DA:381,0
DA:382,0
DA:384,0
DA:386,0
DA:387,0
DA:388,0
DA:392,0
end_of_record
SF:/home/brunnels/Research/alamo/ext/amrex/3d-coverage-g++-23.08/include/AMReX_Arena.H
FN:18,_ZN5amrex12aligned_sizeEmm
FNDA:0,_ZN5amrex12aligned_sizeEmm
DA:18,0
DA:20,0
end_of_record
SF:/home/brunnels/Research/alamo/ext/amrex/3d-coverage-g++-23.08/include/AMReX_Vector.H
FN:34,_ZN5amrex6VectorISt10unique_ptrINS_8FabArrayINS_7BaseFabIN5Model5Solid6Linear5CubicEEEEESt14default_deleteIS9_EESaISC_EEixEm
FNDA:506,_ZN5amrex6VectorISt10unique_ptrINS_8FabArrayINS_7BaseFabIN5Model5Solid6Linear5CubicEEEEESt14default_deleteIS9_EESaISC_EEixEm
FN:34,_ZN5amrex6VectorINS0_INS_10FabCopyTagINS_9FArrayBoxEEESaIS3_EEESaIS5_EEixEm
FNDA:0,_ZN5amrex6VectorINS0_INS_10FabCopyTagINS_9FArrayBoxEEESaIS3_EEESaIS5_EEixEm
FN:34,_ZN5amrex6VectorINS0_INS_10FabCopyTagINS_7BaseFabIN5Model5Solid6Linear19IsotropicDegradableEEEEESaIS8_EEESaISA_EEixEm
FNDA:0,_ZN5amrex6VectorINS0_INS_10FabCopyTagINS_7BaseFabIN5Model5Solid6Linear19IsotropicDegradableEEEEESaIS8_EEESaISA_EEixEm
FN:34,_ZN5amrex6VectorINS0_INS_10FabCopyTagINS_7BaseFabIN5Model5Solid6Affine9IsotropicEEEEESaIS8_EEESaISA_EEixEm
FNDA:0,_ZN5amrex6VectorINS0_INS_10FabCopyTagINS_7BaseFabIN5Model5Solid6Affine9IsotropicEEEEESaIS8_EEESaISA_EEixEm
FN:34,_ZN5amrex6VectorINS0_INS_10FabCopyTagINS_7BaseFabIN3Set7Matrix4ILi3ELi3EEEEEEESaIS7_EEESaIS9_EEixEm
FNDA:0,_ZN5amrex6VectorINS0_INS_10FabCopyTagINS_7BaseFabIN3Set7Matrix4ILi3ELi3EEEEEEESaIS7_EEESaIS9_EEixEm
FN:34,_ZN5amrex6VectorINS0_INS_10FabCopyTagINS_7BaseFabIN3Set7Matrix4ILi3ELi6EEEEEEESaIS7_EEESaIS9_EEixEm
FNDA:0,_ZN5amrex6VectorINS0_INS_10FabCopyTagINS_7BaseFabIN3Set7Matrix4ILi3ELi6EEEEEEESaIS7_EEESaIS9_EEixEm
FN:34,_ZN5amrex6VectorISt10unique_ptrINS_8FabArrayINS_7BaseFabIN5Model5Solid6Affine2J2EEEEESt14default_deleteIS9_EESaISC_EEixEm
FNDA:0,_ZN5amrex6VectorISt10unique_ptrINS_8FabArrayINS_7BaseFabIN5Model5Solid6Affine2J2EEEEESt14default_deleteIS9_EESaISC_EEixEm
FN:34,_ZN5amrex6VectorISt10unique_ptrINS_8FabArrayINS_7BaseFabIN5Model5Solid7Elastic28PseudoLinearCubicPredeformedEEEEESt14default_deleteIS9_EESaISC_EEixEm
FNDA:0,_ZN5amrex6VectorISt10unique_ptrINS_8FabArrayINS_7BaseFabIN5Model5Solid7Elastic28PseudoLinearCubicPredeformedEEEEESt14default_deleteIS9_EESaISC_EEixEm
FN:34,_ZN5amrex6VectorISt10unique_ptrINS_8FabArrayINS_7BaseFabIN5Model5Solid7Elastic17PseudoLinearCubicEEEEESt14default_deleteIS9_EESaISC_EEixEm
FNDA:506,_ZN5amrex6VectorISt10unique_ptrINS_8FabArrayINS_7BaseFabIN5Model5Solid7Elastic17PseudoLinearCubicEEEEESt14default_deleteIS9_EESaISC_EEixEm
FN:34,_ZN5amrex6VectorISt10unique_ptrINS_8FabArrayINS_7BaseFabIN5Model5Solid7Elastic10NeoHookeanEEEEESt14default_deleteIS9_EESaISC_EEixEm
FNDA:0,_ZN5amrex6VectorISt10unique_ptrINS_8FabArrayINS_7BaseFabIN5Model5Solid7Elastic10NeoHookeanEEEEESt14default_deleteIS9_EESaISC_EEixEm
FN:34,_ZN5amrex6VectorISt10unique_ptrINS_8FabArrayINS_7BaseFabIN5Model5Solid6Linear9LaplacianEEEEESt14default_deleteIS9_EESaISC_EEixEm
FNDA:0,_ZN5amrex6VectorISt10unique_ptrINS_8FabArrayINS_7BaseFabIN5Model5Solid6Linear9LaplacianEEEEESt14default_deleteIS9_EESaISC_EEixEm
FN:34,_ZN5amrex6VectorISt10unique_ptrINS_8FabArrayINS_7BaseFabIN5Model5Solid6Affine9HexagonalEEEEESt14default_deleteIS9_EESaISC_EEixEm
FNDA:0,_ZN5amrex6VectorISt10unique_ptrINS_8FabArrayINS_7BaseFabIN5Model5Solid6Affine9HexagonalEEEEESt14default_deleteIS9_EESaISC_EEixEm
FN:34,_ZN5amrex6VectorISt10unique_ptrINS_8FabArrayINS_7BaseFabIN5Model5Solid6Affine5CubicEEEEESt14default_deleteIS9_EESaISC_EEixEm
FNDA:0,_ZN5amrex6VectorISt10unique_ptrINS_8FabArrayINS_7BaseFabIN5Model5Solid6Affine5CubicEEEEESt14default_deleteIS9_EESaISC_EEixEm
FN:34,_ZN5amrex6VectorINS0_INS_11VoidCopyTagESaIS1_EEESaIS3_EEixEm
FNDA:0,_ZN5amrex6VectorINS0_INS_11VoidCopyTagESaIS1_EEESaIS3_EEixEm
FN:34,_ZN5amrex6VectorISt10unique_ptrINS_8FabArrayINS_7BaseFabIN5Model5Solid6Linear9IsotropicEEEEESt14default_deleteIS9_EESaISC_EEixEm
FNDA:0,_ZN5amrex6VectorISt10unique_ptrINS_8FabArrayINS_7BaseFabIN5Model5Solid6Linear9IsotropicEEEEESt14default_deleteIS9_EESaISC_EEixEm
FN:34,_ZN5amrex6VectorIPNS_8FabArrayINS_7BaseFabIN5Model5Solid6Affine2J2EEEEESaIS9_EEixEm
FNDA:0,_ZN5amrex6VectorIPNS_8FabArrayINS_7BaseFabIN5Model5Solid6Affine2J2EEEEESaIS9_EEixEm
FN:34,_ZN5amrex6VectorIPNS_8FabArrayINS_7BaseFabIN5Model5Solid7Elastic28PseudoLinearCubicPredeformedEEEEESaIS9_EEixEm
FNDA:0,_ZN5amrex6VectorIPNS_8FabArrayINS_7BaseFabIN5Model5Solid7Elastic28PseudoLinearCubicPredeformedEEEEESaIS9_EEixEm
FN:34,_ZN5amrex6VectorIPNS_8FabArrayINS_7BaseFabIN5Model5Solid7Elastic17PseudoLinearCubicEEEEESaIS9_EEixEm
FNDA:0,_ZN5amrex6VectorIPNS_8FabArrayINS_7BaseFabIN5Model5Solid7Elastic17PseudoLinearCubicEEEEESaIS9_EEixEm
FN:34,_ZN5amrex6VectorIPNS_8FabArrayINS_7BaseFabIN5Model5Solid7Elastic10NeoHookeanEEEEESaIS9_EEixEm
FNDA:0,_ZN5amrex6VectorIPNS_8FabArrayINS_7BaseFabIN5Model5Solid7Elastic10NeoHookeanEEEEESaIS9_EEixEm
FN:34,_ZN5amrex6VectorIPNS_8FabArrayINS_7BaseFabIN5Model5Solid6Linear9LaplacianEEEEESaIS9_EEixEm
FNDA:0,_ZN5amrex6VectorIPNS_8FabArrayINS_7BaseFabIN5Model5Solid6Linear9LaplacianEEEEESaIS9_EEixEm
FN:34,_ZN5amrex6VectorIPNS_8FabArrayINS_7BaseFabIN5Model5Solid6Affine9HexagonalEEEEESaIS9_EEixEm
FNDA:0,_ZN5amrex6VectorIPNS_8FabArrayINS_7BaseFabIN5Model5Solid6Affine9HexagonalEEEEESaIS9_EEixEm
FN:34,_ZN5amrex6VectorIPNS_8FabArrayINS_7BaseFabIN5Model5Solid6Affine5CubicEEEEESaIS9_EEixEm
FNDA:0,_ZN5amrex6VectorIPNS_8FabArrayINS_7BaseFabIN5Model5Solid6Affine5CubicEEEEESaIS9_EEixEm
FN:34,_ZN5amrex6VectorIPNS_8FabArrayINS_7BaseFabIN5Model5Solid6Linear5CubicEEEEESaIS9_EEixEm
FNDA:0,_ZN5amrex6VectorIPNS_8FabArrayINS_7BaseFabIN5Model5Solid6Linear5CubicEEEEESaIS9_EEixEm
FN:34,_ZN5amrex6VectorIPNS_8FabArrayINS_7BaseFabIN5Model5Solid6Linear9IsotropicEEEEESaIS9_EEixEm
FNDA:0,_ZN5amrex6VectorIPNS_8FabArrayINS_7BaseFabIN5Model5Solid6Linear9IsotropicEEEEESaIS9_EEixEm
FN:34,_ZN5amrex6VectorIPNS_8FabArrayINS_7BaseFabIN5Model5Solid6Affine9IsotropicEEEEESaIS9_EEixEm
FNDA:0,_ZN5amrex6VectorIPNS_8FabArrayINS_7BaseFabIN5Model5Solid6Affine9IsotropicEEEEESaIS9_EEixEm
FN:34,_ZN5amrex6VectorIPNS_8FabArrayINS_7BaseFabIN5Eigen6MatrixIdLi3ELi3ELi0ELi3ELi3EEEEEEESaIS8_EEixEm
FNDA:0,_ZN5amrex6VectorIPNS_8FabArrayINS_7BaseFabIN5Eigen6MatrixIdLi3ELi3ELi0ELi3ELi3EEEEEEESaIS8_EEixEm
FN:34,_ZN5amrex6VectorIPN2IC2ICESaIS3_EEixEm
FNDA:0,_ZN5amrex6VectorIPN2IC2ICESaIS3_EEixEm
FN:34,_ZN5amrex6VectorINS_15ParallelContext5FrameESaIS2_EEixEm
FNDA:0,_ZN5amrex6VectorINS_15ParallelContext5FrameESaIS2_EEixEm
FN:34,_ZN5amrex6VectorINS_3BoxESaIS1_EEixEm
FNDA:0,_ZN5amrex6VectorINS_3BoxESaIS1_EEixEm
FN:34,_ZN5amrex6VectorIiSaIiEEixEm
FNDA:0,_ZN5amrex6VectorIiSaIiEEixEm
FN:34,_ZN5amrex6VectorISt10unique_ptrINS_8MultiFabESt14default_deleteIS2_EESaIS5_EEixEm
FNDA:0,_ZN5amrex6VectorISt10unique_ptrINS_8MultiFabESt14default_deleteIS2_EESaIS5_EEixEm
FN:34,_ZN5amrex6VectorINS_8GeometryESaIS1_EEixEm
FNDA:0,_ZN5amrex6VectorINS_8GeometryESaIS1_EEixEm
FN:34,_ZN5amrex6VectorISt10unique_ptrINS_8FabArrayINS_7BaseFabIN5Eigen6MatrixIdLi3ELi1ELi0ELi3ELi1EEEEEEESt14default_deleteIS8_EESaISB_EEixEm
FNDA:0,_ZN5amrex6VectorISt10unique_ptrINS_8FabArrayINS_7BaseFabIN5Eigen6MatrixIdLi3ELi1ELi0ELi3ELi1EEEEEEESt14default_deleteIS8_EESaISB_EEixEm
FN:34,_ZN5amrex6VectorIN5Eigen6MatrixIdLi3ELi3ELi0ELi3ELi3EEESaIS3_EEixEm
FNDA:0,_ZN5amrex6VectorIN5Eigen6MatrixIdLi3ELi3ELi0ELi3ELi3EEESaIS3_EEixEm
FN:34,_ZN5amrex6VectorIN5Eigen6MatrixIdLi3ELi1ELi0ELi3ELi1EEESaIS3_EEixEm
FNDA:0,_ZN5amrex6VectorIN5Eigen6MatrixIdLi3ELi1ELi0ELi3ELi1EEESaIS3_EEixEm
FN:34,_ZN5amrex6VectorIdSaIdEEixEm
FNDA:0,_ZN5amrex6VectorIdSaIdEEixEm
FN:34,_ZN5amrex6VectorISt7complexIiESaIS2_EEixEm
FNDA:0,_ZN5amrex6VectorISt7complexIiESaIS2_EEixEm
FN:34,_ZN5amrex6VectorINSt7__cxx1112basic_stringIcSt11char_traitsIcESaIcEEESaIS6_EEixEm
FNDA:0,_ZN5amrex6VectorINSt7__cxx1112basic_stringIcSt11char_traitsIcESaIcEEESaIS6_EEixEm
FN:34,_ZN5amrex6VectorIN5Model5Solid6Linear19IsotropicDegradableESaIS4_EEixEm
FNDA:0,_ZN5amrex6VectorIN5Model5Solid6Linear19IsotropicDegradableESaIS4_EEixEm
FN:34,_ZN5amrex6VectorINS0_INS_10FabCopyTagINS_7BaseFabIN5Eigen6MatrixIdLi3ELi3ELi0ELi3ELi3EEEEEEESaIS7_EEESaIS9_EEixEm
FNDA:0,_ZN5amrex6VectorINS0_INS_10FabCopyTagINS_7BaseFabIN5Eigen6MatrixIdLi3ELi3ELi0ELi3ELi3EEEEEEESaIS7_EEESaIS9_EEixEm
FN:34,_ZN5amrex6VectorISt10unique_ptrINS_8FabArrayINS_7BaseFabIN5Model5Solid6Linear19IsotropicDegradableEEEEESt14default_deleteIS9_EESaISC_EEixEm
FNDA:0,_ZN5amrex6VectorISt10unique_ptrINS_8FabArrayINS_7BaseFabIN5Model5Solid6Linear19IsotropicDegradableEEEEESt14default_deleteIS9_EESaISC_EEixEm
FN:34,_ZN5amrex6VectorISt10unique_ptrINS_8FabArrayINS_7BaseFabIN5Model5Solid6Affine9IsotropicEEEEESt14default_deleteIS9_EESaISC_EEixEm
FNDA:0,_ZN5amrex6VectorISt10unique_ptrINS_8FabArrayINS_7BaseFabIN5Model5Solid6Affine9IsotropicEEEEESt14default_deleteIS9_EESaISC_EEixEm
FN:34,_ZN5amrex6VectorINS_8MultiFabESaIS1_EEixEm
FNDA:0,_ZN5amrex6VectorINS_8MultiFabESaIS1_EEixEm
FN:34,_ZN5amrex6VectorISt10unique_ptrINS_8FabArrayINS_7BaseFabIN5Eigen6MatrixIdLi3ELi3ELi0ELi3ELi3EEEEEEESt14default_deleteIS8_EESaISB_EEixEm
FNDA:0,_ZN5amrex6VectorISt10unique_ptrINS_8FabArrayINS_7BaseFabIN5Eigen6MatrixIdLi3ELi3ELi0ELi3ELi3EEEEEEESt14default_deleteIS8_EESaISB_EEixEm
FN:34,_ZN5amrex6VectorISt10unique_ptrINS_8FabArrayINS_7BaseFabIN3Set7Matrix4ILi3ELi6EEEEEEESt14default_deleteIS8_EESaISB_EEixEm
FNDA:0,_ZN5amrex6VectorISt10unique_ptrINS_8FabArrayINS_7BaseFabIN3Set7Matrix4ILi3ELi6EEEEEEESt14default_deleteIS8_EESaISB_EEixEm
FN:34,_ZN5amrex6VectorImSaImEEixEm
FNDA:0,_ZN5amrex6VectorImSaImEEixEm
FN:34,_ZN5amrex6VectorIPKSt6vectorINS_12FabArrayBase10CopyComTagESaIS3_EESaIS7_EEixEm
FNDA:0,_ZN5amrex6VectorIPKSt6vectorINS_12FabArrayBase10CopyComTagESaIS3_EESaIS7_EEixEm
FN:34,_ZN5amrex6VectorINS0_INS_8MultiFabESaIS1_EEESaIS3_EEixEm
FNDA:0,_ZN5amrex6VectorINS0_INS_8MultiFabESaIS1_EEESaIS3_EEixEm
FN:34,_ZN5amrex6VectorINS0_INS_8BoxArrayESaIS1_EEESaIS3_EEixEm
FNDA:0,_ZN5amrex6VectorINS0_INS_8BoxArrayESaIS1_EEESaIS3_EEixEm
FN:34,_ZN5amrex6VectorINS_8BoxArrayESaIS1_EEixEm
FNDA:0,_ZN5amrex6VectorINS_8BoxArrayESaIS1_EEixEm
FN:34,_ZN5amrex6VectorIPcSaIS1_EEixEm
FNDA:0,_ZN5amrex6VectorIPcSaIS1_EEixEm
FN:34,_ZN5amrex6VectorIPNS_8FabArrayINS_7BaseFabIN5Model5Solid6Linear19IsotropicDegradableEEEEESaIS9_EEixEm
FNDA:0,_ZN5amrex6VectorIPNS_8FabArrayINS_7BaseFabIN5Model5Solid6Linear19IsotropicDegradableEEEEESaIS9_EEixEm
FN:34,_ZN5amrex6VectorINS0_INS_10FabCopyTagINS_7BaseFabIN3Set7Matrix4ILi3ELi4EEEEEEESaIS7_EEESaIS9_EEixEm
FNDA:0,_ZN5amrex6VectorINS0_INS_10FabCopyTagINS_7BaseFabIN3Set7Matrix4ILi3ELi4EEEEEEESaIS7_EEESaIS9_EEixEm
FN:34,_ZN5amrex6VectorINS0_INS_10FabCopyTagINS_7BaseFabIN3Set7Matrix4ILi3ELi1EEEEEEESaIS7_EEESaIS9_EEixEm
FNDA:0,_ZN5amrex6VectorINS0_INS_10FabCopyTagINS_7BaseFabIN3Set7Matrix4ILi3ELi1EEEEEEESaIS7_EEESaIS9_EEixEm
FN:34,_ZN5amrex6VectorINS0_INS_10FabCopyTagINS_7BaseFabIN5Eigen6MatrixIdLi3ELi1ELi0ELi3ELi1EEEEEEESaIS7_EEESaIS9_EEixEm
FNDA:0,_ZN5amrex6VectorINS0_INS_10FabCopyTagINS_7BaseFabIN5Eigen6MatrixIdLi3ELi1ELi0ELi3ELi1EEEEEEESaIS7_EEESaIS9_EEixEm
FN:34,_ZN5amrex6VectorINS0_INS_10FabCopyTagINS_7BaseFabIN5Model5Solid6Linear9IsotropicEEEEESaIS8_EEESaISA_EEixEm
FNDA:0,_ZN5amrex6VectorINS0_INS_10FabCopyTagINS_7BaseFabIN5Model5Solid6Linear9IsotropicEEEEESaIS8_EEESaISA_EEixEm
FN:34,_ZN5amrex6VectorINS0_INS_10FabCopyTagINS_7BaseFabIN5Model5Solid6Linear5CubicEEEEESaIS8_EEESaISA_EEixEm
FNDA:0,_ZN5amrex6VectorINS0_INS_10FabCopyTagINS_7BaseFabIN5Model5Solid6Linear5CubicEEEEESaIS8_EEESaISA_EEixEm
FN:34,_ZN5amrex6VectorINS0_INS_10FabCopyTagINS_7BaseFabIN5Model5Solid6Affine5CubicEEEEESaIS8_EEESaISA_EEixEm
FNDA:0,_ZN5amrex6VectorINS0_INS_10FabCopyTagINS_7BaseFabIN5Model5Solid6Affine5CubicEEEEESaIS8_EEESaISA_EEixEm
FN:34,_ZN5amrex6VectorINS0_INS_10FabCopyTagINS_7BaseFabIN5Model5Solid6Affine9HexagonalEEEEESaIS8_EEESaISA_EEixEm
FNDA:0,_ZN5amrex6VectorINS0_INS_10FabCopyTagINS_7BaseFabIN5Model5Solid6Affine9HexagonalEEEEESaIS8_EEESaISA_EEixEm
FN:34,_ZN5amrex6VectorINS0_INS_10FabCopyTagINS_7BaseFabIN5Model5Solid6Linear9LaplacianEEEEESaIS8_EEESaISA_EEixEm
FNDA:0,_ZN5amrex6VectorINS0_INS_10FabCopyTagINS_7BaseFabIN5Model5Solid6Linear9LaplacianEEEEESaIS8_EEESaISA_EEixEm
FN:34,_ZN5amrex6VectorINS0_INS_10FabCopyTagINS_7BaseFabIN5Model5Solid7Elastic10NeoHookeanEEEEESaIS8_EEESaISA_EEixEm
FNDA:0,_ZN5amrex6VectorINS0_INS_10FabCopyTagINS_7BaseFabIN5Model5Solid7Elastic10NeoHookeanEEEEESaIS8_EEESaISA_EEixEm
FN:34,_ZN5amrex6VectorINS0_INS_10FabCopyTagINS_7BaseFabIN5Model5Solid7Elastic17PseudoLinearCubicEEEEESaIS8_EEESaISA_EEixEm
FNDA:0,_ZN5amrex6VectorINS0_INS_10FabCopyTagINS_7BaseFabIN5Model5Solid7Elastic17PseudoLinearCubicEEEEESaIS8_EEESaISA_EEixEm
FN:34,_ZN5amrex6VectorINS0_INS_10FabCopyTagINS_7BaseFabIN5Model5Solid7Elastic28PseudoLinearCubicPredeformedEEEEESaIS8_EEESaISA_EEixEm
FNDA:0,_ZN5amrex6VectorINS0_INS_10FabCopyTagINS_7BaseFabIN5Model5Solid7Elastic28PseudoLinearCubicPredeformedEEEEESaIS8_EEESaISA_EEixEm
FN:34,_ZN5amrex6VectorINS0_INS_10FabCopyTagINS_7BaseFabIN5Model5Solid6Affine2J2EEEEESaIS8_EEESaISA_EEixEm
FNDA:0,_ZN5amrex6VectorINS0_INS_10FabCopyTagINS_7BaseFabIN5Model5Solid6Affine2J2EEEEESaIS8_EEESaISA_EEixEm
FN:34,_ZN5amrex6VectorINS0_INS_10FabCopyTagINS_7BaseFabIdEEEESaIS4_EEESaIS6_EEixEm
FNDA:0,_ZN5amrex6VectorINS0_INS_10FabCopyTagINS_7BaseFabIdEEEESaIS4_EEESaIS6_EEixEm
FN:34,_ZN5amrex6VectorIPNS_8FabArrayINS_7BaseFabIN5Eigen6MatrixIdLi3ELi1ELi0ELi3ELi1EEEEEEESaIS8_EEixEm
FNDA:0,_ZN5amrex6VectorIPNS_8FabArrayINS_7BaseFabIN5Eigen6MatrixIdLi3ELi1ELi0ELi3ELi1EEEEEEESaIS8_EEixEm
FN:34,_ZN5amrex6VectorISt10unique_ptrINS_8FabArrayINS_7BaseFabIN3Set7Matrix4ILi3ELi1EEEEEEESt14default_deleteIS8_EESaISB_EEixEm
FNDA:0,_ZN5amrex6VectorISt10unique_ptrINS_8FabArrayINS_7BaseFabIN3Set7Matrix4ILi3ELi1EEEEEEESt14default_deleteIS8_EESaISB_EEixEm
FN:34,_ZN5amrex6VectorISt10unique_ptrINS_8FabArrayINS_7BaseFabIN3Set7Matrix4ILi3ELi4EEEEEEESt14default_deleteIS8_EESaISB_EEixEm
FNDA:0,_ZN5amrex6VectorISt10unique_ptrINS_8FabArrayINS_7BaseFabIN3Set7Matrix4ILi3ELi4EEEEEEESt14default_deleteIS8_EESaISB_EEixEm
FN:34,_ZN5amrex6VectorISt10unique_ptrINS_8FabArrayINS_7BaseFabIN3Set7Matrix4ILi3ELi3EEEEEEESt14default_deleteIS8_EESaISB_EEixEm
FNDA:0,_ZN5amrex6VectorISt10unique_ptrINS_8FabArrayINS_7BaseFabIN3Set7Matrix4ILi3ELi3EEEEEEESt14default_deleteIS8_EESaISB_EEixEm
FN:40,_ZNK5amrex6VectorIPNS_8FabArrayINS_7BaseFabIN5Eigen6MatrixIdLi3ELi1ELi0ELi3ELi1EEEEEEESaIS8_EEixEm
FNDA:0,_ZNK5amrex6VectorIPNS_8FabArrayINS_7BaseFabIN5Eigen6MatrixIdLi3ELi1ELi0ELi3ELi1EEEEEEESaIS8_EEixEm
FN:40,_ZNK5amrex6VectorIPNS_8FabArrayINS_7BaseFabIN5Model5Solid7Elastic28PseudoLinearCubicPredeformedEEEEESaIS9_EEixEm
FNDA:0,_ZNK5amrex6VectorIPNS_8FabArrayINS_7BaseFabIN5Model5Solid7Elastic28PseudoLinearCubicPredeformedEEEEESaIS9_EEixEm
FN:40,_ZNK5amrex6VectorIPNS_8FabArrayINS_7BaseFabIN5Model5Solid6Linear19IsotropicDegradableEEEEESaIS9_EEixEm
FNDA:0,_ZNK5amrex6VectorIPNS_8FabArrayINS_7BaseFabIN5Model5Solid6Linear19IsotropicDegradableEEEEESaIS9_EEixEm
FN:40,_ZNK5amrex6VectorISt10unique_ptrINS_8MultiFabESt14default_deleteIS2_EESaIS5_EEixEm
FNDA:0,_ZNK5amrex6VectorISt10unique_ptrINS_8MultiFabESt14default_deleteIS2_EESaIS5_EEixEm
FN:40,_ZNK5amrex6VectorISt10unique_ptrINS_8FabArrayINS_7BaseFabIN3Set7Matrix4ILi3ELi1EEEEEEESt14default_deleteIS8_EESaISB_EEixEm
FNDA:0,_ZNK5amrex6VectorISt10unique_ptrINS_8FabArrayINS_7BaseFabIN3Set7Matrix4ILi3ELi1EEEEEEESt14default_deleteIS8_EESaISB_EEixEm
FN:40,_ZNK5amrex6VectorISt10unique_ptrINS_8FabArrayINS_7BaseFabIN3Set7Matrix4ILi3ELi4EEEEEEESt14default_deleteIS8_EESaISB_EEixEm
FNDA:0,_ZNK5amrex6VectorISt10unique_ptrINS_8FabArrayINS_7BaseFabIN3Set7Matrix4ILi3ELi4EEEEEEESt14default_deleteIS8_EESaISB_EEixEm
FN:40,_ZNK5amrex6VectorISt10unique_ptrINS_8FabArrayINS_7BaseFabIN3Set7Matrix4ILi3ELi3EEEEEEESt14default_deleteIS8_EESaISB_EEixEm
FNDA:0,_ZNK5amrex6VectorISt10unique_ptrINS_8FabArrayINS_7BaseFabIN3Set7Matrix4ILi3ELi3EEEEEEESt14default_deleteIS8_EESaISB_EEixEm
FN:40,_ZNK5amrex6VectorIPNS_8FabArrayINS_7BaseFabIN5Model5Solid7Elastic17PseudoLinearCubicEEEEESaIS9_EEixEm
FNDA:0,_ZNK5amrex6VectorIPNS_8FabArrayINS_7BaseFabIN5Model5Solid7Elastic17PseudoLinearCubicEEEEESaIS9_EEixEm
FN:40,_ZNK5amrex6VectorISt10unique_ptrINS_8FabArrayINS_7BaseFabIN5Model5Solid6Affine5CubicEEEEESt14default_deleteIS9_EESaISC_EEixEm
FNDA:0,_ZNK5amrex6VectorISt10unique_ptrINS_8FabArrayINS_7BaseFabIN5Model5Solid6Affine5CubicEEEEESt14default_deleteIS9_EESaISC_EEixEm
FN:40,_ZNK5amrex6VectorIPNS_8FabArrayINS_7BaseFabIN5Model5Solid6Affine2J2EEEEESaIS9_EEixEm
FNDA:0,_ZNK5amrex6VectorIPNS_8FabArrayINS_7BaseFabIN5Model5Solid6Affine2J2EEEEESaIS9_EEixEm
FN:40,_ZNK5amrex6VectorIPNS_8MultiFabESaIS2_EEixEm
FNDA:0,_ZNK5amrex6VectorIPNS_8MultiFabESaIS2_EEixEm
FN:40,_ZNK5amrex6VectorINS0_INS_8GeometryESaIS1_EEESaIS3_EEixEm
FNDA:0,_ZNK5amrex6VectorINS0_INS_8GeometryESaIS1_EEESaIS3_EEixEm
FN:40,_ZNK5amrex6VectorINS_8GeometryESaIS1_EEixEm
FNDA:0,_ZNK5amrex6VectorINS_8GeometryESaIS1_EEixEm
FN:40,_ZNK5amrex6VectorISt10unique_ptrINS_8FabArrayINS_7BaseFabIN5Model5Solid6Affine9HexagonalEEEEESt14default_deleteIS9_EESaISC_EEixEm
FNDA:0,_ZNK5amrex6VectorISt10unique_ptrINS_8FabArrayINS_7BaseFabIN5Model5Solid6Affine9HexagonalEEEEESt14default_deleteIS9_EESaISC_EEixEm
FN:40,_ZNK5amrex6VectorISt10unique_ptrINS_8FabArrayINS_7BaseFabIN5Model5Solid6Affine2J2EEEEESt14default_deleteIS9_EESaISC_EEixEm
FNDA:0,_ZNK5amrex6VectorISt10unique_ptrINS_8FabArrayINS_7BaseFabIN5Model5Solid6Affine2J2EEEEESt14default_deleteIS9_EESaISC_EEixEm
FN:40,_ZNK5amrex6VectorISt10unique_ptrINS_8FabArrayINS_7BaseFabIN5Model5Solid7Elastic28PseudoLinearCubicPredeformedEEEEESt14default_deleteIS9_EESaISC_EEixEm
FNDA:0,_ZNK5amrex6VectorISt10unique_ptrINS_8FabArrayINS_7BaseFabIN5Model5Solid7Elastic28PseudoLinearCubicPredeformedEEEEESt14default_deleteIS9_EESaISC_EEixEm
FN:40,_ZNK5amrex6VectorISt10unique_ptrINS_8FabArrayINS_7BaseFabIN5Model5Solid6Affine9IsotropicEEEEESt14default_deleteIS9_EESaISC_EEixEm
FNDA:0,_ZNK5amrex6VectorISt10unique_ptrINS_8FabArrayINS_7BaseFabIN5Model5Solid6Affine9IsotropicEEEEESt14default_deleteIS9_EESaISC_EEixEm
FN:40,_ZNK5amrex6VectorISt10unique_ptrINS_8FabArrayINS_7BaseFabIN5Eigen6MatrixIdLi3ELi3ELi0ELi3ELi3EEEEEEESt14default_deleteIS8_EESaISB_EEixEm
FNDA:0,_ZNK5amrex6VectorISt10unique_ptrINS_8FabArrayINS_7BaseFabIN5Eigen6MatrixIdLi3ELi3ELi0ELi3ELi3EEEEEEESt14default_deleteIS8_EESaISB_EEixEm
FN:40,_ZNK5amrex6VectorISt10unique_ptrINS_8FabArrayINS_7BaseFabIN5Eigen6MatrixIdLi3ELi1ELi0ELi3ELi1EEEEEEESt14default_deleteIS8_EESaISB_EEixEm
FNDA:0,_ZNK5amrex6VectorISt10unique_ptrINS_8FabArrayINS_7BaseFabIN5Eigen6MatrixIdLi3ELi1ELi0ELi3ELi1EEEEEEESt14default_deleteIS8_EESaISB_EEixEm
FN:40,_ZNK5amrex6VectorINS_7IntVectESaIS1_EEixEm
FNDA:0,_ZNK5amrex6VectorINS_7IntVectESaIS1_EEixEm
FN:40,_ZNK5amrex6VectorINS_19DistributionMappingESaIS1_EEixEm
FNDA:0,_ZNK5amrex6VectorINS_19DistributionMappingESaIS1_EEixEm
FN:40,_ZNK5amrex6VectorIdSaIdEEixEm
FNDA:0,_ZNK5amrex6VectorIdSaIdEEixEm
FN:40,_ZNK5amrex6VectorIiSaIiEEixEm
FNDA:0,_ZNK5amrex6VectorIiSaIiEEixEm
FN:40,_ZNK5amrex6VectorIPNS_8FabArrayINS_7BaseFabIN5Model5Solid6Linear5CubicEEEEESaIS9_EEixEm
FNDA:0,_ZNK5amrex6VectorIPNS_8FabArrayINS_7BaseFabIN5Model5Solid6Linear5CubicEEEEESaIS9_EEixEm
FN:40,_ZNK5amrex6VectorISt17reference_wrapperIdESaIS2_EEixEm
FNDA:0,_ZNK5amrex6VectorISt17reference_wrapperIdESaIS2_EEixEm
FN:40,_ZNK5amrex6VectorISt10unique_ptrINS_8FabArrayINS_7BaseFabIN3Set7Matrix4ILi3ELi6EEEEEEESt14default_deleteIS8_EESaISB_EEixEm
FNDA:0,_ZNK5amrex6VectorISt10unique_ptrINS_8FabArrayINS_7BaseFabIN3Set7Matrix4ILi3ELi6EEEEEEESt14default_deleteIS8_EESaISB_EEixEm
FN:40,_ZNK5amrex6VectorIPKSt6vectorINS_12FabArrayBase10CopyComTagESaIS3_EESaIS7_EEixEm
FNDA:0,_ZNK5amrex6VectorIPKSt6vectorINS_12FabArrayBase10CopyComTagESaIS3_EESaIS7_EEixEm
FN:40,_ZNK5amrex6VectorIPNS_8FabArrayINS_7BaseFabIN5Model5Solid6Linear9IsotropicEEEEESaIS9_EEixEm
FNDA:0,_ZNK5amrex6VectorIPNS_8FabArrayINS_7BaseFabIN5Model5Solid6Linear9IsotropicEEEEESaIS9_EEixEm
FN:40,_ZNK5amrex6VectorIPcSaIS1_EEixEm
FNDA:0,_ZNK5amrex6VectorIPcSaIS1_EEixEm
FN:40,_ZNK5amrex6VectorIPNS_8FabArrayINS_7BaseFabIN5Model5Solid6Affine5CubicEEEEESaIS9_EEixEm
FNDA:0,_ZNK5amrex6VectorIPNS_8FabArrayINS_7BaseFabIN5Model5Solid6Affine5CubicEEEEESaIS9_EEixEm
FN:40,_ZNK5amrex6VectorIPNS_8FabArrayINS_7BaseFabIN5Model5Solid6Affine9HexagonalEEEEESaIS9_EEixEm
FNDA:0,_ZNK5amrex6VectorIPNS_8FabArrayINS_7BaseFabIN5Model5Solid6Affine9HexagonalEEEEESaIS9_EEixEm
FN:40,_ZNK5amrex6VectorImSaImEEixEm
FNDA:0,_ZNK5amrex6VectorImSaImEEixEm
FN:40,_ZNK5amrex6VectorIPKNS_8MultiFabESaIS3_EEixEm
FNDA:0,_ZNK5amrex6VectorIPKNS_8MultiFabESaIS3_EEixEm
FN:40,_ZNK5amrex6VectorIPNS_8FabArrayINS_7BaseFabIN5Model5Solid6Linear9LaplacianEEEEESaIS9_EEixEm
FNDA:0,_ZNK5amrex6VectorIPNS_8FabArrayINS_7BaseFabIN5Model5Solid6Linear9LaplacianEEEEESaIS9_EEixEm
FN:40,_ZNK5amrex6VectorIPNS_8FabArrayINS_7BaseFabIN5Model5Solid6Affine9IsotropicEEEEESaIS9_EEixEm
FNDA:0,_ZNK5amrex6VectorIPNS_8FabArrayINS_7BaseFabIN5Model5Solid6Affine9IsotropicEEEEESaIS9_EEixEm
FN:40,_ZNK5amrex6VectorIPNS_8FabArrayINS_7BaseFabIN5Eigen6MatrixIdLi3ELi3ELi0ELi3ELi3EEEEEEESaIS8_EEixEm
FNDA:0,_ZNK5amrex6VectorIPNS_8FabArrayINS_7BaseFabIN5Eigen6MatrixIdLi3ELi3ELi0ELi3ELi3EEEEEEESaIS8_EEixEm
FN:40,_ZNK5amrex6VectorIPNS_8FabArrayINS_7BaseFabIN5Model5Solid7Elastic10NeoHookeanEEEEESaIS9_EEixEm
FNDA:0,_ZNK5amrex6VectorIPNS_8FabArrayINS_7BaseFabIN5Model5Solid7Elastic10NeoHookeanEEEEESaIS9_EEixEm
FN:51,_ZNK5amrex6VectorIPNS_8FabArrayINS_7BaseFabIN5Model5Solid6Linear9LaplacianEEEEESaIS9_EE4sizeEv
FNDA:0,_ZNK5amrex6VectorIPNS_8FabArrayINS_7BaseFabIN5Model5Solid6Linear9LaplacianEEEEESaIS9_EE4sizeEv
FN:51,_ZNK5amrex6VectorIPKcSaIS2_EE4sizeEv
FNDA:0,_ZNK5amrex6VectorIPKcSaIS2_EE4sizeEv
FN:51,_ZNK5amrex6VectorISt10unique_ptrINS_8FabArrayINS_7BaseFabIN3Set7Matrix4ILi3ELi4EEEEEEESt14default_deleteIS8_EESaISB_EE4sizeEv
FNDA:0,_ZNK5amrex6VectorISt10unique_ptrINS_8FabArrayINS_7BaseFabIN3Set7Matrix4ILi3ELi4EEEEEEESt14default_deleteIS8_EESaISB_EE4sizeEv
FN:51,_ZNK5amrex6VectorISt10unique_ptrINS_8FabArrayINS_7BaseFabIN5Eigen6MatrixIdLi3ELi1ELi0ELi3ELi1EEEEEEESt14default_deleteIS8_EESaISB_EE4sizeEv
FNDA:0,_ZNK5amrex6VectorISt10unique_ptrINS_8FabArrayINS_7BaseFabIN5Eigen6MatrixIdLi3ELi1ELi0ELi3ELi1EEEEEEESt14default_deleteIS8_EESaISB_EE4sizeEv
FN:51,_ZNK5amrex6VectorISt10unique_ptrINS_8FabArrayINS_7BaseFabIN3Set7Matrix4ILi3ELi1EEEEEEESt14default_deleteIS8_EESaISB_EE4sizeEv
FNDA:0,_ZNK5amrex6VectorISt10unique_ptrINS_8FabArrayINS_7BaseFabIN3Set7Matrix4ILi3ELi1EEEEEEESt14default_deleteIS8_EESaISB_EE4sizeEv
FN:51,_ZNK5amrex6VectorIPNS_8FabArrayINS_7BaseFabIN5Model5Solid6Affine9IsotropicEEEEESaIS9_EE4sizeEv
FNDA:0,_ZNK5amrex6VectorIPNS_8FabArrayINS_7BaseFabIN5Model5Solid6Affine9IsotropicEEEEESaIS9_EE4sizeEv
FN:51,_ZNK5amrex6VectorImSaImEE4sizeEv
FNDA:0,_ZNK5amrex6VectorImSaImEE4sizeEv
FN:51,_ZNK5amrex6VectorIPcSaIS1_EE4sizeEv
FNDA:0,_ZNK5amrex6VectorIPcSaIS1_EE4sizeEv
FN:51,_ZNK5amrex6VectorIiSaIiEE4sizeEv
FNDA:0,_ZNK5amrex6VectorIiSaIiEE4sizeEv
FN:51,_ZNK5amrex6VectorISt10unique_ptrINS_8MultiFabESt14default_deleteIS2_EESaIS5_EE4sizeEv
FNDA:0,_ZNK5amrex6VectorISt10unique_ptrINS_8MultiFabESt14default_deleteIS2_EESaIS5_EE4sizeEv
FN:51,_ZNK5amrex6VectorIPNS_8FabArrayINS_7BaseFabIN5Model5Solid6Linear9IsotropicEEEEESaIS9_EE4sizeEv
FNDA:0,_ZNK5amrex6VectorIPNS_8FabArrayINS_7BaseFabIN5Model5Solid6Linear9IsotropicEEEEESaIS9_EE4sizeEv
FN:51,_ZNK5amrex6VectorIPNS_8FabArrayINS_7BaseFabIN5Eigen6MatrixIdLi3ELi1ELi0ELi3ELi1EEEEEEESaIS8_EE4sizeEv
FNDA:0,_ZNK5amrex6VectorIPNS_8FabArrayINS_7BaseFabIN5Eigen6MatrixIdLi3ELi1ELi0ELi3ELi1EEEEEEESaIS8_EE4sizeEv
FN:51,_ZNK5amrex6VectorIPNS_8FabArrayINS_7BaseFabIN5Model5Solid6Linear5CubicEEEEESaIS9_EE4sizeEv
FNDA:0,_ZNK5amrex6VectorIPNS_8FabArrayINS_7BaseFabIN5Model5Solid6Linear5CubicEEEEESaIS9_EE4sizeEv
FN:51,_ZNK5amrex6VectorINS_3BoxESaIS1_EE4sizeEv
FNDA:0,_ZNK5amrex6VectorINS_3BoxESaIS1_EE4sizeEv
FN:51,_ZNK5amrex6VectorIPNS_8FabArrayINS_7BaseFabIN5Model5Solid6Affine5CubicEEEEESaIS9_EE4sizeEv
FNDA:0,_ZNK5amrex6VectorIPNS_8FabArrayINS_7BaseFabIN5Model5Solid6Affine5CubicEEEEESaIS9_EE4sizeEv
FN:51,_ZNK5amrex6VectorIPNS_8FabArrayINS_7BaseFabIN5Model5Solid6Affine9HexagonalEEEEESaIS9_EE4sizeEv
FNDA:0,_ZNK5amrex6VectorIPNS_8FabArrayINS_7BaseFabIN5Model5Solid6Affine9HexagonalEEEEESaIS9_EE4sizeEv
FN:51,_ZNK5amrex6VectorIN5Eigen6MatrixIdLi3ELi1ELi0ELi3ELi1EEESaIS3_EE4sizeEv
FNDA:0,_ZNK5amrex6VectorIN5Eigen6MatrixIdLi3ELi1ELi0ELi3ELi1EEESaIS3_EE4sizeEv
FN:51,_ZNK5amrex6VectorIPNS_8FabArrayINS_7BaseFabIN5Model5Solid6Linear19IsotropicDegradableEEEEESaIS9_EE4sizeEv
FNDA:0,_ZNK5amrex6VectorIPNS_8FabArrayINS_7BaseFabIN5Model5Solid6Linear19IsotropicDegradableEEEEESaIS9_EE4sizeEv
FN:51,_ZNK5amrex6VectorIPNS_8FabArrayINS_7BaseFabIN5Eigen6MatrixIdLi3ELi3ELi0ELi3ELi3EEEEEEESaIS8_EE4sizeEv
FNDA:0,_ZNK5amrex6VectorIPNS_8FabArrayINS_7BaseFabIN5Eigen6MatrixIdLi3ELi3ELi0ELi3ELi3EEEEEEESaIS8_EE4sizeEv
FN:51,_ZNK5amrex6VectorISt10unique_ptrINS_8FabArrayINS_7BaseFabIN5Eigen6MatrixIdLi3ELi3ELi0ELi3ELi3EEEEEEESt14default_deleteIS8_EESaISB_EE4sizeEv
FNDA:0,_ZNK5amrex6VectorISt10unique_ptrINS_8FabArrayINS_7BaseFabIN5Eigen6MatrixIdLi3ELi3ELi0ELi3ELi3EEEEEEESt14default_deleteIS8_EESaISB_EE4sizeEv
FN:51,_ZNK5amrex6VectorISt10unique_ptrINS_8FabArrayINS_7BaseFabIN3Set7Matrix4ILi3ELi6EEEEEEESt14default_deleteIS8_EESaISB_EE4sizeEv
FNDA:0,_ZNK5amrex6VectorISt10unique_ptrINS_8FabArrayINS_7BaseFabIN3Set7Matrix4ILi3ELi6EEEEEEESt14default_deleteIS8_EESaISB_EE4sizeEv
FN:51,_ZNK5amrex6VectorIPKSt6vectorINS_12FabArrayBase10CopyComTagESaIS3_EESaIS7_EE4sizeEv
FNDA:0,_ZNK5amrex6VectorIPKSt6vectorINS_12FabArrayBase10CopyComTagESaIS3_EESaIS7_EE4sizeEv
FN:51,_ZNK5amrex6VectorIPN2IC2ICESaIS3_EE4sizeEv
FNDA:0,_ZNK5amrex6VectorIPN2IC2ICESaIS3_EE4sizeEv
FN:51,_ZNK5amrex6VectorIPNS_8FabArrayINS_7BaseFabIN5Model5Solid7Elastic17PseudoLinearCubicEEEEESaIS9_EE4sizeEv
FNDA:0,_ZNK5amrex6VectorIPNS_8FabArrayINS_7BaseFabIN5Model5Solid7Elastic17PseudoLinearCubicEEEEESaIS9_EE4sizeEv
FN:51,_ZNK5amrex6VectorIPNS_8FabArrayINS_7BaseFabIN5Model5Solid7Elastic10NeoHookeanEEEEESaIS9_EE4sizeEv
FNDA:0,_ZNK5amrex6VectorIPNS_8FabArrayINS_7BaseFabIN5Model5Solid7Elastic10NeoHookeanEEEEESaIS9_EE4sizeEv
FN:51,_ZNK5amrex6VectorINSt7__cxx1112basic_stringIcSt11char_traitsIcESaIcEEESaIS6_EE4sizeEv
FNDA:0,_ZNK5amrex6VectorINSt7__cxx1112basic_stringIcSt11char_traitsIcESaIcEEESaIS6_EE4sizeEv
FN:51,_ZNK5amrex6VectorIN5Eigen6MatrixIdLi3ELi3ELi0ELi3ELi3EEESaIS3_EE4sizeEv
FNDA:0,_ZNK5amrex6VectorIN5Eigen6MatrixIdLi3ELi3ELi0ELi3ELi3EEESaIS3_EE4sizeEv
FN:51,_ZNK5amrex6VectorIPNS_8FabArrayINS_7BaseFabIN5Model5Solid7Elastic28PseudoLinearCubicPredeformedEEEEESaIS9_EE4sizeEv
FNDA:0,_ZNK5amrex6VectorIPNS_8FabArrayINS_7BaseFabIN5Model5Solid7Elastic28PseudoLinearCubicPredeformedEEEEESaIS9_EE4sizeEv
FN:51,_ZNK5amrex6VectorISt7complexIiESaIS2_EE4sizeEv
FNDA:0,_ZNK5amrex6VectorISt7complexIiESaIS2_EE4sizeEv
FN:51,_ZNK5amrex6VectorIdSaIdEE4sizeEv
FNDA:0,_ZNK5amrex6VectorIdSaIdEE4sizeEv
FN:51,_ZNK5amrex6VectorIPNS_8FabArrayINS_7BaseFabIN5Model5Solid6Affine2J2EEEEESaIS9_EE4sizeEv
FNDA:0,_ZNK5amrex6VectorIPNS_8FabArrayINS_7BaseFabIN5Model5Solid6Affine2J2EEEEESaIS9_EE4sizeEv
FN:51,_ZNK5amrex6VectorISt10unique_ptrINS_8FabArrayINS_7BaseFabIN3Set7Matrix4ILi3ELi3EEEEEEESt14default_deleteIS8_EESaISB_EE4sizeEv
FNDA:0,_ZNK5amrex6VectorISt10unique_ptrINS_8FabArrayINS_7BaseFabIN3Set7Matrix4ILi3ELi3EEEEEEESt14default_deleteIS8_EESaISB_EE4sizeEv
FN:51,_ZNK5amrex6VectorISt17reference_wrapperIdESaIS2_EE4sizeEv
FNDA:0,_ZNK5amrex6VectorISt17reference_wrapperIdESaIS2_EE4sizeEv
FN:51,_ZNK5amrex6VectorIPNS_8MultiFabESaIS2_EE4sizeEv
FNDA:0,_ZNK5amrex6VectorIPNS_8MultiFabESaIS2_EE4sizeEv
FN:71,_ZN5amrex12GetVecOfPtrsINS_8MultiFabEEENS_6VectorIPT_SaIS4_EEERKNS2_ISt10unique_ptrIS3_St14default_deleteIS3_EESaISA_EEE
FNDA:0,_ZN5amrex12GetVecOfPtrsINS_8MultiFabEEENS_6VectorIPT_SaIS4_EEERKNS2_ISt10unique_ptrIS3_St14default_deleteIS3_EESaISA_EEE
FN:91,_ZN5amrex17GetVecOfConstPtrsINS_8MultiFabEEENS_6VectorIPKT_SaIS5_EEERKNS2_ISt10unique_ptrIS3_St14default_deleteIS3_EESaISB_EEE
FNDA:0,_ZN5amrex17GetVecOfConstPtrsINS_8MultiFabEEENS_6VectorIPKT_SaIS5_EEERKNS2_ISt10unique_ptrIS3_St14default_deleteIS3_EESaISB_EEE
FN:100,_ZN5amrex17GetVecOfConstPtrsIKNS_8MultiFabENS_8FabArrayINS_9FArrayBoxEE7FABTypeEEENS_6VectorIPKT_SaISA_EEERKNS7_IPS8_SaISD_EEE
FNDA:0,_ZN5amrex17GetVecOfConstPtrsIKNS_8MultiFabENS_8FabArrayINS_9FArrayBoxEE7FABTypeEEENS_6VectorIPKT_SaISA_EEERKNS7_IPS8_SaISD_EEE
FN:100,_ZN5amrex17GetVecOfConstPtrsINS_8MultiFabENS_8FabArrayINS_9FArrayBoxEE7FABTypeEEENS_6VectorIPKT_SaIS9_EEERKNS6_IPS7_SaISC_EEE
FNDA:0,_ZN5amrex17GetVecOfConstPtrsINS_8MultiFabENS_8FabArrayINS_9FArrayBoxEE7FABTypeEEENS_6VectorIPKT_SaIS9_EEERKNS6_IPS7_SaISC_EEE
DA:34,0
DA:37,0
DA:34,0
DA:37,0
DA:34,0
DA:37,0
DA:34,0
DA:37,0
DA:34,0
DA:37,0
DA:34,0
DA:37,0
DA:34,0
DA:37,0
DA:34,0
DA:37,0
DA:34,0
DA:37,0
DA:34,0
DA:37,0
DA:34,0
DA:37,0
DA:34,0
DA:37,0
DA:34,0
DA:37,0
DA:34,0
DA:37,0
DA:34,0
DA:37,0
DA:34,0
DA:37,0
DA:34,506
DA:37,506
DA:34,0
DA:37,0
DA:34,0
DA:37,0
DA:34,0
DA:37,0
DA:34,0
DA:37,0
DA:34,0
DA:37,0
DA:34,0
DA:37,0
DA:34,0
DA:37,0
DA:34,0
DA:37,0
DA:34,0
DA:37,0
DA:34,0
DA:37,0
DA:34,0
DA:37,0
DA:34,0
DA:37,0
DA:34,0
DA:37,0
DA:34,0
DA:37,0
DA:34,0
DA:37,0
DA:34,0
DA:37,0
DA:34,0
DA:37,0
DA:34,0
DA:37,0
DA:34,0
DA:37,0
DA:34,0
DA:37,0
DA:34,0
DA:37,0
DA:34,0
DA:37,0
DA:34,0
DA:37,0
DA:34,0
DA:37,0
DA:34,0
DA:37,0
DA:34,0
DA:37,0
DA:34,0
DA:37,0
DA:34,0
DA:37,0
DA:34,0
DA:37,0
DA:34,0
DA:37,0
DA:34,0
DA:37,0
DA:34,0
DA:37,0
DA:34,0
DA:37,0
DA:34,0
DA:37,0
DA:34,0
DA:37,0
DA:34,0
DA:37,0
DA:34,0
DA:37,0
DA:34,0
DA:37,0
DA:34,506
DA:37,506
DA:34,0
DA:37,0
DA:34,0
DA:37,0
DA:34,0
DA:37,0
DA:34,0
DA:37,0
DA:34,0
DA:37,0
DA:34,0
DA:37,0
DA:34,0
DA:37,0
DA:34,0
DA:37,0
DA:34,0
DA:37,0
DA:34,0
DA:37,0
DA:34,0
DA:37,0
DA:34,0
DA:37,0
DA:34,0
DA:37,0
DA:40,0
DA:43,0
DA:40,0
DA:43,0
DA:40,0
DA:43,0
DA:40,0
DA:43,0
DA:40,0
DA:43,0
DA:40,0
DA:43,0
DA:40,0
DA:43,0
DA:40,0
DA:43,0
DA:40,0
DA:43,0
DA:40,0
DA:43,0
DA:40,0
DA:43,0
DA:40,0
DA:43,0
DA:40,0
DA:43,0
DA:40,0
DA:43,0
DA:40,0
DA:43,0
DA:40,0
DA:43,0
DA:40,0
DA:43,0
DA:40,0
DA:43,0
DA:40,0
DA:43,0
DA:40,0
DA:43,0
DA:40,0
DA:43,0
DA:40,0
DA:43,0
DA:40,0
DA:43,0
DA:40,0
DA:43,0
DA:40,0
DA:43,0
DA:40,0
DA:43,0
DA:40,0
DA:43,0
DA:40,0
DA:43,0
DA:40,0
DA:43,0
DA:40,0
DA:43,0
DA:40,0
DA:43,0
DA:40,0
DA:43,0
DA:40,0
DA:43,0
DA:40,0
DA:43,0
DA:40,0
DA:43,0
DA:40,0
DA:43,0
DA:40,0
DA:43,0
DA:51,0
DA:51,0
DA:51,0
DA:51,0
DA:51,0
DA:51,0
DA:51,0
DA:51,0
DA:51,0
DA:51,0
DA:51,0
DA:51,0
DA:51,0
DA:51,0
DA:51,0
DA:51,0
DA:51,0
DA:51,0
DA:51,0
DA:51,0
DA:51,0
DA:51,0
DA:51,0
DA:51,0
DA:51,0
DA:51,0
DA:51,0
DA:51,0
DA:51,0
DA:51,0
DA:51,0
DA:51,0
DA:51,0
DA:51,0
DA:71,0
DA:73,0
DA:74,0
DA:75,0
DA:76,0
DA:91,0
DA:93,0
DA:94,0
DA:95,0
DA:96,0
DA:100,0
DA:102,0
DA:100,0
DA:102,0
end_of_record
SF:/home/brunnels/Research/alamo/src/Numeric/Stencil.H
DA:24,75000
DA:33,75000
DA:53,148384
DA:54,45000
DA:56,133384
DA:57,45000
DA:60,355152
DA:73,148384
DA:74,45000
DA:76,133384
DA:77,45000
DA:80,355152
DA:93,148384
DA:94,45000
DA:96,133384
DA:97,45000
DA:100,355152
DA:117,835328
DA:118,3341310
DA:120,0
DA:133,835328
DA:134,3341310
DA:136,0
DA:149,835328
DA:150,3341310
DA:152,0
DA:226,0
DA:227,0
DA:238,0
DA:239,0
DA:367,0
DA:368,0
DA:369,0
DA:370,0
DA:371,0
DA:372,0
DA:470,835328
DA:471,835328
DA:473,835328
DA:475,835328
DA:478,835328
DA:505,5400
DA:507,5400
DA:509,37800
DA:513,0
DA:515,0
DA:519,0
DA:521,0
DA:527,5400
DA:529,37800
DA:533,0
DA:535,0
DA:539,0
DA:541,0
DA:547,5400
DA:549,37800
DA:553,0
DA:555,0
DA:559,0
DA:561,0
DA:566,5400
DA:577,78784
DA:578,78784
DA:580,78784
DA:582,78784
DA:585,78784
DA:594,0
DA:601,0
DA:602,0
DA:603,0
DA:605,0
DA:640,0
DA:641,0
DA:643,0
DA:644,0
DA:645,0
DA:647,0
DA:648,0
DA:649,0
DA:650,0
DA:651,0
DA:654,0
DA:664,69600
DA:667,139200
DA:670,139200
DA:673,139200
DA:676,69600
DA:706,0
DA:709,0
DA:712,0
DA:715,0
DA:718,0
DA:896,0
DA:905,0
DA:906,0
DA:907,0
DA:910,0
DA:1125,0
DA:1130,0
DA:1136,0
DA:1162,0
DA:1168,0
end_of_record
SF:/home/brunnels/Research/alamo/ext/amrex/3d-coverage-g++-23.08/include/AMReX_MFIter.H
FN:14,_ZN5amrex14TilingIfNotGPUEv
FNDA:0,_ZN5amrex14TilingIfNotGPUEv
FN:132,_ZNK5amrex6MFIter8validboxEv
FNDA:0,_ZNK5amrex6MFIter8validboxEv
FN:141,_ZNK5amrex6MFIter7isValidEv
FNDA:0,_ZNK5amrex6MFIter7isValidEv
FN:159,_ZNK5amrex6MFIter10LocalIndexEv
FNDA:0,_ZNK5amrex6MFIter10LocalIndexEv
FN:217,_ZN5amrex12isMFIterSafeERKNS_12FabArrayBaseES2_
FNDA:0,_ZN5amrex12isMFIterSafeERKNS_12FabArrayBaseES2_
DA:14,0
DA:132,0
DA:141,0
DA:159,0
DA:217,0
DA:218,0
DA:219,0
end_of_record
SF:/home/brunnels/Research/alamo/ext/amrex/3d-coverage-g++-23.08/include/AMReX.H
DA:107,0
DA:159,0
DA:161,0
DA:187,0
DA:189,0
end_of_record
SF:/home/brunnels/Research/alamo/src/Model/Interface/Crack/Constant.H
FN:21,_ZN5Model9Interface5Crack8ConstantC2Ev
FNDA:0,_ZN5Model9Interface5Crack8ConstantC2Ev
FN:23,_ZN5Model9Interface5Crack8Constant2GcEd
FNDA:0,_ZN5Model9Interface5Crack8Constant2GcEd
FN:24,_ZN5Model9Interface5Crack8Constant3DGcEd
FNDA:0,_ZN5Model9Interface5Crack8Constant3DGcEd
FN:25,_ZN5Model9Interface5Crack8Constant4DDGcEd
FNDA:0,_ZN5Model9Interface5Crack8Constant4DDGcEd
FN:26,_ZN5Model9Interface5Crack8Constant4ZetaEd
FNDA:0,_ZN5Model9Interface5Crack8Constant4ZetaEd
FN:27,_ZN5Model9Interface5Crack8Constant8MobilityEd
FNDA:0,_ZN5Model9Interface5Crack8Constant8MobilityEd
FN:28,_ZN5Model9Interface5Crack8Constant21DrivingForceThresholdEd
FNDA:0,_ZN5Model9Interface5Crack8Constant21DrivingForceThresholdEd
FN:33,_ZN5Model9Interface5Crack8Constant5ParseERS2_RN2IO9ParmParseE
FNDA:0,_ZN5Model9Interface5Crack8Constant5ParseERS2_RN2IO9ParmParseE
DA:21,0
DA:23,0
DA:24,0
DA:25,0
DA:26,0
DA:27,0
DA:28,0
DA:33,0
DA:35,0
DA:36,0
DA:37,0
DA:38,0
DA:40,0
DA:41,0
DA:42,0
DA:43,0
DA:45,0
DA:46,0
DA:48,0
DA:49,0
DA:50,0
DA:51,0
DA:52,0
DA:53,0
DA:54,0
DA:56,0
DA:57,0
DA:58,0
DA:59,0
DA:60,0
DA:62,0
DA:63,0
DA:65,0
DA:66,0
end_of_record
SF:/home/brunnels/Research/alamo/ext/amrex/3d-coverage-g++-23.08/include/AMReX_IndexType.H
FN:32,_ZN5amrex9IndexTypeC2Ev
FNDA:0,_ZN5amrex9IndexTypeC2Ev
FN:35,_ZN5amrex9IndexTypeC2ERKNS_7IntVectE
FNDA:0,_ZN5amrex9IndexTypeC2ERKNS_7IntVectE
FN:44,_ZN5amrex9IndexTypeC2ENS0_9CellIndexES1_S1_
FNDA:0,_ZN5amrex9IndexTypeC2ENS0_9CellIndexES1_S1_
DA:32,0
DA:35,0
DA:36,0
DA:37,0
DA:44,0
DA:45,0
DA:46,0
DA:51,0
DA:54,0
DA:57,0
DA:63,0
DA:66,0
DA:69,0
DA:75,0
DA:83,0
DA:92,0
DA:95,0
DA:101,0
DA:104,1200
DA:116,0
DA:118,0
DA:128,0
DA:130,0
DA:136,0
end_of_record
SF:/home/brunnels/Research/alamo/src/Set/Matrix4_Major.H
FN:225,_ZN3Set7Matrix4ILi3ELi1EEC2Ev
FNDA:0,_ZN3Set7Matrix4ILi3ELi1EEC2Ev
FN:435,_ZN3Set7Matrix4ILi3ELi1EE4ZeroEv
FNDA:100,_ZN3Set7Matrix4ILi3ELi1EE4ZeroEv
DA:225,0
DA:260,28350000
DA:262,28237500
DA:263,28000000
DA:264,27300000
DA:265,26600000
DA:266,25900000
DA:267,25200000
DA:268,24500000
DA:269,23800000
DA:270,23100000
DA:271,22400000
DA:272,22050000
DA:273,21350000
DA:274,20650000
DA:275,19950000
DA:276,19250000
DA:277,18550000
DA:278,17850000
DA:279,17150000
DA:280,16800000
DA:281,16100000
DA:282,15400000
DA:283,14700000
DA:284,14000000
DA:285,13300000
DA:286,12600000
DA:287,12250000
DA:288,11550000
DA:289,10850000
DA:290,10150000
DA:291,9450000
DA:292,8750000
DA:293,8400000
DA:294,7700000
DA:295,7000000
DA:296,6300000
DA:297,5600000
DA:298,5250000
DA:299,4550000
DA:300,3850000
DA:301,3150000
DA:302,2800000
DA:303,2100000
DA:304,1400000
DA:305,1050000
DA:306,350000
DA:308,0
DA:309,0
DA:411,0
DA:435,100
DA:437,100
DA:438,4600
DA:439,100
end_of_record
SF:/home/brunnels/Research/alamo/src/Set/Matrix3.H
DA:25,0
DA:31,0
DA:32,0
DA:33,0
end_of_record
SF:/home/brunnels/Research/alamo/src/Model/Solid/Linear/Hexagonal.H
FN:21,_ZN5Model5Solid6Linear9HexagonalC2Ev
FNDA:0,_ZN5Model5Solid6Linear9HexagonalC2Ev
FN:23,_ZN5Model5Solid6Linear9HexagonalD0Ev
FNDA:0,_ZN5Model5Solid6Linear9HexagonalD0Ev
FN:23,_ZN5Model5Solid6Linear9HexagonalD2Ev
FNDA:0,_ZN5Model5Solid6Linear9HexagonalD2Ev
FN:26,_ZN5Model5Solid6Linear9Hexagonal6DefineEdddddddd
FNDA:0,_ZN5Model5Solid6Linear9Hexagonal6DefineEdddddddd
FN:35,_ZN5Model5Solid6Linear9Hexagonal6DefineEdddddN5Eigen6MatrixIdLi3ELi3ELi0ELi3ELi3EEE
FNDA:0,_ZN5Model5Solid6Linear9Hexagonal6DefineEdddddN5Eigen6MatrixIdLi3ELi3ELi0ELi3ELi3EEE
FN:80,_ZNK5Model5Solid6Linear9Hexagonal1WERKN5Eigen6MatrixIdLi3ELi3ELi0ELi3ELi3EEE
FNDA:0,_ZNK5Model5Solid6Linear9Hexagonal1WERKN5Eigen6MatrixIdLi3ELi3ELi0ELi3ELi3EEE
FN:84,_ZNK5Model5Solid6Linear9Hexagonal2DWERKN5Eigen6MatrixIdLi3ELi3ELi0ELi3ELi3EEE
FNDA:0,_ZNK5Model5Solid6Linear9Hexagonal2DWERKN5Eigen6MatrixIdLi3ELi3ELi0ELi3ELi3EEE
FN:88,_ZNK5Model5Solid6Linear9Hexagonal3DDWERKN5Eigen6MatrixIdLi3ELi3ELi0ELi3ELi3EEE
FNDA:0,_ZNK5Model5Solid6Linear9Hexagonal3DDWERKN5Eigen6MatrixIdLi3ELi3ELi0ELi3ELi3EEE
FN:92,_ZNK5Model5Solid6Linear9Hexagonal5PrintERSo
FNDA:0,_ZNK5Model5Solid6Linear9Hexagonal5PrintERSo
FN:115,_ZN5Model5Solid6Linear9Hexagonal4ZeroEv
FNDA:0,_ZN5Model5Solid6Linear9Hexagonal4ZeroEv
FN:126,_ZN5Model5Solid6Linear9Hexagonal6RandomEddddd
FNDA:0,_ZN5Model5Solid6Linear9Hexagonal6RandomEddddd
FN:136,_ZN5Model5Solid6Linear9Hexagonal5ParseERS2_RN2IO9ParmParseE
FNDA:0,_ZN5Model5Solid6Linear9Hexagonal5ParseERS2_RN2IO9ParmParseE
DA:21,0
DA:23,0
DA:23,0
DA:26,0
DA:28,0
DA:29,0
DA:30,0
DA:31,0
DA:32,0
DA:33,0
DA:35,0
DA:39,0
DA:41,0
DA:42,0
DA:43,0
DA:44,0
DA:46,0
DA:48,0
DA:49,0
DA:50,0
DA:52,0
DA:54,0
DA:55,0
DA:57,0
DA:59,0
DA:61,0
DA:62,0
DA:63,0
DA:65,0
DA:67,0
DA:68,0
DA:69,0
DA:70,0
DA:72,0
DA:73,0
DA:74,0
DA:75,0
DA:76,0
DA:77,0
DA:79,0
DA:80,0
DA:82,0
DA:84,0
DA:86,0
DA:88,0
DA:90,0
DA:92,0
DA:94,0
DA:95,0
DA:115,0
DA:117,0
DA:118,0
DA:119,0
DA:126,0
DA:128,0
DA:129,0
DA:130,0
DA:131,0
DA:132,0
DA:133,0
DA:136,0
DA:138,0
DA:139,0
DA:140,0
DA:141,0
DA:142,0
DA:143,0
DA:145,0
DA:147,0
DA:148,0
DA:151,0
DA:152,0
DA:153,0
DA:154,0
DA:155,0
end_of_record
SF:/home/brunnels/Research/alamo/ext/amrex/3d-coverage-g++-23.08/include/AMReX_LayoutData.H
FN:17,_ZN5amrex10LayoutDataINS_6VectorINS_11VoidCopyTagESaIS2_EEEEC2Ev
FNDA:0,_ZN5amrex10LayoutDataINS_6VectorINS_11VoidCopyTagESaIS2_EEEEC2Ev
FN:19,_ZN5amrex10LayoutDataINS_6VectorINS_10FabCopyTagINS_7BaseFabIN5Eigen6MatrixIdLi3ELi1ELi0ELi3ELi1EEEEEEESaIS8_EEEEC2ERKNS_8BoxArrayERKNS_19DistributionMappingE
FNDA:0,_ZN5amrex10LayoutDataINS_6VectorINS_10FabCopyTagINS_7BaseFabIN5Eigen6MatrixIdLi3ELi1ELi0ELi3ELi1EEEEEEESaIS8_EEEEC2ERKNS_8BoxArrayERKNS_19DistributionMappingE
FN:19,_ZN5amrex10LayoutDataINS_6VectorINS_10FabCopyTagINS_7BaseFabIN5Model5Solid6Linear9IsotropicEEEEESaIS9_EEEEC2ERKNS_8BoxArrayERKNS_19DistributionMappingE
FNDA:0,_ZN5amrex10LayoutDataINS_6VectorINS_10FabCopyTagINS_7BaseFabIN5Model5Solid6Linear9IsotropicEEEEESaIS9_EEEEC2ERKNS_8BoxArrayERKNS_19DistributionMappingE
FN:19,_ZN5amrex10LayoutDataINS_6VectorINS_10FabCopyTagINS_7BaseFabIN5Model5Solid6Linear5CubicEEEEESaIS9_EEEEC2ERKNS_8BoxArrayERKNS_19DistributionMappingE
FNDA:0,_ZN5amrex10LayoutDataINS_6VectorINS_10FabCopyTagINS_7BaseFabIN5Model5Solid6Linear5CubicEEEEESaIS9_EEEEC2ERKNS_8BoxArrayERKNS_19DistributionMappingE
FN:19,_ZN5amrex10LayoutDataINS_6VectorINS_10FabCopyTagINS_7BaseFabIN5Model5Solid6Affine5CubicEEEEESaIS9_EEEEC2ERKNS_8BoxArrayERKNS_19DistributionMappingE
FNDA:0,_ZN5amrex10LayoutDataINS_6VectorINS_10FabCopyTagINS_7BaseFabIN5Model5Solid6Affine5CubicEEEEESaIS9_EEEEC2ERKNS_8BoxArrayERKNS_19DistributionMappingE
FN:19,_ZN5amrex10LayoutDataINS_6VectorINS_10FabCopyTagINS_7BaseFabIN5Model5Solid6Affine9HexagonalEEEEESaIS9_EEEEC2ERKNS_8BoxArrayERKNS_19DistributionMappingE
FNDA:0,_ZN5amrex10LayoutDataINS_6VectorINS_10FabCopyTagINS_7BaseFabIN5Model5Solid6Affine9HexagonalEEEEESaIS9_EEEEC2ERKNS_8BoxArrayERKNS_19DistributionMappingE
FN:19,_ZN5amrex10LayoutDataINS_6VectorINS_10FabCopyTagINS_7BaseFabIN5Model5Solid6Linear9LaplacianEEEEESaIS9_EEEEC2ERKNS_8BoxArrayERKNS_19DistributionMappingE
FNDA:0,_ZN5amrex10LayoutDataINS_6VectorINS_10FabCopyTagINS_7BaseFabIN5Model5Solid6Linear9LaplacianEEEEESaIS9_EEEEC2ERKNS_8BoxArrayERKNS_19DistributionMappingE
FN:19,_ZN5amrex10LayoutDataINS_6VectorINS_10FabCopyTagINS_7BaseFabIN5Model5Solid7Elastic10NeoHookeanEEEEESaIS9_EEEEC2ERKNS_8BoxArrayERKNS_19DistributionMappingE
FNDA:0,_ZN5amrex10LayoutDataINS_6VectorINS_10FabCopyTagINS_7BaseFabIN5Model5Solid7Elastic10NeoHookeanEEEEESaIS9_EEEEC2ERKNS_8BoxArrayERKNS_19DistributionMappingE
FN:19,_ZN5amrex10LayoutDataINS_6VectorINS_10FabCopyTagINS_7BaseFabIN5Model5Solid7Elastic17PseudoLinearCubicEEEEESaIS9_EEEEC2ERKNS_8BoxArrayERKNS_19DistributionMappingE
FNDA:0,_ZN5amrex10LayoutDataINS_6VectorINS_10FabCopyTagINS_7BaseFabIN5Model5Solid7Elastic17PseudoLinearCubicEEEEESaIS9_EEEEC2ERKNS_8BoxArrayERKNS_19DistributionMappingE
FN:19,_ZN5amrex10LayoutDataINS_6VectorINS_10FabCopyTagINS_7BaseFabIN5Model5Solid7Elastic28PseudoLinearCubicPredeformedEEEEESaIS9_EEEEC2ERKNS_8BoxArrayERKNS_19DistributionMappingE
FNDA:0,_ZN5amrex10LayoutDataINS_6VectorINS_10FabCopyTagINS_7BaseFabIN5Model5Solid7Elastic28PseudoLinearCubicPredeformedEEEEESaIS9_EEEEC2ERKNS_8BoxArrayERKNS_19DistributionMappingE
FN:19,_ZN5amrex10LayoutDataINS_6VectorINS_10FabCopyTagINS_7BaseFabIN5Model5Solid6Affine2J2EEEEESaIS9_EEEEC2ERKNS_8BoxArrayERKNS_19DistributionMappingE
FNDA:0,_ZN5amrex10LayoutDataINS_6VectorINS_10FabCopyTagINS_7BaseFabIN5Model5Solid6Affine2J2EEEEESaIS9_EEEEC2ERKNS_8BoxArrayERKNS_19DistributionMappingE
FN:19,_ZN5amrex10LayoutDataINS_6VectorINS_10FabCopyTagINS_7BaseFabIdEEEESaIS5_EEEEC2ERKNS_8BoxArrayERKNS_19DistributionMappingE
FNDA:0,_ZN5amrex10LayoutDataINS_6VectorINS_10FabCopyTagINS_7BaseFabIdEEEESaIS5_EEEEC2ERKNS_8BoxArrayERKNS_19DistributionMappingE
FN:19,_ZN5amrex10LayoutDataINS_6VectorINS_10FabCopyTagINS_7BaseFabIN3Set7Matrix4ILi3ELi1EEEEEEESaIS8_EEEEC2ERKNS_8BoxArrayERKNS_19DistributionMappingE
FNDA:0,_ZN5amrex10LayoutDataINS_6VectorINS_10FabCopyTagINS_7BaseFabIN3Set7Matrix4ILi3ELi1EEEEEEESaIS8_EEEEC2ERKNS_8BoxArrayERKNS_19DistributionMappingE
FN:19,_ZN5amrex10LayoutDataINS_6VectorINS_10FabCopyTagINS_7BaseFabIN3Set7Matrix4ILi3ELi6EEEEEEESaIS8_EEEEC2ERKNS_8BoxArrayERKNS_19DistributionMappingE
FNDA:0,_ZN5amrex10LayoutDataINS_6VectorINS_10FabCopyTagINS_7BaseFabIN3Set7Matrix4ILi3ELi6EEEEEEESaIS8_EEEEC2ERKNS_8BoxArrayERKNS_19DistributionMappingE
FN:19,_ZN5amrex10LayoutDataINS_6VectorINS_10FabCopyTagINS_7BaseFabIN5Eigen6MatrixIdLi3ELi3ELi0ELi3ELi3EEEEEEESaIS8_EEEEC2ERKNS_8BoxArrayERKNS_19DistributionMappingE
FNDA:0,_ZN5amrex10LayoutDataINS_6VectorINS_10FabCopyTagINS_7BaseFabIN5Eigen6MatrixIdLi3ELi3ELi0ELi3ELi3EEEEEEESaIS8_EEEEC2ERKNS_8BoxArrayERKNS_19DistributionMappingE
FN:19,_ZN5amrex10LayoutDataINS_6VectorINS_10FabCopyTagINS_7BaseFabIN3Set7Matrix4ILi3ELi4EEEEEEESaIS8_EEEEC2ERKNS_8BoxArrayERKNS_19DistributionMappingE
FNDA:0,_ZN5amrex10LayoutDataINS_6VectorINS_10FabCopyTagINS_7BaseFabIN3Set7Matrix4ILi3ELi4EEEEEEESaIS8_EEEEC2ERKNS_8BoxArrayERKNS_19DistributionMappingE
FN:19,_ZN5amrex10LayoutDataINS_6VectorINS_10FabCopyTagINS_7BaseFabIN5Model5Solid6Affine9IsotropicEEEEESaIS9_EEEEC2ERKNS_8BoxArrayERKNS_19DistributionMappingE
FNDA:0,_ZN5amrex10LayoutDataINS_6VectorINS_10FabCopyTagINS_7BaseFabIN5Model5Solid6Affine9IsotropicEEEEESaIS9_EEEEC2ERKNS_8BoxArrayERKNS_19DistributionMappingE
FN:19,_ZN5amrex10LayoutDataINS_6VectorINS_10FabCopyTagINS_7BaseFabIN3Set7Matrix4ILi3ELi3EEEEEEESaIS8_EEEEC2ERKNS_8BoxArrayERKNS_19DistributionMappingE
FNDA:0,_ZN5amrex10LayoutDataINS_6VectorINS_10FabCopyTagINS_7BaseFabIN3Set7Matrix4ILi3ELi3EEEEEEESaIS8_EEEEC2ERKNS_8BoxArrayERKNS_19DistributionMappingE
FN:19,_ZN5amrex10LayoutDataINS_6VectorINS_10FabCopyTagINS_7BaseFabIN5Model5Solid6Linear19IsotropicDegradableEEEEESaIS9_EEEEC2ERKNS_8BoxArrayERKNS_19DistributionMappingE
FNDA:0,_ZN5amrex10LayoutDataINS_6VectorINS_10FabCopyTagINS_7BaseFabIN5Model5Solid6Linear19IsotropicDegradableEEEEESaIS9_EEEEC2ERKNS_8BoxArrayERKNS_19DistributionMappingE
FN:19,_ZN5amrex10LayoutDataINS_6VectorINS_10FabCopyTagINS_9FArrayBoxEEESaIS4_EEEEC2ERKNS_8BoxArrayERKNS_19DistributionMappingE
FNDA:0,_ZN5amrex10LayoutDataINS_6VectorINS_10FabCopyTagINS_9FArrayBoxEEESaIS4_EEEEC2ERKNS_8BoxArrayERKNS_19DistributionMappingE
FN:25,_ZN5amrex10LayoutDataINS_6VectorINS_10FabCopyTagINS_7BaseFabIN5Eigen6MatrixIdLi3ELi3ELi0ELi3ELi3EEEEEEESaIS8_EEEE6defineERKNS_8BoxArrayERKNS_19DistributionMappingE
FNDA:0,_ZN5amrex10LayoutDataINS_6VectorINS_10FabCopyTagINS_7BaseFabIN5Eigen6MatrixIdLi3ELi3ELi0ELi3ELi3EEEEEEESaIS8_EEEE6defineERKNS_8BoxArrayERKNS_19DistributionMappingE
FN:25,_ZN5amrex10LayoutDataINS_6VectorINS_10FabCopyTagINS_7BaseFabIN3Set7Matrix4ILi3ELi6EEEEEEESaIS8_EEEE6defineERKNS_8BoxArrayERKNS_19DistributionMappingE
FNDA:0,_ZN5amrex10LayoutDataINS_6VectorINS_10FabCopyTagINS_7BaseFabIN3Set7Matrix4ILi3ELi6EEEEEEESaIS8_EEEE6defineERKNS_8BoxArrayERKNS_19DistributionMappingE
FN:25,_ZN5amrex10LayoutDataINS_6VectorINS_10FabCopyTagINS_7BaseFabIN5Model5Solid6Affine9IsotropicEEEEESaIS9_EEEE6defineERKNS_8BoxArrayERKNS_19DistributionMappingE
FNDA:0,_ZN5amrex10LayoutDataINS_6VectorINS_10FabCopyTagINS_7BaseFabIN5Model5Solid6Affine9IsotropicEEEEESaIS9_EEEE6defineERKNS_8BoxArrayERKNS_19DistributionMappingE
FN:25,_ZN5amrex10LayoutDataINS_6VectorINS_10FabCopyTagINS_7BaseFabIN5Model5Solid6Linear19IsotropicDegradableEEEEESaIS9_EEEE6defineERKNS_8BoxArrayERKNS_19DistributionMappingE
FNDA:0,_ZN5amrex10LayoutDataINS_6VectorINS_10FabCopyTagINS_7BaseFabIN5Model5Solid6Linear19IsotropicDegradableEEEEESaIS9_EEEE6defineERKNS_8BoxArrayERKNS_19DistributionMappingE
FN:25,_ZN5amrex10LayoutDataINS_6VectorINS_10FabCopyTagINS_9FArrayBoxEEESaIS4_EEEE6defineERKNS_8BoxArrayERKNS_19DistributionMappingE
FNDA:0,_ZN5amrex10LayoutDataINS_6VectorINS_10FabCopyTagINS_9FArrayBoxEEESaIS4_EEEE6defineERKNS_8BoxArrayERKNS_19DistributionMappingE
FN:25,_ZN5amrex10LayoutDataINS_6VectorINS_11VoidCopyTagESaIS2_EEEE6defineERKNS_8BoxArrayERKNS_19DistributionMappingE
FNDA:0,_ZN5amrex10LayoutDataINS_6VectorINS_11VoidCopyTagESaIS2_EEEE6defineERKNS_8BoxArrayERKNS_19DistributionMappingE
FN:25,_ZN5amrex10LayoutDataINS_6VectorINS_10FabCopyTagINS_7BaseFabIN3Set7Matrix4ILi3ELi4EEEEEEESaIS8_EEEE6defineERKNS_8BoxArrayERKNS_19DistributionMappingE
FNDA:0,_ZN5amrex10LayoutDataINS_6VectorINS_10FabCopyTagINS_7BaseFabIN3Set7Matrix4ILi3ELi4EEEEEEESaIS8_EEEE6defineERKNS_8BoxArrayERKNS_19DistributionMappingE
FN:25,_ZN5amrex10LayoutDataINS_6VectorINS_10FabCopyTagINS_7BaseFabIN3Set7Matrix4ILi3ELi3EEEEEEESaIS8_EEEE6defineERKNS_8BoxArrayERKNS_19DistributionMappingE
FNDA:0,_ZN5amrex10LayoutDataINS_6VectorINS_10FabCopyTagINS_7BaseFabIN3Set7Matrix4ILi3ELi3EEEEEEESaIS8_EEEE6defineERKNS_8BoxArrayERKNS_19DistributionMappingE
FN:25,_ZN5amrex10LayoutDataINS_6VectorINS_10FabCopyTagINS_7BaseFabIN5Model5Solid6Linear9LaplacianEEEEESaIS9_EEEE6defineERKNS_8BoxArrayERKNS_19DistributionMappingE
FNDA:0,_ZN5amrex10LayoutDataINS_6VectorINS_10FabCopyTagINS_7BaseFabIN5Model5Solid6Linear9LaplacianEEEEESaIS9_EEEE6defineERKNS_8BoxArrayERKNS_19DistributionMappingE
FN:25,_ZN5amrex10LayoutDataINS_6VectorINS_10FabCopyTagINS_7BaseFabIN5Model5Solid6Affine9HexagonalEEEEESaIS9_EEEE6defineERKNS_8BoxArrayERKNS_19DistributionMappingE
FNDA:0,_ZN5amrex10LayoutDataINS_6VectorINS_10FabCopyTagINS_7BaseFabIN5Model5Solid6Affine9HexagonalEEEEESaIS9_EEEE6defineERKNS_8BoxArrayERKNS_19DistributionMappingE
FN:25,_ZN5amrex10LayoutDataINS_6VectorINS_10FabCopyTagINS_7BaseFabIN5Model5Solid7Elastic10NeoHookeanEEEEESaIS9_EEEE6defineERKNS_8BoxArrayERKNS_19DistributionMappingE
FNDA:0,_ZN5amrex10LayoutDataINS_6VectorINS_10FabCopyTagINS_7BaseFabIN5Model5Solid7Elastic10NeoHookeanEEEEESaIS9_EEEE6defineERKNS_8BoxArrayERKNS_19DistributionMappingE
FN:25,_ZN5amrex10LayoutDataINS_6VectorINS_10FabCopyTagINS_7BaseFabIN5Model5Solid6Affine5CubicEEEEESaIS9_EEEE6defineERKNS_8BoxArrayERKNS_19DistributionMappingE
FNDA:0,_ZN5amrex10LayoutDataINS_6VectorINS_10FabCopyTagINS_7BaseFabIN5Model5Solid6Affine5CubicEEEEESaIS9_EEEE6defineERKNS_8BoxArrayERKNS_19DistributionMappingE
FN:25,_ZN5amrex10LayoutDataINS_6VectorINS_10FabCopyTagINS_7BaseFabIN5Model5Solid6Linear5CubicEEEEESaIS9_EEEE6defineERKNS_8BoxArrayERKNS_19DistributionMappingE
FNDA:0,_ZN5amrex10LayoutDataINS_6VectorINS_10FabCopyTagINS_7BaseFabIN5Model5Solid6Linear5CubicEEEEESaIS9_EEEE6defineERKNS_8BoxArrayERKNS_19DistributionMappingE
FN:25,_ZN5amrex10LayoutDataINS_6VectorINS_10FabCopyTagINS_7BaseFabIN5Model5Solid7Elastic17PseudoLinearCubicEEEEESaIS9_EEEE6defineERKNS_8BoxArrayERKNS_19DistributionMappingE
FNDA:0,_ZN5amrex10LayoutDataINS_6VectorINS_10FabCopyTagINS_7BaseFabIN5Model5Solid7Elastic17PseudoLinearCubicEEEEESaIS9_EEEE6defineERKNS_8BoxArrayERKNS_19DistributionMappingE
FN:25,_ZN5amrex10LayoutDataINS_6VectorINS_10FabCopyTagINS_7BaseFabIN5Model5Solid6Linear9IsotropicEEEEESaIS9_EEEE6defineERKNS_8BoxArrayERKNS_19DistributionMappingE
FNDA:0,_ZN5amrex10LayoutDataINS_6VectorINS_10FabCopyTagINS_7BaseFabIN5Model5Solid6Linear9IsotropicEEEEESaIS9_EEEE6defineERKNS_8BoxArrayERKNS_19DistributionMappingE
FN:25,_ZN5amrex10LayoutDataINS_6VectorINS_10FabCopyTagINS_7BaseFabIN5Eigen6MatrixIdLi3ELi1ELi0ELi3ELi1EEEEEEESaIS8_EEEE6defineERKNS_8BoxArrayERKNS_19DistributionMappingE
FNDA:0,_ZN5amrex10LayoutDataINS_6VectorINS_10FabCopyTagINS_7BaseFabIN5Eigen6MatrixIdLi3ELi1ELi0ELi3ELi1EEEEEEESaIS8_EEEE6defineERKNS_8BoxArrayERKNS_19DistributionMappingE
FN:25,_ZN5amrex10LayoutDataINS_6VectorINS_10FabCopyTagINS_7BaseFabIN5Model5Solid7Elastic28PseudoLinearCubicPredeformedEEEEESaIS9_EEEE6defineERKNS_8BoxArrayERKNS_19DistributionMappingE
FNDA:0,_ZN5amrex10LayoutDataINS_6VectorINS_10FabCopyTagINS_7BaseFabIN5Model5Solid7Elastic28PseudoLinearCubicPredeformedEEEEESaIS9_EEEE6defineERKNS_8BoxArrayERKNS_19DistributionMappingE
FN:25,_ZN5amrex10LayoutDataINS_6VectorINS_10FabCopyTagINS_7BaseFabIN5Model5Solid6Affine2J2EEEEESaIS9_EEEE6defineERKNS_8BoxArrayERKNS_19DistributionMappingE
FNDA:0,_ZN5amrex10LayoutDataINS_6VectorINS_10FabCopyTagINS_7BaseFabIN5Model5Solid6Affine2J2EEEEESaIS9_EEEE6defineERKNS_8BoxArrayERKNS_19DistributionMappingE
FN:25,_ZN5amrex10LayoutDataINS_6VectorINS_10FabCopyTagINS_7BaseFabIN3Set7Matrix4ILi3ELi1EEEEEEESaIS8_EEEE6defineERKNS_8BoxArrayERKNS_19DistributionMappingE
FNDA:0,_ZN5amrex10LayoutDataINS_6VectorINS_10FabCopyTagINS_7BaseFabIN3Set7Matrix4ILi3ELi1EEEEEEESaIS8_EEEE6defineERKNS_8BoxArrayERKNS_19DistributionMappingE
FN:25,_ZN5amrex10LayoutDataINS_6VectorINS_10FabCopyTagINS_7BaseFabIdEEEESaIS5_EEEE6defineERKNS_8BoxArrayERKNS_19DistributionMappingE
FNDA:0,_ZN5amrex10LayoutDataINS_6VectorINS_10FabCopyTagINS_7BaseFabIdEEEESaIS5_EEEE6defineERKNS_8BoxArrayERKNS_19DistributionMappingE
FN:34,_ZN5amrex10LayoutDataINS_6VectorINS_10FabCopyTagINS_7BaseFabIN5Eigen6MatrixIdLi3ELi1ELi0ELi3ELi1EEEEEEESaIS8_EEEED2Ev
FNDA:0,_ZN5amrex10LayoutDataINS_6VectorINS_10FabCopyTagINS_7BaseFabIN5Eigen6MatrixIdLi3ELi1ELi0ELi3ELi1EEEEEEESaIS8_EEEED2Ev
FN:34,_ZN5amrex10LayoutDataINS_6VectorINS_10FabCopyTagINS_7BaseFabIN5Model5Solid7Elastic17PseudoLinearCubicEEEEESaIS9_EEEED2Ev
FNDA:0,_ZN5amrex10LayoutDataINS_6VectorINS_10FabCopyTagINS_7BaseFabIN5Model5Solid7Elastic17PseudoLinearCubicEEEEESaIS9_EEEED2Ev
FN:34,_ZN5amrex10LayoutDataINS_6VectorINS_11VoidCopyTagESaIS2_EEEED2Ev
FNDA:0,_ZN5amrex10LayoutDataINS_6VectorINS_11VoidCopyTagESaIS2_EEEED2Ev
FN:34,_ZN5amrex10LayoutDataINS_6VectorINS_10FabCopyTagINS_7BaseFabIN5Model5Solid7Elastic28PseudoLinearCubicPredeformedEEEEESaIS9_EEEED2Ev
FNDA:0,_ZN5amrex10LayoutDataINS_6VectorINS_10FabCopyTagINS_7BaseFabIN5Model5Solid7Elastic28PseudoLinearCubicPredeformedEEEEESaIS9_EEEED2Ev
FN:34,_ZN5amrex10LayoutDataINS_6VectorINS_10FabCopyTagINS_9FArrayBoxEEESaIS4_EEEED2Ev
FNDA:0,_ZN5amrex10LayoutDataINS_6VectorINS_10FabCopyTagINS_9FArrayBoxEEESaIS4_EEEED2Ev
FN:34,_ZN5amrex10LayoutDataINS_6VectorINS_10FabCopyTagINS_7BaseFabIN5Model5Solid6Affine2J2EEEEESaIS9_EEEED2Ev
FNDA:0,_ZN5amrex10LayoutDataINS_6VectorINS_10FabCopyTagINS_7BaseFabIN5Model5Solid6Affine2J2EEEEESaIS9_EEEED2Ev
FN:34,_ZN5amrex10LayoutDataINS_6VectorINS_10FabCopyTagINS_7BaseFabIN3Set7Matrix4ILi3ELi3EEEEEEESaIS8_EEEED2Ev
FNDA:0,_ZN5amrex10LayoutDataINS_6VectorINS_10FabCopyTagINS_7BaseFabIN3Set7Matrix4ILi3ELi3EEEEEEESaIS8_EEEED2Ev
FN:34,_ZN5amrex10LayoutDataINS_6VectorINS_10FabCopyTagINS_7BaseFabIdEEEESaIS5_EEEED2Ev
FNDA:0,_ZN5amrex10LayoutDataINS_6VectorINS_10FabCopyTagINS_7BaseFabIdEEEESaIS5_EEEED2Ev
FN:34,_ZN5amrex10LayoutDataINS_6VectorINS_10FabCopyTagINS_7BaseFabIN5Model5Solid6Linear19IsotropicDegradableEEEEESaIS9_EEEED2Ev
FNDA:0,_ZN5amrex10LayoutDataINS_6VectorINS_10FabCopyTagINS_7BaseFabIN5Model5Solid6Linear19IsotropicDegradableEEEEESaIS9_EEEED2Ev
FN:34,_ZN5amrex10LayoutDataINS_6VectorINS_10FabCopyTagINS_7BaseFabIN5Model5Solid6Affine9IsotropicEEEEESaIS9_EEEED2Ev
FNDA:0,_ZN5amrex10LayoutDataINS_6VectorINS_10FabCopyTagINS_7BaseFabIN5Model5Solid6Affine9IsotropicEEEEESaIS9_EEEED2Ev
FN:34,_ZN5amrex10LayoutDataINS_6VectorINS_10FabCopyTagINS_7BaseFabIN3Set7Matrix4ILi3ELi4EEEEEEESaIS8_EEEED2Ev
FNDA:0,_ZN5amrex10LayoutDataINS_6VectorINS_10FabCopyTagINS_7BaseFabIN3Set7Matrix4ILi3ELi4EEEEEEESaIS8_EEEED2Ev
FN:34,_ZN5amrex10LayoutDataINS_6VectorINS_10FabCopyTagINS_7BaseFabIN3Set7Matrix4ILi3ELi1EEEEEEESaIS8_EEEED2Ev
FNDA:0,_ZN5amrex10LayoutDataINS_6VectorINS_10FabCopyTagINS_7BaseFabIN3Set7Matrix4ILi3ELi1EEEEEEESaIS8_EEEED2Ev
FN:34,_ZN5amrex10LayoutDataINS_6VectorINS_10FabCopyTagINS_7BaseFabIN3Set7Matrix4ILi3ELi6EEEEEEESaIS8_EEEED2Ev
FNDA:0,_ZN5amrex10LayoutDataINS_6VectorINS_10FabCopyTagINS_7BaseFabIN3Set7Matrix4ILi3ELi6EEEEEEESaIS8_EEEED2Ev
FN:34,_ZN5amrex10LayoutDataINS_6VectorINS_10FabCopyTagINS_7BaseFabIN5Eigen6MatrixIdLi3ELi3ELi0ELi3ELi3EEEEEEESaIS8_EEEED2Ev
FNDA:0,_ZN5amrex10LayoutDataINS_6VectorINS_10FabCopyTagINS_7BaseFabIN5Eigen6MatrixIdLi3ELi3ELi0ELi3ELi3EEEEEEESaIS8_EEEED2Ev
FN:34,_ZN5amrex10LayoutDataINS_6VectorINS_10FabCopyTagINS_7BaseFabIN5Model5Solid6Linear5CubicEEEEESaIS9_EEEED2Ev
FNDA:0,_ZN5amrex10LayoutDataINS_6VectorINS_10FabCopyTagINS_7BaseFabIN5Model5Solid6Linear5CubicEEEEESaIS9_EEEED2Ev
FN:34,_ZN5amrex10LayoutDataINS_6VectorINS_10FabCopyTagINS_7BaseFabIN5Model5Solid6Affine5CubicEEEEESaIS9_EEEED2Ev
FNDA:0,_ZN5amrex10LayoutDataINS_6VectorINS_10FabCopyTagINS_7BaseFabIN5Model5Solid6Affine5CubicEEEEESaIS9_EEEED2Ev
FN:34,_ZN5amrex10LayoutDataINS_6VectorINS_10FabCopyTagINS_7BaseFabIN5Model5Solid6Affine9HexagonalEEEEESaIS9_EEEED2Ev
FNDA:0,_ZN5amrex10LayoutDataINS_6VectorINS_10FabCopyTagINS_7BaseFabIN5Model5Solid6Affine9HexagonalEEEEESaIS9_EEEED2Ev
FN:34,_ZN5amrex10LayoutDataINS_6VectorINS_10FabCopyTagINS_7BaseFabIN5Model5Solid6Linear9LaplacianEEEEESaIS9_EEEED2Ev
FNDA:0,_ZN5amrex10LayoutDataINS_6VectorINS_10FabCopyTagINS_7BaseFabIN5Model5Solid6Linear9LaplacianEEEEESaIS9_EEEED2Ev
FN:34,_ZN5amrex10LayoutDataINS_6VectorINS_10FabCopyTagINS_7BaseFabIN5Model5Solid6Linear9IsotropicEEEEESaIS9_EEEED2Ev
FNDA:0,_ZN5amrex10LayoutDataINS_6VectorINS_10FabCopyTagINS_7BaseFabIN5Model5Solid6Linear9IsotropicEEEEESaIS9_EEEED2Ev
FN:34,_ZN5amrex10LayoutDataINS_6VectorINS_10FabCopyTagINS_7BaseFabIN5Model5Solid7Elastic10NeoHookeanEEEEESaIS9_EEEED2Ev
FNDA:0,_ZN5amrex10LayoutDataINS_6VectorINS_10FabCopyTagINS_7BaseFabIN5Model5Solid7Elastic10NeoHookeanEEEEESaIS9_EEEED2Ev
FN:84,_ZN5amrex10LayoutDataINS_6VectorINS_10FabCopyTagINS_7BaseFabIN5Model5Solid6Affine9IsotropicEEEEESaIS9_EEEEixERKNS_6MFIterE
FNDA:0,_ZN5amrex10LayoutDataINS_6VectorINS_10FabCopyTagINS_7BaseFabIN5Model5Solid6Affine9IsotropicEEEEESaIS9_EEEEixERKNS_6MFIterE
FN:84,_ZN5amrex10LayoutDataINS_6VectorINS_10FabCopyTagINS_7BaseFabIN5Model5Solid6Linear5CubicEEEEESaIS9_EEEEixERKNS_6MFIterE
FNDA:0,_ZN5amrex10LayoutDataINS_6VectorINS_10FabCopyTagINS_7BaseFabIN5Model5Solid6Linear5CubicEEEEESaIS9_EEEEixERKNS_6MFIterE
FN:84,_ZN5amrex10LayoutDataINS_6VectorINS_10FabCopyTagINS_7BaseFabIN3Set7Matrix4ILi3ELi4EEEEEEESaIS8_EEEEixERKNS_6MFIterE
FNDA:0,_ZN5amrex10LayoutDataINS_6VectorINS_10FabCopyTagINS_7BaseFabIN3Set7Matrix4ILi3ELi4EEEEEEESaIS8_EEEEixERKNS_6MFIterE
FN:84,_ZN5amrex10LayoutDataINS_6VectorINS_10FabCopyTagINS_7BaseFabIN5Model5Solid6Affine9HexagonalEEEEESaIS9_EEEEixERKNS_6MFIterE
FNDA:0,_ZN5amrex10LayoutDataINS_6VectorINS_10FabCopyTagINS_7BaseFabIN5Model5Solid6Affine9HexagonalEEEEESaIS9_EEEEixERKNS_6MFIterE
FN:84,_ZN5amrex10LayoutDataINS_6VectorINS_10FabCopyTagINS_7BaseFabIN3Set7Matrix4ILi3ELi1EEEEEEESaIS8_EEEEixERKNS_6MFIterE
FNDA:0,_ZN5amrex10LayoutDataINS_6VectorINS_10FabCopyTagINS_7BaseFabIN3Set7Matrix4ILi3ELi1EEEEEEESaIS8_EEEEixERKNS_6MFIterE
FN:84,_ZN5amrex10LayoutDataINS_6VectorINS_10FabCopyTagINS_7BaseFabIN5Model5Solid6Affine5CubicEEEEESaIS9_EEEEixERKNS_6MFIterE
FNDA:0,_ZN5amrex10LayoutDataINS_6VectorINS_10FabCopyTagINS_7BaseFabIN5Model5Solid6Affine5CubicEEEEESaIS9_EEEEixERKNS_6MFIterE
FN:84,_ZN5amrex10LayoutDataINS_6VectorINS_10FabCopyTagINS_7BaseFabIN5Model5Solid7Elastic17PseudoLinearCubicEEEEESaIS9_EEEEixERKNS_6MFIterE
FNDA:0,_ZN5amrex10LayoutDataINS_6VectorINS_10FabCopyTagINS_7BaseFabIN5Model5Solid7Elastic17PseudoLinearCubicEEEEESaIS9_EEEEixERKNS_6MFIterE
FN:84,_ZN5amrex10LayoutDataINS_6VectorINS_10FabCopyTagINS_7BaseFabIN5Eigen6MatrixIdLi3ELi3ELi0ELi3ELi3EEEEEEESaIS8_EEEEixERKNS_6MFIterE
FNDA:0,_ZN5amrex10LayoutDataINS_6VectorINS_10FabCopyTagINS_7BaseFabIN5Eigen6MatrixIdLi3ELi3ELi0ELi3ELi3EEEEEEESaIS8_EEEEixERKNS_6MFIterE
FN:84,_ZN5amrex10LayoutDataINS_6VectorINS_10FabCopyTagINS_9FArrayBoxEEESaIS4_EEEEixERKNS_6MFIterE
FNDA:0,_ZN5amrex10LayoutDataINS_6VectorINS_10FabCopyTagINS_9FArrayBoxEEESaIS4_EEEEixERKNS_6MFIterE
FN:84,_ZN5amrex10LayoutDataINS_6VectorINS_10FabCopyTagINS_7BaseFabIN3Set7Matrix4ILi3ELi6EEEEEEESaIS8_EEEEixERKNS_6MFIterE
FNDA:0,_ZN5amrex10LayoutDataINS_6VectorINS_10FabCopyTagINS_7BaseFabIN3Set7Matrix4ILi3ELi6EEEEEEESaIS8_EEEEixERKNS_6MFIterE
FN:84,_ZN5amrex10LayoutDataINS_6VectorINS_10FabCopyTagINS_7BaseFabIN5Model5Solid6Linear19IsotropicDegradableEEEEESaIS9_EEEEixERKNS_6MFIterE
FNDA:0,_ZN5amrex10LayoutDataINS_6VectorINS_10FabCopyTagINS_7BaseFabIN5Model5Solid6Linear19IsotropicDegradableEEEEESaIS9_EEEEixERKNS_6MFIterE
FN:84,_ZN5amrex10LayoutDataINS_6VectorINS_10FabCopyTagINS_7BaseFabIN3Set7Matrix4ILi3ELi3EEEEEEESaIS8_EEEEixERKNS_6MFIterE
FNDA:0,_ZN5amrex10LayoutDataINS_6VectorINS_10FabCopyTagINS_7BaseFabIN3Set7Matrix4ILi3ELi3EEEEEEESaIS8_EEEEixERKNS_6MFIterE
FN:84,_ZN5amrex10LayoutDataINS_6VectorINS_10FabCopyTagINS_7BaseFabIdEEEESaIS5_EEEEixERKNS_6MFIterE
FNDA:0,_ZN5amrex10LayoutDataINS_6VectorINS_10FabCopyTagINS_7BaseFabIdEEEESaIS5_EEEEixERKNS_6MFIterE
FN:84,_ZN5amrex10LayoutDataINS_6VectorINS_10FabCopyTagINS_7BaseFabIN5Model5Solid6Linear9LaplacianEEEEESaIS9_EEEEixERKNS_6MFIterE
FNDA:0,_ZN5amrex10LayoutDataINS_6VectorINS_10FabCopyTagINS_7BaseFabIN5Model5Solid6Linear9LaplacianEEEEESaIS9_EEEEixERKNS_6MFIterE
FN:84,_ZN5amrex10LayoutDataINS_6VectorINS_11VoidCopyTagESaIS2_EEEEixERKNS_6MFIterE
FNDA:0,_ZN5amrex10LayoutDataINS_6VectorINS_11VoidCopyTagESaIS2_EEEEixERKNS_6MFIterE
FN:84,_ZN5amrex10LayoutDataINS_6VectorINS_10FabCopyTagINS_7BaseFabIN5Model5Solid6Affine2J2EEEEESaIS9_EEEEixERKNS_6MFIterE
FNDA:0,_ZN5amrex10LayoutDataINS_6VectorINS_10FabCopyTagINS_7BaseFabIN5Model5Solid6Affine2J2EEEEESaIS9_EEEEixERKNS_6MFIterE
FN:84,_ZN5amrex10LayoutDataINS_6VectorINS_10FabCopyTagINS_7BaseFabIN5Model5Solid7Elastic10NeoHookeanEEEEESaIS9_EEEEixERKNS_6MFIterE
FNDA:0,_ZN5amrex10LayoutDataINS_6VectorINS_10FabCopyTagINS_7BaseFabIN5Model5Solid7Elastic10NeoHookeanEEEEESaIS9_EEEEixERKNS_6MFIterE
FN:84,_ZN5amrex10LayoutDataINS_6VectorINS_10FabCopyTagINS_7BaseFabIN5Model5Solid6Linear9IsotropicEEEEESaIS9_EEEEixERKNS_6MFIterE
FNDA:0,_ZN5amrex10LayoutDataINS_6VectorINS_10FabCopyTagINS_7BaseFabIN5Model5Solid6Linear9IsotropicEEEEESaIS9_EEEEixERKNS_6MFIterE
FN:84,_ZN5amrex10LayoutDataINS_6VectorINS_10FabCopyTagINS_7BaseFabIN5Model5Solid7Elastic28PseudoLinearCubicPredeformedEEEEESaIS9_EEEEixERKNS_6MFIterE
FNDA:0,_ZN5amrex10LayoutDataINS_6VectorINS_10FabCopyTagINS_7BaseFabIN5Model5Solid7Elastic28PseudoLinearCubicPredeformedEEEEESaIS9_EEEEixERKNS_6MFIterE
FN:84,_ZN5amrex10LayoutDataINS_6VectorINS_10FabCopyTagINS_7BaseFabIN5Eigen6MatrixIdLi3ELi1ELi0ELi3ELi1EEEEEEESaIS8_EEEEixERKNS_6MFIterE
FNDA:0,_ZN5amrex10LayoutDataINS_6VectorINS_10FabCopyTagINS_7BaseFabIN5Eigen6MatrixIdLi3ELi1ELi0ELi3ELi1EEEEEEESaIS8_EEEEixERKNS_6MFIterE
FN:101,_ZN5amrex10LayoutDataINS_6VectorINS_10FabCopyTagINS_7BaseFabIN5Eigen6MatrixIdLi3ELi3ELi0ELi3ELi3EEEEEEESaIS8_EEEEixEi
FNDA:0,_ZN5amrex10LayoutDataINS_6VectorINS_10FabCopyTagINS_7BaseFabIN5Eigen6MatrixIdLi3ELi3ELi0ELi3ELi3EEEEEEESaIS8_EEEEixEi
FN:101,_ZN5amrex10LayoutDataINS_6VectorINS_10FabCopyTagINS_7BaseFabIN5Model5Solid6Linear9IsotropicEEEEESaIS9_EEEEixEi
FNDA:0,_ZN5amrex10LayoutDataINS_6VectorINS_10FabCopyTagINS_7BaseFabIN5Model5Solid6Linear9IsotropicEEEEESaIS9_EEEEixEi
FN:101,_ZN5amrex10LayoutDataINS_6VectorINS_10FabCopyTagINS_9FArrayBoxEEESaIS4_EEEEixEi
FNDA:0,_ZN5amrex10LayoutDataINS_6VectorINS_10FabCopyTagINS_9FArrayBoxEEESaIS4_EEEEixEi
FN:101,_ZN5amrex10LayoutDataINS_6VectorINS_10FabCopyTagINS_7BaseFabIN3Set7Matrix4ILi3ELi3EEEEEEESaIS8_EEEEixEi
FNDA:0,_ZN5amrex10LayoutDataINS_6VectorINS_10FabCopyTagINS_7BaseFabIN3Set7Matrix4ILi3ELi3EEEEEEESaIS8_EEEEixEi
FN:101,_ZN5amrex10LayoutDataINS_6VectorINS_11VoidCopyTagESaIS2_EEEEixEi
FNDA:0,_ZN5amrex10LayoutDataINS_6VectorINS_11VoidCopyTagESaIS2_EEEEixEi
FN:101,_ZN5amrex10LayoutDataINS_6VectorINS_10FabCopyTagINS_7BaseFabIN5Model5Solid6Linear19IsotropicDegradableEEEEESaIS9_EEEEixEi
FNDA:0,_ZN5amrex10LayoutDataINS_6VectorINS_10FabCopyTagINS_7BaseFabIN5Model5Solid6Linear19IsotropicDegradableEEEEESaIS9_EEEEixEi
FN:101,_ZN5amrex10LayoutDataINS_6VectorINS_10FabCopyTagINS_7BaseFabIN5Eigen6MatrixIdLi3ELi1ELi0ELi3ELi1EEEEEEESaIS8_EEEEixEi
FNDA:0,_ZN5amrex10LayoutDataINS_6VectorINS_10FabCopyTagINS_7BaseFabIN5Eigen6MatrixIdLi3ELi1ELi0ELi3ELi1EEEEEEESaIS8_EEEEixEi
FN:101,_ZN5amrex10LayoutDataINS_6VectorINS_10FabCopyTagINS_7BaseFabIN5Model5Solid6Linear5CubicEEEEESaIS9_EEEEixEi
FNDA:0,_ZN5amrex10LayoutDataINS_6VectorINS_10FabCopyTagINS_7BaseFabIN5Model5Solid6Linear5CubicEEEEESaIS9_EEEEixEi
FN:101,_ZN5amrex10LayoutDataINS_6VectorINS_10FabCopyTagINS_7BaseFabIN5Model5Solid6Affine9IsotropicEEEEESaIS9_EEEEixEi
FNDA:0,_ZN5amrex10LayoutDataINS_6VectorINS_10FabCopyTagINS_7BaseFabIN5Model5Solid6Affine9IsotropicEEEEESaIS9_EEEEixEi
FN:101,_ZN5amrex10LayoutDataINS_6VectorINS_10FabCopyTagINS_7BaseFabIN3Set7Matrix4ILi3ELi4EEEEEEESaIS8_EEEEixEi
FNDA:0,_ZN5amrex10LayoutDataINS_6VectorINS_10FabCopyTagINS_7BaseFabIN3Set7Matrix4ILi3ELi4EEEEEEESaIS8_EEEEixEi
FN:101,_ZN5amrex10LayoutDataINS_6VectorINS_10FabCopyTagINS_7BaseFabIN3Set7Matrix4ILi3ELi1EEEEEEESaIS8_EEEEixEi
FNDA:0,_ZN5amrex10LayoutDataINS_6VectorINS_10FabCopyTagINS_7BaseFabIN3Set7Matrix4ILi3ELi1EEEEEEESaIS8_EEEEixEi
FN:101,_ZN5amrex10LayoutDataINS_6VectorINS_10FabCopyTagINS_7BaseFabIN5Model5Solid6Affine5CubicEEEEESaIS9_EEEEixEi
FNDA:0,_ZN5amrex10LayoutDataINS_6VectorINS_10FabCopyTagINS_7BaseFabIN5Model5Solid6Affine5CubicEEEEESaIS9_EEEEixEi
FN:101,_ZN5amrex10LayoutDataINS_6VectorINS_10FabCopyTagINS_7BaseFabIN3Set7Matrix4ILi3ELi6EEEEEEESaIS8_EEEEixEi
FNDA:0,_ZN5amrex10LayoutDataINS_6VectorINS_10FabCopyTagINS_7BaseFabIN3Set7Matrix4ILi3ELi6EEEEEEESaIS8_EEEEixEi
FN:101,_ZN5amrex10LayoutDataINS_6VectorINS_10FabCopyTagINS_7BaseFabIN5Model5Solid6Affine9HexagonalEEEEESaIS9_EEEEixEi
FNDA:0,_ZN5amrex10LayoutDataINS_6VectorINS_10FabCopyTagINS_7BaseFabIN5Model5Solid6Affine9HexagonalEEEEESaIS9_EEEEixEi
FN:101,_ZN5amrex10LayoutDataINS_6VectorINS_10FabCopyTagINS_7BaseFabIdEEEESaIS5_EEEEixEi
FNDA:0,_ZN5amrex10LayoutDataINS_6VectorINS_10FabCopyTagINS_7BaseFabIdEEEESaIS5_EEEEixEi
FN:101,_ZN5amrex10LayoutDataINS_6VectorINS_10FabCopyTagINS_7BaseFabIN5Model5Solid6Linear9LaplacianEEEEESaIS9_EEEEixEi
FNDA:0,_ZN5amrex10LayoutDataINS_6VectorINS_10FabCopyTagINS_7BaseFabIN5Model5Solid6Linear9LaplacianEEEEESaIS9_EEEEixEi
FN:101,_ZN5amrex10LayoutDataINS_6VectorINS_10FabCopyTagINS_7BaseFabIN5Model5Solid6Affine2J2EEEEESaIS9_EEEEixEi
FNDA:0,_ZN5amrex10LayoutDataINS_6VectorINS_10FabCopyTagINS_7BaseFabIN5Model5Solid6Affine2J2EEEEESaIS9_EEEEixEi
FN:101,_ZN5amrex10LayoutDataINS_6VectorINS_10FabCopyTagINS_7BaseFabIN5Model5Solid7Elastic28PseudoLinearCubicPredeformedEEEEESaIS9_EEEEixEi
FNDA:0,_ZN5amrex10LayoutDataINS_6VectorINS_10FabCopyTagINS_7BaseFabIN5Model5Solid7Elastic28PseudoLinearCubicPredeformedEEEEESaIS9_EEEEixEi
FN:101,_ZN5amrex10LayoutDataINS_6VectorINS_10FabCopyTagINS_7BaseFabIN5Model5Solid7Elastic10NeoHookeanEEEEESaIS9_EEEEixEi
FNDA:0,_ZN5amrex10LayoutDataINS_6VectorINS_10FabCopyTagINS_7BaseFabIN5Model5Solid7Elastic10NeoHookeanEEEEESaIS9_EEEEixEi
FN:101,_ZN5amrex10LayoutDataINS_6VectorINS_10FabCopyTagINS_7BaseFabIN5Model5Solid7Elastic17PseudoLinearCubicEEEEESaIS9_EEEEixEi
FNDA:0,_ZN5amrex10LayoutDataINS_6VectorINS_10FabCopyTagINS_7BaseFabIN5Model5Solid7Elastic17PseudoLinearCubicEEEEESaIS9_EEEEixEi
DA:17,0
DA:19,0
DA:21,0
DA:22,0
DA:23,0
DA:19,0
DA:21,0
DA:22,0
DA:23,0
DA:19,0
DA:21,0
DA:22,0
DA:23,0
DA:19,0
DA:21,0
DA:22,0
DA:23,0
DA:19,0
DA:21,0
DA:22,0
DA:23,0
DA:19,0
DA:21,0
DA:22,0
DA:23,0
DA:19,0
DA:21,0
DA:22,0
DA:23,0
DA:19,0
DA:21,0
DA:22,0
DA:23,0
DA:19,0
DA:21,0
DA:22,0
DA:23,0
DA:19,0
DA:21,0
DA:22,0
DA:23,0
DA:19,0
DA:21,0
DA:22,0
DA:23,0
DA:19,0
DA:21,0
DA:22,0
DA:23,0
DA:19,0
DA:21,0
DA:22,0
DA:23,0
DA:19,0
DA:21,0
DA:22,0
DA:23,0
DA:19,0
DA:21,0
DA:22,0
DA:23,0
DA:19,0
DA:21,0
DA:22,0
DA:23,0
DA:19,0
DA:21,0
DA:22,0
DA:23,0
DA:19,0
DA:21,0
DA:22,0
DA:23,0
DA:19,0
DA:21,0
DA:22,0
DA:23,0
DA:25,0
DA:28,0
DA:29,0
DA:30,0
DA:31,0
DA:32,0
DA:25,0
DA:28,0
DA:29,0
DA:30,0
DA:31,0
DA:32,0
DA:25,0
DA:28,0
DA:29,0
DA:30,0
DA:31,0
DA:32,0
DA:25,0
DA:28,0
DA:29,0
DA:30,0
DA:31,0
DA:32,0
DA:25,0
DA:28,0
DA:29,0
DA:30,0
DA:31,0
DA:32,0
DA:25,0
DA:28,0
DA:29,0
DA:30,0
DA:31,0
DA:32,0
DA:25,0
DA:28,0
DA:29,0
DA:30,0
DA:31,0
DA:32,0
DA:25,0
DA:28,0
DA:29,0
DA:30,0
DA:31,0
DA:32,0
DA:25,0
DA:28,0
DA:29,0
DA:30,0
DA:31,0
DA:32,0
DA:25,0
DA:28,0
DA:29,0
DA:30,0
DA:31,0
DA:32,0
DA:25,0
DA:28,0
DA:29,0
DA:30,0
DA:31,0
DA:32,0
DA:25,0
DA:28,0
DA:29,0
DA:30,0
DA:31,0
DA:32,0
DA:25,0
DA:28,0
DA:29,0
DA:30,0
DA:31,0
DA:32,0
DA:25,0
DA:28,0
DA:29,0
DA:30,0
DA:31,0
DA:32,0
DA:25,0
DA:28,0
DA:29,0
DA:30,0
DA:31,0
DA:32,0
DA:25,0
DA:28,0
DA:29,0
DA:30,0
DA:31,0
DA:32,0
DA:25,0
DA:28,0
DA:29,0
DA:30,0
DA:31,0
DA:32,0
DA:25,0
DA:28,0
DA:29,0
DA:30,0
DA:31,0
DA:32,0
DA:25,0
DA:28,0
DA:29,0
DA:30,0
DA:31,0
DA:32,0
DA:25,0
DA:28,0
DA:29,0
DA:30,0
DA:31,0
DA:32,0
DA:34,0
DA:34,0
DA:34,0
DA:34,0
DA:34,0
DA:34,0
DA:34,0
DA:34,0
DA:34,0
DA:34,0
DA:34,0
DA:34,0
DA:34,0
DA:34,0
DA:34,0
DA:34,0
DA:34,0
DA:34,0
DA:34,0
DA:34,0
DA:84,0
DA:86,0
DA:89,0
DA:84,0
DA:86,0
DA:89,0
DA:84,0
DA:86,0
DA:89,0
DA:84,0
DA:86,0
DA:89,0
DA:84,0
DA:86,0
DA:89,0
DA:84,0
DA:86,0
DA:89,0
DA:84,0
DA:86,0
DA:89,0
DA:84,0
DA:86,0
DA:89,0
DA:84,0
DA:86,0
DA:89,0
DA:84,0
DA:86,0
DA:89,0
DA:84,0
DA:86,0
DA:89,0
DA:84,0
DA:86,0
DA:89,0
DA:84,0
DA:86,0
DA:89,0
DA:84,0
DA:86,0
DA:89,0
DA:84,0
DA:86,0
DA:89,0
DA:84,0
DA:86,0
DA:89,0
DA:84,0
DA:86,0
DA:89,0
DA:84,0
DA:86,0
DA:89,0
DA:84,0
DA:86,0
DA:89,0
DA:84,0
DA:86,0
DA:89,0
DA:101,0
DA:103,0
DA:105,0
DA:101,0
DA:103,0
DA:105,0
DA:101,0
DA:103,0
DA:105,0
DA:101,0
DA:103,0
DA:105,0
DA:101,0
DA:103,0
DA:105,0
DA:101,0
DA:103,0
DA:105,0
DA:101,0
DA:103,0
DA:105,0
DA:101,0
DA:103,0
DA:105,0
DA:101,0
DA:103,0
DA:105,0
DA:101,0
DA:103,0
DA:105,0
DA:101,0
DA:103,0
DA:105,0
DA:101,0
DA:103,0
DA:105,0
DA:101,0
DA:103,0
DA:105,0
DA:101,0
DA:103,0
DA:105,0
DA:101,0
DA:103,0
DA:105,0
DA:101,0
DA:103,0
DA:105,0
DA:101,0
DA:103,0
DA:105,0
DA:101,0
DA:103,0
DA:105,0
DA:101,0
DA:103,0
DA:105,0
DA:101,0
DA:103,0
DA:105,0
end_of_record
SF:/home/brunnels/Research/alamo/ext/amrex/3d-coverage-g++-23.08/include/AMReX_MultiFab.H
FN:37,_ZN5amrex8MultiFabaSEOS0_
FNDA:0,_ZN5amrex8MultiFabaSEOS0_
DA:37,0
end_of_record
SF:/home/brunnels/Research/alamo/src/Set/Matrix4_MajorMinor.H
FN:242,_ZN3Set7Matrix4ILi3ELi3EEC2Ev
FNDA:0,_ZN3Set7Matrix4ILi3ELi3EEC2Ev
FN:341,_ZN3Set7Matrix4ILi3ELi3EE5PrintERSo
FNDA:0,_ZN3Set7Matrix4ILi3ELi3EE5PrintERSo
FN:378,_ZNK3Set7Matrix4ILi3ELi3EE12contains_nanEv
FNDA:0,_ZNK3Set7Matrix4ILi3ELi3EE12contains_nanEv
FN:405,_ZN3Set7Matrix4ILi3ELi3EEpLES1_
FNDA:0,_ZN3Set7Matrix4ILi3ELi3EEpLES1_
FN:424,_ZN3Set7Matrix4ILi3ELi3EE4ZeroEv
FNDA:0,_ZN3Set7Matrix4ILi3ELi3EE4ZeroEv
FN:430,_ZN3Set7Matrix4ILi3ELi3EE5CubicEdddN5Eigen6MatrixIdLi3ELi3ELi0ELi3ELi3EEE
FNDA:0,_ZN3Set7Matrix4ILi3ELi3EE5CubicEdddN5Eigen6MatrixIdLi3ELi3ELi0ELi3ELi3EEE
FN:460,_ZN3Set7Matrix4ILi3ELi3EE5CubicEdddddd
FNDA:0,_ZN3Set7Matrix4ILi3ELi3EE5CubicEdddddd
DA:242,0
DA:246,24300000
DA:248,24300000
DA:250,24000000
DA:252,22800000
DA:254,21600000
DA:256,21000000
DA:258,19800000
DA:260,19200000
DA:262,18000000
DA:264,15600000
DA:266,14400000
DA:268,12000000
DA:270,10800000
DA:272,9600000
DA:274,8400000
DA:276,6000000
DA:278,4800000
DA:280,4500000
DA:282,3300000
DA:284,2700000
DA:286,1500000
DA:288,300000
DA:289,0
DA:290,0
DA:295,0
DA:297,0
DA:299,0
DA:301,0
DA:303,0
DA:305,0
DA:307,0
DA:309,0
DA:311,0
DA:313,0
DA:315,0
DA:317,0
DA:319,0
DA:321,0
DA:323,0
DA:325,0
DA:327,0
DA:329,0
DA:331,0
DA:333,0
DA:335,0
DA:337,0
DA:338,0
DA:339,0
DA:341,0
DA:343,0
DA:344,0
DA:346,0
DA:347,0
DA:349,0
DA:351,0
DA:353,0
DA:354,0
DA:357,0
DA:358,0
DA:360,0
DA:361,0
DA:362,0
DA:364,0
DA:367,0
DA:370,0
DA:378,0
DA:380,0
DA:381,0
DA:382,0
DA:383,0
DA:384,0
DA:385,0
DA:386,0
DA:387,0
DA:388,0
DA:389,0
DA:390,0
DA:391,0
DA:392,0
DA:393,0
DA:394,0
DA:395,0
DA:396,0
DA:397,0
DA:398,0
DA:399,0
DA:400,0
DA:401,0
DA:405,0
DA:424,0
DA:426,0
DA:427,0
DA:428,0
DA:430,0
DA:433,0
DA:436,0
DA:437,0
DA:438,0
DA:439,0
DA:441,0
DA:442,0
DA:443,0
DA:444,0
DA:446,0
DA:447,0
DA:448,0
DA:449,0
DA:451,0
DA:452,0
DA:453,0
DA:454,0
DA:455,0
DA:456,0
DA:458,0
DA:460,0
DA:463,0
DA:464,0
DA:465,0
DA:466,0
DA:467,0
DA:487,0
DA:488,0
DA:489,0
DA:494,0
DA:495,0
DA:496,0
DA:501,2916
DA:502,64152
DA:503,2916
DA:515,0
DA:516,0
DA:517,0
DA:518,0
DA:519,0
DA:520,0
DA:521,0
DA:523,0
DA:524,0
DA:525,0
DA:527,0
end_of_record
SF:/home/brunnels/Research/alamo/src/Set/Matrix4_Isotropic.H
FN:14,_ZN3Set7Matrix4ILi3ELi6EEC2Ev
FNDA:0,_ZN3Set7Matrix4ILi3ELi6EEC2Ev
FN:15,_ZN3Set7Matrix4ILi3ELi6EEC2Edd
FNDA:0,_ZN3Set7Matrix4ILi3ELi6EEC2Edd
FN:37,_ZN3Set7Matrix4ILi3ELi6EE5PrintERSo
FNDA:0,_ZN3Set7Matrix4ILi3ELi6EE5PrintERSo
FN:41,_ZNK3Set7Matrix4ILi3ELi6EE6LambdaEv
FNDA:0,_ZNK3Set7Matrix4ILi3ELi6EE6LambdaEv
FN:45,_ZNK3Set7Matrix4ILi3ELi6EE2MuEv
FNDA:0,_ZNK3Set7Matrix4ILi3ELi6EE2MuEv
FN:49,_ZN3Set7Matrix4ILi3ELi6EE4ZeroEv
FNDA:0,_ZN3Set7Matrix4ILi3ELi6EE4ZeroEv
FN:73,_ZN3Set7Matrix4ILi3ELi6EE7InverseEv
FNDA:0,_ZN3Set7Matrix4ILi3ELi6EE7InverseEv
FN:90,_ZN3Set7Matrix4ILi3ELi6EEpLERKS1_
FNDA:0,_ZN3Set7Matrix4ILi3ELi6EEpLERKS1_
FN:102,_ZNK3Set7Matrix4ILi3ELi6EE12contains_nanEv
FNDA:0,_ZNK3Set7Matrix4ILi3ELi6EE12contains_nanEv
DA:14,0
DA:15,0
DA:37,0
DA:39,0
DA:40,0
DA:41,0
DA:43,0
DA:45,0
DA:47,0
DA:49,0
DA:51,0
DA:52,0
DA:53,0
DA:54,0
DA:73,0
DA:75,0
DA:76,0
DA:77,0
DA:78,0
DA:90,0
DA:102,0
DA:104,0
DA:105,0
DA:106,0
DA:112,0
DA:120,0
DA:121,0
DA:122,0
DA:123,0
DA:124,0
DA:125,0
DA:128,0
DA:146,729
DA:147,729
DA:148,729
DA:149,729
DA:175,0
DA:176,0
DA:177,0
DA:178,0
DA:185,0
DA:186,0
DA:187,0
DA:188,0
end_of_record
SF:/home/brunnels/Research/alamo/ext/amrex/3d-coverage-g++-23.08/include/AMReX_RealBox.H
FN:45,_ZNKR5amrex7RealBox2loEv
FNDA:0,_ZNKR5amrex7RealBox2loEv
FN:50,_ZNKR5amrex7RealBox2hiEv
FNDA:0,_ZNKR5amrex7RealBox2hiEv
FN:55,_ZNK5amrex7RealBox2loEi
FNDA:0,_ZNK5amrex7RealBox2loEi
FN:58,_ZNK5amrex7RealBox2hiEi
FNDA:0,_ZNK5amrex7RealBox2hiEi
DA:45,0
DA:50,0
DA:55,0
DA:58,0
end_of_record
SF:/home/brunnels/Research/alamo/ext/amrex/3d-coverage-g++-23.08/include/AMReX_Box.H
FN:85,_ZN5amrex3BoxC2ERKNS_7IntVectES3_NS_9IndexTypeE
FNDA:0,_ZN5amrex3BoxC2ERKNS_7IntVectES3_NS_9IndexTypeE
FN:102,_ZNKR5amrex3Box8smallEndEv
FNDA:0,_ZNKR5amrex3Box8smallEndEv
FN:113,_ZNKR5amrex3Box6bigEndEv
FNDA:0,_ZNKR5amrex3Box6bigEndEv
FN:154,_ZNK5amrex3Box6lengthEi
FNDA:0,_ZNK5amrex3Box6lengthEi
FN:213,_ZNK5amrex3Box2okEv
FNDA:0,_ZNK5amrex3Box2okEv
FN:305,_ZNK5amrex3BoxeqERKS0_
FNDA:0,_ZNK5amrex3BoxeqERKS0_
FN:309,_ZNK5amrex3BoxneERKS0_
FNDA:0,_ZNK5amrex3BoxneERKS0_
FN:340,_ZNK5amrex3Box6numPtsEv
FNDA:0,_ZNK5amrex3Box6numPtsEv
FN:536,_ZNK5amrex3BoxanERKS0_
FNDA:0,_ZNK5amrex3BoxanERKS0_
FN:540,_ZN5amrex3BoxaNERKS0_
FNDA:0,_ZN5amrex3BoxaNERKS0_
FN:598,_ZN5amrex3Box4growEi
FNDA:0,_ZN5amrex3Box4growEi
FN:602,_ZN5amrex3Box4growERKNS_7IntVectE
FNDA:0,_ZN5amrex3Box4growERKNS_7IntVectE
FN:609,_ZN5amrex3Box4growEii
FNDA:0,_ZN5amrex3Box4growEii
FN:1129,_ZN5amrex12BoxConverterD0Ev
FNDA:0,_ZN5amrex12BoxConverterD0Ev
FN:1129,_ZN5amrex12BoxConverterD2Ev
FNDA:0,_ZN5amrex12BoxConverterD2Ev
DA:85,0
DA:86,0
DA:88,0
DA:89,0
DA:102,0
DA:113,0
DA:154,0
DA:213,0
DA:305,0
DA:309,0
DA:340,0
DA:341,0
DA:536,0
DA:540,0
DA:543,0
DA:544,0
DA:545,0
DA:598,0
DA:602,0
DA:609,0
DA:794,0
DA:796,0
DA:798,0
DA:800,0
DA:801,0
DA:803,0
DA:804,0
DA:807,0
DA:808,0
DA:812,0
DA:816,0
DA:825,2400
DA:826,1200
DA:827,1200
DA:828,1200
DA:836,0
DA:838,0
DA:839,0
DA:840,0
DA:841,0
DA:842,0
DA:844,0
DA:898,0
DA:899,0
DA:900,0
DA:903,0
DA:904,0
DA:1129,0
DA:1129,0
DA:1155,0
DA:1156,0
DA:1157,0
DA:1248,0
DA:1250,0
DA:1361,0
DA:1362,0
DA:1363,0
DA:1399,0
DA:1401,0
DA:1596,311384
DA:1610,312984
DA:1624,2416
DA:1638,2416
end_of_record
SF:/home/brunnels/Research/alamo/src/Integrator/HeatConduction.H
FN:44,_ZN10Integrator14HeatConductionC1Ei
FNDA:1,_ZN10Integrator14HeatConductionC1Ei
FN:44,_ZN10Integrator14HeatConductionC2Ei
FNDA:0,_ZN10Integrator14HeatConductionC2Ei
FN:50,_ZN10Integrator14HeatConductionC1ERN2IO9ParmParseE
FNDA:1,_ZN10Integrator14HeatConductionC1ERN2IO9ParmParseE
FN:61,_ZN10Integrator14HeatConduction5ParseERS0_RN2IO9ParmParseE
FNDA:1,_ZN10Integrator14HeatConduction5ParseERS0_RN2IO9ParmParseE
FN:90,_ZN10Integrator14HeatConduction10InitializeEi
FNDA:6,_ZN10Integrator14HeatConduction10InitializeEi
FN:96,_ZN10Integrator14HeatConduction7AdvanceEidd
FNDA:30,_ZN10Integrator14HeatConduction7AdvanceEidd
FN:116,_ZZN10Integrator14HeatConduction7AdvanceEiddENKUliiiE_clEiii
FNDA:835328,_ZZN10Integrator14HeatConduction7AdvanceEiddENKUliiiE_clEiii
FN:127,_ZN10Integrator14HeatConduction21TagCellsForRefinementEiRN5amrex11TagBoxArrayEdi
FNDA:15,_ZN10Integrator14HeatConduction21TagCellsForRefinementEiRN5amrex11TagBoxArrayEdi
FN:143,_ZZN10Integrator14HeatConduction21TagCellsForRefinementEiRN5amrex11TagBoxArrayEdiENKUliiiE_clEiii
FNDA:78784,_ZZN10Integrator14HeatConduction21TagCellsForRefinementEiRN5amrex11TagBoxArrayEdiENKUliiiE_clEiii
DA:44,1
DA:46,1
DA:47,1
DA:44,0
DA:46,0
DA:47,0
DA:50,1
DA:52,1
DA:53,1
DA:61,1
DA:64,1
DA:66,1
DA:68,1
DA:70,1
DA:71,1
DA:72,0
DA:73,0
DA:74,0
DA:77,1
DA:79,1
DA:83,1
DA:84,1
DA:85,1
DA:90,6
DA:92,6
DA:93,6
DA:96,30
DA:100,30
DA:103,30
DA:106,1440
DA:109,1410
DA:112,1410
DA:113,1410
DA:116,1410
DA:121,2505980
DA:122,835328
DA:124,30
DA:127,15
DA:130,15
DA:132,15
DA:135,144
DA:138,129
DA:139,129
DA:140,129
DA:143,129
DA:146,78784
DA:150,78784
DA:151,44286
DA:152,78784
DA:154,15
end_of_record
SF:/home/brunnels/Research/alamo/ext/amrex/3d-coverage-g++-23.08/include/AMReX_Interpolater.H
FN:75,_ZN5amrex12Interpolater11interp_faceERKNS_9FArrayBoxEiRS1_iiRKNS_3BoxERKNS_7IntVectERKNS_9IArrayBoxERKNS_8GeometryESG_RKNS_6VectorINS_5BCRecESaISI_EEEiNS_5RunOnE
FNDA:0,_ZN5amrex12Interpolater11interp_faceERKNS_9FArrayBoxEiRS1_iiRKNS_3BoxERKNS_7IntVectERKNS_9IArrayBoxERKNS_8GeometryESG_RKNS_6VectorINS_5BCRecESaISI_EEEiNS_5RunOnE
FN:109,_ZN5amrex12Interpolater10interp_arrERKSt5arrayIPNS_9FArrayBoxELm3EEiS6_iiRKNS_3BoxERKNS_7IntVectERKS1_IPNS_9IArrayBoxELm3EERKNS_8GeometryESK_RKNS_6VectorIS1_INS_5BCRecELm3EESaISN_EEEiiNS_5RunOnE
FNDA:0,_ZN5amrex12Interpolater10interp_arrERKSt5arrayIPNS_9FArrayBoxELm3EEiS6_iiRKNS_3BoxERKNS_7IntVectERKS1_IPNS_9IArrayBoxELm3EERKNS_8GeometryESK_RKNS_6VectorIS1_INS_5BCRecELm3EESaISN_EEEiiNS_5RunOnE
FN:142,_ZN5amrex12Interpolater7protectERKNS_9FArrayBoxEiRS1_iS4_iiRKNS_3BoxERKNS_7IntVectERKNS_8GeometryESD_RNS_6VectorINS_5BCRecESaISF_EEENS_5RunOnE
FNDA:0,_ZN5amrex12Interpolater7protectERKNS_9FArrayBoxEiRS1_iS4_iiRKNS_3BoxERKNS_7IntVectERKNS_8GeometryESD_RNS_6VectorINS_5BCRecESaISF_EEENS_5RunOnE
DA:75,0
DA:88,0
DA:109,0
DA:124,0
DA:142,0
DA:154,0
end_of_record
SF:/home/brunnels/Research/alamo/src/Model/Interface/GB/Sin.H
FN:23,_ZN5Model9Interface2GB3SinC2ERN2IO9ParmParseENSt7__cxx1112basic_stringIcSt11char_traitsIcESaIcEEE
FNDA:0,_ZN5Model9Interface2GB3SinC2ERN2IO9ParmParseENSt7__cxx1112basic_stringIcSt11char_traitsIcESaIcEEE
FN:40,_ZNK5Model9Interface2GB3Sin1WEd
FNDA:0,_ZNK5Model9Interface2GB3Sin1WEd
FN:44,_ZNK5Model9Interface2GB3Sin2DWEd
FNDA:0,_ZNK5Model9Interface2GB3Sin2DWEd
FN:48,_ZNK5Model9Interface2GB3Sin3DDWEd
FNDA:0,_ZNK5Model9Interface2GB3Sin3DDWEd
FN:57,_ZN5Model9Interface2GB3Sin5ParseERS2_RN5amrex9ParmParseE
FNDA:0,_ZN5Model9Interface2GB3Sin5ParseERS2_RN5amrex9ParmParseE
DA:23,0
DA:40,0
DA:42,0
DA:44,0
DA:46,0
DA:48,0
DA:50,0
DA:57,0
DA:59,0
DA:60,0
DA:61,0
DA:62,0
DA:63,0
DA:64,0
end_of_record
SF:/home/brunnels/Research/alamo/ext/amrex/3d-coverage-g++-23.08/include/AMReX_MultiFabUtil.H
FN:426,_ZN5amrex18average_down_nodalINS_7BaseFabIN5Model5Solid6Linear19IsotropicDegradableEEEEEvRKNS_8FabArrayIT_EERS9_RKNS_7IntVectEib
FNDA:0,_ZN5amrex18average_down_nodalINS_7BaseFabIN5Model5Solid6Linear19IsotropicDegradableEEEEEvRKNS_8FabArrayIT_EERS9_RKNS_7IntVectEib
FN:426,_ZN5amrex18average_down_nodalINS_7BaseFabIN5Eigen6MatrixIdLi3ELi1ELi0ELi3ELi1EEEEEEEvRKNS_8FabArrayIT_EERS8_RKNS_7IntVectEib
FNDA:0,_ZN5amrex18average_down_nodalINS_7BaseFabIN5Eigen6MatrixIdLi3ELi1ELi0ELi3ELi1EEEEEEEvRKNS_8FabArrayIT_EERS8_RKNS_7IntVectEib
FN:426,_ZN5amrex18average_down_nodalINS_7BaseFabIN5Eigen6MatrixIdLi3ELi3ELi0ELi3ELi3EEEEEEEvRKNS_8FabArrayIT_EERS8_RKNS_7IntVectEib
FNDA:0,_ZN5amrex18average_down_nodalINS_7BaseFabIN5Eigen6MatrixIdLi3ELi3ELi0ELi3ELi3EEEEEEEvRKNS_8FabArrayIT_EERS8_RKNS_7IntVectEib
FN:426,_ZN5amrex18average_down_nodalINS_7BaseFabIN5Model5Solid6Affine9IsotropicEEEEEvRKNS_8FabArrayIT_EERS9_RKNS_7IntVectEib
FNDA:0,_ZN5amrex18average_down_nodalINS_7BaseFabIN5Model5Solid6Affine9IsotropicEEEEEvRKNS_8FabArrayIT_EERS9_RKNS_7IntVectEib
FN:426,_ZN5amrex18average_down_nodalINS_7BaseFabIN5Model5Solid6Linear9IsotropicEEEEEvRKNS_8FabArrayIT_EERS9_RKNS_7IntVectEib
FNDA:0,_ZN5amrex18average_down_nodalINS_7BaseFabIN5Model5Solid6Linear9IsotropicEEEEEvRKNS_8FabArrayIT_EERS9_RKNS_7IntVectEib
FN:426,_ZN5amrex18average_down_nodalINS_7BaseFabIN5Model5Solid6Linear5CubicEEEEEvRKNS_8FabArrayIT_EERS9_RKNS_7IntVectEib
FNDA:0,_ZN5amrex18average_down_nodalINS_7BaseFabIN5Model5Solid6Linear5CubicEEEEEvRKNS_8FabArrayIT_EERS9_RKNS_7IntVectEib
FN:426,_ZN5amrex18average_down_nodalINS_7BaseFabIN5Model5Solid6Affine5CubicEEEEEvRKNS_8FabArrayIT_EERS9_RKNS_7IntVectEib
FNDA:0,_ZN5amrex18average_down_nodalINS_7BaseFabIN5Model5Solid6Affine5CubicEEEEEvRKNS_8FabArrayIT_EERS9_RKNS_7IntVectEib
FN:426,_ZN5amrex18average_down_nodalINS_7BaseFabIN5Model5Solid6Affine9HexagonalEEEEEvRKNS_8FabArrayIT_EERS9_RKNS_7IntVectEib
FNDA:0,_ZN5amrex18average_down_nodalINS_7BaseFabIN5Model5Solid6Affine9HexagonalEEEEEvRKNS_8FabArrayIT_EERS9_RKNS_7IntVectEib
FN:426,_ZN5amrex18average_down_nodalINS_7BaseFabIN5Model5Solid6Linear9LaplacianEEEEEvRKNS_8FabArrayIT_EERS9_RKNS_7IntVectEib
FNDA:0,_ZN5amrex18average_down_nodalINS_7BaseFabIN5Model5Solid6Linear9LaplacianEEEEEvRKNS_8FabArrayIT_EERS9_RKNS_7IntVectEib
FN:426,_ZN5amrex18average_down_nodalINS_7BaseFabIN5Model5Solid7Elastic10NeoHookeanEEEEEvRKNS_8FabArrayIT_EERS9_RKNS_7IntVectEib
FNDA:0,_ZN5amrex18average_down_nodalINS_7BaseFabIN5Model5Solid7Elastic10NeoHookeanEEEEEvRKNS_8FabArrayIT_EERS9_RKNS_7IntVectEib
FN:426,_ZN5amrex18average_down_nodalINS_7BaseFabIN5Model5Solid7Elastic17PseudoLinearCubicEEEEEvRKNS_8FabArrayIT_EERS9_RKNS_7IntVectEib
FNDA:0,_ZN5amrex18average_down_nodalINS_7BaseFabIN5Model5Solid7Elastic17PseudoLinearCubicEEEEEvRKNS_8FabArrayIT_EERS9_RKNS_7IntVectEib
FN:426,_ZN5amrex18average_down_nodalINS_7BaseFabIN5Model5Solid7Elastic28PseudoLinearCubicPredeformedEEEEEvRKNS_8FabArrayIT_EERS9_RKNS_7IntVectEib
FNDA:0,_ZN5amrex18average_down_nodalINS_7BaseFabIN5Model5Solid7Elastic28PseudoLinearCubicPredeformedEEEEEvRKNS_8FabArrayIT_EERS9_RKNS_7IntVectEib
FN:426,_ZN5amrex18average_down_nodalINS_7BaseFabIN5Model5Solid6Affine2J2EEEEEvRKNS_8FabArrayIT_EERS9_RKNS_7IntVectEib
FNDA:0,_ZN5amrex18average_down_nodalINS_7BaseFabIN5Model5Solid6Affine2J2EEEEEvRKNS_8FabArrayIT_EERS9_RKNS_7IntVectEib
DA:426,0
DA:433,0
DA:436,0
DA:441,0
DA:443,0
DA:444,0
DA:445,0
DA:447,0
DA:455,0
DA:457,0
DA:458,0
DA:460,0
DA:426,0
DA:433,0
DA:436,0
DA:441,0
DA:443,0
DA:444,0
DA:445,0
DA:447,0
DA:455,0
DA:457,0
DA:458,0
DA:460,0
DA:426,0
DA:433,0
DA:436,0
DA:441,0
DA:443,0
DA:444,0
DA:445,0
DA:447,0
DA:455,0
DA:457,0
DA:458,0
DA:460,0
DA:426,0
DA:433,0
DA:436,0
DA:441,0
DA:443,0
DA:444,0
DA:445,0
DA:447,0
DA:455,0
DA:457,0
DA:458,0
DA:460,0
DA:426,0
DA:433,0
DA:436,0
DA:441,0
DA:443,0
DA:444,0
DA:445,0
DA:447,0
DA:455,0
DA:457,0
DA:458,0
DA:460,0
DA:426,0
DA:433,0
DA:436,0
DA:441,0
DA:443,0
DA:444,0
DA:445,0
DA:447,0
DA:455,0
DA:457,0
DA:458,0
DA:460,0
DA:426,0
DA:433,0
DA:436,0
DA:441,0
DA:443,0
DA:444,0
DA:445,0
DA:447,0
DA:455,0
DA:457,0
DA:458,0
DA:460,0
DA:426,0
DA:433,0
DA:436,0
DA:441,0
DA:443,0
DA:444,0
DA:445,0
DA:447,0
DA:455,0
DA:457,0
DA:458,0
DA:460,0
DA:426,0
DA:433,0
DA:436,0
DA:441,0
DA:443,0
DA:444,0
DA:445,0
DA:447,0
DA:455,0
DA:457,0
DA:458,0
DA:460,0
DA:426,0
DA:433,0
DA:436,0
DA:441,0
DA:443,0
DA:444,0
DA:445,0
DA:447,0
DA:455,0
DA:457,0
DA:458,0
DA:460,0
DA:426,0
DA:433,0
DA:436,0
DA:441,0
DA:443,0
DA:444,0
DA:445,0
DA:447,0
DA:455,0
DA:457,0
DA:458,0
DA:460,0
DA:426,0
DA:433,0
DA:436,0
DA:441,0
DA:443,0
DA:444,0
DA:445,0
DA:447,0
DA:455,0
DA:457,0
DA:458,0
DA:460,0
DA:426,0
DA:433,0
DA:436,0
DA:441,0
DA:443,0
DA:444,0
DA:445,0
DA:447,0
DA:455,0
DA:457,0
DA:458,0
DA:460,0
end_of_record
SF:/home/brunnels/Research/alamo/ext/amrex/3d-coverage-g++-23.08/include/AMReX_Geometry.H
FN:178,_ZNK5amrex8Geometry6ProbLoEv
FNDA:0,_ZNK5amrex8Geometry6ProbLoEv
FN:180,_ZNK5amrex8Geometry6ProbHiEv
FNDA:0,_ZNK5amrex8Geometry6ProbHiEv
FN:182,_ZNK5amrex8Geometry6ProbLoEi
FNDA:0,_ZNK5amrex8Geometry6ProbLoEi
FN:184,_ZNK5amrex8Geometry6ProbHiEi
FNDA:0,_ZNK5amrex8Geometry6ProbHiEi
FN:210,_ZNK5amrex8Geometry6DomainEv
FNDA:0,_ZNK5amrex8Geometry6DomainEv
FN:317,_ZNK5amrex8Geometry10isPeriodicEi
FNDA:0,_ZNK5amrex8Geometry10isPeriodicEi
FN:319,_ZNK5amrex8Geometry13isAnyPeriodicEv
FNDA:0,_ZNK5amrex8Geometry13isAnyPeriodicEv
FN:341,_ZNK5amrex8Geometry11periodicityEv
FNDA:0,_ZNK5amrex8Geometry11periodicityEv
FN:347,_ZNK5amrex8Geometry11periodicityERKNS_3BoxE
FNDA:0,_ZNK5amrex8Geometry11periodicityERKNS_3BoxE
DA:178,0
DA:180,0
DA:182,0
DA:184,0
DA:210,0
DA:317,0
DA:319,0
DA:321,0
DA:341,0
DA:342,0
DA:344,0
DA:347,0
DA:349,0
DA:351,0
end_of_record
SF:/home/brunnels/Research/alamo/src/Integrator/Mechanics.H
FN:102,_ZN10Integrator9MechanicsIN5Model5Solid6Affine9IsotropicEEC2Ev
FNDA:0,_ZN10Integrator9MechanicsIN5Model5Solid6Affine9IsotropicEEC2Ev
FN:105,_ZN10Integrator9MechanicsIN5Model5Solid6Affine9HexagonalEEC1ERN2IO9ParmParseE
FNDA:1,_ZN10Integrator9MechanicsIN5Model5Solid6Affine9HexagonalEEC1ERN2IO9ParmParseE
FN:105,_ZN10Integrator9MechanicsIN5Model5Solid6Affine2J2EEC1ERN2IO9ParmParseE
FNDA:0,_ZN10Integrator9MechanicsIN5Model5Solid6Affine2J2EEC1ERN2IO9ParmParseE
FN:105,_ZN10Integrator9MechanicsIN5Model5Solid7Elastic28PseudoLinearCubicPredeformedEEC1ERN2IO9ParmParseE
FNDA:0,_ZN10Integrator9MechanicsIN5Model5Solid7Elastic28PseudoLinearCubicPredeformedEEC1ERN2IO9ParmParseE
FN:105,_ZN10Integrator9MechanicsIN5Model5Solid7Elastic17PseudoLinearCubicEEC1ERN2IO9ParmParseE
FNDA:1,_ZN10Integrator9MechanicsIN5Model5Solid7Elastic17PseudoLinearCubicEEC1ERN2IO9ParmParseE
FN:105,_ZN10Integrator9MechanicsIN5Model5Solid7Elastic10NeoHookeanEEC1ERN2IO9ParmParseE
FNDA:0,_ZN10Integrator9MechanicsIN5Model5Solid7Elastic10NeoHookeanEEC1ERN2IO9ParmParseE
FN:105,_ZN10Integrator9MechanicsIN5Model5Solid6Linear9LaplacianEEC1ERN2IO9ParmParseE
FNDA:0,_ZN10Integrator9MechanicsIN5Model5Solid6Linear9LaplacianEEC1ERN2IO9ParmParseE
FN:105,_ZN10Integrator9MechanicsIN5Model5Solid6Affine9IsotropicEEC1ERN2IO9ParmParseE
FNDA:1,_ZN10Integrator9MechanicsIN5Model5Solid6Affine9IsotropicEEC1ERN2IO9ParmParseE
FN:105,_ZN10Integrator9MechanicsIN5Model5Solid6Affine5CubicEEC1ERN2IO9ParmParseE
FNDA:1,_ZN10Integrator9MechanicsIN5Model5Solid6Affine5CubicEEC1ERN2IO9ParmParseE
FN:105,_ZN10Integrator9MechanicsIN5Model5Solid6Linear5CubicEEC1ERN2IO9ParmParseE
FNDA:1,_ZN10Integrator9MechanicsIN5Model5Solid6Linear5CubicEEC1ERN2IO9ParmParseE
FN:105,_ZN10Integrator9MechanicsIN5Model5Solid6Linear9IsotropicEEC1ERN2IO9ParmParseE
FNDA:0,_ZN10Integrator9MechanicsIN5Model5Solid6Linear9IsotropicEEC1ERN2IO9ParmParseE
FN:111,_ZN10Integrator9MechanicsIN5Model5Solid6Linear9IsotropicEE5ParseERS5_RN2IO9ParmParseE
FNDA:0,_ZN10Integrator9MechanicsIN5Model5Solid6Linear9IsotropicEE5ParseERS5_RN2IO9ParmParseE
FN:111,_ZN10Integrator9MechanicsIN5Model5Solid6Affine9IsotropicEE5ParseERS5_RN2IO9ParmParseE
FNDA:1,_ZN10Integrator9MechanicsIN5Model5Solid6Affine9IsotropicEE5ParseERS5_RN2IO9ParmParseE
FN:111,_ZN10Integrator9MechanicsIN5Model5Solid6Affine2J2EE5ParseERS5_RN2IO9ParmParseE
FNDA:0,_ZN10Integrator9MechanicsIN5Model5Solid6Affine2J2EE5ParseERS5_RN2IO9ParmParseE
FN:111,_ZN10Integrator9MechanicsIN5Model5Solid7Elastic28PseudoLinearCubicPredeformedEE5ParseERS5_RN2IO9ParmParseE
FNDA:0,_ZN10Integrator9MechanicsIN5Model5Solid7Elastic28PseudoLinearCubicPredeformedEE5ParseERS5_RN2IO9ParmParseE
FN:111,_ZN10Integrator9MechanicsIN5Model5Solid7Elastic17PseudoLinearCubicEE5ParseERS5_RN2IO9ParmParseE
FNDA:1,_ZN10Integrator9MechanicsIN5Model5Solid7Elastic17PseudoLinearCubicEE5ParseERS5_RN2IO9ParmParseE
FN:111,_ZN10Integrator9MechanicsIN5Model5Solid7Elastic10NeoHookeanEE5ParseERS5_RN2IO9ParmParseE
FNDA:0,_ZN10Integrator9MechanicsIN5Model5Solid7Elastic10NeoHookeanEE5ParseERS5_RN2IO9ParmParseE
FN:111,_ZN10Integrator9MechanicsIN5Model5Solid6Linear9LaplacianEE5ParseERS5_RN2IO9ParmParseE
FNDA:0,_ZN10Integrator9MechanicsIN5Model5Solid6Linear9LaplacianEE5ParseERS5_RN2IO9ParmParseE
FN:111,_ZN10Integrator9MechanicsIN5Model5Solid6Affine9HexagonalEE5ParseERS5_RN2IO9ParmParseE
FNDA:1,_ZN10Integrator9MechanicsIN5Model5Solid6Affine9HexagonalEE5ParseERS5_RN2IO9ParmParseE
FN:111,_ZN10Integrator9MechanicsIN5Model5Solid6Affine5CubicEE5ParseERS5_RN2IO9ParmParseE
FNDA:1,_ZN10Integrator9MechanicsIN5Model5Solid6Affine5CubicEE5ParseERS5_RN2IO9ParmParseE
FN:111,_ZN10Integrator9MechanicsIN5Model5Solid6Linear5CubicEE5ParseERS5_RN2IO9ParmParseE
FNDA:1,_ZN10Integrator9MechanicsIN5Model5Solid6Linear5CubicEE5ParseERS5_RN2IO9ParmParseE
FN:171,_ZN10Integrator9MechanicsIN5Model5Solid6Affine2J2EE10InitializeEi
FNDA:0,_ZN10Integrator9MechanicsIN5Model5Solid6Affine2J2EE10InitializeEi
FN:171,_ZN10Integrator9MechanicsIN5Model5Solid7Elastic10NeoHookeanEE10InitializeEi
FNDA:0,_ZN10Integrator9MechanicsIN5Model5Solid7Elastic10NeoHookeanEE10InitializeEi
FN:171,_ZN10Integrator9MechanicsIN5Model5Solid7Elastic28PseudoLinearCubicPredeformedEE10InitializeEi
FNDA:0,_ZN10Integrator9MechanicsIN5Model5Solid7Elastic28PseudoLinearCubicPredeformedEE10InitializeEi
FN:171,_ZN10Integrator9MechanicsIN5Model5Solid6Affine9IsotropicEE10InitializeEi
FNDA:1,_ZN10Integrator9MechanicsIN5Model5Solid6Affine9IsotropicEE10InitializeEi
FN:171,_ZN10Integrator9MechanicsIN5Model5Solid7Elastic17PseudoLinearCubicEE10InitializeEi
FNDA:1,_ZN10Integrator9MechanicsIN5Model5Solid7Elastic17PseudoLinearCubicEE10InitializeEi
FN:171,_ZN10Integrator9MechanicsIN5Model5Solid6Linear9IsotropicEE10InitializeEi
FNDA:0,_ZN10Integrator9MechanicsIN5Model5Solid6Linear9IsotropicEE10InitializeEi
FN:171,_ZN10Integrator9MechanicsIN5Model5Solid6Linear9LaplacianEE10InitializeEi
FNDA:0,_ZN10Integrator9MechanicsIN5Model5Solid6Linear9LaplacianEE10InitializeEi
FN:171,_ZN10Integrator9MechanicsIN5Model5Solid6Affine9HexagonalEE10InitializeEi
FNDA:1,_ZN10Integrator9MechanicsIN5Model5Solid6Affine9HexagonalEE10InitializeEi
FN:171,_ZN10Integrator9MechanicsIN5Model5Solid6Linear5CubicEE10InitializeEi
FNDA:1,_ZN10Integrator9MechanicsIN5Model5Solid6Linear5CubicEE10InitializeEi
FN:171,_ZN10Integrator9MechanicsIN5Model5Solid6Affine5CubicEE10InitializeEi
FNDA:1,_ZN10Integrator9MechanicsIN5Model5Solid6Affine5CubicEE10InitializeEi
FN:181,_ZN10Integrator9MechanicsIN5Model5Solid6Linear5CubicEE11UpdateModelEi
FNDA:100,_ZN10Integrator9MechanicsIN5Model5Solid6Linear5CubicEE11UpdateModelEi
FN:181,_ZN10Integrator9MechanicsIN5Model5Solid7Elastic28PseudoLinearCubicPredeformedEE11UpdateModelEi
FNDA:0,_ZN10Integrator9MechanicsIN5Model5Solid7Elastic28PseudoLinearCubicPredeformedEE11UpdateModelEi
FN:181,_ZN10Integrator9MechanicsIN5Model5Solid6Affine9IsotropicEE11UpdateModelEi
FNDA:100,_ZN10Integrator9MechanicsIN5Model5Solid6Affine9IsotropicEE11UpdateModelEi
FN:181,_ZN10Integrator9MechanicsIN5Model5Solid6Linear9LaplacianEE11UpdateModelEi
FNDA:0,_ZN10Integrator9MechanicsIN5Model5Solid6Linear9LaplacianEE11UpdateModelEi
FN:181,_ZN10Integrator9MechanicsIN5Model5Solid6Affine2J2EE11UpdateModelEi
FNDA:0,_ZN10Integrator9MechanicsIN5Model5Solid6Affine2J2EE11UpdateModelEi
FN:181,_ZN10Integrator9MechanicsIN5Model5Solid7Elastic17PseudoLinearCubicEE11UpdateModelEi
FNDA:100,_ZN10Integrator9MechanicsIN5Model5Solid7Elastic17PseudoLinearCubicEE11UpdateModelEi
FN:181,_ZN10Integrator9MechanicsIN5Model5Solid6Affine9HexagonalEE11UpdateModelEi
FNDA:100,_ZN10Integrator9MechanicsIN5Model5Solid6Affine9HexagonalEE11UpdateModelEi
FN:181,_ZN10Integrator9MechanicsIN5Model5Solid6Affine5CubicEE11UpdateModelEi
FNDA:100,_ZN10Integrator9MechanicsIN5Model5Solid6Affine5CubicEE11UpdateModelEi
FN:181,_ZN10Integrator9MechanicsIN5Model5Solid7Elastic10NeoHookeanEE11UpdateModelEi
FNDA:0,_ZN10Integrator9MechanicsIN5Model5Solid7Elastic10NeoHookeanEE11UpdateModelEi
FN:181,_ZN10Integrator9MechanicsIN5Model5Solid6Linear9IsotropicEE11UpdateModelEi
FNDA:0,_ZN10Integrator9MechanicsIN5Model5Solid6Linear9IsotropicEE11UpdateModelEi
FN:204,_ZZN10Integrator9MechanicsIN5Model5Solid7Elastic28PseudoLinearCubicPredeformedEE11UpdateModelEiENKUliiiE_clEiii
FNDA:0,_ZZN10Integrator9MechanicsIN5Model5Solid7Elastic28PseudoLinearCubicPredeformedEE11UpdateModelEiENKUliiiE_clEiii
FN:204,_ZZN10Integrator9MechanicsIN5Model5Solid7Elastic17PseudoLinearCubicEE11UpdateModelEiENKUliiiE_clEiii
FNDA:729,_ZZN10Integrator9MechanicsIN5Model5Solid7Elastic17PseudoLinearCubicEE11UpdateModelEiENKUliiiE_clEiii
FN:204,_ZZN10Integrator9MechanicsIN5Model5Solid6Affine2J2EE11UpdateModelEiENKUliiiE_clEiii
FNDA:0,_ZZN10Integrator9MechanicsIN5Model5Solid6Affine2J2EE11UpdateModelEiENKUliiiE_clEiii
FN:204,_ZZN10Integrator9MechanicsIN5Model5Solid6Linear9IsotropicEE11UpdateModelEiENKUliiiE_clEiii
FNDA:0,_ZZN10Integrator9MechanicsIN5Model5Solid6Linear9IsotropicEE11UpdateModelEiENKUliiiE_clEiii
FN:204,_ZZN10Integrator9MechanicsIN5Model5Solid6Affine5CubicEE11UpdateModelEiENKUliiiE_clEiii
FNDA:729,_ZZN10Integrator9MechanicsIN5Model5Solid6Affine5CubicEE11UpdateModelEiENKUliiiE_clEiii
FN:204,_ZZN10Integrator9MechanicsIN5Model5Solid7Elastic10NeoHookeanEE11UpdateModelEiENKUliiiE_clEiii
FNDA:0,_ZZN10Integrator9MechanicsIN5Model5Solid7Elastic10NeoHookeanEE11UpdateModelEiENKUliiiE_clEiii
FN:204,_ZZN10Integrator9MechanicsIN5Model5Solid6Affine9HexagonalEE11UpdateModelEiENKUliiiE_clEiii
FNDA:729,_ZZN10Integrator9MechanicsIN5Model5Solid6Affine9HexagonalEE11UpdateModelEiENKUliiiE_clEiii
FN:204,_ZZN10Integrator9MechanicsIN5Model5Solid6Linear9LaplacianEE11UpdateModelEiENKUliiiE_clEiii
FNDA:0,_ZZN10Integrator9MechanicsIN5Model5Solid6Linear9LaplacianEE11UpdateModelEiENKUliiiE_clEiii
FN:204,_ZZN10Integrator9MechanicsIN5Model5Solid6Linear5CubicEE11UpdateModelEiENKUliiiE_clEiii
FNDA:729,_ZZN10Integrator9MechanicsIN5Model5Solid6Linear5CubicEE11UpdateModelEiENKUliiiE_clEiii
FN:204,_ZZN10Integrator9MechanicsIN5Model5Solid6Affine9IsotropicEE11UpdateModelEiENKUliiiE_clEiii
FNDA:729,_ZZN10Integrator9MechanicsIN5Model5Solid6Affine9IsotropicEE11UpdateModelEiENKUliiiE_clEiii
FN:215,_ZN10Integrator9MechanicsIN5Model5Solid6Affine5CubicEE21TagCellsForRefinementEiRN5amrex11TagBoxArrayEdi
FNDA:0,_ZN10Integrator9MechanicsIN5Model5Solid6Affine5CubicEE21TagCellsForRefinementEiRN5amrex11TagBoxArrayEdi
FN:215,_ZN10Integrator9MechanicsIN5Model5Solid6Affine9IsotropicEE21TagCellsForRefinementEiRN5amrex11TagBoxArrayEdi
FNDA:0,_ZN10Integrator9MechanicsIN5Model5Solid6Affine9IsotropicEE21TagCellsForRefinementEiRN5amrex11TagBoxArrayEdi
FN:215,_ZN10Integrator9MechanicsIN5Model5Solid6Affine2J2EE21TagCellsForRefinementEiRN5amrex11TagBoxArrayEdi
FNDA:0,_ZN10Integrator9MechanicsIN5Model5Solid6Affine2J2EE21TagCellsForRefinementEiRN5amrex11TagBoxArrayEdi
FN:215,_ZN10Integrator9MechanicsIN5Model5Solid6Linear9IsotropicEE21TagCellsForRefinementEiRN5amrex11TagBoxArrayEdi
FNDA:0,_ZN10Integrator9MechanicsIN5Model5Solid6Linear9IsotropicEE21TagCellsForRefinementEiRN5amrex11TagBoxArrayEdi
FN:215,_ZN10Integrator9MechanicsIN5Model5Solid6Linear5CubicEE21TagCellsForRefinementEiRN5amrex11TagBoxArrayEdi
FNDA:0,_ZN10Integrator9MechanicsIN5Model5Solid6Linear5CubicEE21TagCellsForRefinementEiRN5amrex11TagBoxArrayEdi
FN:215,_ZN10Integrator9MechanicsIN5Model5Solid6Linear9LaplacianEE21TagCellsForRefinementEiRN5amrex11TagBoxArrayEdi
FNDA:0,_ZN10Integrator9MechanicsIN5Model5Solid6Linear9LaplacianEE21TagCellsForRefinementEiRN5amrex11TagBoxArrayEdi
FN:215,_ZN10Integrator9MechanicsIN5Model5Solid7Elastic28PseudoLinearCubicPredeformedEE21TagCellsForRefinementEiRN5amrex11TagBoxArrayEdi
FNDA:0,_ZN10Integrator9MechanicsIN5Model5Solid7Elastic28PseudoLinearCubicPredeformedEE21TagCellsForRefinementEiRN5amrex11TagBoxArrayEdi
FN:215,_ZN10Integrator9MechanicsIN5Model5Solid7Elastic10NeoHookeanEE21TagCellsForRefinementEiRN5amrex11TagBoxArrayEdi
FNDA:0,_ZN10Integrator9MechanicsIN5Model5Solid7Elastic10NeoHookeanEE21TagCellsForRefinementEiRN5amrex11TagBoxArrayEdi
FN:215,_ZN10Integrator9MechanicsIN5Model5Solid7Elastic17PseudoLinearCubicEE21TagCellsForRefinementEiRN5amrex11TagBoxArrayEdi
FNDA:0,_ZN10Integrator9MechanicsIN5Model5Solid7Elastic17PseudoLinearCubicEE21TagCellsForRefinementEiRN5amrex11TagBoxArrayEdi
FN:215,_ZN10Integrator9MechanicsIN5Model5Solid6Affine9HexagonalEE21TagCellsForRefinementEiRN5amrex11TagBoxArrayEdi
FNDA:0,_ZN10Integrator9MechanicsIN5Model5Solid6Affine9HexagonalEE21TagCellsForRefinementEiRN5amrex11TagBoxArrayEdi
FN:227,_ZZN10Integrator9MechanicsIN5Model5Solid6Linear5CubicEE21TagCellsForRefinementEiRN5amrex11TagBoxArrayEdiENKUliiiE_clEiii
FNDA:0,_ZZN10Integrator9MechanicsIN5Model5Solid6Linear5CubicEE21TagCellsForRefinementEiRN5amrex11TagBoxArrayEdiENKUliiiE_clEiii
FN:227,_ZZN10Integrator9MechanicsIN5Model5Solid6Linear9LaplacianEE21TagCellsForRefinementEiRN5amrex11TagBoxArrayEdiENKUliiiE_clEiii
FNDA:0,_ZZN10Integrator9MechanicsIN5Model5Solid6Linear9LaplacianEE21TagCellsForRefinementEiRN5amrex11TagBoxArrayEdiENKUliiiE_clEiii
FN:227,_ZZN10Integrator9MechanicsIN5Model5Solid6Affine9IsotropicEE21TagCellsForRefinementEiRN5amrex11TagBoxArrayEdiENKUliiiE_clEiii
FNDA:0,_ZZN10Integrator9MechanicsIN5Model5Solid6Affine9IsotropicEE21TagCellsForRefinementEiRN5amrex11TagBoxArrayEdiENKUliiiE_clEiii
FN:227,_ZZN10Integrator9MechanicsIN5Model5Solid6Affine5CubicEE21TagCellsForRefinementEiRN5amrex11TagBoxArrayEdiENKUliiiE_clEiii
FNDA:0,_ZZN10Integrator9MechanicsIN5Model5Solid6Affine5CubicEE21TagCellsForRefinementEiRN5amrex11TagBoxArrayEdiENKUliiiE_clEiii
FN:227,_ZZN10Integrator9MechanicsIN5Model5Solid7Elastic10NeoHookeanEE21TagCellsForRefinementEiRN5amrex11TagBoxArrayEdiENKUliiiE_clEiii
FNDA:0,_ZZN10Integrator9MechanicsIN5Model5Solid7Elastic10NeoHookeanEE21TagCellsForRefinementEiRN5amrex11TagBoxArrayEdiENKUliiiE_clEiii
FN:227,_ZZN10Integrator9MechanicsIN5Model5Solid7Elastic17PseudoLinearCubicEE21TagCellsForRefinementEiRN5amrex11TagBoxArrayEdiENKUliiiE_clEiii
FNDA:0,_ZZN10Integrator9MechanicsIN5Model5Solid7Elastic17PseudoLinearCubicEE21TagCellsForRefinementEiRN5amrex11TagBoxArrayEdiENKUliiiE_clEiii
FN:227,_ZZN10Integrator9MechanicsIN5Model5Solid6Affine9HexagonalEE21TagCellsForRefinementEiRN5amrex11TagBoxArrayEdiENKUliiiE_clEiii
FNDA:0,_ZZN10Integrator9MechanicsIN5Model5Solid6Affine9HexagonalEE21TagCellsForRefinementEiRN5amrex11TagBoxArrayEdiENKUliiiE_clEiii
FN:227,_ZZN10Integrator9MechanicsIN5Model5Solid6Affine2J2EE21TagCellsForRefinementEiRN5amrex11TagBoxArrayEdiENKUliiiE_clEiii
FNDA:0,_ZZN10Integrator9MechanicsIN5Model5Solid6Affine2J2EE21TagCellsForRefinementEiRN5amrex11TagBoxArrayEdiENKUliiiE_clEiii
FN:227,_ZZN10Integrator9MechanicsIN5Model5Solid6Linear9IsotropicEE21TagCellsForRefinementEiRN5amrex11TagBoxArrayEdiENKUliiiE_clEiii
FNDA:0,_ZZN10Integrator9MechanicsIN5Model5Solid6Linear9IsotropicEE21TagCellsForRefinementEiRN5amrex11TagBoxArrayEdiENKUliiiE_clEiii
FN:227,_ZZN10Integrator9MechanicsIN5Model5Solid7Elastic28PseudoLinearCubicPredeformedEE21TagCellsForRefinementEiRN5amrex11TagBoxArrayEdiENKUliiiE_clEiii
FNDA:0,_ZZN10Integrator9MechanicsIN5Model5Solid7Elastic28PseudoLinearCubicPredeformedEE21TagCellsForRefinementEiRN5amrex11TagBoxArrayEdiENKUliiiE_clEiii
FN:239,_ZZN10Integrator9MechanicsIN5Model5Solid6Affine9IsotropicEE21TagCellsForRefinementEiRN5amrex11TagBoxArrayEdiENKUliiiE0_clEiii
FNDA:0,_ZZN10Integrator9MechanicsIN5Model5Solid6Affine9IsotropicEE21TagCellsForRefinementEiRN5amrex11TagBoxArrayEdiENKUliiiE0_clEiii
FN:239,_ZZN10Integrator9MechanicsIN5Model5Solid7Elastic17PseudoLinearCubicEE21TagCellsForRefinementEiRN5amrex11TagBoxArrayEdiENKUliiiE0_clEiii
FNDA:0,_ZZN10Integrator9MechanicsIN5Model5Solid7Elastic17PseudoLinearCubicEE21TagCellsForRefinementEiRN5amrex11TagBoxArrayEdiENKUliiiE0_clEiii
FN:239,_ZZN10Integrator9MechanicsIN5Model5Solid7Elastic28PseudoLinearCubicPredeformedEE21TagCellsForRefinementEiRN5amrex11TagBoxArrayEdiENKUliiiE0_clEiii
FNDA:0,_ZZN10Integrator9MechanicsIN5Model5Solid7Elastic28PseudoLinearCubicPredeformedEE21TagCellsForRefinementEiRN5amrex11TagBoxArrayEdiENKUliiiE0_clEiii
FN:239,_ZZN10Integrator9MechanicsIN5Model5Solid6Linear9IsotropicEE21TagCellsForRefinementEiRN5amrex11TagBoxArrayEdiENKUliiiE0_clEiii
FNDA:0,_ZZN10Integrator9MechanicsIN5Model5Solid6Linear9IsotropicEE21TagCellsForRefinementEiRN5amrex11TagBoxArrayEdiENKUliiiE0_clEiii
FN:239,_ZZN10Integrator9MechanicsIN5Model5Solid6Linear5CubicEE21TagCellsForRefinementEiRN5amrex11TagBoxArrayEdiENKUliiiE0_clEiii
FNDA:0,_ZZN10Integrator9MechanicsIN5Model5Solid6Linear5CubicEE21TagCellsForRefinementEiRN5amrex11TagBoxArrayEdiENKUliiiE0_clEiii
FN:239,_ZZN10Integrator9MechanicsIN5Model5Solid7Elastic10NeoHookeanEE21TagCellsForRefinementEiRN5amrex11TagBoxArrayEdiENKUliiiE0_clEiii
FNDA:0,_ZZN10Integrator9MechanicsIN5Model5Solid7Elastic10NeoHookeanEE21TagCellsForRefinementEiRN5amrex11TagBoxArrayEdiENKUliiiE0_clEiii
FN:239,_ZZN10Integrator9MechanicsIN5Model5Solid6Linear9LaplacianEE21TagCellsForRefinementEiRN5amrex11TagBoxArrayEdiENKUliiiE0_clEiii
FNDA:0,_ZZN10Integrator9MechanicsIN5Model5Solid6Linear9LaplacianEE21TagCellsForRefinementEiRN5amrex11TagBoxArrayEdiENKUliiiE0_clEiii
FN:239,_ZZN10Integrator9MechanicsIN5Model5Solid6Affine2J2EE21TagCellsForRefinementEiRN5amrex11TagBoxArrayEdiENKUliiiE0_clEiii
FNDA:0,_ZZN10Integrator9MechanicsIN5Model5Solid6Affine2J2EE21TagCellsForRefinementEiRN5amrex11TagBoxArrayEdiENKUliiiE0_clEiii
FN:239,_ZZN10Integrator9MechanicsIN5Model5Solid6Affine9HexagonalEE21TagCellsForRefinementEiRN5amrex11TagBoxArrayEdiENKUliiiE0_clEiii
FNDA:0,_ZZN10Integrator9MechanicsIN5Model5Solid6Affine9HexagonalEE21TagCellsForRefinementEiRN5amrex11TagBoxArrayEdiENKUliiiE0_clEiii
FN:239,_ZZN10Integrator9MechanicsIN5Model5Solid6Affine5CubicEE21TagCellsForRefinementEiRN5amrex11TagBoxArrayEdiENKUliiiE0_clEiii
FNDA:0,_ZZN10Integrator9MechanicsIN5Model5Solid6Affine5CubicEE21TagCellsForRefinementEiRN5amrex11TagBoxArrayEdiENKUliiiE0_clEiii
FN:252,_ZN10Integrator9MechanicsIN5Model5Solid6Linear9LaplacianEE6RegridEid
FNDA:0,_ZN10Integrator9MechanicsIN5Model5Solid6Linear9LaplacianEE6RegridEid
FN:252,_ZN10Integrator9MechanicsIN5Model5Solid6Linear9IsotropicEE6RegridEid
FNDA:0,_ZN10Integrator9MechanicsIN5Model5Solid6Linear9IsotropicEE6RegridEid
FN:252,_ZN10Integrator9MechanicsIN5Model5Solid6Linear5CubicEE6RegridEid
FNDA:0,_ZN10Integrator9MechanicsIN5Model5Solid6Linear5CubicEE6RegridEid
FN:252,_ZN10Integrator9MechanicsIN5Model5Solid6Affine5CubicEE6RegridEid
FNDA:0,_ZN10Integrator9MechanicsIN5Model5Solid6Affine5CubicEE6RegridEid
FN:252,_ZN10Integrator9MechanicsIN5Model5Solid6Affine9HexagonalEE6RegridEid
FNDA:0,_ZN10Integrator9MechanicsIN5Model5Solid6Affine9HexagonalEE6RegridEid
FN:252,_ZN10Integrator9MechanicsIN5Model5Solid7Elastic10NeoHookeanEE6RegridEid
FNDA:0,_ZN10Integrator9MechanicsIN5Model5Solid7Elastic10NeoHookeanEE6RegridEid
FN:252,_ZN10Integrator9MechanicsIN5Model5Solid7Elastic17PseudoLinearCubicEE6RegridEid
FNDA:0,_ZN10Integrator9MechanicsIN5Model5Solid7Elastic17PseudoLinearCubicEE6RegridEid
FN:252,_ZN10Integrator9MechanicsIN5Model5Solid6Affine9IsotropicEE6RegridEid
FNDA:0,_ZN10Integrator9MechanicsIN5Model5Solid6Affine9IsotropicEE6RegridEid
FN:252,_ZN10Integrator9MechanicsIN5Model5Solid7Elastic28PseudoLinearCubicPredeformedEE6RegridEid
FNDA:0,_ZN10Integrator9MechanicsIN5Model5Solid7Elastic28PseudoLinearCubicPredeformedEE6RegridEid
FN:252,_ZN10Integrator9MechanicsIN5Model5Solid6Affine2J2EE6RegridEid
FNDA:0,_ZN10Integrator9MechanicsIN5Model5Solid6Affine2J2EE6RegridEid
DA:102,0
DA:103,0
DA:104,0
DA:105,0
DA:107,0
DA:108,0
DA:105,0
DA:107,0
DA:108,0
DA:105,1
DA:107,1
DA:108,1
DA:105,0
DA:107,0
DA:108,0
DA:105,0
DA:107,0
DA:108,0
DA:105,1
DA:107,1
DA:108,1
DA:105,1
DA:107,1
DA:108,1
DA:105,1
DA:107,1
DA:108,1
DA:105,1
DA:107,1
DA:108,1
DA:105,0
DA:107,0
DA:108,0
DA:111,0
DA:113,0
DA:114,0
DA:115,0
DA:116,0
DA:118,0
DA:119,0
DA:120,0
DA:121,0
DA:123,0
DA:124,0
DA:126,0
DA:128,0
DA:132,0
DA:134,0
DA:135,0
DA:136,0
DA:137,0
DA:138,0
DA:139,0
DA:140,0
DA:142,0
DA:146,0
DA:150,0
DA:152,0
DA:153,0
DA:154,0
DA:155,0
DA:156,0
DA:157,0
DA:159,0
DA:160,0
DA:161,0
DA:163,0
DA:167,0
DA:169,0
DA:111,0
DA:113,0
DA:114,0
DA:115,0
DA:116,0
DA:118,0
DA:119,0
DA:120,0
DA:121,0
DA:123,0
DA:124,0
DA:126,0
DA:128,0
DA:132,0
DA:134,0
DA:135,0
DA:136,0
DA:137,0
DA:138,0
DA:139,0
DA:140,0
DA:142,0
DA:146,0
DA:150,0
DA:152,0
DA:153,0
DA:154,0
DA:155,0
DA:156,0
DA:157,0
DA:159,0
DA:160,0
DA:161,0
DA:163,0
DA:167,0
DA:169,0
DA:111,1
DA:113,1
DA:114,1
DA:115,1
DA:116,2
DA:118,2
DA:119,2
DA:120,1
DA:121,1
DA:123,2
DA:124,1
DA:126,1
DA:128,1
DA:132,1
DA:134,0
DA:135,0
DA:136,0
DA:137,0
DA:138,0
DA:139,0
DA:140,0
DA:142,0
DA:146,0
DA:150,1
DA:152,0
DA:153,0
DA:154,0
DA:155,0
DA:156,0
DA:157,0
DA:159,0
DA:160,0
DA:161,0
DA:163,0
DA:167,0
DA:169,1
DA:111,0
DA:113,0
DA:114,0
DA:115,0
DA:116,0
DA:118,0
DA:119,0
DA:120,0
DA:121,0
DA:123,0
DA:124,0
DA:126,0
DA:128,0
DA:132,0
DA:134,0
DA:135,0
DA:136,0
DA:137,0
DA:138,0
DA:139,0
DA:140,0
DA:142,0
DA:146,0
DA:150,0
DA:152,0
DA:153,0
DA:154,0
DA:155,0
DA:156,0
DA:157,0
DA:159,0
DA:160,0
DA:161,0
DA:163,0
DA:167,0
DA:169,0
DA:111,0
DA:113,0
DA:114,0
DA:115,0
DA:116,0
DA:118,0
DA:119,0
DA:120,0
DA:121,0
DA:123,0
DA:124,0
DA:126,0
DA:128,0
DA:132,0
DA:134,0
DA:135,0
DA:136,0
DA:137,0
DA:138,0
DA:139,0
DA:140,0
DA:142,0
DA:146,0
DA:150,0
DA:152,0
DA:153,0
DA:154,0
DA:155,0
DA:156,0
DA:157,0
DA:159,0
DA:160,0
DA:161,0
DA:163,0
DA:167,0
DA:169,0
DA:111,1
DA:113,1
DA:114,1
DA:115,1
DA:116,2
DA:118,2
DA:119,2
DA:120,1
DA:121,1
DA:123,2
DA:124,1
DA:126,1
DA:128,1
DA:132,1
DA:134,0
DA:135,0
DA:136,0
DA:137,0
DA:138,0
DA:139,0
DA:140,0
DA:142,0
DA:146,0
DA:150,1
DA:152,0
DA:153,0
DA:154,0
DA:155,0
DA:156,0
DA:157,0
DA:159,0
DA:160,0
DA:161,0
DA:163,0
DA:167,0
DA:169,1
DA:111,1
DA:113,1
DA:114,1
DA:115,1
DA:116,2
DA:118,2
DA:119,2
DA:120,1
DA:121,1
DA:123,2
DA:124,1
DA:126,1
DA:128,1
DA:132,1
DA:134,0
DA:135,0
DA:136,0
DA:137,0
DA:138,0
DA:139,0
DA:140,0
DA:142,0
DA:146,0
DA:150,1
DA:152,0
DA:153,0
DA:154,0
DA:155,0
DA:156,0
DA:157,0
DA:159,0
DA:160,0
DA:161,0
DA:163,0
DA:167,0
DA:169,1
DA:111,1
DA:113,1
DA:114,1
DA:115,1
DA:116,2
DA:118,2
DA:119,2
DA:120,1
DA:121,1
DA:123,2
DA:124,1
DA:126,1
DA:128,1
DA:132,1
DA:134,0
DA:135,0
DA:136,0
DA:137,0
DA:138,0
DA:139,0
DA:140,0
DA:142,0
DA:146,0
DA:150,1
DA:152,0
DA:153,0
DA:154,0
DA:155,0
DA:156,0
DA:157,0
DA:159,0
DA:160,0
DA:161,0
DA:163,0
DA:167,0
DA:169,1
DA:111,0
DA:113,0
DA:114,0
DA:115,0
DA:116,0
DA:118,0
DA:119,0
DA:120,0
DA:121,0
DA:123,0
DA:124,0
DA:126,0
DA:128,0
DA:132,0
DA:134,0
DA:135,0
DA:136,0
DA:137,0
DA:138,0
DA:139,0
DA:140,0
DA:142,0
DA:146,0
DA:150,0
DA:152,0
DA:153,0
DA:154,0
DA:155,0
DA:156,0
DA:157,0
DA:159,0
DA:160,0
DA:161,0
DA:163,0
DA:167,0
DA:169,0
DA:111,1
DA:113,1
DA:114,1
DA:115,1
DA:116,2
DA:118,2
DA:119,2
DA:120,1
DA:121,1
DA:123,2
DA:124,1
DA:126,1
DA:128,1
DA:132,1
DA:134,0
DA:135,0
DA:136,0
DA:137,0
DA:138,0
DA:139,0
DA:140,0
DA:142,0
DA:146,0
DA:150,1
DA:152,0
DA:153,0
DA:154,0
DA:155,0
DA:156,0
DA:157,0
DA:159,0
DA:160,0
DA:161,0
DA:163,0
DA:167,0
DA:169,1
DA:171,0
DA:173,0
DA:174,0
DA:175,0
DA:176,0
DA:178,0
DA:179,0
DA:171,1
DA:173,1
DA:174,1
DA:175,1
DA:176,1
DA:178,1
DA:179,1
DA:171,1
DA:173,1
DA:174,1
DA:175,1
DA:176,1
DA:178,1
DA:179,1
DA:171,1
DA:173,1
DA:174,1
DA:175,1
DA:176,1
DA:178,1
DA:179,1
DA:171,0
DA:173,0
DA:174,0
DA:175,0
DA:176,0
DA:178,0
DA:179,0
DA:171,0
DA:173,0
DA:174,0
DA:175,0
DA:176,0
DA:178,0
DA:179,0
DA:171,1
DA:173,1
DA:174,1
DA:175,1
DA:176,1
DA:178,1
DA:179,1
DA:171,0
DA:173,0
DA:174,0
DA:175,0
DA:176,0
DA:178,0
DA:179,0
DA:171,0
DA:173,0
DA:174,0
DA:175,0
DA:176,0
DA:178,0
DA:179,0
DA:171,1
DA:173,1
DA:174,1
DA:175,1
DA:176,1
DA:178,1
DA:179,1
DA:181,0
DA:183,0
DA:185,0
DA:187,0
DA:191,0
DA:195,0
DA:197,0
DA:199,0
DA:201,0
DA:202,0
DA:204,0
DA:211,0
DA:181,100
DA:183,100
DA:185,100
DA:187,2
DA:191,1
DA:195,1
DA:197,2
DA:199,1
DA:201,1
DA:202,1
DA:204,1
DA:211,1
DA:181,100
DA:183,100
DA:185,100
DA:187,2
DA:191,1
DA:195,1
DA:197,2
DA:199,1
DA:201,1
DA:202,1
DA:204,1
DA:211,1
DA:181,100
DA:183,100
DA:185,100
DA:187,2
DA:191,1
DA:195,1
DA:197,2
DA:199,1
DA:201,1
DA:202,1
DA:204,1
DA:211,1
DA:181,0
DA:183,0
DA:185,0
DA:187,0
DA:191,0
DA:195,0
DA:197,0
DA:199,0
DA:201,0
DA:202,0
DA:204,0
DA:211,0
DA:181,0
DA:183,0
DA:185,0
DA:187,0
DA:191,0
DA:195,0
DA:197,0
DA:199,0
DA:201,0
DA:202,0
DA:204,0
DA:211,0
DA:181,100
DA:183,100
DA:185,100
DA:187,2
DA:191,1
DA:195,1
DA:197,2
DA:199,1
DA:201,1
DA:202,1
DA:204,1
DA:211,1
DA:181,0
DA:183,0
DA:185,0
DA:187,0
DA:191,0
DA:195,0
DA:197,0
DA:199,0
DA:201,0
DA:202,0
DA:204,0
DA:211,0
DA:181,0
DA:183,0
DA:185,0
DA:187,0
DA:191,0
DA:195,0
DA:197,0
DA:199,0
DA:201,0
DA:202,0
DA:204,0
DA:211,0
DA:181,100
DA:183,100
DA:185,100
DA:187,2
DA:191,1
DA:195,1
DA:197,2
DA:199,1
DA:201,1
DA:202,1
DA:204,1
DA:211,1
DA:204,0
DA:204,729
DA:204,729
DA:204,729
DA:204,0
DA:204,0
DA:204,729
DA:204,0
DA:204,0
DA:204,729
DA:205,7290
DA:206,7290
DA:207,18225
DA:215,0
DA:217,0
DA:218,0
DA:220,0
DA:221,0
DA:222,0
DA:224,0
DA:225,0
DA:226,0
DA:227,0
DA:236,0
DA:238,0
DA:239,0
DA:215,0
DA:217,0
DA:218,0
DA:220,0
DA:221,0
DA:222,0
DA:224,0
DA:225,0
DA:226,0
DA:227,0
DA:236,0
DA:238,0
DA:239,0
DA:215,0
DA:217,0
DA:218,0
DA:220,0
DA:221,0
DA:222,0
DA:224,0
DA:225,0
DA:226,0
DA:227,0
DA:236,0
DA:238,0
DA:239,0
DA:215,0
DA:217,0
DA:218,0
DA:220,0
DA:221,0
DA:222,0
DA:224,0
DA:225,0
DA:226,0
DA:227,0
DA:236,0
DA:238,0
DA:239,0
DA:215,0
DA:217,0
DA:218,0
DA:220,0
DA:221,0
DA:222,0
DA:224,0
DA:225,0
DA:226,0
DA:227,0
DA:236,0
DA:238,0
DA:239,0
DA:215,0
DA:217,0
DA:218,0
DA:220,0
DA:221,0
DA:222,0
DA:224,0
DA:225,0
DA:226,0
DA:227,0
DA:236,0
DA:238,0
DA:239,0
DA:215,0
DA:217,0
DA:218,0
DA:220,0
DA:221,0
DA:222,0
DA:224,0
DA:225,0
DA:226,0
DA:227,0
DA:236,0
DA:238,0
DA:239,0
DA:215,0
DA:217,0
DA:218,0
DA:220,0
DA:221,0
DA:222,0
DA:224,0
DA:225,0
DA:226,0
DA:227,0
DA:236,0
DA:238,0
DA:239,0
DA:215,0
DA:217,0
DA:218,0
DA:220,0
DA:221,0
DA:222,0
DA:224,0
DA:225,0
DA:226,0
DA:227,0
DA:236,0
DA:238,0
DA:239,0
DA:215,0
DA:217,0
DA:218,0
DA:220,0
DA:221,0
DA:222,0
DA:224,0
DA:225,0
DA:226,0
DA:227,0
DA:236,0
DA:238,0
DA:239,0
DA:227,0
DA:227,0
DA:227,0
DA:227,0
DA:227,0
DA:227,0
DA:227,0
DA:227,0
DA:227,0
DA:227,0
DA:229,0
DA:231,0
DA:232,0
DA:233,0
DA:239,0
DA:239,0
DA:239,0
DA:239,0
DA:239,0
DA:239,0
DA:239,0
DA:239,0
DA:239,0
DA:239,0
DA:241,0
DA:243,0
DA:244,0
DA:245,0
DA:252,0
DA:254,0
DA:255,0
DA:256,0
DA:252,0
DA:254,0
DA:255,0
DA:256,0
DA:252,0
DA:254,0
DA:255,0
DA:256,0
DA:252,0
DA:254,0
DA:255,0
DA:256,0
DA:252,0
DA:254,0
DA:255,0
DA:256,0
DA:252,0
DA:254,0
DA:255,0
DA:256,0
DA:252,0
DA:254,0
DA:255,0
DA:256,0
DA:252,0
DA:254,0
DA:255,0
DA:256,0
DA:252,0
DA:254,0
DA:255,0
DA:256,0
DA:252,0
DA:254,0
DA:255,0
DA:256,0
end_of_record
SF:/home/brunnels/Research/alamo/src/Operator/Elastic.H
FN:31,_ZN8Operator7ElasticILi6EEC2Ev
FNDA:0,_ZN8Operator7ElasticILi6EEC2Ev
FN:48,_ZN8Operator7ElasticILi6EE14SetHomogeneousEb
FNDA:0,_ZN8Operator7ElasticILi6EE14SetHomogeneousEb
FN:48,_ZN8Operator7ElasticILi1EE14SetHomogeneousEb
FNDA:0,_ZN8Operator7ElasticILi1EE14SetHomogeneousEb
FN:48,_ZN8Operator7ElasticILi4EE14SetHomogeneousEb
FNDA:0,_ZN8Operator7ElasticILi4EE14SetHomogeneousEb
FN:48,_ZN8Operator7ElasticILi3EE14SetHomogeneousEb
FNDA:0,_ZN8Operator7ElasticILi3EE14SetHomogeneousEb
FN:53,_ZN8Operator7ElasticILi3EE8SetModelERKN3Set5FieldINS2_7Matrix4ILi3ELi3EEEEE
FNDA:0,_ZN8Operator7ElasticILi3EE8SetModelERKN3Set5FieldINS2_7Matrix4ILi3ELi3EEEEE
FN:53,_ZN8Operator7ElasticILi6EE8SetModelERKN3Set5FieldINS2_7Matrix4ILi3ELi6EEEEE
FNDA:0,_ZN8Operator7ElasticILi6EE8SetModelERKN3Set5FieldINS2_7Matrix4ILi3ELi6EEEEE
FN:53,_ZN8Operator7ElasticILi4EE8SetModelERKN3Set5FieldINS2_7Matrix4ILi3ELi4EEEEE
FNDA:0,_ZN8Operator7ElasticILi4EE8SetModelERKN3Set5FieldINS2_7Matrix4ILi3ELi4EEEEE
FN:53,_ZN8Operator7ElasticILi1EE8SetModelERKN3Set5FieldINS2_7Matrix4ILi3ELi1EEEEE
FNDA:0,_ZN8Operator7ElasticILi1EE8SetModelERKN3Set5FieldINS2_7Matrix4ILi3ELi1EEEEE
FN:61,_ZN8Operator7ElasticILi1EE5SetBCEPN2BC8Operator7Elastic7ElasticE
FNDA:0,_ZN8Operator7ElasticILi1EE5SetBCEPN2BC8Operator7Elastic7ElasticE
FN:61,_ZN8Operator7ElasticILi4EE5SetBCEPN2BC8Operator7Elastic7ElasticE
FNDA:0,_ZN8Operator7ElasticILi4EE5SetBCEPN2BC8Operator7Elastic7ElasticE
FN:61,_ZN8Operator7ElasticILi6EE5SetBCEPN2BC8Operator7Elastic7ElasticE
FNDA:0,_ZN8Operator7ElasticILi6EE5SetBCEPN2BC8Operator7Elastic7ElasticE
FN:61,_ZN8Operator7ElasticILi3EE5SetBCEPN2BC8Operator7Elastic7ElasticE
FNDA:0,_ZN8Operator7ElasticILi3EE5SetBCEPN2BC8Operator7Elastic7ElasticE
FN:70,_ZN8Operator7ElasticILi1EE5GetBCEv
FNDA:0,_ZN8Operator7ElasticILi1EE5GetBCEv
FN:70,_ZN8Operator7ElasticILi4EE5GetBCEv
FNDA:0,_ZN8Operator7ElasticILi4EE5GetBCEv
FN:70,_ZN8Operator7ElasticILi6EE5GetBCEv
FNDA:0,_ZN8Operator7ElasticILi6EE5GetBCEv
FN:70,_ZN8Operator7ElasticILi3EE5GetBCEv
FNDA:0,_ZN8Operator7ElasticILi3EE5GetBCEv
FN:109,_ZN8Operator7ElasticILi3EE10SetUniformEb
FNDA:0,_ZN8Operator7ElasticILi3EE10SetUniformEb
FN:109,_ZN8Operator7ElasticILi4EE10SetUniformEb
FNDA:0,_ZN8Operator7ElasticILi4EE10SetUniformEb
FN:109,_ZN8Operator7ElasticILi1EE10SetUniformEb
FNDA:0,_ZN8Operator7ElasticILi1EE10SetUniformEb
FN:109,_ZN8Operator7ElasticILi6EE10SetUniformEb
FNDA:0,_ZN8Operator7ElasticILi6EE10SetUniformEb
FN:110,_ZN8Operator7ElasticILi6EE20SetAverageDownCoeffsEb
FNDA:0,_ZN8Operator7ElasticILi6EE20SetAverageDownCoeffsEb
FN:127,_ZNK8Operator7ElasticILi6EE8getNCompEv
FNDA:0,_ZNK8Operator7ElasticILi6EE8getNCompEv
FN:128,_ZNK8Operator7ElasticILi6EE14isCrossStencilEv
FNDA:0,_ZNK8Operator7ElasticILi6EE14isCrossStencilEv
FN:129,_ZN8Operator7ElasticILi6EE15prepareForSolveEv
FNDA:0,_ZN8Operator7ElasticILi6EE15prepareForSolveEv
FN:186,_ZN8Operator7ElasticILi6EE5ParseERS1_RN2IO9ParmParseE
FNDA:0,_ZN8Operator7ElasticILi6EE5ParseERS1_RN2IO9ParmParseE
FN:186,_ZN8Operator7ElasticILi4EE5ParseERS1_RN2IO9ParmParseE
FNDA:0,_ZN8Operator7ElasticILi4EE5ParseERS1_RN2IO9ParmParseE
FN:186,_ZN8Operator7ElasticILi3EE5ParseERS1_RN2IO9ParmParseE
FNDA:0,_ZN8Operator7ElasticILi3EE5ParseERS1_RN2IO9ParmParseE
FN:186,_ZN8Operator7ElasticILi1EE5ParseERS1_RN2IO9ParmParseE
FNDA:0,_ZN8Operator7ElasticILi1EE5ParseERS1_RN2IO9ParmParseE
DA:31,0
DA:48,0
DA:48,0
DA:48,0
DA:48,0
DA:53,0
DA:54,0
DA:53,0
DA:54,0
DA:53,0
DA:54,0
DA:53,0
DA:54,0
DA:61,0
DA:63,0
DA:65,0
DA:67,0
DA:68,0
DA:69,0
DA:61,0
DA:63,0
DA:65,0
DA:67,0
DA:68,0
DA:69,0
DA:61,0
DA:63,0
DA:65,0
DA:67,0
DA:68,0
DA:69,0
DA:61,0
DA:63,0
DA:65,0
DA:67,0
DA:68,0
DA:69,0
DA:70,0
DA:72,0
DA:70,0
DA:72,0
DA:70,0
DA:72,0
DA:70,0
DA:72,0
DA:109,0
DA:109,0
DA:109,0
DA:109,0
DA:110,0
DA:111,0
DA:127,0
DA:128,0
DA:129,0
DA:131,0
DA:132,0
DA:133,0
DA:134,0
DA:186,0
DA:188,0
DA:189,0
DA:186,0
DA:188,0
DA:189,0
DA:186,0
DA:188,0
DA:189,0
DA:186,0
DA:188,0
DA:189,0
end_of_record
SF:/home/brunnels/Research/alamo/src/IC/Ellipse.H
FN:26,_ZN2IC7EllipseC2ERN5amrex6VectorINS1_8GeometryESaIS3_EEE
FNDA:0,_ZN2IC7EllipseC2ERN5amrex6VectorINS1_8GeometryESaIS3_EEE
FN:27,_ZN2IC7EllipseC2ERN5amrex6VectorINS1_8GeometryESaIS3_EEERN2IO9ParmParseENSt7__cxx1112basic_stringIcSt11char_traitsIcESaIcEEE
FNDA:0,_ZN2IC7EllipseC2ERN5amrex6VectorINS1_8GeometryESaIS3_EEERN2IO9ParmParseENSt7__cxx1112basic_stringIcSt11char_traitsIcESaIcEEE
FN:30,_ZN2IC7Ellipse3AddERKiRN3Set5FieldIdEEd
FNDA:0,_ZN2IC7Ellipse3AddERKiRN3Set5FieldIdEEd
FN:43,_ZZN2IC7Ellipse3AddERKiRN3Set5FieldIdEEdENKUliiiE_clEiii
FNDA:0,_ZZN2IC7Ellipse3AddERKiRN3Set5FieldIdEEdENKUliiiE_clEiii
FN:100,_ZN2IC7Ellipse5ParseERS0_RN2IO9ParmParseE
FNDA:0,_ZN2IC7Ellipse5ParseERS0_RN2IO9ParmParseE
DA:26,0
DA:27,0
DA:28,0
DA:30,0
DA:32,0
DA:33,0
DA:34,0
DA:36,0
DA:38,0
DA:39,0
DA:40,0
DA:42,0
DA:43,0
DA:45,0
DA:47,0
DA:49,0
DA:53,0
DA:55,0
DA:60,0
DA:62,0
DA:63,0
DA:64,0
DA:65,0
DA:70,0
DA:71,0
DA:73,0
DA:74,0
DA:79,0
DA:80,0
DA:81,0
DA:82,0
DA:83,0
DA:84,0
DA:87,0
DA:89,0
DA:90,0
DA:100,0
DA:102,0
DA:103,0
DA:105,0
DA:106,0
DA:107,0
DA:109,0
DA:110,0
DA:111,0
DA:114,0
DA:115,0
DA:117,0
DA:118,0
DA:120,0
DA:121,0
DA:123,0
DA:125,0
DA:126,0
DA:127,0
DA:128,0
DA:129,0
DA:134,0
DA:135,0
DA:137,0
DA:138,0
DA:139,0
DA:141,0
DA:143,0
DA:144,0
DA:145,0
DA:146,0
DA:148,0
DA:150,0
DA:151,0
DA:152,0
DA:153,0
DA:154,0
DA:156,0
DA:157,0
DA:158,0
DA:159,0
DA:163,0
DA:164,0
DA:166,0
DA:175,0
DA:179,0
DA:181,0
DA:182,0
DA:184,0
DA:185,0
DA:186,0
DA:188,0
DA:189,0
DA:190,0
DA:191,0
DA:195,0
DA:197,0
DA:198,0
DA:199,0
DA:204,0
DA:205,0
DA:206,0
DA:207,0
DA:209,0
DA:210,0
DA:213,0
DA:216,0
DA:217,0
end_of_record
SF:/home/brunnels/Research/alamo/src/Model/Solid/Elastic/PseudoLinearCubic.H
FN:16,_ZN5Model5Solid7Elastic17PseudoLinearCubicC2Ev
FNDA:2189,_ZN5Model5Solid7Elastic17PseudoLinearCubicC2Ev
FN:18,_ZN5Model5Solid7Elastic17PseudoLinearCubicD0Ev
FNDA:0,_ZN5Model5Solid7Elastic17PseudoLinearCubicD0Ev
FN:18,_ZN5Model5Solid7Elastic17PseudoLinearCubicD2Ev
FNDA:2920,_ZN5Model5Solid7Elastic17PseudoLinearCubicD2Ev
FN:20,_ZNK5Model5Solid7Elastic17PseudoLinearCubic1WERKN5Eigen6MatrixIdLi3ELi3ELi0ELi3ELi3EEE
FNDA:0,_ZNK5Model5Solid7Elastic17PseudoLinearCubic1WERKN5Eigen6MatrixIdLi3ELi3ELi0ELi3ELi3EEE
FN:25,_ZNK5Model5Solid7Elastic17PseudoLinearCubic2DWERKN5Eigen6MatrixIdLi3ELi3ELi0ELi3ELi3EEE
FNDA:25000,_ZNK5Model5Solid7Elastic17PseudoLinearCubic2DWERKN5Eigen6MatrixIdLi3ELi3ELi0ELi3ELi3EEE
FN:39,_ZNK5Model5Solid7Elastic17PseudoLinearCubic3DDWERKN5Eigen6MatrixIdLi3ELi3ELi0ELi3ELi3EEE
FNDA:12500,_ZNK5Model5Solid7Elastic17PseudoLinearCubic3DDWERKN5Eigen6MatrixIdLi3ELi3ELi0ELi3ELi3EEE
FN:62,_ZNK5Model5Solid7Elastic17PseudoLinearCubic5PrintERSo
FNDA:0,_ZNK5Model5Solid7Elastic17PseudoLinearCubic5PrintERSo
FN:72,_ZN5Model5Solid7Elastic17PseudoLinearCubic4ZeroEv
FNDA:730,_ZN5Model5Solid7Elastic17PseudoLinearCubic4ZeroEv
FN:82,_ZN5Model5Solid7Elastic17PseudoLinearCubic6RandomEddd
FNDA:0,_ZN5Model5Solid7Elastic17PseudoLinearCubic6RandomEddd
FN:92,_ZN5Model5Solid7Elastic17PseudoLinearCubic5ParseERS2_RN2IO9ParmParseE
FNDA:1,_ZN5Model5Solid7Elastic17PseudoLinearCubic5ParseERS2_RN2IO9ParmParseE
DA:16,2189
DA:18,0
DA:18,2920
DA:20,0
DA:22,0
DA:23,0
DA:25,25000
DA:27,25000
DA:28,25000
DA:29,100000
DA:30,300000
DA:31,900000
DA:32,2700000
DA:33,8100000
DA:35,12150000
DA:37,50000
DA:39,12500
DA:41,12500
DA:42,12500
DA:43,12500
DA:45,50000
DA:46,150000
DA:47,450000
DA:48,1350000
DA:50,1012500
DA:51,4050000
DA:52,12150000
DA:54,18225000
DA:55,27337500
DA:56,9112500
DA:60,25000
DA:62,0
DA:64,0
DA:65,0
DA:72,730
DA:74,730
DA:75,730
DA:76,730
DA:82,0
DA:84,0
DA:85,0
DA:86,0
DA:87,0
DA:88,0
DA:89,0
DA:90,0
DA:92,1
DA:94,1
DA:95,1
DA:96,1
DA:97,1
DA:99,1
DA:101,0
DA:102,0
DA:103,0
DA:106,1
DA:107,1
DA:108,1
DA:109,1
DA:111,1
end_of_record
SF:/home/brunnels/Research/alamo/src/Model/Solid/Elastic/PseudoLinearCubicPredeformed.H
FN:16,_ZN5Model5Solid7Elastic28PseudoLinearCubicPredeformedC2Ev
FNDA:0,_ZN5Model5Solid7Elastic28PseudoLinearCubicPredeformedC2Ev
FN:17,_ZN5Model5Solid7Elastic28PseudoLinearCubicPredeformedC2ENS1_17PseudoLinearCubicE
FNDA:0,_ZN5Model5Solid7Elastic28PseudoLinearCubicPredeformedC2ENS1_17PseudoLinearCubicE
FN:18,_ZN5Model5Solid7Elastic28PseudoLinearCubicPredeformedD0Ev
FNDA:0,_ZN5Model5Solid7Elastic28PseudoLinearCubicPredeformedD0Ev
FN:18,_ZN5Model5Solid7Elastic28PseudoLinearCubicPredeformedD2Ev
FNDA:0,_ZN5Model5Solid7Elastic28PseudoLinearCubicPredeformedD2Ev
FN:20,_ZNK5Model5Solid7Elastic28PseudoLinearCubicPredeformed1WERKN5Eigen6MatrixIdLi3ELi3ELi0ELi3ELi3EEE
FNDA:0,_ZNK5Model5Solid7Elastic28PseudoLinearCubicPredeformed1WERKN5Eigen6MatrixIdLi3ELi3ELi0ELi3ELi3EEE
FN:25,_ZNK5Model5Solid7Elastic28PseudoLinearCubicPredeformed2DWERKN5Eigen6MatrixIdLi3ELi3ELi0ELi3ELi3EEE
FNDA:0,_ZNK5Model5Solid7Elastic28PseudoLinearCubicPredeformed2DWERKN5Eigen6MatrixIdLi3ELi3ELi0ELi3ELi3EEE
FN:30,_ZNK5Model5Solid7Elastic28PseudoLinearCubicPredeformed3DDWERKN5Eigen6MatrixIdLi3ELi3ELi0ELi3ELi3EEE
FNDA:0,_ZNK5Model5Solid7Elastic28PseudoLinearCubicPredeformed3DDWERKN5Eigen6MatrixIdLi3ELi3ELi0ELi3ELi3EEE
FN:52,_ZN5Model5Solid7Elastic28PseudoLinearCubicPredeformed4ZeroEv
FNDA:0,_ZN5Model5Solid7Elastic28PseudoLinearCubicPredeformed4ZeroEv
FN:64,_ZN5Model5Solid7Elastic28PseudoLinearCubicPredeformed5ParseERS2_RN2IO9ParmParseE
FNDA:0,_ZN5Model5Solid7Elastic28PseudoLinearCubicPredeformed5ParseERS2_RN2IO9ParmParseE
FN:102,_ZNK3Set5FieldIN5Model5Solid7Elastic28PseudoLinearCubicPredeformedEE5NCompEv
FNDA:0,_ZNK3Set5FieldIN5Model5Solid7Elastic28PseudoLinearCubicPredeformedEE5NCompEv
FN:108,_ZNK3Set5FieldIN5Model5Solid7Elastic28PseudoLinearCubicPredeformedEE4NameB5cxx11Ei
FNDA:0,_ZNK3Set5FieldIN5Model5Solid7Elastic28PseudoLinearCubicPredeformedEE4NameB5cxx11Ei
FN:118,_ZNK3Set5FieldIN5Model5Solid7Elastic28PseudoLinearCubicPredeformedEE4CopyEiRN5amrex8MultiFabEii
FNDA:0,_ZNK3Set5FieldIN5Model5Solid7Elastic28PseudoLinearCubicPredeformedEE4CopyEiRN5amrex8MultiFabEii
FN:127,_ZZNK3Set5FieldIN5Model5Solid7Elastic28PseudoLinearCubicPredeformedEE4CopyEiRN5amrex8MultiFabEiiENKUliiiE_clEiii
FNDA:0,_ZZNK3Set5FieldIN5Model5Solid7Elastic28PseudoLinearCubicPredeformedEE4CopyEiRN5amrex8MultiFabEiiENKUliiiE_clEiii
DA:16,0
DA:17,0
DA:18,0
DA:18,0
DA:20,0
DA:22,0
DA:23,0
DA:25,0
DA:27,0
DA:28,0
DA:30,0
DA:32,0
DA:33,0
DA:34,0
DA:35,0
DA:36,0
DA:37,0
DA:38,0
DA:40,0
DA:41,0
DA:42,0
DA:43,0
DA:45,0
DA:52,0
DA:54,0
DA:55,0
DA:56,0
DA:64,0
DA:66,0
DA:67,0
DA:69,0
DA:71,0
DA:73,0
DA:74,0
DA:75,0
DA:77,0
DA:79,0
DA:80,0
DA:81,0
DA:85,0
DA:87,0
DA:88,0
DA:102,0
DA:104,0
DA:108,0
DA:110,0
DA:111,0
DA:112,0
DA:113,0
DA:114,0
DA:118,0
DA:120,0
DA:122,0
DA:123,0
DA:125,0
DA:126,0
DA:127,0
DA:129,0
DA:130,0
DA:131,0
DA:132,0
DA:133,0
DA:136,0
end_of_record
SF:/home/brunnels/Research/alamo/src/Model/Solid/Linear/Laplacian.H
FN:28,_ZN5Model5Solid6Linear9LaplacianC2Ev
FNDA:0,_ZN5Model5Solid6Linear9LaplacianC2Ev
FN:30,_ZN5Model5Solid6Linear9LaplacianD0Ev
FNDA:0,_ZN5Model5Solid6Linear9LaplacianD0Ev
FN:30,_ZN5Model5Solid6Linear9LaplacianD2Ev
FNDA:0,_ZN5Model5Solid6Linear9LaplacianD2Ev
FN:31,_ZN5Model5Solid6Linear9Laplacian6DefineEv
FNDA:0,_ZN5Model5Solid6Linear9Laplacian6DefineEv
FN:35,_ZNK5Model5Solid6Linear9Laplacian1WERKN5Eigen6MatrixIdLi3ELi3ELi0ELi3ELi3EEE
FNDA:0,_ZNK5Model5Solid6Linear9Laplacian1WERKN5Eigen6MatrixIdLi3ELi3ELi0ELi3ELi3EEE
FN:39,_ZNK5Model5Solid6Linear9Laplacian2DWERKN5Eigen6MatrixIdLi3ELi3ELi0ELi3ELi3EEE
FNDA:0,_ZNK5Model5Solid6Linear9Laplacian2DWERKN5Eigen6MatrixIdLi3ELi3ELi0ELi3ELi3EEE
FN:43,_ZNK5Model5Solid6Linear9Laplacian3DDWERKN5Eigen6MatrixIdLi3ELi3ELi0ELi3ELi3EEE
FNDA:0,_ZNK5Model5Solid6Linear9Laplacian3DDWERKN5Eigen6MatrixIdLi3ELi3ELi0ELi3ELi3EEE
FN:49,_ZN5Model5Solid6Linear9Laplacian4ZeroEv
FNDA:0,_ZN5Model5Solid6Linear9Laplacian4ZeroEv
FN:55,_ZN5Model5Solid6Linear9Laplacian5ParseES2_N2IO9ParmParseE
FNDA:0,_ZN5Model5Solid6Linear9Laplacian5ParseES2_N2IO9ParmParseE
DA:28,0
DA:30,0
DA:30,0
DA:31,0
DA:33,0
DA:34,0
DA:35,0
DA:37,0
DA:39,0
DA:41,0
DA:43,0
DA:45,0
DA:49,0
DA:51,0
DA:52,0
DA:53,0
DA:55,0
end_of_record
SF:/home/brunnels/Research/alamo/src/IO/ParmParse.H
FN:23,_ZN2IO9ParmParseC2ENSt7__cxx1112basic_stringIcSt11char_traitsIcESaIcEEE
FNDA:0,_ZN2IO9ParmParseC2ENSt7__cxx1112basic_stringIcSt11char_traitsIcESaIcEEE
FN:24,_ZN2IO9ParmParseC2Ev
FNDA:0,_ZN2IO9ParmParseC2Ev
FN:25,_ZNK2IO9ParmParse9getPrefixB5cxx11Ev
FNDA:0,_ZNK2IO9ParmParse9getPrefixB5cxx11Ev
FN:30,_ZN2IO9ParmParse8queryarrENSt7__cxx1112basic_stringIcSt11char_traitsIcESaIcEEERN5Eigen6MatrixIdLi3ELi1ELi0ELi3ELi1EEE
FNDA:0,_ZN2IO9ParmParse8queryarrENSt7__cxx1112basic_stringIcSt11char_traitsIcESaIcEEERN5Eigen6MatrixIdLi3ELi1ELi0ELi3ELi1EEE
FN:41,_ZN2IO9ParmParse8queryarrENSt7__cxx1112basic_stringIcSt11char_traitsIcESaIcEEERN5Eigen6MatrixIdLi3ELi3ELi0ELi3ELi3EEE
FNDA:0,_ZN2IO9ParmParse8queryarrENSt7__cxx1112basic_stringIcSt11char_traitsIcESaIcEEERN5Eigen6MatrixIdLi3ELi3ELi0ELi3ELi3EEE
FN:78,_ZN2IO9ParmParse15AnyUnusedInputsEv
FNDA:0,_ZN2IO9ParmParse15AnyUnusedInputsEv
FN:110,_ZN2IO9ParmParse6prefixB5cxx11Ev
FNDA:0,_ZN2IO9ParmParse6prefixB5cxx11Ev
FN:117,_ZN2IO9ParmParse10queryclassIN10Integrator14HeatConductionEEEvNSt7__cxx1112basic_stringIcSt11char_traitsIcESaIcEEEPT_
FNDA:0,_ZN2IO9ParmParse10queryclassIN10Integrator14HeatConductionEEEvNSt7__cxx1112basic_stringIcSt11char_traitsIcESaIcEEEPT_
FN:117,_ZN2IO9ParmParse10queryclassIN10Integrator4Base9MechanicsIN5Model5Solid6Affine5CubicEEEEEvNSt7__cxx1112basic_stringIcSt11char_traitsIcESaIcEEEPT_
FNDA:0,_ZN2IO9ParmParse10queryclassIN10Integrator4Base9MechanicsIN5Model5Solid6Affine5CubicEEEEEvNSt7__cxx1112basic_stringIcSt11char_traitsIcESaIcEEEPT_
FN:117,_ZN2IO9ParmParse10queryclassIN10Integrator4Base9MechanicsIN5Model5Solid6Affine9HexagonalEEEEEvNSt7__cxx1112basic_stringIcSt11char_traitsIcESaIcEEEPT_
FNDA:0,_ZN2IO9ParmParse10queryclassIN10Integrator4Base9MechanicsIN5Model5Solid6Affine9HexagonalEEEEEvNSt7__cxx1112basic_stringIcSt11char_traitsIcESaIcEEEPT_
FN:117,_ZN2IO9ParmParse10queryclassIN10Integrator9MechanicsIN5Model5Solid6Affine9IsotropicEEEEEvNSt7__cxx1112basic_stringIcSt11char_traitsIcESaIcEEEPT_
FNDA:0,_ZN2IO9ParmParse10queryclassIN10Integrator9MechanicsIN5Model5Solid6Affine9IsotropicEEEEEvNSt7__cxx1112basic_stringIcSt11char_traitsIcESaIcEEEPT_
FN:126,_ZN2IO9ParmParse10queryclassIN2IC5NotchEEEvNSt7__cxx1112basic_stringIcSt11char_traitsIcESaIcEEERT_
FNDA:0,_ZN2IO9ParmParse10queryclassIN2IC5NotchEEEvNSt7__cxx1112basic_stringIcSt11char_traitsIcESaIcEEERT_
FN:126,_ZN2IO9ParmParse10queryclassIN5Model9Interface5Crack8ConstantEEEvNSt7__cxx1112basic_stringIcSt11char_traitsIcESaIcEEERT_
FNDA:0,_ZN2IO9ParmParse10queryclassIN5Model9Interface5Crack8ConstantEEEvNSt7__cxx1112basic_stringIcSt11char_traitsIcESaIcEEERT_
FN:126,_ZN2IO9ParmParse10queryclassIN6Solver8Nonlocal6NewtonIN5Model5Solid6Linear19IsotropicDegradableEEEEEvNSt7__cxx1112basic_stringIcSt11char_traitsIcESaIcEEERT_
FNDA:0,_ZN2IO9ParmParse10queryclassIN6Solver8Nonlocal6NewtonIN5Model5Solid6Linear19IsotropicDegradableEEEEEvNSt7__cxx1112basic_stringIcSt11char_traitsIcESaIcEEERT_
FN:126,_ZN2IO9ParmParse10queryclassIN2IC8LaminateEEEvNSt7__cxx1112basic_stringIcSt11char_traitsIcESaIcEEERT_
FNDA:0,_ZN2IO9ParmParse10queryclassIN2IC8LaminateEEEvNSt7__cxx1112basic_stringIcSt11char_traitsIcESaIcEEERT_
FN:126,_ZN2IO9ParmParse10queryclassIN5Model9Interface2GB2SHEEEvNSt7__cxx1112basic_stringIcSt11char_traitsIcESaIcEEERT_
FNDA:0,_ZN2IO9ParmParse10queryclassIN5Model9Interface2GB2SHEEEvNSt7__cxx1112basic_stringIcSt11char_traitsIcESaIcEEERT_
FN:126,_ZN2IO9ParmParse10queryclassIN5Model9Interface2GB4ReadEEEvNSt7__cxx1112basic_stringIcSt11char_traitsIcESaIcEEERT_
FNDA:0,_ZN2IO9ParmParse10queryclassIN5Model9Interface2GB4ReadEEEvNSt7__cxx1112basic_stringIcSt11char_traitsIcESaIcEEERT_
FN:126,_ZN2IO9ParmParse10queryclassIN5Model9Interface2GB6AbsSinEEEvNSt7__cxx1112basic_stringIcSt11char_traitsIcESaIcEEERT_
FNDA:0,_ZN2IO9ParmParse10queryclassIN5Model9Interface2GB6AbsSinEEEvNSt7__cxx1112basic_stringIcSt11char_traitsIcESaIcEEERT_
FN:126,_ZN2IO9ParmParse10queryclassIN5Model9Interface2GB3SinEEEvNSt7__cxx1112basic_stringIcSt11char_traitsIcESaIcEEERT_
FNDA:0,_ZN2IO9ParmParse10queryclassIN5Model9Interface2GB3SinEEEvNSt7__cxx1112basic_stringIcSt11char_traitsIcESaIcEEERT_
FN:126,_ZN2IO9ParmParse10queryclassIN2IC18PerturbedInterfaceEEEvNSt7__cxx1112basic_stringIcSt11char_traitsIcESaIcEEERT_
FNDA:0,_ZN2IO9ParmParse10queryclassIN2IC18PerturbedInterfaceEEEvNSt7__cxx1112basic_stringIcSt11char_traitsIcESaIcEEERT_
FN:126,_ZN2IO9ParmParse10queryclassIN2IC18TabulatedInterfaceEEEvNSt7__cxx1112basic_stringIcSt11char_traitsIcESaIcEEERT_
FNDA:0,_ZN2IO9ParmParse10queryclassIN2IC18TabulatedInterfaceEEEvNSt7__cxx1112basic_stringIcSt11char_traitsIcESaIcEEERT_
FN:126,_ZN2IO9ParmParse10queryclassIN2BC4StepEEEvNSt7__cxx1112basic_stringIcSt11char_traitsIcESaIcEEERT_
FNDA:0,_ZN2IO9ParmParse10queryclassIN2BC4StepEEEvNSt7__cxx1112basic_stringIcSt11char_traitsIcESaIcEEERT_
FN:126,_ZN2IO9ParmParse10queryclassIN2IC7VoronoiEEEvNSt7__cxx1112basic_stringIcSt11char_traitsIcESaIcEEERT_
FNDA:0,_ZN2IO9ParmParse10queryclassIN2IC7VoronoiEEEvNSt7__cxx1112basic_stringIcSt11char_traitsIcESaIcEEERT_
FN:126,_ZN2IO9ParmParse10queryclassIN2IC7EllipseEEEvNSt7__cxx1112basic_stringIcSt11char_traitsIcESaIcEEERT_
FNDA:0,_ZN2IO9ParmParse10queryclassIN2IC7EllipseEEEvNSt7__cxx1112basic_stringIcSt11char_traitsIcESaIcEEERT_
FN:126,_ZN2IO9ParmParse10queryclassIN2IC4TrigEEEvNSt7__cxx1112basic_stringIcSt11char_traitsIcESaIcEEERT_
FNDA:0,_ZN2IO9ParmParse10queryclassIN2IC4TrigEEEvNSt7__cxx1112basic_stringIcSt11char_traitsIcESaIcEEERT_
FN:126,_ZN2IO9ParmParse10queryclassIN2BC8Operator7Elastic10ExpressionEEEvNSt7__cxx1112basic_stringIcSt11char_traitsIcESaIcEEERT_
FNDA:0,_ZN2IO9ParmParse10queryclassIN2BC8Operator7Elastic10ExpressionEEEvNSt7__cxx1112basic_stringIcSt11char_traitsIcESaIcEEERT_
FN:126,_ZN2IO9ParmParse10queryclassIN2BC8Operator7Elastic11TensionTestEEEvNSt7__cxx1112basic_stringIcSt11char_traitsIcESaIcEEERT_
FNDA:0,_ZN2IO9ParmParse10queryclassIN2BC8Operator7Elastic11TensionTestEEEvNSt7__cxx1112basic_stringIcSt11char_traitsIcESaIcEEERT_
FN:126,_ZN2IO9ParmParse10queryclassIN2BC8Operator7Elastic8ConstantEEEvNSt7__cxx1112basic_stringIcSt11char_traitsIcESaIcEEERT_
FNDA:0,_ZN2IO9ParmParse10queryclassIN2BC8Operator7Elastic8ConstantEEEvNSt7__cxx1112basic_stringIcSt11char_traitsIcESaIcEEERT_
FN:126,_ZN2IO9ParmParse10queryclassIN2IC3BMPEEEvNSt7__cxx1112basic_stringIcSt11char_traitsIcESaIcEEERT_
FNDA:0,_ZN2IO9ParmParse10queryclassIN2IC3BMPEEEvNSt7__cxx1112basic_stringIcSt11char_traitsIcESaIcEEERT_
FN:126,_ZN2IO9ParmParse10queryclassIN2IC10ExpressionEEEvNSt7__cxx1112basic_stringIcSt11char_traitsIcESaIcEEERT_
FNDA:0,_ZN2IO9ParmParse10queryclassIN2IC10ExpressionEEEvNSt7__cxx1112basic_stringIcSt11char_traitsIcESaIcEEERT_
FN:126,_ZN2IO9ParmParse10queryclassIN2IC8ConstantEEEvNSt7__cxx1112basic_stringIcSt11char_traitsIcESaIcEEERT_
FNDA:0,_ZN2IO9ParmParse10queryclassIN2IC8ConstantEEEvNSt7__cxx1112basic_stringIcSt11char_traitsIcESaIcEEERT_
FN:126,_ZN2IO9ParmParse10queryclassIN2IC6SphereEEEvNSt7__cxx1112basic_stringIcSt11char_traitsIcESaIcEEERT_
FNDA:0,_ZN2IO9ParmParse10queryclassIN2IC6SphereEEEvNSt7__cxx1112basic_stringIcSt11char_traitsIcESaIcEEERT_
FN:126,_ZN2IO9ParmParse10queryclassIN2BC8ConstantEEEvNSt7__cxx1112basic_stringIcSt11char_traitsIcESaIcEEERT_
FNDA:0,_ZN2IO9ParmParse10queryclassIN2BC8ConstantEEEvNSt7__cxx1112basic_stringIcSt11char_traitsIcESaIcEEERT_
FN:126,_ZN2IO9ParmParse10queryclassIN5Model5Solid6Linear19IsotropicDegradableEEEvNSt7__cxx1112basic_stringIcSt11char_traitsIcESaIcEEERT_
FNDA:0,_ZN2IO9ParmParse10queryclassIN5Model5Solid6Linear19IsotropicDegradableEEEvNSt7__cxx1112basic_stringIcSt11char_traitsIcESaIcEEERT_
FN:126,_ZN2IO9ParmParse10queryclassIN6Solver8Nonlocal6NewtonIN5Model5Solid6Affine2J2EEEEEvNSt7__cxx1112basic_stringIcSt11char_traitsIcESaIcEEERT_
FNDA:0,_ZN2IO9ParmParse10queryclassIN6Solver8Nonlocal6NewtonIN5Model5Solid6Affine2J2EEEEEvNSt7__cxx1112basic_stringIcSt11char_traitsIcESaIcEEERT_
FN:126,_ZN2IO9ParmParse10queryclassIN6Solver8Nonlocal6NewtonIN5Model5Solid7Elastic28PseudoLinearCubicPredeformedEEEEEvNSt7__cxx1112basic_stringIcSt11char_traitsIcESaIcEEERT_
FNDA:0,_ZN2IO9ParmParse10queryclassIN6Solver8Nonlocal6NewtonIN5Model5Solid7Elastic28PseudoLinearCubicPredeformedEEEEEvNSt7__cxx1112basic_stringIcSt11char_traitsIcESaIcEEERT_
FN:126,_ZN2IO9ParmParse10queryclassIN6Solver8Nonlocal6NewtonIN5Model5Solid7Elastic17PseudoLinearCubicEEEEEvNSt7__cxx1112basic_stringIcSt11char_traitsIcESaIcEEERT_
FNDA:1,_ZN2IO9ParmParse10queryclassIN6Solver8Nonlocal6NewtonIN5Model5Solid7Elastic17PseudoLinearCubicEEEEEvNSt7__cxx1112basic_stringIcSt11char_traitsIcESaIcEEERT_
FN:126,_ZN2IO9ParmParse10queryclassIN6Solver8Nonlocal6NewtonIN5Model5Solid7Elastic10NeoHookeanEEEEEvNSt7__cxx1112basic_stringIcSt11char_traitsIcESaIcEEERT_
FNDA:0,_ZN2IO9ParmParse10queryclassIN6Solver8Nonlocal6NewtonIN5Model5Solid7Elastic10NeoHookeanEEEEEvNSt7__cxx1112basic_stringIcSt11char_traitsIcESaIcEEERT_
FN:126,_ZN2IO9ParmParse10queryclassIN6Solver8Nonlocal6NewtonIN5Model5Solid6Linear9LaplacianEEEEEvNSt7__cxx1112basic_stringIcSt11char_traitsIcESaIcEEERT_
FNDA:0,_ZN2IO9ParmParse10queryclassIN6Solver8Nonlocal6NewtonIN5Model5Solid6Linear9LaplacianEEEEEvNSt7__cxx1112basic_stringIcSt11char_traitsIcESaIcEEERT_
FN:126,_ZN2IO9ParmParse10queryclassIN6Solver8Nonlocal6NewtonIN5Model5Solid6Affine9HexagonalEEEEEvNSt7__cxx1112basic_stringIcSt11char_traitsIcESaIcEEERT_
FNDA:0,_ZN2IO9ParmParse10queryclassIN6Solver8Nonlocal6NewtonIN5Model5Solid6Affine9HexagonalEEEEEvNSt7__cxx1112basic_stringIcSt11char_traitsIcESaIcEEERT_
FN:126,_ZN2IO9ParmParse10queryclassIN6Solver8Nonlocal6NewtonIN5Model5Solid6Affine5CubicEEEEEvNSt7__cxx1112basic_stringIcSt11char_traitsIcESaIcEEERT_
FNDA:0,_ZN2IO9ParmParse10queryclassIN6Solver8Nonlocal6NewtonIN5Model5Solid6Affine5CubicEEEEEvNSt7__cxx1112basic_stringIcSt11char_traitsIcESaIcEEERT_
FN:126,_ZN2IO9ParmParse10queryclassIN6Solver8Nonlocal6NewtonIN5Model5Solid6Linear5CubicEEEEEvNSt7__cxx1112basic_stringIcSt11char_traitsIcESaIcEEERT_
FNDA:1,_ZN2IO9ParmParse10queryclassIN6Solver8Nonlocal6NewtonIN5Model5Solid6Linear5CubicEEEEEvNSt7__cxx1112basic_stringIcSt11char_traitsIcESaIcEEERT_
FN:126,_ZN2IO9ParmParse10queryclassIN6Solver8Nonlocal6NewtonIN5Model5Solid6Linear9IsotropicEEEEEvNSt7__cxx1112basic_stringIcSt11char_traitsIcESaIcEEERT_
FNDA:0,_ZN2IO9ParmParse10queryclassIN6Solver8Nonlocal6NewtonIN5Model5Solid6Linear9IsotropicEEEEEvNSt7__cxx1112basic_stringIcSt11char_traitsIcESaIcEEERT_
FN:126,_ZN2IO9ParmParse10queryclassIN6Solver8Nonlocal6NewtonIN5Model5Solid6Affine9IsotropicEEEEEvNSt7__cxx1112basic_stringIcSt11char_traitsIcESaIcEEERT_
FNDA:0,_ZN2IO9ParmParse10queryclassIN6Solver8Nonlocal6NewtonIN5Model5Solid6Affine9IsotropicEEEEEvNSt7__cxx1112basic_stringIcSt11char_traitsIcESaIcEEERT_
FN:126,_ZN2IO9ParmParse10queryclassIN7Numeric12Interpolator6LinearIdEEEEvNSt7__cxx1112basic_stringIcSt11char_traitsIcESaIcEEERT_
FNDA:0,_ZN2IO9ParmParse10queryclassIN7Numeric12Interpolator6LinearIdEEEEvNSt7__cxx1112basic_stringIcSt11char_traitsIcESaIcEEERT_
FN:126,_ZN2IO9ParmParse10queryclassIN5Model5Solid6Affine2J2EEEvNSt7__cxx1112basic_stringIcSt11char_traitsIcESaIcEEERT_
FNDA:0,_ZN2IO9ParmParse10queryclassIN5Model5Solid6Affine2J2EEEvNSt7__cxx1112basic_stringIcSt11char_traitsIcESaIcEEERT_
FN:126,_ZN2IO9ParmParse10queryclassIN5Model5Solid7Elastic28PseudoLinearCubicPredeformedEEEvNSt7__cxx1112basic_stringIcSt11char_traitsIcESaIcEEERT_
FNDA:0,_ZN2IO9ParmParse10queryclassIN5Model5Solid7Elastic28PseudoLinearCubicPredeformedEEEvNSt7__cxx1112basic_stringIcSt11char_traitsIcESaIcEEERT_
FN:126,_ZN2IO9ParmParse10queryclassIN5Model5Solid7Elastic17PseudoLinearCubicEEEvNSt7__cxx1112basic_stringIcSt11char_traitsIcESaIcEEERT_
FNDA:1,_ZN2IO9ParmParse10queryclassIN5Model5Solid7Elastic17PseudoLinearCubicEEEvNSt7__cxx1112basic_stringIcSt11char_traitsIcESaIcEEERT_
FN:126,_ZN2IO9ParmParse10queryclassIN5Model5Solid7Elastic10NeoHookeanEEEvNSt7__cxx1112basic_stringIcSt11char_traitsIcESaIcEEERT_
FNDA:0,_ZN2IO9ParmParse10queryclassIN5Model5Solid7Elastic10NeoHookeanEEEvNSt7__cxx1112basic_stringIcSt11char_traitsIcESaIcEEERT_
FN:126,_ZN2IO9ParmParse10queryclassIN5Model5Solid6Linear9LaplacianEEEvNSt7__cxx1112basic_stringIcSt11char_traitsIcESaIcEEERT_
FNDA:0,_ZN2IO9ParmParse10queryclassIN5Model5Solid6Linear9LaplacianEEEvNSt7__cxx1112basic_stringIcSt11char_traitsIcESaIcEEERT_
FN:126,_ZN2IO9ParmParse10queryclassIN5Model5Solid6Affine9HexagonalEEEvNSt7__cxx1112basic_stringIcSt11char_traitsIcESaIcEEERT_
FNDA:0,_ZN2IO9ParmParse10queryclassIN5Model5Solid6Affine9HexagonalEEEvNSt7__cxx1112basic_stringIcSt11char_traitsIcESaIcEEERT_
FN:126,_ZN2IO9ParmParse10queryclassIN5Model5Solid6Affine5CubicEEEvNSt7__cxx1112basic_stringIcSt11char_traitsIcESaIcEEERT_
FNDA:0,_ZN2IO9ParmParse10queryclassIN5Model5Solid6Affine5CubicEEEvNSt7__cxx1112basic_stringIcSt11char_traitsIcESaIcEEERT_
FN:126,_ZN2IO9ParmParse10queryclassIN5Model5Solid6Linear5CubicEEEvNSt7__cxx1112basic_stringIcSt11char_traitsIcESaIcEEERT_
FNDA:1,_ZN2IO9ParmParse10queryclassIN5Model5Solid6Linear5CubicEEEvNSt7__cxx1112basic_stringIcSt11char_traitsIcESaIcEEERT_
FN:126,_ZN2IO9ParmParse10queryclassIN5Model5Solid6Linear9IsotropicEEEvNSt7__cxx1112basic_stringIcSt11char_traitsIcESaIcEEERT_
FNDA:0,_ZN2IO9ParmParse10queryclassIN5Model5Solid6Linear9IsotropicEEEvNSt7__cxx1112basic_stringIcSt11char_traitsIcESaIcEEERT_
FN:126,_ZN2IO9ParmParse10queryclassIN5Model5Solid6Affine9IsotropicEEEvNSt7__cxx1112basic_stringIcSt11char_traitsIcESaIcEEERT_
FNDA:0,_ZN2IO9ParmParse10queryclassIN5Model5Solid6Affine9IsotropicEEEvNSt7__cxx1112basic_stringIcSt11char_traitsIcESaIcEEERT_
FN:126,_ZN2IO9ParmParse10queryclassIN2IC9EllipsoidEEEvNSt7__cxx1112basic_stringIcSt11char_traitsIcESaIcEEERT_
FNDA:0,_ZN2IO9ParmParse10queryclassIN2IC9EllipsoidEEEvNSt7__cxx1112basic_stringIcSt11char_traitsIcESaIcEEERT_
FN:142,_ZN2IO9ParmParse10queryclassIN10Integrator24PhaseFieldMicrostructureIN5Model5Solid6Affine9HexagonalEEEEEvRT_
FNDA:0,_ZN2IO9ParmParse10queryclassIN10Integrator24PhaseFieldMicrostructureIN5Model5Solid6Affine9HexagonalEEEEEvRT_
FN:142,_ZN2IO9ParmParse10queryclassIN10Integrator24PhaseFieldMicrostructureIN5Model5Solid6Affine5CubicEEEEEvRT_
FNDA:0,_ZN2IO9ParmParse10queryclassIN10Integrator24PhaseFieldMicrostructureIN5Model5Solid6Affine5CubicEEEEEvRT_
FN:142,_ZN2IO9ParmParse10queryclassIN8Operator7ElasticILi6EEEEEvRT_
FNDA:0,_ZN2IO9ParmParse10queryclassIN8Operator7ElasticILi6EEEEEvRT_
FN:142,_ZN2IO9ParmParse10queryclassIN8Operator7ElasticILi3EEEEEvRT_
FNDA:0,_ZN2IO9ParmParse10queryclassIN8Operator7ElasticILi3EEEEEvRT_
FN:142,_ZN2IO9ParmParse10queryclassIN8Operator7ElasticILi1EEEEEvRT_
FNDA:100,_ZN2IO9ParmParse10queryclassIN8Operator7ElasticILi1EEEEEvRT_
FN:142,_ZN2IO9ParmParse10queryclassIN8Operator7ElasticILi4EEEEEvRT_
FNDA:0,_ZN2IO9ParmParse10queryclassIN8Operator7ElasticILi4EEEEEvRT_
DA:23,0
DA:24,0
DA:25,0
DA:30,0
DA:32,0
DA:33,0
DA:34,0
DA:36,0
DA:38,0
DA:39,0
DA:41,0
DA:43,0
DA:44,0
DA:45,0
DA:53,0
DA:54,0
DA:55,0
DA:58,0
DA:65,0
DA:66,0
DA:67,0
DA:68,0
DA:73,0
DA:75,0
DA:78,0
DA:80,0
DA:81,0
DA:82,0
DA:83,0
DA:85,0
DA:87,0
DA:88,0
DA:91,0
DA:110,0
DA:112,0
DA:117,0
DA:119,0
DA:120,0
DA:121,0
DA:122,0
DA:123,0
DA:124,0
DA:117,0
DA:119,0
DA:120,0
DA:121,0
DA:122,0
DA:123,0
DA:124,0
DA:117,0
DA:119,0
DA:120,0
DA:121,0
DA:122,0
DA:123,0
DA:124,0
DA:117,0
DA:119,0
DA:120,0
DA:121,0
DA:122,0
DA:123,0
DA:124,0
DA:126,0
DA:128,0
DA:129,0
DA:130,0
DA:131,0
DA:132,0
DA:133,0
DA:126,0
DA:128,0
DA:129,0
DA:130,0
DA:131,0
DA:132,0
DA:133,0
DA:126,0
DA:128,0
DA:129,0
DA:130,0
DA:131,0
DA:132,0
DA:133,0
DA:126,0
DA:128,0
DA:129,0
DA:130,0
DA:131,0
DA:132,0
DA:133,0
DA:126,0
DA:128,0
DA:129,0
DA:130,0
DA:131,0
DA:132,0
DA:133,0
DA:126,0
DA:128,0
DA:129,0
DA:130,0
DA:131,0
DA:132,0
DA:133,0
DA:126,0
DA:128,0
DA:129,0
DA:130,0
DA:131,0
DA:132,0
DA:133,0
DA:126,0
DA:128,0
DA:129,0
DA:130,0
DA:131,0
DA:132,0
DA:133,0
DA:126,0
DA:128,0
DA:129,0
DA:130,0
DA:131,0
DA:132,0
DA:133,0
DA:126,0
DA:128,0
DA:129,0
DA:130,0
DA:131,0
DA:132,0
DA:133,0
DA:126,0
DA:128,0
DA:129,0
DA:130,0
DA:131,0
DA:132,0
DA:133,0
DA:126,0
DA:128,0
DA:129,0
DA:130,0
DA:131,0
DA:132,0
DA:133,0
DA:126,0
DA:128,0
DA:129,0
DA:130,0
DA:131,0
DA:132,0
DA:133,0
DA:126,0
DA:128,0
DA:129,0
DA:130,0
DA:131,0
DA:132,0
DA:133,0
DA:126,0
DA:128,0
DA:129,0
DA:130,0
DA:131,0
DA:132,0
DA:133,0
DA:126,0
DA:128,0
DA:129,0
DA:130,0
DA:131,0
DA:132,0
DA:133,0
DA:126,0
DA:128,0
DA:129,0
DA:130,0
DA:131,0
DA:132,0
DA:133,0
DA:126,0
DA:128,0
DA:129,0
DA:130,0
DA:131,0
DA:132,0
DA:133,0
DA:126,0
DA:128,0
DA:129,0
DA:130,0
DA:131,0
DA:132,0
DA:133,0
DA:126,0
DA:128,0
DA:129,0
DA:130,0
DA:131,0
DA:132,0
DA:133,0
DA:126,0
DA:128,0
DA:129,0
DA:130,0
DA:131,0
DA:132,0
DA:133,0
DA:126,0
DA:128,0
DA:129,0
DA:130,0
DA:131,0
DA:132,0
DA:133,0
DA:126,0
DA:128,0
DA:129,0
DA:130,0
DA:131,0
DA:132,0
DA:133,0
DA:126,0
DA:128,0
DA:129,0
DA:130,0
DA:131,0
DA:132,0
DA:133,0
DA:126,0
DA:128,0
DA:129,0
DA:130,0
DA:131,0
DA:132,0
DA:133,0
DA:126,1
DA:128,1
DA:129,1
DA:130,1
DA:131,0
DA:132,1
DA:133,1
DA:126,0
DA:128,0
DA:129,0
DA:130,0
DA:131,0
DA:132,0
DA:133,0
DA:126,0
DA:128,0
DA:129,0
DA:130,0
DA:131,0
DA:132,0
DA:133,0
DA:126,0
DA:128,0
DA:129,0
DA:130,0
DA:131,0
DA:132,0
DA:133,0
DA:126,0
DA:128,0
DA:129,0
DA:130,0
DA:131,0
DA:132,0
DA:133,0
DA:126,1
DA:128,1
DA:129,1
DA:130,1
DA:131,0
DA:132,1
DA:133,1
DA:126,0
DA:128,0
DA:129,0
DA:130,0
DA:131,0
DA:132,0
DA:133,0
DA:126,0
DA:128,0
DA:129,0
DA:130,0
DA:131,0
DA:132,0
DA:133,0
DA:126,0
DA:128,0
DA:129,0
DA:130,0
DA:131,0
DA:132,0
DA:133,0
DA:126,0
DA:128,0
DA:129,0
DA:130,0
DA:131,0
DA:132,0
DA:133,0
DA:126,0
DA:128,0
DA:129,0
DA:130,0
DA:131,0
DA:132,0
DA:133,0
DA:126,1
DA:128,1
DA:129,1
DA:130,1
DA:131,0
DA:132,1
DA:133,1
DA:126,0
DA:128,0
DA:129,0
DA:130,0
DA:131,0
DA:132,0
DA:133,0
DA:126,0
DA:128,0
DA:129,0
DA:130,0
DA:131,0
DA:132,0
DA:133,0
DA:126,0
DA:128,0
DA:129,0
DA:130,0
DA:131,0
DA:132,0
DA:133,0
DA:126,0
DA:128,0
DA:129,0
DA:130,0
DA:131,0
DA:132,0
DA:133,0
DA:126,1
DA:128,1
DA:129,1
DA:130,1
DA:131,0
DA:132,1
DA:133,1
DA:126,0
DA:128,0
DA:129,0
DA:130,0
DA:131,0
DA:132,0
DA:133,0
DA:126,0
DA:128,0
DA:129,0
DA:130,0
DA:131,0
DA:132,0
DA:133,0
DA:126,0
DA:128,0
DA:129,0
DA:130,0
DA:131,0
DA:132,0
DA:133,0
DA:142,0
DA:144,0
DA:145,0
DA:146,0
DA:147,0
DA:142,0
DA:144,0
DA:145,0
DA:146,0
DA:147,0
DA:142,100
DA:144,100
DA:145,100
DA:146,0
DA:147,100
DA:142,0
DA:144,0
DA:145,0
DA:146,0
DA:147,0
DA:142,0
DA:144,0
DA:145,0
DA:146,0
DA:147,0
DA:142,0
DA:144,0
DA:145,0
DA:146,0
DA:147,0
end_of_record
SF:/home/brunnels/Research/alamo/ext/amrex/3d-coverage-g++-23.08/include/AMReX_ParallelContext.H
FN:27,_ZNK5amrex15ParallelContext5Frame6MyProcEv
FNDA:0,_ZNK5amrex15ParallelContext5Frame6MyProcEv
FN:28,_ZNK5amrex15ParallelContext5Frame6NProcsEv
FNDA:0,_ZNK5amrex15ParallelContext5Frame6NProcsEv
FN:29,_ZNK5amrex15ParallelContext5Frame6IOProcEv
FNDA:0,_ZNK5amrex15ParallelContext5Frame6IOProcEv
FN:61,_ZN5amrex15ParallelContext9MyProcAllEv
FNDA:0,_ZN5amrex15ParallelContext9MyProcAllEv
FN:70,_ZN5amrex15ParallelContext15CommunicatorSubEv
FNDA:0,_ZN5amrex15ParallelContext15CommunicatorSubEv
FN:74,_ZN5amrex15ParallelContext9NProcsSubEv
FNDA:0,_ZN5amrex15ParallelContext9NProcsSubEv
FN:76,_ZN5amrex15ParallelContext9MyProcSubEv
FNDA:0,_ZN5amrex15ParallelContext9MyProcSubEv
FN:78,_ZN5amrex15ParallelContext20IOProcessorNumberSubEv
FNDA:0,_ZN5amrex15ParallelContext20IOProcessorNumberSubEv
FN:82,_ZN5amrex15ParallelContext9OFSPtrSubEv
FNDA:0,_ZN5amrex15ParallelContext9OFSPtrSubEv
FN:93,_ZN5amrex15ParallelContext15get_inc_mpi_tagEv
FNDA:0,_ZN5amrex15ParallelContext15get_inc_mpi_tagEv
FN:98,_ZN5amrex15ParallelContext20global_to_local_rankEi
FNDA:0,_ZN5amrex15ParallelContext20global_to_local_rankEi
DA:27,0
DA:28,0
DA:29,0
DA:61,0
DA:70,0
DA:74,0
DA:76,0
DA:78,0
DA:82,0
DA:93,0
DA:98,0
end_of_record
SF:/home/brunnels/Research/alamo/src/Integrator/BaseField.H
FN:51,_ZN10Integrator5FieldIN5Eigen6MatrixIdLi3ELi1ELi0ELi3ELi1EEEE7EmptyBCclERN5amrex8FabArrayINS6_7BaseFabIS3_EEEEiiRKNS6_7IntVectEdi
FNDA:0,_ZN10Integrator5FieldIN5Eigen6MatrixIdLi3ELi1ELi0ELi3ELi1EEEE7EmptyBCclERN5amrex8FabArrayINS6_7BaseFabIS3_EEEEiiRKNS6_7IntVectEdi
FN:51,_ZN10Integrator5FieldIN5Model5Solid6Linear19IsotropicDegradableEE7EmptyBCclERN5amrex8FabArrayINS7_7BaseFabIS4_EEEEiiRKNS7_7IntVectEdi
FNDA:0,_ZN10Integrator5FieldIN5Model5Solid6Linear19IsotropicDegradableEE7EmptyBCclERN5amrex8FabArrayINS7_7BaseFabIS4_EEEEiiRKNS7_7IntVectEdi
FN:51,_ZN10Integrator5FieldIN5Model5Solid6Affine2J2EE7EmptyBCclERN5amrex8FabArrayINS7_7BaseFabIS4_EEEEiiRKNS7_7IntVectEdi
FNDA:0,_ZN10Integrator5FieldIN5Model5Solid6Affine2J2EE7EmptyBCclERN5amrex8FabArrayINS7_7BaseFabIS4_EEEEiiRKNS7_7IntVectEdi
FN:51,_ZN10Integrator5FieldIN5Model5Solid7Elastic28PseudoLinearCubicPredeformedEE7EmptyBCclERN5amrex8FabArrayINS7_7BaseFabIS4_EEEEiiRKNS7_7IntVectEdi
FNDA:0,_ZN10Integrator5FieldIN5Model5Solid7Elastic28PseudoLinearCubicPredeformedEE7EmptyBCclERN5amrex8FabArrayINS7_7BaseFabIS4_EEEEiiRKNS7_7IntVectEdi
FN:51,_ZN10Integrator5FieldIN5Model5Solid7Elastic17PseudoLinearCubicEE7EmptyBCclERN5amrex8FabArrayINS7_7BaseFabIS4_EEEEiiRKNS7_7IntVectEdi
FNDA:0,_ZN10Integrator5FieldIN5Model5Solid7Elastic17PseudoLinearCubicEE7EmptyBCclERN5amrex8FabArrayINS7_7BaseFabIS4_EEEEiiRKNS7_7IntVectEdi
FN:51,_ZN10Integrator5FieldIN5Model5Solid7Elastic10NeoHookeanEE7EmptyBCclERN5amrex8FabArrayINS7_7BaseFabIS4_EEEEiiRKNS7_7IntVectEdi
FNDA:0,_ZN10Integrator5FieldIN5Model5Solid7Elastic10NeoHookeanEE7EmptyBCclERN5amrex8FabArrayINS7_7BaseFabIS4_EEEEiiRKNS7_7IntVectEdi
FN:51,_ZN10Integrator5FieldIN5Model5Solid6Linear9LaplacianEE7EmptyBCclERN5amrex8FabArrayINS7_7BaseFabIS4_EEEEiiRKNS7_7IntVectEdi
FNDA:0,_ZN10Integrator5FieldIN5Model5Solid6Linear9LaplacianEE7EmptyBCclERN5amrex8FabArrayINS7_7BaseFabIS4_EEEEiiRKNS7_7IntVectEdi
FN:51,_ZN10Integrator5FieldIN5Model5Solid6Affine9HexagonalEE7EmptyBCclERN5amrex8FabArrayINS7_7BaseFabIS4_EEEEiiRKNS7_7IntVectEdi
FNDA:0,_ZN10Integrator5FieldIN5Model5Solid6Affine9HexagonalEE7EmptyBCclERN5amrex8FabArrayINS7_7BaseFabIS4_EEEEiiRKNS7_7IntVectEdi
FN:51,_ZN10Integrator5FieldIN5Model5Solid6Affine5CubicEE7EmptyBCclERN5amrex8FabArrayINS7_7BaseFabIS4_EEEEiiRKNS7_7IntVectEdi
FNDA:0,_ZN10Integrator5FieldIN5Model5Solid6Affine5CubicEE7EmptyBCclERN5amrex8FabArrayINS7_7BaseFabIS4_EEEEiiRKNS7_7IntVectEdi
FN:51,_ZN10Integrator5FieldIN5Model5Solid6Linear5CubicEE7EmptyBCclERN5amrex8FabArrayINS7_7BaseFabIS4_EEEEiiRKNS7_7IntVectEdi
FNDA:0,_ZN10Integrator5FieldIN5Model5Solid6Linear5CubicEE7EmptyBCclERN5amrex8FabArrayINS7_7BaseFabIS4_EEEEiiRKNS7_7IntVectEdi
FN:51,_ZN10Integrator5FieldIN5Model5Solid6Linear9IsotropicEE7EmptyBCclERN5amrex8FabArrayINS7_7BaseFabIS4_EEEEiiRKNS7_7IntVectEdi
FNDA:0,_ZN10Integrator5FieldIN5Model5Solid6Linear9IsotropicEE7EmptyBCclERN5amrex8FabArrayINS7_7BaseFabIS4_EEEEiiRKNS7_7IntVectEdi
FN:51,_ZN10Integrator5FieldIN5Model5Solid6Affine9IsotropicEE7EmptyBCclERN5amrex8FabArrayINS7_7BaseFabIS4_EEEEiiRKNS7_7IntVectEdi
FNDA:0,_ZN10Integrator5FieldIN5Model5Solid6Affine9IsotropicEE7EmptyBCclERN5amrex8FabArrayINS7_7BaseFabIS4_EEEEiiRKNS7_7IntVectEdi
FN:51,_ZN10Integrator5FieldIN5Eigen6MatrixIdLi3ELi3ELi0ELi3ELi3EEEE7EmptyBCclERN5amrex8FabArrayINS6_7BaseFabIS3_EEEEiiRKNS6_7IntVectEdi
FNDA:0,_ZN10Integrator5FieldIN5Eigen6MatrixIdLi3ELi3ELi0ELi3ELi3EEEE7EmptyBCclERN5amrex8FabArrayINS6_7BaseFabIS3_EEEEiiRKNS6_7IntVectEdi
FN:55,_ZN10Integrator5FieldIN5Model5Solid6Affine5CubicEE7EmptyBC8GetBCRecEv
FNDA:0,_ZN10Integrator5FieldIN5Model5Solid6Affine5CubicEE7EmptyBC8GetBCRecEv
FN:55,_ZN10Integrator5FieldIN5Model5Solid6Affine2J2EE7EmptyBC8GetBCRecEv
FNDA:0,_ZN10Integrator5FieldIN5Model5Solid6Affine2J2EE7EmptyBC8GetBCRecEv
FN:55,_ZN10Integrator5FieldIN5Model5Solid7Elastic28PseudoLinearCubicPredeformedEE7EmptyBC8GetBCRecEv
FNDA:0,_ZN10Integrator5FieldIN5Model5Solid7Elastic28PseudoLinearCubicPredeformedEE7EmptyBC8GetBCRecEv
FN:55,_ZN10Integrator5FieldIN5Model5Solid7Elastic17PseudoLinearCubicEE7EmptyBC8GetBCRecEv
FNDA:0,_ZN10Integrator5FieldIN5Model5Solid7Elastic17PseudoLinearCubicEE7EmptyBC8GetBCRecEv
FN:55,_ZN10Integrator5FieldIN5Model5Solid7Elastic10NeoHookeanEE7EmptyBC8GetBCRecEv
FNDA:0,_ZN10Integrator5FieldIN5Model5Solid7Elastic10NeoHookeanEE7EmptyBC8GetBCRecEv
FN:55,_ZN10Integrator5FieldIN5Model5Solid6Linear9LaplacianEE7EmptyBC8GetBCRecEv
FNDA:0,_ZN10Integrator5FieldIN5Model5Solid6Linear9LaplacianEE7EmptyBC8GetBCRecEv
FN:55,_ZN10Integrator5FieldIN5Model5Solid6Affine9HexagonalEE7EmptyBC8GetBCRecEv
FNDA:0,_ZN10Integrator5FieldIN5Model5Solid6Affine9HexagonalEE7EmptyBC8GetBCRecEv
FN:55,_ZN10Integrator5FieldIN5Model5Solid6Linear5CubicEE7EmptyBC8GetBCRecEv
FNDA:0,_ZN10Integrator5FieldIN5Model5Solid6Linear5CubicEE7EmptyBC8GetBCRecEv
FN:55,_ZN10Integrator5FieldIN5Model5Solid6Linear9IsotropicEE7EmptyBC8GetBCRecEv
FNDA:0,_ZN10Integrator5FieldIN5Model5Solid6Linear9IsotropicEE7EmptyBC8GetBCRecEv
FN:55,_ZN10Integrator5FieldIN5Model5Solid6Affine9IsotropicEE7EmptyBC8GetBCRecEv
FNDA:0,_ZN10Integrator5FieldIN5Model5Solid6Affine9IsotropicEE7EmptyBC8GetBCRecEv
FN:55,_ZN10Integrator5FieldIN5Eigen6MatrixIdLi3ELi3ELi0ELi3ELi3EEEE7EmptyBC8GetBCRecEv
FNDA:0,_ZN10Integrator5FieldIN5Eigen6MatrixIdLi3ELi3ELi0ELi3ELi3EEEE7EmptyBC8GetBCRecEv
FN:55,_ZN10Integrator5FieldIN5Eigen6MatrixIdLi3ELi1ELi0ELi3ELi1EEEE7EmptyBC8GetBCRecEv
FNDA:0,_ZN10Integrator5FieldIN5Eigen6MatrixIdLi3ELi1ELi0ELi3ELi1EEEE7EmptyBC8GetBCRecEv
FN:55,_ZN10Integrator5FieldIN5Model5Solid6Linear19IsotropicDegradableEE7EmptyBC8GetBCRecEv
FNDA:0,_ZN10Integrator5FieldIN5Model5Solid6Linear19IsotropicDegradableEE7EmptyBC8GetBCRecEv
FN:58,_ZN10Integrator5FieldIN5Model5Solid6Affine2J2EEC2ERN3Set5FieldIS4_EERKN5amrex6VectorINSA_8GeometryESaISC_EEERKNSB_INSA_7IntVectESaISH_EEEii
FNDA:0,_ZN10Integrator5FieldIN5Model5Solid6Affine2J2EEC2ERN3Set5FieldIS4_EERKN5amrex6VectorINSA_8GeometryESaISC_EEERKNSB_INSA_7IntVectESaISH_EEEii
FN:58,_ZN10Integrator5FieldIN5Model5Solid6Linear19IsotropicDegradableEEC2ERN3Set5FieldIS4_EERKN5amrex6VectorINSA_8GeometryESaISC_EEERKNSB_INSA_7IntVectESaISH_EEEii
FNDA:0,_ZN10Integrator5FieldIN5Model5Solid6Linear19IsotropicDegradableEEC2ERN3Set5FieldIS4_EERKN5amrex6VectorINSA_8GeometryESaISC_EEERKNSB_INSA_7IntVectESaISH_EEEii
FN:58,_ZN10Integrator5FieldIN5Model5Solid7Elastic28PseudoLinearCubicPredeformedEEC2ERN3Set5FieldIS4_EERKN5amrex6VectorINSA_8GeometryESaISC_EEERKNSB_INSA_7IntVectESaISH_EEEii
FNDA:0,_ZN10Integrator5FieldIN5Model5Solid7Elastic28PseudoLinearCubicPredeformedEEC2ERN3Set5FieldIS4_EERKN5amrex6VectorINSA_8GeometryESaISC_EEERKNSB_INSA_7IntVectESaISH_EEEii
FN:58,_ZN10Integrator5FieldIN5Model5Solid7Elastic17PseudoLinearCubicEEC2ERN3Set5FieldIS4_EERKN5amrex6VectorINSA_8GeometryESaISC_EEERKNSB_INSA_7IntVectESaISH_EEEii
FNDA:1,_ZN10Integrator5FieldIN5Model5Solid7Elastic17PseudoLinearCubicEEC2ERN3Set5FieldIS4_EERKN5amrex6VectorINSA_8GeometryESaISC_EEERKNSB_INSA_7IntVectESaISH_EEEii
FN:58,_ZN10Integrator5FieldIN5Model5Solid7Elastic10NeoHookeanEEC2ERN3Set5FieldIS4_EERKN5amrex6VectorINSA_8GeometryESaISC_EEERKNSB_INSA_7IntVectESaISH_EEEii
FNDA:0,_ZN10Integrator5FieldIN5Model5Solid7Elastic10NeoHookeanEEC2ERN3Set5FieldIS4_EERKN5amrex6VectorINSA_8GeometryESaISC_EEERKNSB_INSA_7IntVectESaISH_EEEii
FN:58,_ZN10Integrator5FieldIN5Model5Solid6Linear9LaplacianEEC2ERN3Set5FieldIS4_EERKN5amrex6VectorINSA_8GeometryESaISC_EEERKNSB_INSA_7IntVectESaISH_EEEii
FNDA:0,_ZN10Integrator5FieldIN5Model5Solid6Linear9LaplacianEEC2ERN3Set5FieldIS4_EERKN5amrex6VectorINSA_8GeometryESaISC_EEERKNSB_INSA_7IntVectESaISH_EEEii
FN:58,_ZN10Integrator5FieldIN5Model5Solid6Affine9HexagonalEEC2ERN3Set5FieldIS4_EERKN5amrex6VectorINSA_8GeometryESaISC_EEERKNSB_INSA_7IntVectESaISH_EEEii
FNDA:0,_ZN10Integrator5FieldIN5Model5Solid6Affine9HexagonalEEC2ERN3Set5FieldIS4_EERKN5amrex6VectorINSA_8GeometryESaISC_EEERKNSB_INSA_7IntVectESaISH_EEEii
FN:58,_ZN10Integrator5FieldIN5Model5Solid6Affine5CubicEEC2ERN3Set5FieldIS4_EERKN5amrex6VectorINSA_8GeometryESaISC_EEERKNSB_INSA_7IntVectESaISH_EEEii
FNDA:0,_ZN10Integrator5FieldIN5Model5Solid6Affine5CubicEEC2ERN3Set5FieldIS4_EERKN5amrex6VectorINSA_8GeometryESaISC_EEERKNSB_INSA_7IntVectESaISH_EEEii
FN:58,_ZN10Integrator5FieldIN5Model5Solid6Linear5CubicEEC2ERN3Set5FieldIS4_EERKN5amrex6VectorINSA_8GeometryESaISC_EEERKNSB_INSA_7IntVectESaISH_EEEii
FNDA:1,_ZN10Integrator5FieldIN5Model5Solid6Linear5CubicEEC2ERN3Set5FieldIS4_EERKN5amrex6VectorINSA_8GeometryESaISC_EEERKNSB_INSA_7IntVectESaISH_EEEii
FN:58,_ZN10Integrator5FieldIN5Model5Solid6Linear9IsotropicEEC2ERN3Set5FieldIS4_EERKN5amrex6VectorINSA_8GeometryESaISC_EEERKNSB_INSA_7IntVectESaISH_EEEii
FNDA:0,_ZN10Integrator5FieldIN5Model5Solid6Linear9IsotropicEEC2ERN3Set5FieldIS4_EERKN5amrex6VectorINSA_8GeometryESaISC_EEERKNSB_INSA_7IntVectESaISH_EEEii
FN:58,_ZN10Integrator5FieldIN5Model5Solid6Affine9IsotropicEEC2ERN3Set5FieldIS4_EERKN5amrex6VectorINSA_8GeometryESaISC_EEERKNSB_INSA_7IntVectESaISH_EEEii
FNDA:0,_ZN10Integrator5FieldIN5Model5Solid6Affine9IsotropicEEC2ERN3Set5FieldIS4_EERKN5amrex6VectorINSA_8GeometryESaISC_EEERKNSB_INSA_7IntVectESaISH_EEEii
FN:58,_ZN10Integrator5FieldIN5Eigen6MatrixIdLi3ELi3ELi0ELi3ELi3EEEEC2ERN3Set5FieldIS3_EERKN5amrex6VectorINS9_8GeometryESaISB_EEERKNSA_INS9_7IntVectESaISG_EEEii
FNDA:0,_ZN10Integrator5FieldIN5Eigen6MatrixIdLi3ELi3ELi0ELi3ELi3EEEEC2ERN3Set5FieldIS3_EERKN5amrex6VectorINS9_8GeometryESaISB_EEERKNSA_INS9_7IntVectESaISG_EEEii
FN:58,_ZN10Integrator5FieldIN5Eigen6MatrixIdLi3ELi1ELi0ELi3ELi1EEEEC2ERN3Set5FieldIS3_EERKN5amrex6VectorINS9_8GeometryESaISB_EEERKNSA_INS9_7IntVectESaISG_EEEii
FNDA:0,_ZN10Integrator5FieldIN5Eigen6MatrixIdLi3ELi1ELi0ELi3ELi1EEEEC2ERN3Set5FieldIS3_EERKN5amrex6VectorINS9_8GeometryESaISB_EEERKNSA_INS9_7IntVectESaISG_EEEii
FN:67,_ZN10Integrator5FieldIN5Model5Solid6Affine5CubicEE9FillPatchEidRN5amrex6VectorISt10unique_ptrINS6_8FabArrayINS6_7BaseFabIS4_EEEESt14default_deleteISC_EESaISF_EEERSC_i
FNDA:0,_ZN10Integrator5FieldIN5Model5Solid6Affine5CubicEE9FillPatchEidRN5amrex6VectorISt10unique_ptrINS6_8FabArrayINS6_7BaseFabIS4_EEEESt14default_deleteISC_EESaISF_EEERSC_i
FN:67,_ZN10Integrator5FieldIN5Model5Solid6Linear5CubicEE9FillPatchEidRN5amrex6VectorISt10unique_ptrINS6_8FabArrayINS6_7BaseFabIS4_EEEESt14default_deleteISC_EESaISF_EEERSC_i
FNDA:0,_ZN10Integrator5FieldIN5Model5Solid6Linear5CubicEE9FillPatchEidRN5amrex6VectorISt10unique_ptrINS6_8FabArrayINS6_7BaseFabIS4_EEEESt14default_deleteISC_EESaISF_EEERSC_i
FN:67,_ZN10Integrator5FieldIN5Model5Solid6Linear9IsotropicEE9FillPatchEidRN5amrex6VectorISt10unique_ptrINS6_8FabArrayINS6_7BaseFabIS4_EEEESt14default_deleteISC_EESaISF_EEERSC_i
FNDA:0,_ZN10Integrator5FieldIN5Model5Solid6Linear9IsotropicEE9FillPatchEidRN5amrex6VectorISt10unique_ptrINS6_8FabArrayINS6_7BaseFabIS4_EEEESt14default_deleteISC_EESaISF_EEERSC_i
FN:67,_ZN10Integrator5FieldIN5Model5Solid6Affine9IsotropicEE9FillPatchEidRN5amrex6VectorISt10unique_ptrINS6_8FabArrayINS6_7BaseFabIS4_EEEESt14default_deleteISC_EESaISF_EEERSC_i
FNDA:0,_ZN10Integrator5FieldIN5Model5Solid6Affine9IsotropicEE9FillPatchEidRN5amrex6VectorISt10unique_ptrINS6_8FabArrayINS6_7BaseFabIS4_EEEESt14default_deleteISC_EESaISF_EEERSC_i
FN:67,_ZN10Integrator5FieldIN5Eigen6MatrixIdLi3ELi3ELi0ELi3ELi3EEEE9FillPatchEidRN5amrex6VectorISt10unique_ptrINS5_8FabArrayINS5_7BaseFabIS3_EEEESt14default_deleteISB_EESaISE_EEERSB_i
FNDA:0,_ZN10Integrator5FieldIN5Eigen6MatrixIdLi3ELi3ELi0ELi3ELi3EEEE9FillPatchEidRN5amrex6VectorISt10unique_ptrINS5_8FabArrayINS5_7BaseFabIS3_EEEESt14default_deleteISB_EESaISE_EEERSB_i
FN:67,_ZN10Integrator5FieldIN5Model5Solid6Affine2J2EE9FillPatchEidRN5amrex6VectorISt10unique_ptrINS6_8FabArrayINS6_7BaseFabIS4_EEEESt14default_deleteISC_EESaISF_EEERSC_i
FNDA:0,_ZN10Integrator5FieldIN5Model5Solid6Affine2J2EE9FillPatchEidRN5amrex6VectorISt10unique_ptrINS6_8FabArrayINS6_7BaseFabIS4_EEEESt14default_deleteISC_EESaISF_EEERSC_i
FN:67,_ZN10Integrator5FieldIN5Model5Solid7Elastic28PseudoLinearCubicPredeformedEE9FillPatchEidRN5amrex6VectorISt10unique_ptrINS6_8FabArrayINS6_7BaseFabIS4_EEEESt14default_deleteISC_EESaISF_EEERSC_i
FNDA:0,_ZN10Integrator5FieldIN5Model5Solid7Elastic28PseudoLinearCubicPredeformedEE9FillPatchEidRN5amrex6VectorISt10unique_ptrINS6_8FabArrayINS6_7BaseFabIS4_EEEESt14default_deleteISC_EESaISF_EEERSC_i
FN:67,_ZN10Integrator5FieldIN5Eigen6MatrixIdLi3ELi1ELi0ELi3ELi1EEEE9FillPatchEidRN5amrex6VectorISt10unique_ptrINS5_8FabArrayINS5_7BaseFabIS3_EEEESt14default_deleteISB_EESaISE_EEERSB_i
FNDA:0,_ZN10Integrator5FieldIN5Eigen6MatrixIdLi3ELi1ELi0ELi3ELi1EEEE9FillPatchEidRN5amrex6VectorISt10unique_ptrINS5_8FabArrayINS5_7BaseFabIS3_EEEESt14default_deleteISB_EESaISE_EEERSB_i
FN:67,_ZN10Integrator5FieldIN5Model5Solid7Elastic10NeoHookeanEE9FillPatchEidRN5amrex6VectorISt10unique_ptrINS6_8FabArrayINS6_7BaseFabIS4_EEEESt14default_deleteISC_EESaISF_EEERSC_i
FNDA:0,_ZN10Integrator5FieldIN5Model5Solid7Elastic10NeoHookeanEE9FillPatchEidRN5amrex6VectorISt10unique_ptrINS6_8FabArrayINS6_7BaseFabIS4_EEEESt14default_deleteISC_EESaISF_EEERSC_i
FN:67,_ZN10Integrator5FieldIN5Model5Solid6Linear19IsotropicDegradableEE9FillPatchEidRN5amrex6VectorISt10unique_ptrINS6_8FabArrayINS6_7BaseFabIS4_EEEESt14default_deleteISC_EESaISF_EEERSC_i
FNDA:0,_ZN10Integrator5FieldIN5Model5Solid6Linear19IsotropicDegradableEE9FillPatchEidRN5amrex6VectorISt10unique_ptrINS6_8FabArrayINS6_7BaseFabIS4_EEEESt14default_deleteISC_EESaISF_EEERSC_i
FN:67,_ZN10Integrator5FieldIN5Model5Solid6Linear9LaplacianEE9FillPatchEidRN5amrex6VectorISt10unique_ptrINS6_8FabArrayINS6_7BaseFabIS4_EEEESt14default_deleteISC_EESaISF_EEERSC_i
FNDA:0,_ZN10Integrator5FieldIN5Model5Solid6Linear9LaplacianEE9FillPatchEidRN5amrex6VectorISt10unique_ptrINS6_8FabArrayINS6_7BaseFabIS4_EEEESt14default_deleteISC_EESaISF_EEERSC_i
FN:67,_ZN10Integrator5FieldIN5Model5Solid6Affine9HexagonalEE9FillPatchEidRN5amrex6VectorISt10unique_ptrINS6_8FabArrayINS6_7BaseFabIS4_EEEESt14default_deleteISC_EESaISF_EEERSC_i
FNDA:0,_ZN10Integrator5FieldIN5Model5Solid6Affine9HexagonalEE9FillPatchEidRN5amrex6VectorISt10unique_ptrINS6_8FabArrayINS6_7BaseFabIS4_EEEESt14default_deleteISC_EESaISF_EEERSC_i
FN:67,_ZN10Integrator5FieldIN5Model5Solid7Elastic17PseudoLinearCubicEE9FillPatchEidRN5amrex6VectorISt10unique_ptrINS6_8FabArrayINS6_7BaseFabIS4_EEEESt14default_deleteISC_EESaISF_EEERSC_i
FNDA:0,_ZN10Integrator5FieldIN5Model5Solid7Elastic17PseudoLinearCubicEE9FillPatchEidRN5amrex6VectorISt10unique_ptrINS6_8FabArrayINS6_7BaseFabIS4_EEEESt14default_deleteISC_EESaISF_EEERSC_i
FN:137,_ZN10Integrator5FieldIN5Model5Solid6Linear19IsotropicDegradableEE9FillPatchEid
FNDA:0,_ZN10Integrator5FieldIN5Model5Solid6Linear19IsotropicDegradableEE9FillPatchEid
FN:137,_ZN10Integrator5FieldIN5Eigen6MatrixIdLi3ELi1ELi0ELi3ELi1EEEE9FillPatchEid
FNDA:0,_ZN10Integrator5FieldIN5Eigen6MatrixIdLi3ELi1ELi0ELi3ELi1EEEE9FillPatchEid
FN:137,_ZN10Integrator5FieldIN5Eigen6MatrixIdLi3ELi3ELi0ELi3ELi3EEEE9FillPatchEid
FNDA:0,_ZN10Integrator5FieldIN5Eigen6MatrixIdLi3ELi3ELi0ELi3ELi3EEEE9FillPatchEid
FN:137,_ZN10Integrator5FieldIN5Model5Solid6Affine9IsotropicEE9FillPatchEid
FNDA:0,_ZN10Integrator5FieldIN5Model5Solid6Affine9IsotropicEE9FillPatchEid
FN:137,_ZN10Integrator5FieldIN5Model5Solid6Linear9IsotropicEE9FillPatchEid
FNDA:0,_ZN10Integrator5FieldIN5Model5Solid6Linear9IsotropicEE9FillPatchEid
FN:137,_ZN10Integrator5FieldIN5Model5Solid6Linear5CubicEE9FillPatchEid
FNDA:0,_ZN10Integrator5FieldIN5Model5Solid6Linear5CubicEE9FillPatchEid
FN:137,_ZN10Integrator5FieldIN5Model5Solid6Affine5CubicEE9FillPatchEid
FNDA:0,_ZN10Integrator5FieldIN5Model5Solid6Affine5CubicEE9FillPatchEid
FN:137,_ZN10Integrator5FieldIN5Model5Solid6Affine9HexagonalEE9FillPatchEid
FNDA:0,_ZN10Integrator5FieldIN5Model5Solid6Affine9HexagonalEE9FillPatchEid
FN:137,_ZN10Integrator5FieldIN5Model5Solid6Linear9LaplacianEE9FillPatchEid
FNDA:0,_ZN10Integrator5FieldIN5Model5Solid6Linear9LaplacianEE9FillPatchEid
FN:137,_ZN10Integrator5FieldIN5Model5Solid7Elastic10NeoHookeanEE9FillPatchEid
FNDA:0,_ZN10Integrator5FieldIN5Model5Solid7Elastic10NeoHookeanEE9FillPatchEid
FN:137,_ZN10Integrator5FieldIN5Model5Solid7Elastic17PseudoLinearCubicEE9FillPatchEid
FNDA:0,_ZN10Integrator5FieldIN5Model5Solid7Elastic17PseudoLinearCubicEE9FillPatchEid
FN:137,_ZN10Integrator5FieldIN5Model5Solid7Elastic28PseudoLinearCubicPredeformedEE9FillPatchEid
FNDA:0,_ZN10Integrator5FieldIN5Model5Solid7Elastic28PseudoLinearCubicPredeformedEE9FillPatchEid
FN:137,_ZN10Integrator5FieldIN5Model5Solid6Affine2J2EE9FillPatchEid
FNDA:0,_ZN10Integrator5FieldIN5Model5Solid6Affine2J2EE9FillPatchEid
FN:142,_ZN10Integrator5FieldIN5Model5Solid6Affine5CubicEE15FillCoarsePatchEidii
FNDA:0,_ZN10Integrator5FieldIN5Model5Solid6Affine5CubicEE15FillCoarsePatchEidii
FN:142,_ZN10Integrator5FieldIN5Model5Solid6Affine9HexagonalEE15FillCoarsePatchEidii
FNDA:0,_ZN10Integrator5FieldIN5Model5Solid6Affine9HexagonalEE15FillCoarsePatchEidii
FN:142,_ZN10Integrator5FieldIN5Model5Solid6Linear5CubicEE15FillCoarsePatchEidii
FNDA:0,_ZN10Integrator5FieldIN5Model5Solid6Linear5CubicEE15FillCoarsePatchEidii
FN:142,_ZN10Integrator5FieldIN5Model5Solid6Linear9IsotropicEE15FillCoarsePatchEidii
FNDA:0,_ZN10Integrator5FieldIN5Model5Solid6Linear9IsotropicEE15FillCoarsePatchEidii
FN:142,_ZN10Integrator5FieldIN5Model5Solid6Linear19IsotropicDegradableEE15FillCoarsePatchEidii
FNDA:0,_ZN10Integrator5FieldIN5Model5Solid6Linear19IsotropicDegradableEE15FillCoarsePatchEidii
FN:142,_ZN10Integrator5FieldIN5Model5Solid6Affine9IsotropicEE15FillCoarsePatchEidii
FNDA:0,_ZN10Integrator5FieldIN5Model5Solid6Affine9IsotropicEE15FillCoarsePatchEidii
FN:142,_ZN10Integrator5FieldIN5Eigen6MatrixIdLi3ELi3ELi0ELi3ELi3EEEE15FillCoarsePatchEidii
FNDA:0,_ZN10Integrator5FieldIN5Eigen6MatrixIdLi3ELi3ELi0ELi3ELi3EEEE15FillCoarsePatchEidii
FN:142,_ZN10Integrator5FieldIN5Eigen6MatrixIdLi3ELi1ELi0ELi3ELi1EEEE15FillCoarsePatchEidii
FNDA:0,_ZN10Integrator5FieldIN5Eigen6MatrixIdLi3ELi1ELi0ELi3ELi1EEEE15FillCoarsePatchEidii
FN:142,_ZN10Integrator5FieldIN5Model5Solid6Linear9LaplacianEE15FillCoarsePatchEidii
FNDA:0,_ZN10Integrator5FieldIN5Model5Solid6Linear9LaplacianEE15FillCoarsePatchEidii
FN:142,_ZN10Integrator5FieldIN5Model5Solid7Elastic10NeoHookeanEE15FillCoarsePatchEidii
FNDA:0,_ZN10Integrator5FieldIN5Model5Solid7Elastic10NeoHookeanEE15FillCoarsePatchEidii
FN:142,_ZN10Integrator5FieldIN5Model5Solid7Elastic17PseudoLinearCubicEE15FillCoarsePatchEidii
FNDA:0,_ZN10Integrator5FieldIN5Model5Solid7Elastic17PseudoLinearCubicEE15FillCoarsePatchEidii
FN:142,_ZN10Integrator5FieldIN5Model5Solid7Elastic28PseudoLinearCubicPredeformedEE15FillCoarsePatchEidii
FNDA:0,_ZN10Integrator5FieldIN5Model5Solid7Elastic28PseudoLinearCubicPredeformedEE15FillCoarsePatchEidii
FN:142,_ZN10Integrator5FieldIN5Model5Solid6Affine2J2EE15FillCoarsePatchEidii
FNDA:0,_ZN10Integrator5FieldIN5Model5Solid6Affine2J2EE15FillCoarsePatchEidii
FN:191,_ZN10Integrator5FieldIN5Model5Solid6Linear19IsotropicDegradableEE11RemakeLevelEidRKN5amrex8BoxArrayERKNS6_19DistributionMappingE
FNDA:0,_ZN10Integrator5FieldIN5Model5Solid6Linear19IsotropicDegradableEE11RemakeLevelEidRKN5amrex8BoxArrayERKNS6_19DistributionMappingE
FN:191,_ZN10Integrator5FieldIN5Model5Solid6Linear9LaplacianEE11RemakeLevelEidRKN5amrex8BoxArrayERKNS6_19DistributionMappingE
FNDA:0,_ZN10Integrator5FieldIN5Model5Solid6Linear9LaplacianEE11RemakeLevelEidRKN5amrex8BoxArrayERKNS6_19DistributionMappingE
FN:191,_ZN10Integrator5FieldIN5Model5Solid7Elastic10NeoHookeanEE11RemakeLevelEidRKN5amrex8BoxArrayERKNS6_19DistributionMappingE
FNDA:0,_ZN10Integrator5FieldIN5Model5Solid7Elastic10NeoHookeanEE11RemakeLevelEidRKN5amrex8BoxArrayERKNS6_19DistributionMappingE
FN:191,_ZN10Integrator5FieldIN5Model5Solid6Affine9HexagonalEE11RemakeLevelEidRKN5amrex8BoxArrayERKNS6_19DistributionMappingE
FNDA:0,_ZN10Integrator5FieldIN5Model5Solid6Affine9HexagonalEE11RemakeLevelEidRKN5amrex8BoxArrayERKNS6_19DistributionMappingE
FN:191,_ZN10Integrator5FieldIN5Model5Solid6Affine9IsotropicEE11RemakeLevelEidRKN5amrex8BoxArrayERKNS6_19DistributionMappingE
FNDA:0,_ZN10Integrator5FieldIN5Model5Solid6Affine9IsotropicEE11RemakeLevelEidRKN5amrex8BoxArrayERKNS6_19DistributionMappingE
FN:191,_ZN10Integrator5FieldIN5Eigen6MatrixIdLi3ELi3ELi0ELi3ELi3EEEE11RemakeLevelEidRKN5amrex8BoxArrayERKNS5_19DistributionMappingE
FNDA:0,_ZN10Integrator5FieldIN5Eigen6MatrixIdLi3ELi3ELi0ELi3ELi3EEEE11RemakeLevelEidRKN5amrex8BoxArrayERKNS5_19DistributionMappingE
FN:191,_ZN10Integrator5FieldIN5Model5Solid7Elastic17PseudoLinearCubicEE11RemakeLevelEidRKN5amrex8BoxArrayERKNS6_19DistributionMappingE
FNDA:0,_ZN10Integrator5FieldIN5Model5Solid7Elastic17PseudoLinearCubicEE11RemakeLevelEidRKN5amrex8BoxArrayERKNS6_19DistributionMappingE
FN:191,_ZN10Integrator5FieldIN5Model5Solid6Affine5CubicEE11RemakeLevelEidRKN5amrex8BoxArrayERKNS6_19DistributionMappingE
FNDA:0,_ZN10Integrator5FieldIN5Model5Solid6Affine5CubicEE11RemakeLevelEidRKN5amrex8BoxArrayERKNS6_19DistributionMappingE
FN:191,_ZN10Integrator5FieldIN5Model5Solid6Linear5CubicEE11RemakeLevelEidRKN5amrex8BoxArrayERKNS6_19DistributionMappingE
FNDA:0,_ZN10Integrator5FieldIN5Model5Solid6Linear5CubicEE11RemakeLevelEidRKN5amrex8BoxArrayERKNS6_19DistributionMappingE
FN:191,_ZN10Integrator5FieldIN5Model5Solid7Elastic28PseudoLinearCubicPredeformedEE11RemakeLevelEidRKN5amrex8BoxArrayERKNS6_19DistributionMappingE
FNDA:0,_ZN10Integrator5FieldIN5Model5Solid7Elastic28PseudoLinearCubicPredeformedEE11RemakeLevelEidRKN5amrex8BoxArrayERKNS6_19DistributionMappingE
FN:191,_ZN10Integrator5FieldIN5Model5Solid6Linear9IsotropicEE11RemakeLevelEidRKN5amrex8BoxArrayERKNS6_19DistributionMappingE
FNDA:0,_ZN10Integrator5FieldIN5Model5Solid6Linear9IsotropicEE11RemakeLevelEidRKN5amrex8BoxArrayERKNS6_19DistributionMappingE
FN:191,_ZN10Integrator5FieldIN5Model5Solid6Affine2J2EE11RemakeLevelEidRKN5amrex8BoxArrayERKNS6_19DistributionMappingE
FNDA:0,_ZN10Integrator5FieldIN5Model5Solid6Affine2J2EE11RemakeLevelEidRKN5amrex8BoxArrayERKNS6_19DistributionMappingE
FN:191,_ZN10Integrator5FieldIN5Eigen6MatrixIdLi3ELi1ELi0ELi3ELi1EEEE11RemakeLevelEidRKN5amrex8BoxArrayERKNS5_19DistributionMappingE
FNDA:0,_ZN10Integrator5FieldIN5Eigen6MatrixIdLi3ELi1ELi0ELi3ELi1EEEE11RemakeLevelEidRKN5amrex8BoxArrayERKNS5_19DistributionMappingE
FN:215,_ZN10Integrator5FieldIN5Model5Solid6Affine5CubicEE22MakeNewLevelFromCoarseEidRKN5amrex8BoxArrayERKNS6_19DistributionMappingE
FNDA:0,_ZN10Integrator5FieldIN5Model5Solid6Affine5CubicEE22MakeNewLevelFromCoarseEidRKN5amrex8BoxArrayERKNS6_19DistributionMappingE
FN:215,_ZN10Integrator5FieldIN5Model5Solid6Affine9HexagonalEE22MakeNewLevelFromCoarseEidRKN5amrex8BoxArrayERKNS6_19DistributionMappingE
FNDA:0,_ZN10Integrator5FieldIN5Model5Solid6Affine9HexagonalEE22MakeNewLevelFromCoarseEidRKN5amrex8BoxArrayERKNS6_19DistributionMappingE
FN:215,_ZN10Integrator5FieldIN5Model5Solid6Linear5CubicEE22MakeNewLevelFromCoarseEidRKN5amrex8BoxArrayERKNS6_19DistributionMappingE
FNDA:0,_ZN10Integrator5FieldIN5Model5Solid6Linear5CubicEE22MakeNewLevelFromCoarseEidRKN5amrex8BoxArrayERKNS6_19DistributionMappingE
FN:215,_ZN10Integrator5FieldIN5Model5Solid6Affine9IsotropicEE22MakeNewLevelFromCoarseEidRKN5amrex8BoxArrayERKNS6_19DistributionMappingE
FNDA:0,_ZN10Integrator5FieldIN5Model5Solid6Affine9IsotropicEE22MakeNewLevelFromCoarseEidRKN5amrex8BoxArrayERKNS6_19DistributionMappingE
FN:215,_ZN10Integrator5FieldIN5Model5Solid6Linear9LaplacianEE22MakeNewLevelFromCoarseEidRKN5amrex8BoxArrayERKNS6_19DistributionMappingE
FNDA:0,_ZN10Integrator5FieldIN5Model5Solid6Linear9LaplacianEE22MakeNewLevelFromCoarseEidRKN5amrex8BoxArrayERKNS6_19DistributionMappingE
FN:215,_ZN10Integrator5FieldIN5Model5Solid6Linear9IsotropicEE22MakeNewLevelFromCoarseEidRKN5amrex8BoxArrayERKNS6_19DistributionMappingE
FNDA:0,_ZN10Integrator5FieldIN5Model5Solid6Linear9IsotropicEE22MakeNewLevelFromCoarseEidRKN5amrex8BoxArrayERKNS6_19DistributionMappingE
FN:215,_ZN10Integrator5FieldIN5Model5Solid6Linear19IsotropicDegradableEE22MakeNewLevelFromCoarseEidRKN5amrex8BoxArrayERKNS6_19DistributionMappingE
FNDA:0,_ZN10Integrator5FieldIN5Model5Solid6Linear19IsotropicDegradableEE22MakeNewLevelFromCoarseEidRKN5amrex8BoxArrayERKNS6_19DistributionMappingE
FN:215,_ZN10Integrator5FieldIN5Model5Solid7Elastic10NeoHookeanEE22MakeNewLevelFromCoarseEidRKN5amrex8BoxArrayERKNS6_19DistributionMappingE
FNDA:0,_ZN10Integrator5FieldIN5Model5Solid7Elastic10NeoHookeanEE22MakeNewLevelFromCoarseEidRKN5amrex8BoxArrayERKNS6_19DistributionMappingE
FN:215,_ZN10Integrator5FieldIN5Model5Solid7Elastic17PseudoLinearCubicEE22MakeNewLevelFromCoarseEidRKN5amrex8BoxArrayERKNS6_19DistributionMappingE
FNDA:0,_ZN10Integrator5FieldIN5Model5Solid7Elastic17PseudoLinearCubicEE22MakeNewLevelFromCoarseEidRKN5amrex8BoxArrayERKNS6_19DistributionMappingE
FN:215,_ZN10Integrator5FieldIN5Eigen6MatrixIdLi3ELi3ELi0ELi3ELi3EEEE22MakeNewLevelFromCoarseEidRKN5amrex8BoxArrayERKNS5_19DistributionMappingE
FNDA:0,_ZN10Integrator5FieldIN5Eigen6MatrixIdLi3ELi3ELi0ELi3ELi3EEEE22MakeNewLevelFromCoarseEidRKN5amrex8BoxArrayERKNS5_19DistributionMappingE
FN:215,_ZN10Integrator5FieldIN5Model5Solid7Elastic28PseudoLinearCubicPredeformedEE22MakeNewLevelFromCoarseEidRKN5amrex8BoxArrayERKNS6_19DistributionMappingE
FNDA:0,_ZN10Integrator5FieldIN5Model5Solid7Elastic28PseudoLinearCubicPredeformedEE22MakeNewLevelFromCoarseEidRKN5amrex8BoxArrayERKNS6_19DistributionMappingE
FN:215,_ZN10Integrator5FieldIN5Model5Solid6Affine2J2EE22MakeNewLevelFromCoarseEidRKN5amrex8BoxArrayERKNS6_19DistributionMappingE
FNDA:0,_ZN10Integrator5FieldIN5Model5Solid6Affine2J2EE22MakeNewLevelFromCoarseEidRKN5amrex8BoxArrayERKNS6_19DistributionMappingE
FN:215,_ZN10Integrator5FieldIN5Eigen6MatrixIdLi3ELi1ELi0ELi3ELi1EEEE22MakeNewLevelFromCoarseEidRKN5amrex8BoxArrayERKNS5_19DistributionMappingE
FNDA:0,_ZN10Integrator5FieldIN5Eigen6MatrixIdLi3ELi1ELi0ELi3ELi1EEEE22MakeNewLevelFromCoarseEidRKN5amrex8BoxArrayERKNS5_19DistributionMappingE
FN:236,_ZN10Integrator5FieldIN5Model5Solid7Elastic10NeoHookeanEE23MakeNewLevelFromScratchEidRKN5amrex8BoxArrayERKNS6_19DistributionMappingE
FNDA:0,_ZN10Integrator5FieldIN5Model5Solid7Elastic10NeoHookeanEE23MakeNewLevelFromScratchEidRKN5amrex8BoxArrayERKNS6_19DistributionMappingE
FN:236,_ZN10Integrator5FieldIN5Model5Solid6Linear9LaplacianEE23MakeNewLevelFromScratchEidRKN5amrex8BoxArrayERKNS6_19DistributionMappingE
FNDA:0,_ZN10Integrator5FieldIN5Model5Solid6Linear9LaplacianEE23MakeNewLevelFromScratchEidRKN5amrex8BoxArrayERKNS6_19DistributionMappingE
FN:236,_ZN10Integrator5FieldIN5Model5Solid6Affine9HexagonalEE23MakeNewLevelFromScratchEidRKN5amrex8BoxArrayERKNS6_19DistributionMappingE
FNDA:0,_ZN10Integrator5FieldIN5Model5Solid6Affine9HexagonalEE23MakeNewLevelFromScratchEidRKN5amrex8BoxArrayERKNS6_19DistributionMappingE
FN:236,_ZN10Integrator5FieldIN5Model5Solid7Elastic17PseudoLinearCubicEE23MakeNewLevelFromScratchEidRKN5amrex8BoxArrayERKNS6_19DistributionMappingE
FNDA:1,_ZN10Integrator5FieldIN5Model5Solid7Elastic17PseudoLinearCubicEE23MakeNewLevelFromScratchEidRKN5amrex8BoxArrayERKNS6_19DistributionMappingE
FN:236,_ZN10Integrator5FieldIN5Model5Solid6Linear19IsotropicDegradableEE23MakeNewLevelFromScratchEidRKN5amrex8BoxArrayERKNS6_19DistributionMappingE
FNDA:0,_ZN10Integrator5FieldIN5Model5Solid6Linear19IsotropicDegradableEE23MakeNewLevelFromScratchEidRKN5amrex8BoxArrayERKNS6_19DistributionMappingE
FN:236,_ZN10Integrator5FieldIN5Model5Solid7Elastic28PseudoLinearCubicPredeformedEE23MakeNewLevelFromScratchEidRKN5amrex8BoxArrayERKNS6_19DistributionMappingE
FNDA:0,_ZN10Integrator5FieldIN5Model5Solid7Elastic28PseudoLinearCubicPredeformedEE23MakeNewLevelFromScratchEidRKN5amrex8BoxArrayERKNS6_19DistributionMappingE
FN:236,_ZN10Integrator5FieldIN5Model5Solid6Affine5CubicEE23MakeNewLevelFromScratchEidRKN5amrex8BoxArrayERKNS6_19DistributionMappingE
FNDA:0,_ZN10Integrator5FieldIN5Model5Solid6Affine5CubicEE23MakeNewLevelFromScratchEidRKN5amrex8BoxArrayERKNS6_19DistributionMappingE
FN:236,_ZN10Integrator5FieldIN5Model5Solid6Affine2J2EE23MakeNewLevelFromScratchEidRKN5amrex8BoxArrayERKNS6_19DistributionMappingE
FNDA:0,_ZN10Integrator5FieldIN5Model5Solid6Affine2J2EE23MakeNewLevelFromScratchEidRKN5amrex8BoxArrayERKNS6_19DistributionMappingE
FN:236,_ZN10Integrator5FieldIN5Model5Solid6Linear5CubicEE23MakeNewLevelFromScratchEidRKN5amrex8BoxArrayERKNS6_19DistributionMappingE
FNDA:1,_ZN10Integrator5FieldIN5Model5Solid6Linear5CubicEE23MakeNewLevelFromScratchEidRKN5amrex8BoxArrayERKNS6_19DistributionMappingE
FN:236,_ZN10Integrator5FieldIN5Model5Solid6Linear9IsotropicEE23MakeNewLevelFromScratchEidRKN5amrex8BoxArrayERKNS6_19DistributionMappingE
FNDA:0,_ZN10Integrator5FieldIN5Model5Solid6Linear9IsotropicEE23MakeNewLevelFromScratchEidRKN5amrex8BoxArrayERKNS6_19DistributionMappingE
FN:236,_ZN10Integrator5FieldIN5Eigen6MatrixIdLi3ELi1ELi0ELi3ELi1EEEE23MakeNewLevelFromScratchEidRKN5amrex8BoxArrayERKNS5_19DistributionMappingE
FNDA:0,_ZN10Integrator5FieldIN5Eigen6MatrixIdLi3ELi1ELi0ELi3ELi1EEEE23MakeNewLevelFromScratchEidRKN5amrex8BoxArrayERKNS5_19DistributionMappingE
FN:236,_ZN10Integrator5FieldIN5Model5Solid6Affine9IsotropicEE23MakeNewLevelFromScratchEidRKN5amrex8BoxArrayERKNS6_19DistributionMappingE
FNDA:0,_ZN10Integrator5FieldIN5Model5Solid6Affine9IsotropicEE23MakeNewLevelFromScratchEidRKN5amrex8BoxArrayERKNS6_19DistributionMappingE
FN:236,_ZN10Integrator5FieldIN5Eigen6MatrixIdLi3ELi3ELi0ELi3ELi3EEEE23MakeNewLevelFromScratchEidRKN5amrex8BoxArrayERKNS5_19DistributionMappingE
FNDA:0,_ZN10Integrator5FieldIN5Eigen6MatrixIdLi3ELi3ELi0ELi3ELi3EEEE23MakeNewLevelFromScratchEidRKN5amrex8BoxArrayERKNS5_19DistributionMappingE
FN:257,_ZN10Integrator5FieldIN5Eigen6MatrixIdLi3ELi1ELi0ELi3ELi1EEEE14SetFinestLevelEi
FNDA:0,_ZN10Integrator5FieldIN5Eigen6MatrixIdLi3ELi1ELi0ELi3ELi1EEEE14SetFinestLevelEi
FN:257,_ZN10Integrator5FieldIN5Model5Solid6Linear9LaplacianEE14SetFinestLevelEi
FNDA:0,_ZN10Integrator5FieldIN5Model5Solid6Linear9LaplacianEE14SetFinestLevelEi
FN:257,_ZN10Integrator5FieldIN5Model5Solid6Affine9IsotropicEE14SetFinestLevelEi
FNDA:0,_ZN10Integrator5FieldIN5Model5Solid6Affine9IsotropicEE14SetFinestLevelEi
FN:257,_ZN10Integrator5FieldIN5Model5Solid6Linear9IsotropicEE14SetFinestLevelEi
FNDA:0,_ZN10Integrator5FieldIN5Model5Solid6Linear9IsotropicEE14SetFinestLevelEi
FN:257,_ZN10Integrator5FieldIN5Model5Solid6Affine9HexagonalEE14SetFinestLevelEi
FNDA:0,_ZN10Integrator5FieldIN5Model5Solid6Affine9HexagonalEE14SetFinestLevelEi
FN:257,_ZN10Integrator5FieldIN5Model5Solid7Elastic10NeoHookeanEE14SetFinestLevelEi
FNDA:0,_ZN10Integrator5FieldIN5Model5Solid7Elastic10NeoHookeanEE14SetFinestLevelEi
FN:257,_ZN10Integrator5FieldIN5Model5Solid7Elastic17PseudoLinearCubicEE14SetFinestLevelEi
FNDA:101,_ZN10Integrator5FieldIN5Model5Solid7Elastic17PseudoLinearCubicEE14SetFinestLevelEi
FN:257,_ZN10Integrator5FieldIN5Model5Solid6Affine5CubicEE14SetFinestLevelEi
FNDA:0,_ZN10Integrator5FieldIN5Model5Solid6Affine5CubicEE14SetFinestLevelEi
FN:257,_ZN10Integrator5FieldIN5Eigen6MatrixIdLi3ELi3ELi0ELi3ELi3EEEE14SetFinestLevelEi
FNDA:0,_ZN10Integrator5FieldIN5Eigen6MatrixIdLi3ELi3ELi0ELi3ELi3EEEE14SetFinestLevelEi
FN:257,_ZN10Integrator5FieldIN5Model5Solid7Elastic28PseudoLinearCubicPredeformedEE14SetFinestLevelEi
FNDA:0,_ZN10Integrator5FieldIN5Model5Solid7Elastic28PseudoLinearCubicPredeformedEE14SetFinestLevelEi
FN:257,_ZN10Integrator5FieldIN5Model5Solid6Linear5CubicEE14SetFinestLevelEi
FNDA:101,_ZN10Integrator5FieldIN5Model5Solid6Linear5CubicEE14SetFinestLevelEi
FN:257,_ZN10Integrator5FieldIN5Model5Solid6Linear19IsotropicDegradableEE14SetFinestLevelEi
FNDA:0,_ZN10Integrator5FieldIN5Model5Solid6Linear19IsotropicDegradableEE14SetFinestLevelEi
FN:257,_ZN10Integrator5FieldIN5Model5Solid6Affine2J2EE14SetFinestLevelEi
FNDA:0,_ZN10Integrator5FieldIN5Model5Solid6Affine2J2EE14SetFinestLevelEi
FN:262,_ZN10Integrator5FieldIN5Model5Solid6Affine2J2EE12FillBoundaryEid
FNDA:0,_ZN10Integrator5FieldIN5Model5Solid6Affine2J2EE12FillBoundaryEid
FN:262,_ZN10Integrator5FieldIN5Model5Solid6Linear9LaplacianEE12FillBoundaryEid
FNDA:0,_ZN10Integrator5FieldIN5Model5Solid6Linear9LaplacianEE12FillBoundaryEid
FN:262,_ZN10Integrator5FieldIN5Model5Solid6Linear9IsotropicEE12FillBoundaryEid
FNDA:0,_ZN10Integrator5FieldIN5Model5Solid6Linear9IsotropicEE12FillBoundaryEid
FN:262,_ZN10Integrator5FieldIN5Model5Solid6Affine9IsotropicEE12FillBoundaryEid
FNDA:0,_ZN10Integrator5FieldIN5Model5Solid6Affine9IsotropicEE12FillBoundaryEid
FN:262,_ZN10Integrator5FieldIN5Model5Solid7Elastic10NeoHookeanEE12FillBoundaryEid
FNDA:0,_ZN10Integrator5FieldIN5Model5Solid7Elastic10NeoHookeanEE12FillBoundaryEid
FN:262,_ZN10Integrator5FieldIN5Eigen6MatrixIdLi3ELi1ELi0ELi3ELi1EEEE12FillBoundaryEid
FNDA:0,_ZN10Integrator5FieldIN5Eigen6MatrixIdLi3ELi1ELi0ELi3ELi1EEEE12FillBoundaryEid
FN:262,_ZN10Integrator5FieldIN5Model5Solid6Linear19IsotropicDegradableEE12FillBoundaryEid
FNDA:0,_ZN10Integrator5FieldIN5Model5Solid6Linear19IsotropicDegradableEE12FillBoundaryEid
FN:262,_ZN10Integrator5FieldIN5Model5Solid6Affine9HexagonalEE12FillBoundaryEid
FNDA:0,_ZN10Integrator5FieldIN5Model5Solid6Affine9HexagonalEE12FillBoundaryEid
FN:262,_ZN10Integrator5FieldIN5Model5Solid7Elastic17PseudoLinearCubicEE12FillBoundaryEid
FNDA:1,_ZN10Integrator5FieldIN5Model5Solid7Elastic17PseudoLinearCubicEE12FillBoundaryEid
FN:262,_ZN10Integrator5FieldIN5Model5Solid7Elastic28PseudoLinearCubicPredeformedEE12FillBoundaryEid
FNDA:0,_ZN10Integrator5FieldIN5Model5Solid7Elastic28PseudoLinearCubicPredeformedEE12FillBoundaryEid
FN:262,_ZN10Integrator5FieldIN5Model5Solid6Affine5CubicEE12FillBoundaryEid
FNDA:0,_ZN10Integrator5FieldIN5Model5Solid6Affine5CubicEE12FillBoundaryEid
FN:262,_ZN10Integrator5FieldIN5Eigen6MatrixIdLi3ELi3ELi0ELi3ELi3EEEE12FillBoundaryEid
FNDA:0,_ZN10Integrator5FieldIN5Eigen6MatrixIdLi3ELi3ELi0ELi3ELi3EEEE12FillBoundaryEid
FN:262,_ZN10Integrator5FieldIN5Model5Solid6Linear5CubicEE12FillBoundaryEid
FNDA:1,_ZN10Integrator5FieldIN5Model5Solid6Linear5CubicEE12FillBoundaryEid
FN:278,_ZN10Integrator5FieldIN5Model5Solid6Affine9IsotropicEE11AverageDownEiN5amrex7IntVectE
FNDA:0,_ZN10Integrator5FieldIN5Model5Solid6Affine9IsotropicEE11AverageDownEiN5amrex7IntVectE
FN:278,_ZN10Integrator5FieldIN5Model5Solid6Linear9IsotropicEE11AverageDownEiN5amrex7IntVectE
FNDA:0,_ZN10Integrator5FieldIN5Model5Solid6Linear9IsotropicEE11AverageDownEiN5amrex7IntVectE
FN:278,_ZN10Integrator5FieldIN5Model5Solid6Linear9LaplacianEE11AverageDownEiN5amrex7IntVectE
FNDA:0,_ZN10Integrator5FieldIN5Model5Solid6Linear9LaplacianEE11AverageDownEiN5amrex7IntVectE
FN:278,_ZN10Integrator5FieldIN5Model5Solid6Affine2J2EE11AverageDownEiN5amrex7IntVectE
FNDA:0,_ZN10Integrator5FieldIN5Model5Solid6Affine2J2EE11AverageDownEiN5amrex7IntVectE
FN:278,_ZN10Integrator5FieldIN5Model5Solid7Elastic10NeoHookeanEE11AverageDownEiN5amrex7IntVectE
FNDA:0,_ZN10Integrator5FieldIN5Model5Solid7Elastic10NeoHookeanEE11AverageDownEiN5amrex7IntVectE
FN:278,_ZN10Integrator5FieldIN5Model5Solid6Linear19IsotropicDegradableEE11AverageDownEiN5amrex7IntVectE
FNDA:0,_ZN10Integrator5FieldIN5Model5Solid6Linear19IsotropicDegradableEE11AverageDownEiN5amrex7IntVectE
FN:278,_ZN10Integrator5FieldIN5Eigen6MatrixIdLi3ELi3ELi0ELi3ELi3EEEE11AverageDownEiN5amrex7IntVectE
FNDA:0,_ZN10Integrator5FieldIN5Eigen6MatrixIdLi3ELi3ELi0ELi3ELi3EEEE11AverageDownEiN5amrex7IntVectE
FN:278,_ZN10Integrator5FieldIN5Eigen6MatrixIdLi3ELi1ELi0ELi3ELi1EEEE11AverageDownEiN5amrex7IntVectE
FNDA:0,_ZN10Integrator5FieldIN5Eigen6MatrixIdLi3ELi1ELi0ELi3ELi1EEEE11AverageDownEiN5amrex7IntVectE
FN:278,_ZN10Integrator5FieldIN5Model5Solid6Affine5CubicEE11AverageDownEiN5amrex7IntVectE
FNDA:0,_ZN10Integrator5FieldIN5Model5Solid6Affine5CubicEE11AverageDownEiN5amrex7IntVectE
FN:278,_ZN10Integrator5FieldIN5Model5Solid6Affine9HexagonalEE11AverageDownEiN5amrex7IntVectE
FNDA:0,_ZN10Integrator5FieldIN5Model5Solid6Affine9HexagonalEE11AverageDownEiN5amrex7IntVectE
FN:278,_ZN10Integrator5FieldIN5Model5Solid7Elastic17PseudoLinearCubicEE11AverageDownEiN5amrex7IntVectE
FNDA:0,_ZN10Integrator5FieldIN5Model5Solid7Elastic17PseudoLinearCubicEE11AverageDownEiN5amrex7IntVectE
FN:278,_ZN10Integrator5FieldIN5Model5Solid6Linear5CubicEE11AverageDownEiN5amrex7IntVectE
FNDA:0,_ZN10Integrator5FieldIN5Model5Solid6Linear5CubicEE11AverageDownEiN5amrex7IntVectE
FN:278,_ZN10Integrator5FieldIN5Model5Solid7Elastic28PseudoLinearCubicPredeformedEE11AverageDownEiN5amrex7IntVectE
FNDA:0,_ZN10Integrator5FieldIN5Model5Solid7Elastic28PseudoLinearCubicPredeformedEE11AverageDownEiN5amrex7IntVectE
FN:299,_ZN10Integrator5FieldIN5Eigen6MatrixIdLi3ELi3ELi0ELi3ELi3EEEE5NCompEv
FNDA:0,_ZN10Integrator5FieldIN5Eigen6MatrixIdLi3ELi3ELi0ELi3ELi3EEEE5NCompEv
FN:299,_ZN10Integrator5FieldIN5Model5Solid6Affine9IsotropicEE5NCompEv
FNDA:0,_ZN10Integrator5FieldIN5Model5Solid6Affine9IsotropicEE5NCompEv
FN:299,_ZN10Integrator5FieldIN5Model5Solid7Elastic17PseudoLinearCubicEE5NCompEv
FNDA:33,_ZN10Integrator5FieldIN5Model5Solid7Elastic17PseudoLinearCubicEE5NCompEv
FN:299,_ZN10Integrator5FieldIN5Model5Solid6Linear19IsotropicDegradableEE5NCompEv
FNDA:0,_ZN10Integrator5FieldIN5Model5Solid6Linear19IsotropicDegradableEE5NCompEv
FN:299,_ZN10Integrator5FieldIN5Model5Solid6Affine2J2EE5NCompEv
FNDA:0,_ZN10Integrator5FieldIN5Model5Solid6Affine2J2EE5NCompEv
FN:299,_ZN10Integrator5FieldIN5Eigen6MatrixIdLi3ELi1ELi0ELi3ELi1EEEE5NCompEv
FNDA:0,_ZN10Integrator5FieldIN5Eigen6MatrixIdLi3ELi1ELi0ELi3ELi1EEEE5NCompEv
FN:299,_ZN10Integrator5FieldIN5Model5Solid7Elastic10NeoHookeanEE5NCompEv
FNDA:0,_ZN10Integrator5FieldIN5Model5Solid7Elastic10NeoHookeanEE5NCompEv
FN:299,_ZN10Integrator5FieldIN5Model5Solid7Elastic28PseudoLinearCubicPredeformedEE5NCompEv
FNDA:0,_ZN10Integrator5FieldIN5Model5Solid7Elastic28PseudoLinearCubicPredeformedEE5NCompEv
FN:299,_ZN10Integrator5FieldIN5Model5Solid6Linear9LaplacianEE5NCompEv
FNDA:0,_ZN10Integrator5FieldIN5Model5Solid6Linear9LaplacianEE5NCompEv
FN:299,_ZN10Integrator5FieldIN5Model5Solid6Linear5CubicEE5NCompEv
FNDA:33,_ZN10Integrator5FieldIN5Model5Solid6Linear5CubicEE5NCompEv
FN:299,_ZN10Integrator5FieldIN5Model5Solid6Linear9IsotropicEE5NCompEv
FNDA:0,_ZN10Integrator5FieldIN5Model5Solid6Linear9IsotropicEE5NCompEv
FN:299,_ZN10Integrator5FieldIN5Model5Solid6Affine5CubicEE5NCompEv
FNDA:0,_ZN10Integrator5FieldIN5Model5Solid6Affine5CubicEE5NCompEv
FN:299,_ZN10Integrator5FieldIN5Model5Solid6Affine9HexagonalEE5NCompEv
FNDA:0,_ZN10Integrator5FieldIN5Model5Solid6Affine9HexagonalEE5NCompEv
FN:302,_ZN10Integrator5FieldIN5Eigen6MatrixIdLi3ELi1ELi0ELi3ELi1EEEE4CopyEiRN5amrex8MultiFabEii
FNDA:0,_ZN10Integrator5FieldIN5Eigen6MatrixIdLi3ELi1ELi0ELi3ELi1EEEE4CopyEiRN5amrex8MultiFabEii
FN:302,_ZN10Integrator5FieldIN5Model5Solid6Linear19IsotropicDegradableEE4CopyEiRN5amrex8MultiFabEii
FNDA:0,_ZN10Integrator5FieldIN5Model5Solid6Linear19IsotropicDegradableEE4CopyEiRN5amrex8MultiFabEii
FN:302,_ZN10Integrator5FieldIN5Eigen6MatrixIdLi3ELi3ELi0ELi3ELi3EEEE4CopyEiRN5amrex8MultiFabEii
FNDA:0,_ZN10Integrator5FieldIN5Eigen6MatrixIdLi3ELi3ELi0ELi3ELi3EEEE4CopyEiRN5amrex8MultiFabEii
FN:302,_ZN10Integrator5FieldIN5Model5Solid6Linear5CubicEE4CopyEiRN5amrex8MultiFabEii
FNDA:11,_ZN10Integrator5FieldIN5Model5Solid6Linear5CubicEE4CopyEiRN5amrex8MultiFabEii
FN:302,_ZN10Integrator5FieldIN5Model5Solid6Linear9IsotropicEE4CopyEiRN5amrex8MultiFabEii
FNDA:0,_ZN10Integrator5FieldIN5Model5Solid6Linear9IsotropicEE4CopyEiRN5amrex8MultiFabEii
FN:302,_ZN10Integrator5FieldIN5Model5Solid6Affine2J2EE4CopyEiRN5amrex8MultiFabEii
FNDA:0,_ZN10Integrator5FieldIN5Model5Solid6Affine2J2EE4CopyEiRN5amrex8MultiFabEii
FN:302,_ZN10Integrator5FieldIN5Model5Solid6Affine5CubicEE4CopyEiRN5amrex8MultiFabEii
FNDA:0,_ZN10Integrator5FieldIN5Model5Solid6Affine5CubicEE4CopyEiRN5amrex8MultiFabEii
FN:302,_ZN10Integrator5FieldIN5Model5Solid7Elastic28PseudoLinearCubicPredeformedEE4CopyEiRN5amrex8MultiFabEii
FNDA:0,_ZN10Integrator5FieldIN5Model5Solid7Elastic28PseudoLinearCubicPredeformedEE4CopyEiRN5amrex8MultiFabEii
FN:302,_ZN10Integrator5FieldIN5Model5Solid7Elastic17PseudoLinearCubicEE4CopyEiRN5amrex8MultiFabEii
FNDA:11,_ZN10Integrator5FieldIN5Model5Solid7Elastic17PseudoLinearCubicEE4CopyEiRN5amrex8MultiFabEii
FN:302,_ZN10Integrator5FieldIN5Model5Solid6Affine9IsotropicEE4CopyEiRN5amrex8MultiFabEii
FNDA:0,_ZN10Integrator5FieldIN5Model5Solid6Affine9IsotropicEE4CopyEiRN5amrex8MultiFabEii
FN:302,_ZN10Integrator5FieldIN5Model5Solid6Affine9HexagonalEE4CopyEiRN5amrex8MultiFabEii
FNDA:0,_ZN10Integrator5FieldIN5Model5Solid6Affine9HexagonalEE4CopyEiRN5amrex8MultiFabEii
FN:302,_ZN10Integrator5FieldIN5Model5Solid7Elastic10NeoHookeanEE4CopyEiRN5amrex8MultiFabEii
FNDA:0,_ZN10Integrator5FieldIN5Model5Solid7Elastic10NeoHookeanEE4CopyEiRN5amrex8MultiFabEii
FN:302,_ZN10Integrator5FieldIN5Model5Solid6Linear9LaplacianEE4CopyEiRN5amrex8MultiFabEii
FNDA:0,_ZN10Integrator5FieldIN5Model5Solid6Linear9LaplacianEE4CopyEiRN5amrex8MultiFabEii
FN:306,_ZN10Integrator5FieldIN5Model5Solid6Linear9IsotropicEE7setNameENSt7__cxx1112basic_stringIcSt11char_traitsIcESaIcEEE
FNDA:0,_ZN10Integrator5FieldIN5Model5Solid6Linear9IsotropicEE7setNameENSt7__cxx1112basic_stringIcSt11char_traitsIcESaIcEEE
FN:306,_ZN10Integrator5FieldIN5Model5Solid7Elastic28PseudoLinearCubicPredeformedEE7setNameENSt7__cxx1112basic_stringIcSt11char_traitsIcESaIcEEE
FNDA:0,_ZN10Integrator5FieldIN5Model5Solid7Elastic28PseudoLinearCubicPredeformedEE7setNameENSt7__cxx1112basic_stringIcSt11char_traitsIcESaIcEEE
FN:306,_ZN10Integrator5FieldIN5Eigen6MatrixIdLi3ELi1ELi0ELi3ELi1EEEE7setNameENSt7__cxx1112basic_stringIcSt11char_traitsIcESaIcEEE
FNDA:0,_ZN10Integrator5FieldIN5Eigen6MatrixIdLi3ELi1ELi0ELi3ELi1EEEE7setNameENSt7__cxx1112basic_stringIcSt11char_traitsIcESaIcEEE
FN:306,_ZN10Integrator5FieldIN5Model5Solid6Linear9LaplacianEE7setNameENSt7__cxx1112basic_stringIcSt11char_traitsIcESaIcEEE
FNDA:0,_ZN10Integrator5FieldIN5Model5Solid6Linear9LaplacianEE7setNameENSt7__cxx1112basic_stringIcSt11char_traitsIcESaIcEEE
FN:306,_ZN10Integrator5FieldIN5Model5Solid6Linear5CubicEE7setNameENSt7__cxx1112basic_stringIcSt11char_traitsIcESaIcEEE
FNDA:1,_ZN10Integrator5FieldIN5Model5Solid6Linear5CubicEE7setNameENSt7__cxx1112basic_stringIcSt11char_traitsIcESaIcEEE
FN:306,_ZN10Integrator5FieldIN5Model5Solid6Affine9IsotropicEE7setNameENSt7__cxx1112basic_stringIcSt11char_traitsIcESaIcEEE
FNDA:0,_ZN10Integrator5FieldIN5Model5Solid6Affine9IsotropicEE7setNameENSt7__cxx1112basic_stringIcSt11char_traitsIcESaIcEEE
FN:306,_ZN10Integrator5FieldIN5Model5Solid6Linear19IsotropicDegradableEE7setNameENSt7__cxx1112basic_stringIcSt11char_traitsIcESaIcEEE
FNDA:0,_ZN10Integrator5FieldIN5Model5Solid6Linear19IsotropicDegradableEE7setNameENSt7__cxx1112basic_stringIcSt11char_traitsIcESaIcEEE
FN:306,_ZN10Integrator5FieldIN5Model5Solid6Affine9HexagonalEE7setNameENSt7__cxx1112basic_stringIcSt11char_traitsIcESaIcEEE
FNDA:0,_ZN10Integrator5FieldIN5Model5Solid6Affine9HexagonalEE7setNameENSt7__cxx1112basic_stringIcSt11char_traitsIcESaIcEEE
FN:306,_ZN10Integrator5FieldIN5Model5Solid6Affine5CubicEE7setNameENSt7__cxx1112basic_stringIcSt11char_traitsIcESaIcEEE
FNDA:0,_ZN10Integrator5FieldIN5Model5Solid6Affine5CubicEE7setNameENSt7__cxx1112basic_stringIcSt11char_traitsIcESaIcEEE
FN:306,_ZN10Integrator5FieldIN5Model5Solid7Elastic10NeoHookeanEE7setNameENSt7__cxx1112basic_stringIcSt11char_traitsIcESaIcEEE
FNDA:0,_ZN10Integrator5FieldIN5Model5Solid7Elastic10NeoHookeanEE7setNameENSt7__cxx1112basic_stringIcSt11char_traitsIcESaIcEEE
FN:306,_ZN10Integrator5FieldIN5Model5Solid7Elastic17PseudoLinearCubicEE7setNameENSt7__cxx1112basic_stringIcSt11char_traitsIcESaIcEEE
FNDA:1,_ZN10Integrator5FieldIN5Model5Solid7Elastic17PseudoLinearCubicEE7setNameENSt7__cxx1112basic_stringIcSt11char_traitsIcESaIcEEE
FN:306,_ZN10Integrator5FieldIN5Eigen6MatrixIdLi3ELi3ELi0ELi3ELi3EEEE7setNameENSt7__cxx1112basic_stringIcSt11char_traitsIcESaIcEEE
FNDA:0,_ZN10Integrator5FieldIN5Eigen6MatrixIdLi3ELi3ELi0ELi3ELi3EEEE7setNameENSt7__cxx1112basic_stringIcSt11char_traitsIcESaIcEEE
FN:306,_ZN10Integrator5FieldIN5Model5Solid6Affine2J2EE7setNameENSt7__cxx1112basic_stringIcSt11char_traitsIcESaIcEEE
FNDA:0,_ZN10Integrator5FieldIN5Model5Solid6Affine2J2EE7setNameENSt7__cxx1112basic_stringIcSt11char_traitsIcESaIcEEE
FN:309,_ZN10Integrator5FieldIN5Model5Solid6Affine5CubicEE4NameB5cxx11Ei
FNDA:0,_ZN10Integrator5FieldIN5Model5Solid6Affine5CubicEE4NameB5cxx11Ei
FN:309,_ZN10Integrator5FieldIN5Eigen6MatrixIdLi3ELi1ELi0ELi3ELi1EEEE4NameB5cxx11Ei
FNDA:0,_ZN10Integrator5FieldIN5Eigen6MatrixIdLi3ELi1ELi0ELi3ELi1EEEE4NameB5cxx11Ei
FN:309,_ZN10Integrator5FieldIN5Model5Solid6Affine2J2EE4NameB5cxx11Ei
FNDA:0,_ZN10Integrator5FieldIN5Model5Solid6Affine2J2EE4NameB5cxx11Ei
FN:309,_ZN10Integrator5FieldIN5Model5Solid6Linear9IsotropicEE4NameB5cxx11Ei
FNDA:0,_ZN10Integrator5FieldIN5Model5Solid6Linear9IsotropicEE4NameB5cxx11Ei
FN:309,_ZN10Integrator5FieldIN5Model5Solid7Elastic10NeoHookeanEE4NameB5cxx11Ei
FNDA:0,_ZN10Integrator5FieldIN5Model5Solid7Elastic10NeoHookeanEE4NameB5cxx11Ei
FN:309,_ZN10Integrator5FieldIN5Model5Solid6Linear9LaplacianEE4NameB5cxx11Ei
FNDA:0,_ZN10Integrator5FieldIN5Model5Solid6Linear9LaplacianEE4NameB5cxx11Ei
FN:309,_ZN10Integrator5FieldIN5Model5Solid7Elastic28PseudoLinearCubicPredeformedEE4NameB5cxx11Ei
FNDA:0,_ZN10Integrator5FieldIN5Model5Solid7Elastic28PseudoLinearCubicPredeformedEE4NameB5cxx11Ei
FN:309,_ZN10Integrator5FieldIN5Eigen6MatrixIdLi3ELi3ELi0ELi3ELi3EEEE4NameB5cxx11Ei
FNDA:0,_ZN10Integrator5FieldIN5Eigen6MatrixIdLi3ELi3ELi0ELi3ELi3EEEE4NameB5cxx11Ei
FN:309,_ZN10Integrator5FieldIN5Model5Solid6Linear5CubicEE4NameB5cxx11Ei
FNDA:0,_ZN10Integrator5FieldIN5Model5Solid6Linear5CubicEE4NameB5cxx11Ei
FN:309,_ZN10Integrator5FieldIN5Model5Solid6Linear19IsotropicDegradableEE4NameB5cxx11Ei
FNDA:0,_ZN10Integrator5FieldIN5Model5Solid6Linear19IsotropicDegradableEE4NameB5cxx11Ei
FN:309,_ZN10Integrator5FieldIN5Model5Solid6Affine9HexagonalEE4NameB5cxx11Ei
FNDA:0,_ZN10Integrator5FieldIN5Model5Solid6Affine9HexagonalEE4NameB5cxx11Ei
FN:309,_ZN10Integrator5FieldIN5Model5Solid7Elastic17PseudoLinearCubicEE4NameB5cxx11Ei
FNDA:0,_ZN10Integrator5FieldIN5Model5Solid7Elastic17PseudoLinearCubicEE4NameB5cxx11Ei
FN:309,_ZN10Integrator5FieldIN5Model5Solid6Affine9IsotropicEE4NameB5cxx11Ei
FNDA:0,_ZN10Integrator5FieldIN5Model5Solid6Affine9IsotropicEE4NameB5cxx11Ei
FN:312,_ZN10Integrator5FieldIN5Model5Solid6Linear5CubicEE5setBCEPv
FNDA:0,_ZN10Integrator5FieldIN5Model5Solid6Linear5CubicEE5setBCEPv
FN:312,_ZN10Integrator5FieldIN5Model5Solid6Linear19IsotropicDegradableEE5setBCEPv
FNDA:0,_ZN10Integrator5FieldIN5Model5Solid6Linear19IsotropicDegradableEE5setBCEPv
FN:312,_ZN10Integrator5FieldIN5Model5Solid7Elastic10NeoHookeanEE5setBCEPv
FNDA:0,_ZN10Integrator5FieldIN5Model5Solid7Elastic10NeoHookeanEE5setBCEPv
FN:312,_ZN10Integrator5FieldIN5Eigen6MatrixIdLi3ELi3ELi0ELi3ELi3EEEE5setBCEPv
FNDA:0,_ZN10Integrator5FieldIN5Eigen6MatrixIdLi3ELi3ELi0ELi3ELi3EEEE5setBCEPv
FN:312,_ZN10Integrator5FieldIN5Eigen6MatrixIdLi3ELi1ELi0ELi3ELi1EEEE5setBCEPv
FNDA:0,_ZN10Integrator5FieldIN5Eigen6MatrixIdLi3ELi1ELi0ELi3ELi1EEEE5setBCEPv
FN:312,_ZN10Integrator5FieldIN5Model5Solid6Affine2J2EE5setBCEPv
FNDA:0,_ZN10Integrator5FieldIN5Model5Solid6Affine2J2EE5setBCEPv
FN:312,_ZN10Integrator5FieldIN5Model5Solid6Affine5CubicEE5setBCEPv
FNDA:0,_ZN10Integrator5FieldIN5Model5Solid6Affine5CubicEE5setBCEPv
FN:312,_ZN10Integrator5FieldIN5Model5Solid6Linear9LaplacianEE5setBCEPv
FNDA:0,_ZN10Integrator5FieldIN5Model5Solid6Linear9LaplacianEE5setBCEPv
FN:312,_ZN10Integrator5FieldIN5Model5Solid7Elastic28PseudoLinearCubicPredeformedEE5setBCEPv
FNDA:0,_ZN10Integrator5FieldIN5Model5Solid7Elastic28PseudoLinearCubicPredeformedEE5setBCEPv
FN:312,_ZN10Integrator5FieldIN5Model5Solid6Linear9IsotropicEE5setBCEPv
FNDA:0,_ZN10Integrator5FieldIN5Model5Solid6Linear9IsotropicEE5setBCEPv
FN:312,_ZN10Integrator5FieldIN5Model5Solid7Elastic17PseudoLinearCubicEE5setBCEPv
FNDA:0,_ZN10Integrator5FieldIN5Model5Solid7Elastic17PseudoLinearCubicEE5setBCEPv
FN:312,_ZN10Integrator5FieldIN5Model5Solid6Affine9IsotropicEE5setBCEPv
FNDA:0,_ZN10Integrator5FieldIN5Model5Solid6Affine9IsotropicEE5setBCEPv
FN:312,_ZN10Integrator5FieldIN5Model5Solid6Affine9HexagonalEE5setBCEPv
FNDA:0,_ZN10Integrator5FieldIN5Model5Solid6Affine9HexagonalEE5setBCEPv
FN:315,_ZN10Integrator5FieldIN5Eigen6MatrixIdLi3ELi1ELi0ELi3ELi1EEEE5getBCEv
FNDA:0,_ZN10Integrator5FieldIN5Eigen6MatrixIdLi3ELi1ELi0ELi3ELi1EEEE5getBCEv
FN:315,_ZN10Integrator5FieldIN5Model5Solid6Affine5CubicEE5getBCEv
FNDA:0,_ZN10Integrator5FieldIN5Model5Solid6Affine5CubicEE5getBCEv
FN:315,_ZN10Integrator5FieldIN5Model5Solid6Linear5CubicEE5getBCEv
FNDA:0,_ZN10Integrator5FieldIN5Model5Solid6Linear5CubicEE5getBCEv
FN:315,_ZN10Integrator5FieldIN5Eigen6MatrixIdLi3ELi3ELi0ELi3ELi3EEEE5getBCEv
FNDA:0,_ZN10Integrator5FieldIN5Eigen6MatrixIdLi3ELi3ELi0ELi3ELi3EEEE5getBCEv
FN:315,_ZN10Integrator5FieldIN5Model5Solid7Elastic17PseudoLinearCubicEE5getBCEv
FNDA:0,_ZN10Integrator5FieldIN5Model5Solid7Elastic17PseudoLinearCubicEE5getBCEv
FN:315,_ZN10Integrator5FieldIN5Model5Solid6Linear19IsotropicDegradableEE5getBCEv
FNDA:0,_ZN10Integrator5FieldIN5Model5Solid6Linear19IsotropicDegradableEE5getBCEv
FN:315,_ZN10Integrator5FieldIN5Model5Solid6Linear9IsotropicEE5getBCEv
FNDA:0,_ZN10Integrator5FieldIN5Model5Solid6Linear9IsotropicEE5getBCEv
FN:315,_ZN10Integrator5FieldIN5Model5Solid6Affine9HexagonalEE5getBCEv
FNDA:0,_ZN10Integrator5FieldIN5Model5Solid6Affine9HexagonalEE5getBCEv
FN:315,_ZN10Integrator5FieldIN5Model5Solid6Affine9IsotropicEE5getBCEv
FNDA:0,_ZN10Integrator5FieldIN5Model5Solid6Affine9IsotropicEE5getBCEv
FN:315,_ZN10Integrator5FieldIN5Model5Solid7Elastic28PseudoLinearCubicPredeformedEE5getBCEv
FNDA:0,_ZN10Integrator5FieldIN5Model5Solid7Elastic28PseudoLinearCubicPredeformedEE5getBCEv
FN:315,_ZN10Integrator5FieldIN5Model5Solid6Linear9LaplacianEE5getBCEv
FNDA:0,_ZN10Integrator5FieldIN5Model5Solid6Linear9LaplacianEE5getBCEv
FN:315,_ZN10Integrator5FieldIN5Model5Solid7Elastic10NeoHookeanEE5getBCEv
FNDA:0,_ZN10Integrator5FieldIN5Model5Solid7Elastic10NeoHookeanEE5getBCEv
FN:315,_ZN10Integrator5FieldIN5Model5Solid6Affine2J2EE5getBCEv
FNDA:0,_ZN10Integrator5FieldIN5Model5Solid6Affine2J2EE5getBCEv
DA:51,0
DA:54,0
DA:51,0
DA:54,0
DA:51,0
DA:54,0
DA:51,0
DA:54,0
DA:51,0
DA:54,0
DA:51,0
DA:54,0
DA:51,0
DA:54,0
DA:51,0
DA:54,0
DA:51,0
DA:54,0
DA:51,0
DA:54,0
DA:51,0
DA:54,0
DA:51,0
DA:54,0
DA:51,0
DA:54,0
DA:55,0
DA:55,0
DA:55,0
DA:55,0
DA:55,0
DA:55,0
DA:55,0
DA:55,0
DA:55,0
DA:55,0
DA:55,0
DA:55,0
DA:55,0
DA:58,0
DA:63,0
DA:64,0
DA:58,0
DA:63,0
DA:64,0
DA:58,1
DA:63,1
DA:64,1
DA:58,0
DA:63,0
DA:64,0
DA:58,0
DA:63,0
DA:64,0
DA:58,0
DA:63,0
DA:64,0
DA:58,0
DA:63,0
DA:64,0
DA:58,1
DA:63,1
DA:64,1
DA:58,0
DA:63,0
DA:64,0
DA:58,0
DA:63,0
DA:64,0
DA:58,0
DA:63,0
DA:64,0
DA:58,0
DA:63,0
DA:64,0
DA:58,0
DA:63,0
DA:64,0
DA:67,0
DA:72,0
DA:73,0
DA:75,0
DA:76,0
DA:77,0
DA:78,0
DA:80,0
DA:82,0
DA:83,0
DA:84,0
DA:85,0
DA:87,0
DA:89,0
DA:90,0
DA:96,0
DA:97,0
DA:98,0
DA:99,0
DA:100,0
DA:101,0
DA:103,0
DA:105,0
DA:107,0
DA:108,0
DA:110,0
DA:111,0
DA:114,0
DA:120,0
DA:135,0
DA:67,0
DA:72,0
DA:73,0
DA:75,0
DA:76,0
DA:77,0
DA:78,0
DA:80,0
DA:82,0
DA:83,0
DA:84,0
DA:85,0
DA:87,0
DA:89,0
DA:90,0
DA:96,0
DA:97,0
DA:98,0
DA:99,0
DA:100,0
DA:101,0
DA:103,0
DA:105,0
DA:107,0
DA:108,0
DA:110,0
DA:111,0
DA:114,0
DA:120,0
DA:135,0
DA:67,0
DA:72,0
DA:73,0
DA:75,0
DA:76,0
DA:77,0
DA:78,0
DA:80,0
DA:82,0
DA:83,0
DA:84,0
DA:85,0
DA:87,0
DA:89,0
DA:90,0
DA:96,0
DA:97,0
DA:98,0
DA:99,0
DA:100,0
DA:101,0
DA:103,0
DA:105,0
DA:107,0
DA:108,0
DA:110,0
DA:111,0
DA:114,0
DA:120,0
DA:135,0
DA:67,0
DA:72,0
DA:73,0
DA:75,0
DA:76,0
DA:77,0
DA:78,0
DA:80,0
DA:82,0
DA:83,0
DA:84,0
DA:85,0
DA:87,0
DA:89,0
DA:90,0
DA:96,0
DA:97,0
DA:98,0
DA:99,0
DA:100,0
DA:101,0
DA:103,0
DA:105,0
DA:107,0
DA:108,0
DA:110,0
DA:111,0
DA:114,0
DA:120,0
DA:135,0
DA:67,0
DA:72,0
DA:73,0
DA:75,0
DA:76,0
DA:77,0
DA:78,0
DA:80,0
DA:82,0
DA:83,0
DA:84,0
DA:85,0
DA:87,0
DA:89,0
DA:90,0
DA:96,0
DA:97,0
DA:98,0
DA:99,0
DA:100,0
DA:101,0
DA:103,0
DA:105,0
DA:107,0
DA:108,0
DA:110,0
DA:111,0
DA:114,0
DA:120,0
DA:135,0
DA:67,0
DA:72,0
DA:73,0
DA:75,0
DA:76,0
DA:77,0
DA:78,0
DA:80,0
DA:82,0
DA:83,0
DA:84,0
DA:85,0
DA:87,0
DA:89,0
DA:90,0
DA:96,0
DA:97,0
DA:98,0
DA:99,0
DA:100,0
DA:101,0
DA:103,0
DA:105,0
DA:107,0
DA:108,0
DA:110,0
DA:111,0
DA:114,0
DA:120,0
DA:135,0
DA:67,0
DA:72,0
DA:73,0
DA:75,0
DA:76,0
DA:77,0
DA:78,0
DA:80,0
DA:82,0
DA:83,0
DA:84,0
DA:85,0
DA:87,0
DA:89,0
DA:90,0
DA:96,0
DA:97,0
DA:98,0
DA:99,0
DA:100,0
DA:101,0
DA:103,0
DA:105,0
DA:107,0
DA:108,0
DA:110,0
DA:111,0
DA:114,0
DA:120,0
DA:135,0
DA:67,0
DA:72,0
DA:73,0
DA:75,0
DA:76,0
DA:77,0
DA:78,0
DA:80,0
DA:82,0
DA:83,0
DA:84,0
DA:85,0
DA:87,0
DA:89,0
DA:90,0
DA:96,0
DA:97,0
DA:98,0
DA:99,0
DA:100,0
DA:101,0
DA:103,0
DA:105,0
DA:107,0
DA:108,0
DA:110,0
DA:111,0
DA:114,0
DA:120,0
DA:135,0
DA:67,0
DA:72,0
DA:73,0
DA:75,0
DA:76,0
DA:77,0
DA:78,0
DA:80,0
DA:82,0
DA:83,0
DA:84,0
DA:85,0
DA:87,0
DA:89,0
DA:90,0
DA:96,0
DA:97,0
DA:98,0
DA:99,0
DA:100,0
DA:101,0
DA:103,0
DA:105,0
DA:107,0
DA:108,0
DA:110,0
DA:111,0
DA:114,0
DA:120,0
DA:135,0
DA:67,0
DA:72,0
DA:73,0
DA:75,0
DA:76,0
DA:77,0
DA:78,0
DA:80,0
DA:82,0
DA:83,0
DA:84,0
DA:85,0
DA:87,0
DA:89,0
DA:90,0
DA:96,0
DA:97,0
DA:98,0
DA:99,0
DA:100,0
DA:101,0
DA:103,0
DA:105,0
DA:107,0
DA:108,0
DA:110,0
DA:111,0
DA:114,0
DA:120,0
DA:135,0
DA:67,0
DA:72,0
DA:73,0
DA:75,0
DA:76,0
DA:77,0
DA:78,0
DA:80,0
DA:82,0
DA:83,0
DA:84,0
DA:85,0
DA:87,0
DA:89,0
DA:90,0
DA:96,0
DA:97,0
DA:98,0
DA:99,0
DA:100,0
DA:101,0
DA:103,0
DA:105,0
DA:107,0
DA:108,0
DA:110,0
DA:111,0
DA:114,0
DA:120,0
DA:135,0
DA:67,0
DA:72,0
DA:73,0
DA:75,0
DA:76,0
DA:77,0
DA:78,0
DA:80,0
DA:82,0
DA:83,0
DA:84,0
DA:85,0
DA:87,0
DA:89,0
DA:90,0
DA:96,0
DA:97,0
DA:98,0
DA:99,0
DA:100,0
DA:101,0
DA:103,0
DA:105,0
DA:107,0
DA:108,0
DA:110,0
DA:111,0
DA:114,0
DA:120,0
DA:135,0
DA:67,0
DA:72,0
DA:73,0
DA:75,0
DA:76,0
DA:77,0
DA:78,0
DA:80,0
DA:82,0
DA:83,0
DA:84,0
DA:85,0
DA:87,0
DA:89,0
DA:90,0
DA:96,0
DA:97,0
DA:98,0
DA:99,0
DA:100,0
DA:101,0
DA:103,0
DA:105,0
DA:107,0
DA:108,0
DA:110,0
DA:111,0
DA:114,0
DA:120,0
DA:135,0
DA:137,0
DA:139,0
DA:140,0
DA:137,0
DA:139,0
DA:140,0
DA:137,0
DA:139,0
DA:140,0
DA:137,0
DA:139,0
DA:140,0
DA:137,0
DA:139,0
DA:140,0
DA:137,0
DA:139,0
DA:140,0
DA:137,0
DA:139,0
DA:140,0
DA:137,0
DA:139,0
DA:140,0
DA:137,0
DA:139,0
DA:140,0
DA:137,0
DA:139,0
DA:140,0
DA:137,0
DA:139,0
DA:140,0
DA:137,0
DA:139,0
DA:140,0
DA:137,0
DA:139,0
DA:140,0
DA:142,0
DA:150,0
DA:152,0
DA:153,0
DA:154,0
DA:155,0
DA:156,0
DA:157,0
DA:158,0
DA:159,0
DA:160,0
DA:161,0
DA:164,0
DA:167,0
DA:169,0
DA:187,0
DA:188,0
DA:142,0
DA:150,0
DA:152,0
DA:153,0
DA:154,0
DA:155,0
DA:156,0
DA:157,0
DA:158,0
DA:159,0
DA:160,0
DA:161,0
DA:164,0
DA:167,0
DA:169,0
DA:187,0
DA:188,0
DA:142,0
DA:150,0
DA:152,0
DA:153,0
DA:154,0
DA:155,0
DA:156,0
DA:157,0
DA:158,0
DA:159,0
DA:160,0
DA:161,0
DA:164,0
DA:167,0
DA:169,0
DA:187,0
DA:188,0
DA:142,0
DA:150,0
DA:152,0
DA:153,0
DA:154,0
DA:155,0
DA:156,0
DA:157,0
DA:158,0
DA:159,0
DA:160,0
DA:161,0
DA:164,0
DA:167,0
DA:169,0
DA:187,0
DA:188,0
DA:142,0
DA:150,0
DA:152,0
DA:153,0
DA:154,0
DA:155,0
DA:156,0
DA:157,0
DA:158,0
DA:159,0
DA:160,0
DA:161,0
DA:164,0
DA:167,0
DA:169,0
DA:187,0
DA:188,0
DA:142,0
DA:150,0
DA:152,0
DA:153,0
DA:154,0
DA:155,0
DA:156,0
DA:157,0
DA:158,0
DA:159,0
DA:160,0
DA:161,0
DA:164,0
DA:167,0
DA:169,0
DA:187,0
DA:188,0
DA:142,0
DA:150,0
DA:152,0
DA:153,0
DA:154,0
DA:155,0
DA:156,0
DA:157,0
DA:158,0
DA:159,0
DA:160,0
DA:161,0
DA:164,0
DA:167,0
DA:169,0
DA:187,0
DA:188,0
DA:142,0
DA:150,0
DA:152,0
DA:153,0
DA:154,0
DA:155,0
DA:156,0
DA:157,0
DA:158,0
DA:159,0
DA:160,0
DA:161,0
DA:164,0
DA:167,0
DA:169,0
DA:187,0
DA:188,0
DA:142,0
DA:150,0
DA:152,0
DA:153,0
DA:154,0
DA:155,0
DA:156,0
DA:157,0
DA:158,0
DA:159,0
DA:160,0
DA:161,0
DA:164,0
DA:167,0
DA:169,0
DA:187,0
DA:188,0
DA:142,0
DA:150,0
DA:152,0
DA:153,0
DA:154,0
DA:155,0
DA:156,0
DA:157,0
DA:158,0
DA:159,0
DA:160,0
DA:161,0
DA:164,0
DA:167,0
DA:169,0
DA:187,0
DA:188,0
DA:142,0
DA:150,0
DA:152,0
DA:153,0
DA:154,0
DA:155,0
DA:156,0
DA:157,0
DA:158,0
DA:159,0
DA:160,0
DA:161,0
DA:164,0
DA:167,0
DA:169,0
DA:187,0
DA:188,0
DA:142,0
DA:150,0
DA:152,0
DA:153,0
DA:154,0
DA:155,0
DA:156,0
DA:157,0
DA:158,0
DA:159,0
DA:160,0
DA:161,0
DA:164,0
DA:167,0
DA:169,0
DA:187,0
DA:188,0
DA:142,0
DA:150,0
DA:152,0
DA:153,0
DA:154,0
DA:155,0
DA:156,0
DA:157,0
DA:158,0
DA:159,0
DA:160,0
DA:161,0
DA:164,0
DA:167,0
DA:169,0
DA:187,0
DA:188,0
DA:191,0
DA:196,0
DA:198,0
DA:199,0
DA:200,0
DA:201,0
DA:202,0
DA:203,0
DA:205,0
DA:207,0
DA:208,0
DA:209,0
DA:212,0
DA:213,0
DA:191,0
DA:196,0
DA:198,0
DA:199,0
DA:200,0
DA:201,0
DA:202,0
DA:203,0
DA:205,0
DA:207,0
DA:208,0
DA:209,0
DA:212,0
DA:213,0
DA:191,0
DA:196,0
DA:198,0
DA:199,0
DA:200,0
DA:201,0
DA:202,0
DA:203,0
DA:205,0
DA:207,0
DA:208,0
DA:209,0
DA:212,0
DA:213,0
DA:191,0
DA:196,0
DA:198,0
DA:199,0
DA:200,0
DA:201,0
DA:202,0
DA:203,0
DA:205,0
DA:207,0
DA:208,0
DA:209,0
DA:212,0
DA:213,0
DA:191,0
DA:196,0
DA:198,0
DA:199,0
DA:200,0
DA:201,0
DA:202,0
DA:203,0
DA:205,0
DA:207,0
DA:208,0
DA:209,0
DA:212,0
DA:213,0
DA:191,0
DA:196,0
DA:198,0
DA:199,0
DA:200,0
DA:201,0
DA:202,0
DA:203,0
DA:205,0
DA:207,0
DA:208,0
DA:209,0
DA:212,0
DA:213,0
DA:191,0
DA:196,0
DA:198,0
DA:199,0
DA:200,0
DA:201,0
DA:202,0
DA:203,0
DA:205,0
DA:207,0
DA:208,0
DA:209,0
DA:212,0
DA:213,0
DA:191,0
DA:196,0
DA:198,0
DA:199,0
DA:200,0
DA:201,0
DA:202,0
DA:203,0
DA:205,0
DA:207,0
DA:208,0
DA:209,0
DA:212,0
DA:213,0
DA:191,0
DA:196,0
DA:198,0
DA:199,0
DA:200,0
DA:201,0
DA:202,0
DA:203,0
DA:205,0
DA:207,0
DA:208,0
DA:209,0
DA:212,0
DA:213,0
DA:191,0
DA:196,0
DA:198,0
DA:199,0
DA:200,0
DA:201,0
DA:202,0
DA:203,0
DA:205,0
DA:207,0
DA:208,0
DA:209,0
DA:212,0
DA:213,0
DA:191,0
DA:196,0
DA:198,0
DA:199,0
DA:200,0
DA:201,0
DA:202,0
DA:203,0
DA:205,0
DA:207,0
DA:208,0
DA:209,0
DA:212,0
DA:213,0
DA:191,0
DA:196,0
DA:198,0
DA:199,0
DA:200,0
DA:201,0
DA:202,0
DA:203,0
DA:205,0
DA:207,0
DA:208,0
DA:209,0
DA:212,0
DA:213,0
DA:191,0
DA:196,0
DA:198,0
DA:199,0
DA:200,0
DA:201,0
DA:202,0
DA:203,0
DA:205,0
DA:207,0
DA:208,0
DA:209,0
DA:212,0
DA:213,0
DA:215,0
DA:220,0
DA:222,0
DA:223,0
DA:224,0
DA:225,0
DA:227,0
DA:229,0
DA:230,0
DA:233,0
DA:234,0
DA:215,0
DA:220,0
DA:222,0
DA:223,0
DA:224,0
DA:225,0
DA:227,0
DA:229,0
DA:230,0
DA:233,0
DA:234,0
DA:215,0
DA:220,0
DA:222,0
DA:223,0
DA:224,0
DA:225,0
DA:227,0
DA:229,0
DA:230,0
DA:233,0
DA:234,0
DA:215,0
DA:220,0
DA:222,0
DA:223,0
DA:224,0
DA:225,0
DA:227,0
DA:229,0
DA:230,0
DA:233,0
DA:234,0
DA:215,0
DA:220,0
DA:222,0
DA:223,0
DA:224,0
DA:225,0
DA:227,0
DA:229,0
DA:230,0
DA:233,0
DA:234,0
DA:215,0
DA:220,0
DA:222,0
DA:223,0
DA:224,0
DA:225,0
DA:227,0
DA:229,0
DA:230,0
DA:233,0
DA:234,0
DA:215,0
DA:220,0
DA:222,0
DA:223,0
DA:224,0
DA:225,0
DA:227,0
DA:229,0
DA:230,0
DA:233,0
DA:234,0
DA:215,0
DA:220,0
DA:222,0
DA:223,0
DA:224,0
DA:225,0
DA:227,0
DA:229,0
DA:230,0
DA:233,0
DA:234,0
DA:215,0
DA:220,0
DA:222,0
DA:223,0
DA:224,0
DA:225,0
DA:227,0
DA:229,0
DA:230,0
DA:233,0
DA:234,0
DA:215,0
DA:220,0
DA:222,0
DA:223,0
DA:224,0
DA:225,0
DA:227,0
DA:229,0
DA:230,0
DA:233,0
DA:234,0
DA:215,0
DA:220,0
DA:222,0
DA:223,0
DA:224,0
DA:225,0
DA:227,0
DA:229,0
DA:230,0
DA:233,0
DA:234,0
DA:215,0
DA:220,0
DA:222,0
DA:223,0
DA:224,0
DA:225,0
DA:227,0
DA:229,0
DA:230,0
DA:233,0
DA:234,0
DA:215,0
DA:220,0
DA:222,0
DA:223,0
DA:224,0
DA:225,0
DA:227,0
DA:229,0
DA:230,0
DA:233,0
DA:234,0
DA:236,0
DA:241,0
DA:243,0
DA:244,0
DA:245,0
DA:246,0
DA:248,0
DA:250,0
DA:251,0
DA:254,0
DA:255,0
DA:236,0
DA:241,0
DA:243,0
DA:244,0
DA:245,0
DA:246,0
DA:248,0
DA:250,0
DA:251,0
DA:254,0
DA:255,0
DA:236,0
DA:241,0
DA:243,0
DA:244,0
DA:245,0
DA:246,0
DA:248,0
DA:250,0
DA:251,0
DA:254,0
DA:255,0
DA:236,0
DA:241,0
DA:243,0
DA:244,0
DA:245,0
DA:246,0
DA:248,0
DA:250,0
DA:251,0
DA:254,0
DA:255,0
DA:236,0
DA:241,0
DA:243,0
DA:244,0
DA:245,0
DA:246,0
DA:248,0
DA:250,0
DA:251,0
DA:254,0
DA:255,0
DA:236,1
DA:241,1
DA:243,1
DA:244,1
DA:245,1
DA:246,1
DA:248,0
DA:250,0
DA:251,0
DA:254,0
DA:255,1
DA:236,0
DA:241,0
DA:243,0
DA:244,0
DA:245,0
DA:246,0
DA:248,0
DA:250,0
DA:251,0
DA:254,0
DA:255,0
DA:236,0
DA:241,0
DA:243,0
DA:244,0
DA:245,0
DA:246,0
DA:248,0
DA:250,0
DA:251,0
DA:254,0
DA:255,0
DA:236,0
DA:241,0
DA:243,0
DA:244,0
DA:245,0
DA:246,0
DA:248,0
DA:250,0
DA:251,0
DA:254,0
DA:255,0
DA:236,0
DA:241,0
DA:243,0
DA:244,0
DA:245,0
DA:246,0
DA:248,0
DA:250,0
DA:251,0
DA:254,0
DA:255,0
DA:236,1
DA:241,1
DA:243,1
DA:244,1
DA:245,1
DA:246,1
DA:248,0
DA:250,0
DA:251,0
DA:254,0
DA:255,1
DA:236,0
DA:241,0
DA:243,0
DA:244,0
DA:245,0
DA:246,0
DA:248,0
DA:250,0
DA:251,0
DA:254,0
DA:255,0
DA:236,0
DA:241,0
DA:243,0
DA:244,0
DA:245,0
DA:246,0
DA:248,0
DA:250,0
DA:251,0
DA:254,0
DA:255,0
DA:257,0
DA:259,0
DA:260,0
DA:257,0
DA:259,0
DA:260,0
DA:257,0
DA:259,0
DA:260,0
DA:257,0
DA:259,0
DA:260,0
DA:257,0
DA:259,0
DA:260,0
DA:257,101
DA:259,101
DA:260,101
DA:257,0
DA:259,0
DA:260,0
DA:257,0
DA:259,0
DA:260,0
DA:257,0
DA:259,0
DA:260,0
DA:257,0
DA:259,0
DA:260,0
DA:257,101
DA:259,101
DA:260,101
DA:257,0
DA:259,0
DA:260,0
DA:257,0
DA:259,0
DA:260,0
DA:262,0
DA:264,0
DA:265,0
DA:267,0
DA:268,0
DA:270,0
DA:271,0
DA:272,0
DA:276,0
DA:262,0
DA:264,0
DA:265,0
DA:267,0
DA:268,0
DA:270,0
DA:271,0
DA:272,0
DA:276,0
DA:262,0
DA:264,0
DA:265,0
DA:267,0
DA:268,0
DA:270,0
DA:271,0
DA:272,0
DA:276,0
DA:262,0
DA:264,0
DA:265,0
DA:267,0
DA:268,0
DA:270,0
DA:271,0
DA:272,0
DA:276,0
DA:262,0
DA:264,0
DA:265,0
DA:267,0
DA:268,0
DA:270,0
DA:271,0
DA:272,0
DA:276,0
DA:262,1
DA:264,1
DA:265,1
DA:267,0
DA:268,0
DA:270,0
DA:271,0
DA:272,0
DA:276,1
DA:262,0
DA:264,0
DA:265,0
DA:267,0
DA:268,0
DA:270,0
DA:271,0
DA:272,0
DA:276,0
DA:262,0
DA:264,0
DA:265,0
DA:267,0
DA:268,0
DA:270,0
DA:271,0
DA:272,0
DA:276,0
DA:262,0
DA:264,0
DA:265,0
DA:267,0
DA:268,0
DA:270,0
DA:271,0
DA:272,0
DA:276,0
DA:262,0
DA:264,0
DA:265,0
DA:267,0
DA:268,0
DA:270,0
DA:271,0
DA:272,0
DA:276,0
DA:262,1
DA:264,1
DA:265,1
DA:267,0
DA:268,0
DA:270,0
DA:271,0
DA:272,0
DA:276,1
DA:262,0
DA:264,0
DA:265,0
DA:267,0
DA:268,0
DA:270,0
DA:271,0
DA:272,0
DA:276,0
DA:262,0
DA:264,0
DA:265,0
DA:267,0
DA:268,0
DA:270,0
DA:271,0
DA:272,0
DA:276,0
DA:278,0
DA:280,0
DA:281,0
DA:282,0
DA:283,0
DA:287,0
DA:288,0
DA:278,0
DA:280,0
DA:281,0
DA:282,0
DA:283,0
DA:287,0
DA:288,0
DA:278,0
DA:280,0
DA:281,0
DA:282,0
DA:283,0
DA:287,0
DA:288,0
DA:278,0
DA:280,0
DA:281,0
DA:282,0
DA:283,0
DA:287,0
DA:288,0
DA:278,0
DA:280,0
DA:281,0
DA:282,0
DA:283,0
DA:287,0
DA:288,0
DA:278,0
DA:280,0
DA:281,0
DA:282,0
DA:283,0
DA:287,0
DA:288,0
DA:278,0
DA:280,0
DA:281,0
DA:282,0
DA:283,0
DA:287,0
DA:288,0
DA:278,0
DA:280,0
DA:281,0
DA:282,0
DA:283,0
DA:287,0
DA:288,0
DA:278,0
DA:280,0
DA:281,0
DA:282,0
DA:283,0
DA:287,0
DA:288,0
DA:278,0
DA:280,0
DA:281,0
DA:282,0
DA:283,0
DA:287,0
DA:288,0
DA:278,0
DA:280,0
DA:281,0
DA:282,0
DA:283,0
DA:287,0
DA:288,0
DA:278,0
DA:280,0
DA:281,0
DA:282,0
DA:283,0
DA:287,0
DA:288,0
DA:278,0
DA:280,0
DA:281,0
DA:282,0
DA:283,0
DA:287,0
DA:288,0
DA:299,0
DA:300,0
DA:299,0
DA:300,0
DA:299,0
DA:300,0
DA:299,0
DA:300,0
DA:299,0
DA:300,0
DA:299,33
DA:300,33
DA:299,0
DA:300,0
DA:299,0
DA:300,0
DA:299,0
DA:300,0
DA:299,0
DA:300,0
DA:299,33
DA:300,33
DA:299,0
DA:300,0
DA:299,0
DA:300,0
DA:302,0
DA:304,0
DA:305,0
DA:302,0
DA:304,0
DA:305,0
DA:302,0
DA:304,0
DA:305,0
DA:302,0
DA:304,0
DA:305,0
DA:302,0
DA:304,0
DA:305,0
DA:302,11
DA:304,11
DA:305,11
DA:302,0
DA:304,0
DA:305,0
DA:302,0
DA:304,0
DA:305,0
DA:302,0
DA:304,0
DA:305,0
DA:302,0
DA:304,0
DA:305,0
DA:302,11
DA:304,11
DA:305,11
DA:302,0
DA:304,0
DA:305,0
DA:302,0
DA:304,0
DA:305,0
DA:306,0
DA:307,0
DA:308,0
DA:306,0
DA:307,0
DA:308,0
DA:306,0
DA:307,0
DA:308,0
DA:306,0
DA:307,0
DA:308,0
DA:306,0
DA:307,0
DA:308,0
DA:306,1
DA:307,1
DA:308,1
DA:306,0
DA:307,0
DA:308,0
DA:306,0
DA:307,0
DA:308,0
DA:306,0
DA:307,0
DA:308,0
DA:306,0
DA:307,0
DA:308,0
DA:306,1
DA:307,1
DA:308,1
DA:306,0
DA:307,0
DA:308,0
DA:306,0
DA:307,0
DA:308,0
DA:309,0
DA:310,0
DA:309,0
DA:310,0
DA:309,0
DA:310,0
DA:309,0
DA:310,0
DA:309,0
DA:310,0
DA:309,0
DA:310,0
DA:309,0
DA:310,0
DA:309,0
DA:310,0
DA:309,0
DA:310,0
DA:309,0
DA:310,0
DA:309,0
DA:310,0
DA:309,0
DA:310,0
DA:309,0
DA:310,0
DA:312,0
DA:313,0
DA:314,0
DA:312,0
DA:313,0
DA:314,0
DA:312,0
DA:313,0
DA:314,0
DA:312,0
DA:313,0
DA:314,0
DA:312,0
DA:313,0
DA:314,0
DA:312,0
DA:313,0
DA:314,0
DA:312,0
DA:313,0
DA:314,0
DA:312,0
DA:313,0
DA:314,0
DA:312,0
DA:313,0
DA:314,0
DA:312,0
DA:313,0
DA:314,0
DA:312,0
DA:313,0
DA:314,0
DA:312,0
DA:313,0
DA:314,0
DA:312,0
DA:313,0
DA:314,0
DA:315,0
DA:316,0
DA:315,0
DA:316,0
DA:315,0
DA:316,0
DA:315,0
DA:316,0
DA:315,0
DA:316,0
DA:315,0
DA:316,0
DA:315,0
DA:316,0
DA:315,0
DA:316,0
DA:315,0
DA:316,0
DA:315,0
DA:316,0
DA:315,0
DA:316,0
DA:315,0
DA:316,0
DA:315,0
DA:316,0
end_of_record
SF:/home/brunnels/Research/alamo/src/Set/Base.H
FN:75,_ZN3SetlsILi3ELi6EEERSoS1_RKNS_7Matrix4IXT_EXT0_EEE
FNDA:0,_ZN3SetlsILi3ELi6EEERSoS1_RKNS_7Matrix4IXT_EXT0_EEE
FN:75,_ZN3SetlsILi3ELi3EEERSoS1_RKNS_7Matrix4IXT_EXT0_EEE
FNDA:0,_ZN3SetlsILi3ELi3EEERSoS1_RKNS_7Matrix4IXT_EXT0_EEE
DA:31,0
DA:33,0
DA:36,0
DA:38,0
DA:40,0
DA:43,0
DA:45,0
DA:46,0
DA:75,0
DA:77,0
DA:78,0
DA:79,0
DA:75,0
DA:77,0
DA:78,0
DA:79,0
end_of_record
SF:/home/brunnels/Research/alamo/src/Model/Solid/Linear/Isotropic.H
FN:68,_ZN5Model5Solid6Linear9IsotropicC2Ev
FNDA:0,_ZN5Model5Solid6Linear9IsotropicC2Ev
FN:74,_ZN5Model5Solid6Linear9IsotropicD0Ev
FNDA:0,_ZN5Model5Solid6Linear9IsotropicD0Ev
FN:74,_ZN5Model5Solid6Linear9IsotropicD2Ev
FNDA:0,_ZN5Model5Solid6Linear9IsotropicD2Ev
FN:76,_ZN5Model5Solid6Linear9Isotropic6DefineEdd
FNDA:0,_ZN5Model5Solid6Linear9Isotropic6DefineEdd
FN:81,_ZNK5Model5Solid6Linear9Isotropic1WERKN5Eigen6MatrixIdLi3ELi3ELi0ELi3ELi3EEE
FNDA:0,_ZNK5Model5Solid6Linear9Isotropic1WERKN5Eigen6MatrixIdLi3ELi3ELi0ELi3ELi3EEE
FN:85,_ZNK5Model5Solid6Linear9Isotropic2DWERKN5Eigen6MatrixIdLi3ELi3ELi0ELi3ELi3EEE
FNDA:0,_ZNK5Model5Solid6Linear9Isotropic2DWERKN5Eigen6MatrixIdLi3ELi3ELi0ELi3ELi3EEE
FN:89,_ZNK5Model5Solid6Linear9Isotropic3DDWERKN5Eigen6MatrixIdLi3ELi3ELi0ELi3ELi3EEE
FNDA:0,_ZNK5Model5Solid6Linear9Isotropic3DDWERKN5Eigen6MatrixIdLi3ELi3ELi0ELi3ELi3EEE
FN:93,_ZNK5Model5Solid6Linear9Isotropic5PrintERSo
FNDA:0,_ZNK5Model5Solid6Linear9Isotropic5PrintERSo
FN:109,_ZN5Model5Solid6Linear9Isotropic4ZeroEv
FNDA:0,_ZN5Model5Solid6Linear9Isotropic4ZeroEv
FN:115,_ZN5Model5Solid6Linear9Isotropic5ParseERS2_RN2IO9ParmParseE
FNDA:0,_ZN5Model5Solid6Linear9Isotropic5ParseERS2_RN2IO9ParmParseE
DA:68,0
DA:74,0
DA:74,0
DA:76,0
DA:78,0
DA:79,0
DA:81,0
DA:83,0
DA:85,0
DA:87,0
DA:89,0
DA:91,0
DA:93,0
DA:95,0
DA:96,0
DA:109,0
DA:111,0
DA:112,0
DA:113,0
DA:115,0
DA:118,0
DA:123,0
DA:124,0
DA:126,0
DA:127,0
DA:129,0
DA:131,0
DA:132,0
DA:134,0
DA:137,0
DA:138,0
DA:139,0
DA:140,0
DA:142,0
DA:147,0
DA:148,0
DA:149,0
end_of_record
SF:/home/brunnels/Research/alamo/ext/amrex/3d-coverage-g++-23.08/include/AMReX_FBI.H
FN:211,_ZN5amrex8FabArrayINS_7BaseFabIN5Model5Solid6Affine5CubicEEEE17FB_local_copy_cpuERKNS_12FabArrayBase2FBEii
FNDA:0,_ZN5amrex8FabArrayINS_7BaseFabIN5Model5Solid6Affine5CubicEEEE17FB_local_copy_cpuERKNS_12FabArrayBase2FBEii
FN:211,_ZN5amrex8FabArrayINS_7BaseFabIN5Model5Solid6Linear9IsotropicEEEE17FB_local_copy_cpuERKNS_12FabArrayBase2FBEii
FNDA:0,_ZN5amrex8FabArrayINS_7BaseFabIN5Model5Solid6Linear9IsotropicEEEE17FB_local_copy_cpuERKNS_12FabArrayBase2FBEii
FN:211,_ZN5amrex8FabArrayINS_7BaseFabIN5Eigen6MatrixIdLi3ELi1ELi0ELi3ELi1EEEEEE17FB_local_copy_cpuERKNS_12FabArrayBase2FBEii
FNDA:0,_ZN5amrex8FabArrayINS_7BaseFabIN5Eigen6MatrixIdLi3ELi1ELi0ELi3ELi1EEEEEE17FB_local_copy_cpuERKNS_12FabArrayBase2FBEii
FN:211,_ZN5amrex8FabArrayINS_7BaseFabIN5Model5Solid7Elastic17PseudoLinearCubicEEEE17FB_local_copy_cpuERKNS_12FabArrayBase2FBEii
FNDA:0,_ZN5amrex8FabArrayINS_7BaseFabIN5Model5Solid7Elastic17PseudoLinearCubicEEEE17FB_local_copy_cpuERKNS_12FabArrayBase2FBEii
FN:211,_ZN5amrex8FabArrayINS_7BaseFabIN5Model5Solid6Affine9IsotropicEEEE17FB_local_copy_cpuERKNS_12FabArrayBase2FBEii
FNDA:0,_ZN5amrex8FabArrayINS_7BaseFabIN5Model5Solid6Affine9IsotropicEEEE17FB_local_copy_cpuERKNS_12FabArrayBase2FBEii
FN:211,_ZN5amrex8FabArrayINS_7BaseFabIN5Model5Solid6Linear5CubicEEEE17FB_local_copy_cpuERKNS_12FabArrayBase2FBEii
FNDA:0,_ZN5amrex8FabArrayINS_7BaseFabIN5Model5Solid6Linear5CubicEEEE17FB_local_copy_cpuERKNS_12FabArrayBase2FBEii
FN:211,_ZN5amrex8FabArrayINS_7BaseFabIN5Eigen6MatrixIdLi3ELi3ELi0ELi3ELi3EEEEEE17FB_local_copy_cpuERKNS_12FabArrayBase2FBEii
FNDA:0,_ZN5amrex8FabArrayINS_7BaseFabIN5Eigen6MatrixIdLi3ELi3ELi0ELi3ELi3EEEEEE17FB_local_copy_cpuERKNS_12FabArrayBase2FBEii
FN:211,_ZN5amrex8FabArrayINS_9FArrayBoxEE17FB_local_copy_cpuERKNS_12FabArrayBase2FBEii
FNDA:0,_ZN5amrex8FabArrayINS_9FArrayBoxEE17FB_local_copy_cpuERKNS_12FabArrayBase2FBEii
FN:211,_ZN5amrex8FabArrayINS_7BaseFabIN5Model5Solid7Elastic10NeoHookeanEEEE17FB_local_copy_cpuERKNS_12FabArrayBase2FBEii
FNDA:0,_ZN5amrex8FabArrayINS_7BaseFabIN5Model5Solid7Elastic10NeoHookeanEEEE17FB_local_copy_cpuERKNS_12FabArrayBase2FBEii
FN:211,_ZN5amrex8FabArrayINS_7BaseFabIN5Model5Solid7Elastic28PseudoLinearCubicPredeformedEEEE17FB_local_copy_cpuERKNS_12FabArrayBase2FBEii
FNDA:0,_ZN5amrex8FabArrayINS_7BaseFabIN5Model5Solid7Elastic28PseudoLinearCubicPredeformedEEEE17FB_local_copy_cpuERKNS_12FabArrayBase2FBEii
FN:211,_ZN5amrex8FabArrayINS_7BaseFabIN5Model5Solid6Linear19IsotropicDegradableEEEE17FB_local_copy_cpuERKNS_12FabArrayBase2FBEii
FNDA:0,_ZN5amrex8FabArrayINS_7BaseFabIN5Model5Solid6Linear19IsotropicDegradableEEEE17FB_local_copy_cpuERKNS_12FabArrayBase2FBEii
FN:211,_ZN5amrex8FabArrayINS_7BaseFabIN3Set7Matrix4ILi3ELi1EEEEEE17FB_local_copy_cpuERKNS_12FabArrayBase2FBEii
FNDA:0,_ZN5amrex8FabArrayINS_7BaseFabIN3Set7Matrix4ILi3ELi1EEEEEE17FB_local_copy_cpuERKNS_12FabArrayBase2FBEii
FN:211,_ZN5amrex8FabArrayINS_7BaseFabIN3Set7Matrix4ILi3ELi6EEEEEE17FB_local_copy_cpuERKNS_12FabArrayBase2FBEii
FNDA:0,_ZN5amrex8FabArrayINS_7BaseFabIN3Set7Matrix4ILi3ELi6EEEEEE17FB_local_copy_cpuERKNS_12FabArrayBase2FBEii
FN:211,_ZN5amrex8FabArrayINS_7BaseFabIN5Model5Solid6Affine9HexagonalEEEE17FB_local_copy_cpuERKNS_12FabArrayBase2FBEii
FNDA:0,_ZN5amrex8FabArrayINS_7BaseFabIN5Model5Solid6Affine9HexagonalEEEE17FB_local_copy_cpuERKNS_12FabArrayBase2FBEii
FN:211,_ZN5amrex8FabArrayINS_7BaseFabIN3Set7Matrix4ILi3ELi4EEEEEE17FB_local_copy_cpuERKNS_12FabArrayBase2FBEii
FNDA:0,_ZN5amrex8FabArrayINS_7BaseFabIN3Set7Matrix4ILi3ELi4EEEEEE17FB_local_copy_cpuERKNS_12FabArrayBase2FBEii
FN:211,_ZN5amrex8FabArrayINS_7BaseFabIdEEE17FB_local_copy_cpuERKNS_12FabArrayBase2FBEii
FNDA:0,_ZN5amrex8FabArrayINS_7BaseFabIdEEE17FB_local_copy_cpuERKNS_12FabArrayBase2FBEii
FN:211,_ZN5amrex8FabArrayINS_7BaseFabIN5Model5Solid6Affine2J2EEEE17FB_local_copy_cpuERKNS_12FabArrayBase2FBEii
FNDA:0,_ZN5amrex8FabArrayINS_7BaseFabIN5Model5Solid6Affine2J2EEEE17FB_local_copy_cpuERKNS_12FabArrayBase2FBEii
FN:211,_ZN5amrex8FabArrayINS_7BaseFabIN3Set7Matrix4ILi3ELi3EEEEEE17FB_local_copy_cpuERKNS_12FabArrayBase2FBEii
FNDA:0,_ZN5amrex8FabArrayINS_7BaseFabIN3Set7Matrix4ILi3ELi3EEEEEE17FB_local_copy_cpuERKNS_12FabArrayBase2FBEii
FN:211,_ZN5amrex8FabArrayINS_7BaseFabIN5Model5Solid6Linear9LaplacianEEEE17FB_local_copy_cpuERKNS_12FabArrayBase2FBEii
FNDA:0,_ZN5amrex8FabArrayINS_7BaseFabIN5Model5Solid6Linear9LaplacianEEEE17FB_local_copy_cpuERKNS_12FabArrayBase2FBEii
FN:259,_ZZN5amrex8FabArrayINS_7BaseFabIN5Model5Solid6Affine5CubicEEEE17FB_local_copy_cpuERKNS_12FabArrayBase2FBEiiENKUliiiiE_clEiiii
FNDA:0,_ZZN5amrex8FabArrayINS_7BaseFabIN5Model5Solid6Affine5CubicEEEE17FB_local_copy_cpuERKNS_12FabArrayBase2FBEiiENKUliiiiE_clEiiii
FN:259,_ZZN5amrex8FabArrayINS_7BaseFabIN5Model5Solid7Elastic17PseudoLinearCubicEEEE17FB_local_copy_cpuERKNS_12FabArrayBase2FBEiiENKUliiiiE_clEiiii
FNDA:0,_ZZN5amrex8FabArrayINS_7BaseFabIN5Model5Solid7Elastic17PseudoLinearCubicEEEE17FB_local_copy_cpuERKNS_12FabArrayBase2FBEiiENKUliiiiE_clEiiii
FN:259,_ZZN5amrex8FabArrayINS_7BaseFabIN5Model5Solid6Affine9IsotropicEEEE17FB_local_copy_cpuERKNS_12FabArrayBase2FBEiiENKUliiiiE_clEiiii
FNDA:0,_ZZN5amrex8FabArrayINS_7BaseFabIN5Model5Solid6Affine9IsotropicEEEE17FB_local_copy_cpuERKNS_12FabArrayBase2FBEiiENKUliiiiE_clEiiii
FN:259,_ZZN5amrex8FabArrayINS_7BaseFabIN5Model5Solid6Affine9HexagonalEEEE17FB_local_copy_cpuERKNS_12FabArrayBase2FBEiiENKUliiiiE_clEiiii
FNDA:0,_ZZN5amrex8FabArrayINS_7BaseFabIN5Model5Solid6Affine9HexagonalEEEE17FB_local_copy_cpuERKNS_12FabArrayBase2FBEiiENKUliiiiE_clEiiii
FN:259,_ZZN5amrex8FabArrayINS_7BaseFabIN5Model5Solid6Linear5CubicEEEE17FB_local_copy_cpuERKNS_12FabArrayBase2FBEiiENKUliiiiE_clEiiii
FNDA:0,_ZZN5amrex8FabArrayINS_7BaseFabIN5Model5Solid6Linear5CubicEEEE17FB_local_copy_cpuERKNS_12FabArrayBase2FBEiiENKUliiiiE_clEiiii
FN:259,_ZZN5amrex8FabArrayINS_7BaseFabIN5Model5Solid6Linear9LaplacianEEEE17FB_local_copy_cpuERKNS_12FabArrayBase2FBEiiENKUliiiiE_clEiiii
FNDA:0,_ZZN5amrex8FabArrayINS_7BaseFabIN5Model5Solid6Linear9LaplacianEEEE17FB_local_copy_cpuERKNS_12FabArrayBase2FBEiiENKUliiiiE_clEiiii
FN:259,_ZZN5amrex8FabArrayINS_7BaseFabIN5Model5Solid7Elastic10NeoHookeanEEEE17FB_local_copy_cpuERKNS_12FabArrayBase2FBEiiENKUliiiiE_clEiiii
FNDA:0,_ZZN5amrex8FabArrayINS_7BaseFabIN5Model5Solid7Elastic10NeoHookeanEEEE17FB_local_copy_cpuERKNS_12FabArrayBase2FBEiiENKUliiiiE_clEiiii
FN:259,_ZZN5amrex8FabArrayINS_7BaseFabIN5Model5Solid6Linear9IsotropicEEEE17FB_local_copy_cpuERKNS_12FabArrayBase2FBEiiENKUliiiiE_clEiiii
FNDA:0,_ZZN5amrex8FabArrayINS_7BaseFabIN5Model5Solid6Linear9IsotropicEEEE17FB_local_copy_cpuERKNS_12FabArrayBase2FBEiiENKUliiiiE_clEiiii
FN:259,_ZZN5amrex8FabArrayINS_7BaseFabIN5Model5Solid6Linear19IsotropicDegradableEEEE17FB_local_copy_cpuERKNS_12FabArrayBase2FBEiiENKUliiiiE_clEiiii
FNDA:0,_ZZN5amrex8FabArrayINS_7BaseFabIN5Model5Solid6Linear19IsotropicDegradableEEEE17FB_local_copy_cpuERKNS_12FabArrayBase2FBEiiENKUliiiiE_clEiiii
FN:259,_ZZN5amrex8FabArrayINS_7BaseFabIN5Eigen6MatrixIdLi3ELi1ELi0ELi3ELi1EEEEEE17FB_local_copy_cpuERKNS_12FabArrayBase2FBEiiENKUliiiiE_clEiiii
FNDA:0,_ZZN5amrex8FabArrayINS_7BaseFabIN5Eigen6MatrixIdLi3ELi1ELi0ELi3ELi1EEEEEE17FB_local_copy_cpuERKNS_12FabArrayBase2FBEiiENKUliiiiE_clEiiii
FN:259,_ZZN5amrex8FabArrayINS_7BaseFabIN5Eigen6MatrixIdLi3ELi3ELi0ELi3ELi3EEEEEE17FB_local_copy_cpuERKNS_12FabArrayBase2FBEiiENKUliiiiE_clEiiii
FNDA:0,_ZZN5amrex8FabArrayINS_7BaseFabIN5Eigen6MatrixIdLi3ELi3ELi0ELi3ELi3EEEEEE17FB_local_copy_cpuERKNS_12FabArrayBase2FBEiiENKUliiiiE_clEiiii
FN:259,_ZZN5amrex8FabArrayINS_9FArrayBoxEE17FB_local_copy_cpuERKNS_12FabArrayBase2FBEiiENKUliiiiE_clEiiii
FNDA:0,_ZZN5amrex8FabArrayINS_9FArrayBoxEE17FB_local_copy_cpuERKNS_12FabArrayBase2FBEiiENKUliiiiE_clEiiii
FN:259,_ZZN5amrex8FabArrayINS_7BaseFabIdEEE17FB_local_copy_cpuERKNS_12FabArrayBase2FBEiiENKUliiiiE_clEiiii
FNDA:0,_ZZN5amrex8FabArrayINS_7BaseFabIdEEE17FB_local_copy_cpuERKNS_12FabArrayBase2FBEiiENKUliiiiE_clEiiii
FN:259,_ZZN5amrex8FabArrayINS_7BaseFabIN5Model5Solid7Elastic28PseudoLinearCubicPredeformedEEEE17FB_local_copy_cpuERKNS_12FabArrayBase2FBEiiENKUliiiiE_clEiiii
FNDA:0,_ZZN5amrex8FabArrayINS_7BaseFabIN5Model5Solid7Elastic28PseudoLinearCubicPredeformedEEEE17FB_local_copy_cpuERKNS_12FabArrayBase2FBEiiENKUliiiiE_clEiiii
FN:259,_ZZN5amrex8FabArrayINS_7BaseFabIN3Set7Matrix4ILi3ELi6EEEEEE17FB_local_copy_cpuERKNS_12FabArrayBase2FBEiiENKUliiiiE_clEiiii
FNDA:0,_ZZN5amrex8FabArrayINS_7BaseFabIN3Set7Matrix4ILi3ELi6EEEEEE17FB_local_copy_cpuERKNS_12FabArrayBase2FBEiiENKUliiiiE_clEiiii
FN:259,_ZZN5amrex8FabArrayINS_7BaseFabIN3Set7Matrix4ILi3ELi1EEEEEE17FB_local_copy_cpuERKNS_12FabArrayBase2FBEiiENKUliiiiE_clEiiii
FNDA:0,_ZZN5amrex8FabArrayINS_7BaseFabIN3Set7Matrix4ILi3ELi1EEEEEE17FB_local_copy_cpuERKNS_12FabArrayBase2FBEiiENKUliiiiE_clEiiii
FN:259,_ZZN5amrex8FabArrayINS_7BaseFabIN3Set7Matrix4ILi3ELi4EEEEEE17FB_local_copy_cpuERKNS_12FabArrayBase2FBEiiENKUliiiiE_clEiiii
FNDA:0,_ZZN5amrex8FabArrayINS_7BaseFabIN3Set7Matrix4ILi3ELi4EEEEEE17FB_local_copy_cpuERKNS_12FabArrayBase2FBEiiENKUliiiiE_clEiiii
FN:259,_ZZN5amrex8FabArrayINS_7BaseFabIN3Set7Matrix4ILi3ELi3EEEEEE17FB_local_copy_cpuERKNS_12FabArrayBase2FBEiiENKUliiiiE_clEiiii
FNDA:0,_ZZN5amrex8FabArrayINS_7BaseFabIN3Set7Matrix4ILi3ELi3EEEEEE17FB_local_copy_cpuERKNS_12FabArrayBase2FBEiiENKUliiiiE_clEiiii
FN:259,_ZZN5amrex8FabArrayINS_7BaseFabIN5Model5Solid6Affine2J2EEEE17FB_local_copy_cpuERKNS_12FabArrayBase2FBEiiENKUliiiiE_clEiiii
FNDA:0,_ZZN5amrex8FabArrayINS_7BaseFabIN5Model5Solid6Affine2J2EEEE17FB_local_copy_cpuERKNS_12FabArrayBase2FBEiiENKUliiiiE_clEiiii
FN:900,_ZN5amrex8FabArrayINS_7BaseFabIN5Model5Solid7Elastic17PseudoLinearCubicEEEE20pack_send_buffer_cpuIS5_EEvRKS7_iiRKNS_6VectorIPcSaISC_EEERKNSB_ImSaImEEERKNSB_IPKSt6vectorINS_12FabArrayBase10CopyComTagESaISN_EESaISR_EEE
FNDA:0,_ZN5amrex8FabArrayINS_7BaseFabIN5Model5Solid7Elastic17PseudoLinearCubicEEEE20pack_send_buffer_cpuIS5_EEvRKS7_iiRKNS_6VectorIPcSaISC_EEERKNSB_ImSaImEEERKNSB_IPKSt6vectorINS_12FabArrayBase10CopyComTagESaISN_EESaISR_EEE
FN:900,_ZN5amrex8FabArrayINS_7BaseFabIdEEE20pack_send_buffer_cpuIdEEvRKS3_iiRKNS_6VectorIPcSaIS8_EEERKNS7_ImSaImEEERKNS7_IPKSt6vectorINS_12FabArrayBase10CopyComTagESaISJ_EESaISN_EEE
FNDA:0,_ZN5amrex8FabArrayINS_7BaseFabIdEEE20pack_send_buffer_cpuIdEEvRKS3_iiRKNS_6VectorIPcSaIS8_EEERKNS7_ImSaImEEERKNS7_IPKSt6vectorINS_12FabArrayBase10CopyComTagESaISJ_EESaISN_EEE
FN:900,_ZN5amrex8FabArrayINS_7BaseFabIN5Model5Solid7Elastic28PseudoLinearCubicPredeformedEEEE20pack_send_buffer_cpuIS5_EEvRKS7_iiRKNS_6VectorIPcSaISC_EEERKNSB_ImSaImEEERKNSB_IPKSt6vectorINS_12FabArrayBase10CopyComTagESaISN_EESaISR_EEE
FNDA:0,_ZN5amrex8FabArrayINS_7BaseFabIN5Model5Solid7Elastic28PseudoLinearCubicPredeformedEEEE20pack_send_buffer_cpuIS5_EEvRKS7_iiRKNS_6VectorIPcSaISC_EEERKNSB_ImSaImEEERKNSB_IPKSt6vectorINS_12FabArrayBase10CopyComTagESaISN_EESaISR_EEE
FN:900,_ZN5amrex8FabArrayINS_7BaseFabIN5Model5Solid7Elastic10NeoHookeanEEEE20pack_send_buffer_cpuIS5_EEvRKS7_iiRKNS_6VectorIPcSaISC_EEERKNSB_ImSaImEEERKNSB_IPKSt6vectorINS_12FabArrayBase10CopyComTagESaISN_EESaISR_EEE
FNDA:0,_ZN5amrex8FabArrayINS_7BaseFabIN5Model5Solid7Elastic10NeoHookeanEEEE20pack_send_buffer_cpuIS5_EEvRKS7_iiRKNS_6VectorIPcSaISC_EEERKNSB_ImSaImEEERKNSB_IPKSt6vectorINS_12FabArrayBase10CopyComTagESaISN_EESaISR_EEE
FN:900,_ZN5amrex8FabArrayINS_7BaseFabIN5Model5Solid6Affine2J2EEEE20pack_send_buffer_cpuIS5_EEvRKS7_iiRKNS_6VectorIPcSaISC_EEERKNSB_ImSaImEEERKNSB_IPKSt6vectorINS_12FabArrayBase10CopyComTagESaISN_EESaISR_EEE
FNDA:0,_ZN5amrex8FabArrayINS_7BaseFabIN5Model5Solid6Affine2J2EEEE20pack_send_buffer_cpuIS5_EEvRKS7_iiRKNS_6VectorIPcSaISC_EEERKNSB_ImSaImEEERKNSB_IPKSt6vectorINS_12FabArrayBase10CopyComTagESaISN_EESaISR_EEE
FN:900,_ZN5amrex8FabArrayINS_7BaseFabIN5Model5Solid6Linear9LaplacianEEEE20pack_send_buffer_cpuIS5_EEvRKS7_iiRKNS_6VectorIPcSaISC_EEERKNSB_ImSaImEEERKNSB_IPKSt6vectorINS_12FabArrayBase10CopyComTagESaISN_EESaISR_EEE
FNDA:0,_ZN5amrex8FabArrayINS_7BaseFabIN5Model5Solid6Linear9LaplacianEEEE20pack_send_buffer_cpuIS5_EEvRKS7_iiRKNS_6VectorIPcSaISC_EEERKNSB_ImSaImEEERKNSB_IPKSt6vectorINS_12FabArrayBase10CopyComTagESaISN_EESaISR_EEE
FN:900,_ZN5amrex8FabArrayINS_7BaseFabIN3Set7Matrix4ILi3ELi4EEEEEE20pack_send_buffer_cpuIS4_EEvRKS6_iiRKNS_6VectorIPcSaISB_EEERKNSA_ImSaImEEERKNSA_IPKSt6vectorINS_12FabArrayBase10CopyComTagESaISM_EESaISQ_EEE
FNDA:0,_ZN5amrex8FabArrayINS_7BaseFabIN3Set7Matrix4ILi3ELi4EEEEEE20pack_send_buffer_cpuIS4_EEvRKS6_iiRKNS_6VectorIPcSaISB_EEERKNSA_ImSaImEEERKNSA_IPKSt6vectorINS_12FabArrayBase10CopyComTagESaISM_EESaISQ_EEE
FN:900,_ZN5amrex8FabArrayINS_7BaseFabIN3Set7Matrix4ILi3ELi6EEEEEE20pack_send_buffer_cpuIS4_EEvRKS6_iiRKNS_6VectorIPcSaISB_EEERKNSA_ImSaImEEERKNSA_IPKSt6vectorINS_12FabArrayBase10CopyComTagESaISM_EESaISQ_EEE
FNDA:0,_ZN5amrex8FabArrayINS_7BaseFabIN3Set7Matrix4ILi3ELi6EEEEEE20pack_send_buffer_cpuIS4_EEvRKS6_iiRKNS_6VectorIPcSaISB_EEERKNSA_ImSaImEEERKNSA_IPKSt6vectorINS_12FabArrayBase10CopyComTagESaISM_EESaISQ_EEE
FN:900,_ZN5amrex8FabArrayINS_7BaseFabIN3Set7Matrix4ILi3ELi1EEEEEE20pack_send_buffer_cpuIS4_EEvRKS6_iiRKNS_6VectorIPcSaISB_EEERKNSA_ImSaImEEERKNSA_IPKSt6vectorINS_12FabArrayBase10CopyComTagESaISM_EESaISQ_EEE
FNDA:0,_ZN5amrex8FabArrayINS_7BaseFabIN3Set7Matrix4ILi3ELi1EEEEEE20pack_send_buffer_cpuIS4_EEvRKS6_iiRKNS_6VectorIPcSaISB_EEERKNSA_ImSaImEEERKNSA_IPKSt6vectorINS_12FabArrayBase10CopyComTagESaISM_EESaISQ_EEE
FN:900,_ZN5amrex8FabArrayINS_7BaseFabIN3Set7Matrix4ILi3ELi3EEEEEE20pack_send_buffer_cpuIS4_EEvRKS6_iiRKNS_6VectorIPcSaISB_EEERKNSA_ImSaImEEERKNSA_IPKSt6vectorINS_12FabArrayBase10CopyComTagESaISM_EESaISQ_EEE
FNDA:0,_ZN5amrex8FabArrayINS_7BaseFabIN3Set7Matrix4ILi3ELi3EEEEEE20pack_send_buffer_cpuIS4_EEvRKS6_iiRKNS_6VectorIPcSaISB_EEERKNSA_ImSaImEEERKNSA_IPKSt6vectorINS_12FabArrayBase10CopyComTagESaISM_EESaISQ_EEE
FN:900,_ZN5amrex8FabArrayINS_7BaseFabIN5Eigen6MatrixIdLi3ELi3ELi0ELi3ELi3EEEEEE20pack_send_buffer_cpuIS4_EEvRKS6_iiRKNS_6VectorIPcSaISB_EEERKNSA_ImSaImEEERKNSA_IPKSt6vectorINS_12FabArrayBase10CopyComTagESaISM_EESaISQ_EEE
FNDA:0,_ZN5amrex8FabArrayINS_7BaseFabIN5Eigen6MatrixIdLi3ELi3ELi0ELi3ELi3EEEEEE20pack_send_buffer_cpuIS4_EEvRKS6_iiRKNS_6VectorIPcSaISB_EEERKNSA_ImSaImEEERKNSA_IPKSt6vectorINS_12FabArrayBase10CopyComTagESaISM_EESaISQ_EEE
FN:900,_ZN5amrex8FabArrayINS_9FArrayBoxEE20pack_send_buffer_cpuIdEEvRKS2_iiRKNS_6VectorIPcSaIS7_EEERKNS6_ImSaImEEERKNS6_IPKSt6vectorINS_12FabArrayBase10CopyComTagESaISI_EESaISM_EEE
FNDA:0,_ZN5amrex8FabArrayINS_9FArrayBoxEE20pack_send_buffer_cpuIdEEvRKS2_iiRKNS_6VectorIPcSaIS7_EEERKNS6_ImSaImEEERKNS6_IPKSt6vectorINS_12FabArrayBase10CopyComTagESaISI_EESaISM_EEE
FN:900,_ZN5amrex8FabArrayINS_7BaseFabIN5Eigen6MatrixIdLi3ELi1ELi0ELi3ELi1EEEEEE20pack_send_buffer_cpuIS4_EEvRKS6_iiRKNS_6VectorIPcSaISB_EEERKNSA_ImSaImEEERKNSA_IPKSt6vectorINS_12FabArrayBase10CopyComTagESaISM_EESaISQ_EEE
FNDA:0,_ZN5amrex8FabArrayINS_7BaseFabIN5Eigen6MatrixIdLi3ELi1ELi0ELi3ELi1EEEEEE20pack_send_buffer_cpuIS4_EEvRKS6_iiRKNS_6VectorIPcSaISB_EEERKNSA_ImSaImEEERKNSA_IPKSt6vectorINS_12FabArrayBase10CopyComTagESaISM_EESaISQ_EEE
FN:900,_ZN5amrex8FabArrayINS_7BaseFabIN5Model5Solid6Affine9IsotropicEEEE20pack_send_buffer_cpuIS5_EEvRKS7_iiRKNS_6VectorIPcSaISC_EEERKNSB_ImSaImEEERKNSB_IPKSt6vectorINS_12FabArrayBase10CopyComTagESaISN_EESaISR_EEE
FNDA:0,_ZN5amrex8FabArrayINS_7BaseFabIN5Model5Solid6Affine9IsotropicEEEE20pack_send_buffer_cpuIS5_EEvRKS7_iiRKNS_6VectorIPcSaISC_EEERKNSB_ImSaImEEERKNSB_IPKSt6vectorINS_12FabArrayBase10CopyComTagESaISN_EESaISR_EEE
FN:900,_ZN5amrex8FabArrayINS_7BaseFabIN5Model5Solid6Linear9IsotropicEEEE20pack_send_buffer_cpuIS5_EEvRKS7_iiRKNS_6VectorIPcSaISC_EEERKNSB_ImSaImEEERKNSB_IPKSt6vectorINS_12FabArrayBase10CopyComTagESaISN_EESaISR_EEE
FNDA:0,_ZN5amrex8FabArrayINS_7BaseFabIN5Model5Solid6Linear9IsotropicEEEE20pack_send_buffer_cpuIS5_EEvRKS7_iiRKNS_6VectorIPcSaISC_EEERKNSB_ImSaImEEERKNSB_IPKSt6vectorINS_12FabArrayBase10CopyComTagESaISN_EESaISR_EEE
FN:900,_ZN5amrex8FabArrayINS_7BaseFabIN5Model5Solid6Linear5CubicEEEE20pack_send_buffer_cpuIS5_EEvRKS7_iiRKNS_6VectorIPcSaISC_EEERKNSB_ImSaImEEERKNSB_IPKSt6vectorINS_12FabArrayBase10CopyComTagESaISN_EESaISR_EEE
FNDA:0,_ZN5amrex8FabArrayINS_7BaseFabIN5Model5Solid6Linear5CubicEEEE20pack_send_buffer_cpuIS5_EEvRKS7_iiRKNS_6VectorIPcSaISC_EEERKNSB_ImSaImEEERKNSB_IPKSt6vectorINS_12FabArrayBase10CopyComTagESaISN_EESaISR_EEE
FN:900,_ZN5amrex8FabArrayINS_7BaseFabIN5Model5Solid6Affine5CubicEEEE20pack_send_buffer_cpuIS5_EEvRKS7_iiRKNS_6VectorIPcSaISC_EEERKNSB_ImSaImEEERKNSB_IPKSt6vectorINS_12FabArrayBase10CopyComTagESaISN_EESaISR_EEE
FNDA:0,_ZN5amrex8FabArrayINS_7BaseFabIN5Model5Solid6Affine5CubicEEEE20pack_send_buffer_cpuIS5_EEvRKS7_iiRKNS_6VectorIPcSaISC_EEERKNSB_ImSaImEEERKNSB_IPKSt6vectorINS_12FabArrayBase10CopyComTagESaISN_EESaISR_EEE
FN:900,_ZN5amrex8FabArrayINS_7BaseFabIN5Model5Solid6Affine9HexagonalEEEE20pack_send_buffer_cpuIS5_EEvRKS7_iiRKNS_6VectorIPcSaISC_EEERKNSB_ImSaImEEERKNSB_IPKSt6vectorINS_12FabArrayBase10CopyComTagESaISN_EESaISR_EEE
FNDA:0,_ZN5amrex8FabArrayINS_7BaseFabIN5Model5Solid6Affine9HexagonalEEEE20pack_send_buffer_cpuIS5_EEvRKS7_iiRKNS_6VectorIPcSaISC_EEERKNSB_ImSaImEEERKNSB_IPKSt6vectorINS_12FabArrayBase10CopyComTagESaISN_EESaISR_EEE
FN:900,_ZN5amrex8FabArrayINS_7BaseFabIN5Model5Solid6Linear19IsotropicDegradableEEEE20pack_send_buffer_cpuIS5_EEvRKS7_iiRKNS_6VectorIPcSaISC_EEERKNSB_ImSaImEEERKNSB_IPKSt6vectorINS_12FabArrayBase10CopyComTagESaISN_EESaISR_EEE
FNDA:0,_ZN5amrex8FabArrayINS_7BaseFabIN5Model5Solid6Linear19IsotropicDegradableEEEE20pack_send_buffer_cpuIS5_EEvRKS7_iiRKNS_6VectorIPcSaISC_EEERKNSB_ImSaImEEERKNSB_IPKSt6vectorINS_12FabArrayBase10CopyComTagESaISN_EESaISR_EEE
FN:925,_ZZN5amrex8FabArrayINS_7BaseFabIN5Model5Solid6Affine9IsotropicEEEE20pack_send_buffer_cpuIS5_EEvRKS7_iiRKNS_6VectorIPcSaISC_EEERKNSB_ImSaImEEERKNSB_IPKSt6vectorINS_12FabArrayBase10CopyComTagESaISN_EESaISR_EEEENKUliiiiE_clEiiii
FNDA:0,_ZZN5amrex8FabArrayINS_7BaseFabIN5Model5Solid6Affine9IsotropicEEEE20pack_send_buffer_cpuIS5_EEvRKS7_iiRKNS_6VectorIPcSaISC_EEERKNSB_ImSaImEEERKNSB_IPKSt6vectorINS_12FabArrayBase10CopyComTagESaISN_EESaISR_EEEENKUliiiiE_clEiiii
FN:925,_ZZN5amrex8FabArrayINS_7BaseFabIN5Eigen6MatrixIdLi3ELi3ELi0ELi3ELi3EEEEEE20pack_send_buffer_cpuIS4_EEvRKS6_iiRKNS_6VectorIPcSaISB_EEERKNSA_ImSaImEEERKNSA_IPKSt6vectorINS_12FabArrayBase10CopyComTagESaISM_EESaISQ_EEEENKUliiiiE_clEiiii
FNDA:0,_ZZN5amrex8FabArrayINS_7BaseFabIN5Eigen6MatrixIdLi3ELi3ELi0ELi3ELi3EEEEEE20pack_send_buffer_cpuIS4_EEvRKS6_iiRKNS_6VectorIPcSaISB_EEERKNSA_ImSaImEEERKNSA_IPKSt6vectorINS_12FabArrayBase10CopyComTagESaISM_EESaISQ_EEEENKUliiiiE_clEiiii
FN:925,_ZZN5amrex8FabArrayINS_7BaseFabIN5Model5Solid6Linear19IsotropicDegradableEEEE20pack_send_buffer_cpuIS5_EEvRKS7_iiRKNS_6VectorIPcSaISC_EEERKNSB_ImSaImEEERKNSB_IPKSt6vectorINS_12FabArrayBase10CopyComTagESaISN_EESaISR_EEEENKUliiiiE_clEiiii
FNDA:0,_ZZN5amrex8FabArrayINS_7BaseFabIN5Model5Solid6Linear19IsotropicDegradableEEEE20pack_send_buffer_cpuIS5_EEvRKS7_iiRKNS_6VectorIPcSaISC_EEERKNSB_ImSaImEEERKNSB_IPKSt6vectorINS_12FabArrayBase10CopyComTagESaISN_EESaISR_EEEENKUliiiiE_clEiiii
FN:925,_ZZN5amrex8FabArrayINS_7BaseFabIN3Set7Matrix4ILi3ELi6EEEEEE20pack_send_buffer_cpuIS4_EEvRKS6_iiRKNS_6VectorIPcSaISB_EEERKNSA_ImSaImEEERKNSA_IPKSt6vectorINS_12FabArrayBase10CopyComTagESaISM_EESaISQ_EEEENKUliiiiE_clEiiii
FNDA:0,_ZZN5amrex8FabArrayINS_7BaseFabIN3Set7Matrix4ILi3ELi6EEEEEE20pack_send_buffer_cpuIS4_EEvRKS6_iiRKNS_6VectorIPcSaISB_EEERKNSA_ImSaImEEERKNSA_IPKSt6vectorINS_12FabArrayBase10CopyComTagESaISM_EESaISQ_EEEENKUliiiiE_clEiiii
FN:925,_ZZN5amrex8FabArrayINS_7BaseFabIN5Model5Solid7Elastic17PseudoLinearCubicEEEE20pack_send_buffer_cpuIS5_EEvRKS7_iiRKNS_6VectorIPcSaISC_EEERKNSB_ImSaImEEERKNSB_IPKSt6vectorINS_12FabArrayBase10CopyComTagESaISN_EESaISR_EEEENKUliiiiE_clEiiii
FNDA:0,_ZZN5amrex8FabArrayINS_7BaseFabIN5Model5Solid7Elastic17PseudoLinearCubicEEEE20pack_send_buffer_cpuIS5_EEvRKS7_iiRKNS_6VectorIPcSaISC_EEERKNSB_ImSaImEEERKNSB_IPKSt6vectorINS_12FabArrayBase10CopyComTagESaISN_EESaISR_EEEENKUliiiiE_clEiiii
FN:925,_ZZN5amrex8FabArrayINS_7BaseFabIN5Model5Solid6Linear9IsotropicEEEE20pack_send_buffer_cpuIS5_EEvRKS7_iiRKNS_6VectorIPcSaISC_EEERKNSB_ImSaImEEERKNSB_IPKSt6vectorINS_12FabArrayBase10CopyComTagESaISN_EESaISR_EEEENKUliiiiE_clEiiii
FNDA:0,_ZZN5amrex8FabArrayINS_7BaseFabIN5Model5Solid6Linear9IsotropicEEEE20pack_send_buffer_cpuIS5_EEvRKS7_iiRKNS_6VectorIPcSaISC_EEERKNSB_ImSaImEEERKNSB_IPKSt6vectorINS_12FabArrayBase10CopyComTagESaISN_EESaISR_EEEENKUliiiiE_clEiiii
FN:925,_ZZN5amrex8FabArrayINS_7BaseFabIN3Set7Matrix4ILi3ELi3EEEEEE20pack_send_buffer_cpuIS4_EEvRKS6_iiRKNS_6VectorIPcSaISB_EEERKNSA_ImSaImEEERKNSA_IPKSt6vectorINS_12FabArrayBase10CopyComTagESaISM_EESaISQ_EEEENKUliiiiE_clEiiii
FNDA:0,_ZZN5amrex8FabArrayINS_7BaseFabIN3Set7Matrix4ILi3ELi3EEEEEE20pack_send_buffer_cpuIS4_EEvRKS6_iiRKNS_6VectorIPcSaISB_EEERKNSA_ImSaImEEERKNSA_IPKSt6vectorINS_12FabArrayBase10CopyComTagESaISM_EESaISQ_EEEENKUliiiiE_clEiiii
FN:925,_ZZN5amrex8FabArrayINS_7BaseFabIN3Set7Matrix4ILi3ELi4EEEEEE20pack_send_buffer_cpuIS4_EEvRKS6_iiRKNS_6VectorIPcSaISB_EEERKNSA_ImSaImEEERKNSA_IPKSt6vectorINS_12FabArrayBase10CopyComTagESaISM_EESaISQ_EEEENKUliiiiE_clEiiii
FNDA:0,_ZZN5amrex8FabArrayINS_7BaseFabIN3Set7Matrix4ILi3ELi4EEEEEE20pack_send_buffer_cpuIS4_EEvRKS6_iiRKNS_6VectorIPcSaISB_EEERKNSA_ImSaImEEERKNSA_IPKSt6vectorINS_12FabArrayBase10CopyComTagESaISM_EESaISQ_EEEENKUliiiiE_clEiiii
FN:925,_ZZN5amrex8FabArrayINS_7BaseFabIN3Set7Matrix4ILi3ELi1EEEEEE20pack_send_buffer_cpuIS4_EEvRKS6_iiRKNS_6VectorIPcSaISB_EEERKNSA_ImSaImEEERKNSA_IPKSt6vectorINS_12FabArrayBase10CopyComTagESaISM_EESaISQ_EEEENKUliiiiE_clEiiii
FNDA:0,_ZZN5amrex8FabArrayINS_7BaseFabIN3Set7Matrix4ILi3ELi1EEEEEE20pack_send_buffer_cpuIS4_EEvRKS6_iiRKNS_6VectorIPcSaISB_EEERKNSA_ImSaImEEERKNSA_IPKSt6vectorINS_12FabArrayBase10CopyComTagESaISM_EESaISQ_EEEENKUliiiiE_clEiiii
FN:925,_ZZN5amrex8FabArrayINS_9FArrayBoxEE20pack_send_buffer_cpuIdEEvRKS2_iiRKNS_6VectorIPcSaIS7_EEERKNS6_ImSaImEEERKNS6_IPKSt6vectorINS_12FabArrayBase10CopyComTagESaISI_EESaISM_EEEENKUliiiiE_clEiiii
FNDA:0,_ZZN5amrex8FabArrayINS_9FArrayBoxEE20pack_send_buffer_cpuIdEEvRKS2_iiRKNS_6VectorIPcSaIS7_EEERKNS6_ImSaImEEERKNS6_IPKSt6vectorINS_12FabArrayBase10CopyComTagESaISI_EESaISM_EEEENKUliiiiE_clEiiii
FN:925,_ZZN5amrex8FabArrayINS_7BaseFabIN5Eigen6MatrixIdLi3ELi1ELi0ELi3ELi1EEEEEE20pack_send_buffer_cpuIS4_EEvRKS6_iiRKNS_6VectorIPcSaISB_EEERKNSA_ImSaImEEERKNSA_IPKSt6vectorINS_12FabArrayBase10CopyComTagESaISM_EESaISQ_EEEENKUliiiiE_clEiiii
FNDA:0,_ZZN5amrex8FabArrayINS_7BaseFabIN5Eigen6MatrixIdLi3ELi1ELi0ELi3ELi1EEEEEE20pack_send_buffer_cpuIS4_EEvRKS6_iiRKNS_6VectorIPcSaISB_EEERKNSA_ImSaImEEERKNSA_IPKSt6vectorINS_12FabArrayBase10CopyComTagESaISM_EESaISQ_EEEENKUliiiiE_clEiiii
FN:925,_ZZN5amrex8FabArrayINS_7BaseFabIdEEE20pack_send_buffer_cpuIdEEvRKS3_iiRKNS_6VectorIPcSaIS8_EEERKNS7_ImSaImEEERKNS7_IPKSt6vectorINS_12FabArrayBase10CopyComTagESaISJ_EESaISN_EEEENKUliiiiE_clEiiii
FNDA:0,_ZZN5amrex8FabArrayINS_7BaseFabIdEEE20pack_send_buffer_cpuIdEEvRKS3_iiRKNS_6VectorIPcSaIS8_EEERKNS7_ImSaImEEERKNS7_IPKSt6vectorINS_12FabArrayBase10CopyComTagESaISJ_EESaISN_EEEENKUliiiiE_clEiiii
FN:925,_ZZN5amrex8FabArrayINS_7BaseFabIN5Model5Solid6Linear5CubicEEEE20pack_send_buffer_cpuIS5_EEvRKS7_iiRKNS_6VectorIPcSaISC_EEERKNSB_ImSaImEEERKNSB_IPKSt6vectorINS_12FabArrayBase10CopyComTagESaISN_EESaISR_EEEENKUliiiiE_clEiiii
FNDA:0,_ZZN5amrex8FabArrayINS_7BaseFabIN5Model5Solid6Linear5CubicEEEE20pack_send_buffer_cpuIS5_EEvRKS7_iiRKNS_6VectorIPcSaISC_EEERKNSB_ImSaImEEERKNSB_IPKSt6vectorINS_12FabArrayBase10CopyComTagESaISN_EESaISR_EEEENKUliiiiE_clEiiii
FN:925,_ZZN5amrex8FabArrayINS_7BaseFabIN5Model5Solid6Affine5CubicEEEE20pack_send_buffer_cpuIS5_EEvRKS7_iiRKNS_6VectorIPcSaISC_EEERKNSB_ImSaImEEERKNSB_IPKSt6vectorINS_12FabArrayBase10CopyComTagESaISN_EESaISR_EEEENKUliiiiE_clEiiii
FNDA:0,_ZZN5amrex8FabArrayINS_7BaseFabIN5Model5Solid6Affine5CubicEEEE20pack_send_buffer_cpuIS5_EEvRKS7_iiRKNS_6VectorIPcSaISC_EEERKNSB_ImSaImEEERKNSB_IPKSt6vectorINS_12FabArrayBase10CopyComTagESaISN_EESaISR_EEEENKUliiiiE_clEiiii
FN:925,_ZZN5amrex8FabArrayINS_7BaseFabIN5Model5Solid6Affine9HexagonalEEEE20pack_send_buffer_cpuIS5_EEvRKS7_iiRKNS_6VectorIPcSaISC_EEERKNSB_ImSaImEEERKNSB_IPKSt6vectorINS_12FabArrayBase10CopyComTagESaISN_EESaISR_EEEENKUliiiiE_clEiiii
FNDA:0,_ZZN5amrex8FabArrayINS_7BaseFabIN5Model5Solid6Affine9HexagonalEEEE20pack_send_buffer_cpuIS5_EEvRKS7_iiRKNS_6VectorIPcSaISC_EEERKNSB_ImSaImEEERKNSB_IPKSt6vectorINS_12FabArrayBase10CopyComTagESaISN_EESaISR_EEEENKUliiiiE_clEiiii
FN:925,_ZZN5amrex8FabArrayINS_7BaseFabIN5Model5Solid6Linear9LaplacianEEEE20pack_send_buffer_cpuIS5_EEvRKS7_iiRKNS_6VectorIPcSaISC_EEERKNSB_ImSaImEEERKNSB_IPKSt6vectorINS_12FabArrayBase10CopyComTagESaISN_EESaISR_EEEENKUliiiiE_clEiiii
FNDA:0,_ZZN5amrex8FabArrayINS_7BaseFabIN5Model5Solid6Linear9LaplacianEEEE20pack_send_buffer_cpuIS5_EEvRKS7_iiRKNS_6VectorIPcSaISC_EEERKNSB_ImSaImEEERKNSB_IPKSt6vectorINS_12FabArrayBase10CopyComTagESaISN_EESaISR_EEEENKUliiiiE_clEiiii
FN:925,_ZZN5amrex8FabArrayINS_7BaseFabIN5Model5Solid6Affine2J2EEEE20pack_send_buffer_cpuIS5_EEvRKS7_iiRKNS_6VectorIPcSaISC_EEERKNSB_ImSaImEEERKNSB_IPKSt6vectorINS_12FabArrayBase10CopyComTagESaISN_EESaISR_EEEENKUliiiiE_clEiiii
FNDA:0,_ZZN5amrex8FabArrayINS_7BaseFabIN5Model5Solid6Affine2J2EEEE20pack_send_buffer_cpuIS5_EEvRKS7_iiRKNS_6VectorIPcSaISC_EEERKNSB_ImSaImEEERKNSB_IPKSt6vectorINS_12FabArrayBase10CopyComTagESaISN_EESaISR_EEEENKUliiiiE_clEiiii
FN:925,_ZZN5amrex8FabArrayINS_7BaseFabIN5Model5Solid7Elastic28PseudoLinearCubicPredeformedEEEE20pack_send_buffer_cpuIS5_EEvRKS7_iiRKNS_6VectorIPcSaISC_EEERKNSB_ImSaImEEERKNSB_IPKSt6vectorINS_12FabArrayBase10CopyComTagESaISN_EESaISR_EEEENKUliiiiE_clEiiii
FNDA:0,_ZZN5amrex8FabArrayINS_7BaseFabIN5Model5Solid7Elastic28PseudoLinearCubicPredeformedEEEE20pack_send_buffer_cpuIS5_EEvRKS7_iiRKNS_6VectorIPcSaISC_EEERKNSB_ImSaImEEERKNSB_IPKSt6vectorINS_12FabArrayBase10CopyComTagESaISN_EESaISR_EEEENKUliiiiE_clEiiii
FN:925,_ZZN5amrex8FabArrayINS_7BaseFabIN5Model5Solid7Elastic10NeoHookeanEEEE20pack_send_buffer_cpuIS5_EEvRKS7_iiRKNS_6VectorIPcSaISC_EEERKNSB_ImSaImEEERKNSB_IPKSt6vectorINS_12FabArrayBase10CopyComTagESaISN_EESaISR_EEEENKUliiiiE_clEiiii
FNDA:0,_ZZN5amrex8FabArrayINS_7BaseFabIN5Model5Solid7Elastic10NeoHookeanEEEE20pack_send_buffer_cpuIS5_EEvRKS7_iiRKNS_6VectorIPcSaISC_EEERKNSB_ImSaImEEERKNSB_IPKSt6vectorINS_12FabArrayBase10CopyComTagESaISN_EESaISR_EEEENKUliiiiE_clEiiii
FN:939,_ZN5amrex8FabArrayINS_7BaseFabIN5Model5Solid7Elastic17PseudoLinearCubicEEEE22unpack_recv_buffer_cpuIS5_EEvRS7_iiRKNS_6VectorIPcSaISB_EEERKNSA_ImSaImEEERKNSA_IPKSt6vectorINS_12FabArrayBase10CopyComTagESaISM_EESaISQ_EEENSL_4CpOpEb
FNDA:0,_ZN5amrex8FabArrayINS_7BaseFabIN5Model5Solid7Elastic17PseudoLinearCubicEEEE22unpack_recv_buffer_cpuIS5_EEvRS7_iiRKNS_6VectorIPcSaISB_EEERKNSA_ImSaImEEERKNSA_IPKSt6vectorINS_12FabArrayBase10CopyComTagESaISM_EESaISQ_EEENSL_4CpOpEb
FN:939,_ZN5amrex8FabArrayINS_7BaseFabIN5Eigen6MatrixIdLi3ELi1ELi0ELi3ELi1EEEEEE22unpack_recv_buffer_cpuIS4_EEvRS6_iiRKNS_6VectorIPcSaISA_EEERKNS9_ImSaImEEERKNS9_IPKSt6vectorINS_12FabArrayBase10CopyComTagESaISL_EESaISP_EEENSK_4CpOpEb
FNDA:0,_ZN5amrex8FabArrayINS_7BaseFabIN5Eigen6MatrixIdLi3ELi1ELi0ELi3ELi1EEEEEE22unpack_recv_buffer_cpuIS4_EEvRS6_iiRKNS_6VectorIPcSaISA_EEERKNS9_ImSaImEEERKNS9_IPKSt6vectorINS_12FabArrayBase10CopyComTagESaISL_EESaISP_EEENSK_4CpOpEb
FN:939,_ZN5amrex8FabArrayINS_7BaseFabIN3Set7Matrix4ILi3ELi3EEEEEE22unpack_recv_buffer_cpuIS4_EEvRS6_iiRKNS_6VectorIPcSaISA_EEERKNS9_ImSaImEEERKNS9_IPKSt6vectorINS_12FabArrayBase10CopyComTagESaISL_EESaISP_EEENSK_4CpOpEb
FNDA:0,_ZN5amrex8FabArrayINS_7BaseFabIN3Set7Matrix4ILi3ELi3EEEEEE22unpack_recv_buffer_cpuIS4_EEvRS6_iiRKNS_6VectorIPcSaISA_EEERKNS9_ImSaImEEERKNS9_IPKSt6vectorINS_12FabArrayBase10CopyComTagESaISL_EESaISP_EEENSK_4CpOpEb
FN:939,_ZN5amrex8FabArrayINS_7BaseFabIdEEE22unpack_recv_buffer_cpuIdEEvRS3_iiRKNS_6VectorIPcSaIS7_EEERKNS6_ImSaImEEERKNS6_IPKSt6vectorINS_12FabArrayBase10CopyComTagESaISI_EESaISM_EEENSH_4CpOpEb
FNDA:0,_ZN5amrex8FabArrayINS_7BaseFabIdEEE22unpack_recv_buffer_cpuIdEEvRS3_iiRKNS_6VectorIPcSaIS7_EEERKNS6_ImSaImEEERKNS6_IPKSt6vectorINS_12FabArrayBase10CopyComTagESaISI_EESaISM_EEENSH_4CpOpEb
FN:939,_ZN5amrex8FabArrayINS_9FArrayBoxEE22unpack_recv_buffer_cpuIdEEvRS2_iiRKNS_6VectorIPcSaIS6_EEERKNS5_ImSaImEEERKNS5_IPKSt6vectorINS_12FabArrayBase10CopyComTagESaISH_EESaISL_EEENSG_4CpOpEb
FNDA:0,_ZN5amrex8FabArrayINS_9FArrayBoxEE22unpack_recv_buffer_cpuIdEEvRS2_iiRKNS_6VectorIPcSaIS6_EEERKNS5_ImSaImEEERKNS5_IPKSt6vectorINS_12FabArrayBase10CopyComTagESaISH_EESaISL_EEENSG_4CpOpEb
FN:939,_ZN5amrex8FabArrayINS_7BaseFabIN3Set7Matrix4ILi3ELi4EEEEEE22unpack_recv_buffer_cpuIS4_EEvRS6_iiRKNS_6VectorIPcSaISA_EEERKNS9_ImSaImEEERKNS9_IPKSt6vectorINS_12FabArrayBase10CopyComTagESaISL_EESaISP_EEENSK_4CpOpEb
FNDA:0,_ZN5amrex8FabArrayINS_7BaseFabIN3Set7Matrix4ILi3ELi4EEEEEE22unpack_recv_buffer_cpuIS4_EEvRS6_iiRKNS_6VectorIPcSaISA_EEERKNS9_ImSaImEEERKNS9_IPKSt6vectorINS_12FabArrayBase10CopyComTagESaISL_EESaISP_EEENSK_4CpOpEb
FN:939,_ZN5amrex8FabArrayINS_7BaseFabIN5Model5Solid6Affine2J2EEEE22unpack_recv_buffer_cpuIS5_EEvRS7_iiRKNS_6VectorIPcSaISB_EEERKNSA_ImSaImEEERKNSA_IPKSt6vectorINS_12FabArrayBase10CopyComTagESaISM_EESaISQ_EEENSL_4CpOpEb
FNDA:0,_ZN5amrex8FabArrayINS_7BaseFabIN5Model5Solid6Affine2J2EEEE22unpack_recv_buffer_cpuIS5_EEvRS7_iiRKNS_6VectorIPcSaISB_EEERKNSA_ImSaImEEERKNSA_IPKSt6vectorINS_12FabArrayBase10CopyComTagESaISM_EESaISQ_EEENSL_4CpOpEb
FN:939,_ZN5amrex8FabArrayINS_7BaseFabIN3Set7Matrix4ILi3ELi1EEEEEE22unpack_recv_buffer_cpuIS4_EEvRS6_iiRKNS_6VectorIPcSaISA_EEERKNS9_ImSaImEEERKNS9_IPKSt6vectorINS_12FabArrayBase10CopyComTagESaISL_EESaISP_EEENSK_4CpOpEb
FNDA:0,_ZN5amrex8FabArrayINS_7BaseFabIN3Set7Matrix4ILi3ELi1EEEEEE22unpack_recv_buffer_cpuIS4_EEvRS6_iiRKNS_6VectorIPcSaISA_EEERKNS9_ImSaImEEERKNS9_IPKSt6vectorINS_12FabArrayBase10CopyComTagESaISL_EESaISP_EEENSK_4CpOpEb
FN:939,_ZN5amrex8FabArrayINS_7BaseFabIN5Model5Solid7Elastic28PseudoLinearCubicPredeformedEEEE22unpack_recv_buffer_cpuIS5_EEvRS7_iiRKNS_6VectorIPcSaISB_EEERKNSA_ImSaImEEERKNSA_IPKSt6vectorINS_12FabArrayBase10CopyComTagESaISM_EESaISQ_EEENSL_4CpOpEb
FNDA:0,_ZN5amrex8FabArrayINS_7BaseFabIN5Model5Solid7Elastic28PseudoLinearCubicPredeformedEEEE22unpack_recv_buffer_cpuIS5_EEvRS7_iiRKNS_6VectorIPcSaISB_EEERKNSA_ImSaImEEERKNSA_IPKSt6vectorINS_12FabArrayBase10CopyComTagESaISM_EESaISQ_EEENSL_4CpOpEb
FN:939,_ZN5amrex8FabArrayINS_7BaseFabIN3Set7Matrix4ILi3ELi6EEEEEE22unpack_recv_buffer_cpuIS4_EEvRS6_iiRKNS_6VectorIPcSaISA_EEERKNS9_ImSaImEEERKNS9_IPKSt6vectorINS_12FabArrayBase10CopyComTagESaISL_EESaISP_EEENSK_4CpOpEb
FNDA:0,_ZN5amrex8FabArrayINS_7BaseFabIN3Set7Matrix4ILi3ELi6EEEEEE22unpack_recv_buffer_cpuIS4_EEvRS6_iiRKNS_6VectorIPcSaISA_EEERKNS9_ImSaImEEERKNS9_IPKSt6vectorINS_12FabArrayBase10CopyComTagESaISL_EESaISP_EEENSK_4CpOpEb
FN:939,_ZN5amrex8FabArrayINS_7BaseFabIN5Eigen6MatrixIdLi3ELi3ELi0ELi3ELi3EEEEEE22unpack_recv_buffer_cpuIS4_EEvRS6_iiRKNS_6VectorIPcSaISA_EEERKNS9_ImSaImEEERKNS9_IPKSt6vectorINS_12FabArrayBase10CopyComTagESaISL_EESaISP_EEENSK_4CpOpEb
FNDA:0,_ZN5amrex8FabArrayINS_7BaseFabIN5Eigen6MatrixIdLi3ELi3ELi0ELi3ELi3EEEEEE22unpack_recv_buffer_cpuIS4_EEvRS6_iiRKNS_6VectorIPcSaISA_EEERKNS9_ImSaImEEERKNS9_IPKSt6vectorINS_12FabArrayBase10CopyComTagESaISL_EESaISP_EEENSK_4CpOpEb
FN:939,_ZN5amrex8FabArrayINS_7BaseFabIN5Model5Solid7Elastic10NeoHookeanEEEE22unpack_recv_buffer_cpuIS5_EEvRS7_iiRKNS_6VectorIPcSaISB_EEERKNSA_ImSaImEEERKNSA_IPKSt6vectorINS_12FabArrayBase10CopyComTagESaISM_EESaISQ_EEENSL_4CpOpEb
FNDA:0,_ZN5amrex8FabArrayINS_7BaseFabIN5Model5Solid7Elastic10NeoHookeanEEEE22unpack_recv_buffer_cpuIS5_EEvRS7_iiRKNS_6VectorIPcSaISB_EEERKNSA_ImSaImEEERKNSA_IPKSt6vectorINS_12FabArrayBase10CopyComTagESaISM_EESaISQ_EEENSL_4CpOpEb
FN:939,_ZN5amrex8FabArrayINS_7BaseFabIN5Model5Solid6Linear19IsotropicDegradableEEEE22unpack_recv_buffer_cpuIS5_EEvRS7_iiRKNS_6VectorIPcSaISB_EEERKNSA_ImSaImEEERKNSA_IPKSt6vectorINS_12FabArrayBase10CopyComTagESaISM_EESaISQ_EEENSL_4CpOpEb
FNDA:0,_ZN5amrex8FabArrayINS_7BaseFabIN5Model5Solid6Linear19IsotropicDegradableEEEE22unpack_recv_buffer_cpuIS5_EEvRS7_iiRKNS_6VectorIPcSaISB_EEERKNSA_ImSaImEEERKNSA_IPKSt6vectorINS_12FabArrayBase10CopyComTagESaISM_EESaISQ_EEENSL_4CpOpEb
FN:939,_ZN5amrex8FabArrayINS_7BaseFabIN5Model5Solid6Linear9IsotropicEEEE22unpack_recv_buffer_cpuIS5_EEvRS7_iiRKNS_6VectorIPcSaISB_EEERKNSA_ImSaImEEERKNSA_IPKSt6vectorINS_12FabArrayBase10CopyComTagESaISM_EESaISQ_EEENSL_4CpOpEb
FNDA:0,_ZN5amrex8FabArrayINS_7BaseFabIN5Model5Solid6Linear9IsotropicEEEE22unpack_recv_buffer_cpuIS5_EEvRS7_iiRKNS_6VectorIPcSaISB_EEERKNSA_ImSaImEEERKNSA_IPKSt6vectorINS_12FabArrayBase10CopyComTagESaISM_EESaISQ_EEENSL_4CpOpEb
FN:939,_ZN5amrex8FabArrayINS_7BaseFabIN5Model5Solid6Linear9LaplacianEEEE22unpack_recv_buffer_cpuIS5_EEvRS7_iiRKNS_6VectorIPcSaISB_EEERKNSA_ImSaImEEERKNSA_IPKSt6vectorINS_12FabArrayBase10CopyComTagESaISM_EESaISQ_EEENSL_4CpOpEb
FNDA:0,_ZN5amrex8FabArrayINS_7BaseFabIN5Model5Solid6Linear9LaplacianEEEE22unpack_recv_buffer_cpuIS5_EEvRS7_iiRKNS_6VectorIPcSaISB_EEERKNSA_ImSaImEEERKNSA_IPKSt6vectorINS_12FabArrayBase10CopyComTagESaISM_EESaISQ_EEENSL_4CpOpEb
FN:939,_ZN5amrex8FabArrayINS_7BaseFabIN5Model5Solid6Affine9IsotropicEEEE22unpack_recv_buffer_cpuIS5_EEvRS7_iiRKNS_6VectorIPcSaISB_EEERKNSA_ImSaImEEERKNSA_IPKSt6vectorINS_12FabArrayBase10CopyComTagESaISM_EESaISQ_EEENSL_4CpOpEb
FNDA:0,_ZN5amrex8FabArrayINS_7BaseFabIN5Model5Solid6Affine9IsotropicEEEE22unpack_recv_buffer_cpuIS5_EEvRS7_iiRKNS_6VectorIPcSaISB_EEERKNSA_ImSaImEEERKNSA_IPKSt6vectorINS_12FabArrayBase10CopyComTagESaISM_EESaISQ_EEENSL_4CpOpEb
FN:939,_ZN5amrex8FabArrayINS_7BaseFabIN5Model5Solid6Affine9HexagonalEEEE22unpack_recv_buffer_cpuIS5_EEvRS7_iiRKNS_6VectorIPcSaISB_EEERKNSA_ImSaImEEERKNSA_IPKSt6vectorINS_12FabArrayBase10CopyComTagESaISM_EESaISQ_EEENSL_4CpOpEb
FNDA:0,_ZN5amrex8FabArrayINS_7BaseFabIN5Model5Solid6Affine9HexagonalEEEE22unpack_recv_buffer_cpuIS5_EEvRS7_iiRKNS_6VectorIPcSaISB_EEERKNSA_ImSaImEEERKNSA_IPKSt6vectorINS_12FabArrayBase10CopyComTagESaISM_EESaISQ_EEENSL_4CpOpEb
FN:939,_ZN5amrex8FabArrayINS_7BaseFabIN5Model5Solid6Linear5CubicEEEE22unpack_recv_buffer_cpuIS5_EEvRS7_iiRKNS_6VectorIPcSaISB_EEERKNSA_ImSaImEEERKNSA_IPKSt6vectorINS_12FabArrayBase10CopyComTagESaISM_EESaISQ_EEENSL_4CpOpEb
FNDA:0,_ZN5amrex8FabArrayINS_7BaseFabIN5Model5Solid6Linear5CubicEEEE22unpack_recv_buffer_cpuIS5_EEvRS7_iiRKNS_6VectorIPcSaISB_EEERKNSA_ImSaImEEERKNSA_IPKSt6vectorINS_12FabArrayBase10CopyComTagESaISM_EESaISQ_EEENSL_4CpOpEb
FN:939,_ZN5amrex8FabArrayINS_7BaseFabIN5Model5Solid6Affine5CubicEEEE22unpack_recv_buffer_cpuIS5_EEvRS7_iiRKNS_6VectorIPcSaISB_EEERKNSA_ImSaImEEERKNSA_IPKSt6vectorINS_12FabArrayBase10CopyComTagESaISM_EESaISQ_EEENSL_4CpOpEb
FNDA:0,_ZN5amrex8FabArrayINS_7BaseFabIN5Model5Solid6Affine5CubicEEEE22unpack_recv_buffer_cpuIS5_EEvRS7_iiRKNS_6VectorIPcSaISB_EEERKNSA_ImSaImEEERKNSA_IPKSt6vectorINS_12FabArrayBase10CopyComTagESaISM_EESaISQ_EEENSL_4CpOpEb
FN:1011,_ZZN5amrex8FabArrayINS_7BaseFabIN3Set7Matrix4ILi3ELi6EEEEEE22unpack_recv_buffer_cpuIS4_EEvRS6_iiRKNS_6VectorIPcSaISA_EEERKNS9_ImSaImEEERKNS9_IPKSt6vectorINS_12FabArrayBase10CopyComTagESaISL_EESaISP_EEENSK_4CpOpEbENKUliiiiE_clEiiii
FNDA:0,_ZZN5amrex8FabArrayINS_7BaseFabIN3Set7Matrix4ILi3ELi6EEEEEE22unpack_recv_buffer_cpuIS4_EEvRS6_iiRKNS_6VectorIPcSaISA_EEERKNS9_ImSaImEEERKNS9_IPKSt6vectorINS_12FabArrayBase10CopyComTagESaISL_EESaISP_EEENSK_4CpOpEbENKUliiiiE_clEiiii
FN:1011,_ZZN5amrex8FabArrayINS_7BaseFabIN5Eigen6MatrixIdLi3ELi3ELi0ELi3ELi3EEEEEE22unpack_recv_buffer_cpuIS4_EEvRS6_iiRKNS_6VectorIPcSaISA_EEERKNS9_ImSaImEEERKNS9_IPKSt6vectorINS_12FabArrayBase10CopyComTagESaISL_EESaISP_EEENSK_4CpOpEbENKUliiiiE_clEiiii
FNDA:0,_ZZN5amrex8FabArrayINS_7BaseFabIN5Eigen6MatrixIdLi3ELi3ELi0ELi3ELi3EEEEEE22unpack_recv_buffer_cpuIS4_EEvRS6_iiRKNS_6VectorIPcSaISA_EEERKNS9_ImSaImEEERKNS9_IPKSt6vectorINS_12FabArrayBase10CopyComTagESaISL_EESaISP_EEENSK_4CpOpEbENKUliiiiE_clEiiii
FN:1011,_ZZN5amrex8FabArrayINS_7BaseFabIN5Model5Solid6Linear19IsotropicDegradableEEEE22unpack_recv_buffer_cpuIS5_EEvRS7_iiRKNS_6VectorIPcSaISB_EEERKNSA_ImSaImEEERKNSA_IPKSt6vectorINS_12FabArrayBase10CopyComTagESaISM_EESaISQ_EEENSL_4CpOpEbENKUliiiiE_clEiiii
FNDA:0,_ZZN5amrex8FabArrayINS_7BaseFabIN5Model5Solid6Linear19IsotropicDegradableEEEE22unpack_recv_buffer_cpuIS5_EEvRS7_iiRKNS_6VectorIPcSaISB_EEERKNSA_ImSaImEEERKNSA_IPKSt6vectorINS_12FabArrayBase10CopyComTagESaISM_EESaISQ_EEENSL_4CpOpEbENKUliiiiE_clEiiii
FN:1011,_ZZN5amrex8FabArrayINS_7BaseFabIN5Model5Solid6Affine9IsotropicEEEE22unpack_recv_buffer_cpuIS5_EEvRS7_iiRKNS_6VectorIPcSaISB_EEERKNSA_ImSaImEEERKNSA_IPKSt6vectorINS_12FabArrayBase10CopyComTagESaISM_EESaISQ_EEENSL_4CpOpEbENKUliiiiE_clEiiii
FNDA:0,_ZZN5amrex8FabArrayINS_7BaseFabIN5Model5Solid6Affine9IsotropicEEEE22unpack_recv_buffer_cpuIS5_EEvRS7_iiRKNS_6VectorIPcSaISB_EEERKNSA_ImSaImEEERKNSA_IPKSt6vectorINS_12FabArrayBase10CopyComTagESaISM_EESaISQ_EEENSL_4CpOpEbENKUliiiiE_clEiiii
FN:1011,_ZZN5amrex8FabArrayINS_9FArrayBoxEE22unpack_recv_buffer_cpuIdEEvRS2_iiRKNS_6VectorIPcSaIS6_EEERKNS5_ImSaImEEERKNS5_IPKSt6vectorINS_12FabArrayBase10CopyComTagESaISH_EESaISL_EEENSG_4CpOpEbENKUliiiiE_clEiiii
FNDA:0,_ZZN5amrex8FabArrayINS_9FArrayBoxEE22unpack_recv_buffer_cpuIdEEvRS2_iiRKNS_6VectorIPcSaIS6_EEERKNS5_ImSaImEEERKNS5_IPKSt6vectorINS_12FabArrayBase10CopyComTagESaISH_EESaISL_EEENSG_4CpOpEbENKUliiiiE_clEiiii
FN:1011,_ZZN5amrex8FabArrayINS_7BaseFabIdEEE22unpack_recv_buffer_cpuIdEEvRS3_iiRKNS_6VectorIPcSaIS7_EEERKNS6_ImSaImEEERKNS6_IPKSt6vectorINS_12FabArrayBase10CopyComTagESaISI_EESaISM_EEENSH_4CpOpEbENKUliiiiE_clEiiii
FNDA:0,_ZZN5amrex8FabArrayINS_7BaseFabIdEEE22unpack_recv_buffer_cpuIdEEvRS3_iiRKNS_6VectorIPcSaIS7_EEERKNS6_ImSaImEEERKNS6_IPKSt6vectorINS_12FabArrayBase10CopyComTagESaISI_EESaISM_EEENSH_4CpOpEbENKUliiiiE_clEiiii
FN:1011,_ZZN5amrex8FabArrayINS_7BaseFabIN5Model5Solid6Linear9IsotropicEEEE22unpack_recv_buffer_cpuIS5_EEvRS7_iiRKNS_6VectorIPcSaISB_EEERKNSA_ImSaImEEERKNSA_IPKSt6vectorINS_12FabArrayBase10CopyComTagESaISM_EESaISQ_EEENSL_4CpOpEbENKUliiiiE_clEiiii
FNDA:0,_ZZN5amrex8FabArrayINS_7BaseFabIN5Model5Solid6Linear9IsotropicEEEE22unpack_recv_buffer_cpuIS5_EEvRS7_iiRKNS_6VectorIPcSaISB_EEERKNSA_ImSaImEEERKNSA_IPKSt6vectorINS_12FabArrayBase10CopyComTagESaISM_EESaISQ_EEENSL_4CpOpEbENKUliiiiE_clEiiii
FN:1011,_ZZN5amrex8FabArrayINS_7BaseFabIN5Model5Solid6Linear5CubicEEEE22unpack_recv_buffer_cpuIS5_EEvRS7_iiRKNS_6VectorIPcSaISB_EEERKNSA_ImSaImEEERKNSA_IPKSt6vectorINS_12FabArrayBase10CopyComTagESaISM_EESaISQ_EEENSL_4CpOpEbENKUliiiiE_clEiiii
FNDA:0,_ZZN5amrex8FabArrayINS_7BaseFabIN5Model5Solid6Linear5CubicEEEE22unpack_recv_buffer_cpuIS5_EEvRS7_iiRKNS_6VectorIPcSaISB_EEERKNSA_ImSaImEEERKNSA_IPKSt6vectorINS_12FabArrayBase10CopyComTagESaISM_EESaISQ_EEENSL_4CpOpEbENKUliiiiE_clEiiii
FN:1011,_ZZN5amrex8FabArrayINS_7BaseFabIN5Eigen6MatrixIdLi3ELi1ELi0ELi3ELi1EEEEEE22unpack_recv_buffer_cpuIS4_EEvRS6_iiRKNS_6VectorIPcSaISA_EEERKNS9_ImSaImEEERKNS9_IPKSt6vectorINS_12FabArrayBase10CopyComTagESaISL_EESaISP_EEENSK_4CpOpEbENKUliiiiE_clEiiii
FNDA:0,_ZZN5amrex8FabArrayINS_7BaseFabIN5Eigen6MatrixIdLi3ELi1ELi0ELi3ELi1EEEEEE22unpack_recv_buffer_cpuIS4_EEvRS6_iiRKNS_6VectorIPcSaISA_EEERKNS9_ImSaImEEERKNS9_IPKSt6vectorINS_12FabArrayBase10CopyComTagESaISL_EESaISP_EEENSK_4CpOpEbENKUliiiiE_clEiiii
FN:1011,_ZZN5amrex8FabArrayINS_7BaseFabIN5Model5Solid6Affine5CubicEEEE22unpack_recv_buffer_cpuIS5_EEvRS7_iiRKNS_6VectorIPcSaISB_EEERKNSA_ImSaImEEERKNSA_IPKSt6vectorINS_12FabArrayBase10CopyComTagESaISM_EESaISQ_EEENSL_4CpOpEbENKUliiiiE_clEiiii
FNDA:0,_ZZN5amrex8FabArrayINS_7BaseFabIN5Model5Solid6Affine5CubicEEEE22unpack_recv_buffer_cpuIS5_EEvRS7_iiRKNS_6VectorIPcSaISB_EEERKNSA_ImSaImEEERKNSA_IPKSt6vectorINS_12FabArrayBase10CopyComTagESaISM_EESaISQ_EEENSL_4CpOpEbENKUliiiiE_clEiiii
FN:1011,_ZZN5amrex8FabArrayINS_7BaseFabIN5Model5Solid6Affine9HexagonalEEEE22unpack_recv_buffer_cpuIS5_EEvRS7_iiRKNS_6VectorIPcSaISB_EEERKNSA_ImSaImEEERKNSA_IPKSt6vectorINS_12FabArrayBase10CopyComTagESaISM_EESaISQ_EEENSL_4CpOpEbENKUliiiiE_clEiiii
FNDA:0,_ZZN5amrex8FabArrayINS_7BaseFabIN5Model5Solid6Affine9HexagonalEEEE22unpack_recv_buffer_cpuIS5_EEvRS7_iiRKNS_6VectorIPcSaISB_EEERKNSA_ImSaImEEERKNSA_IPKSt6vectorINS_12FabArrayBase10CopyComTagESaISM_EESaISQ_EEENSL_4CpOpEbENKUliiiiE_clEiiii
FN:1011,_ZZN5amrex8FabArrayINS_7BaseFabIN5Model5Solid6Linear9LaplacianEEEE22unpack_recv_buffer_cpuIS5_EEvRS7_iiRKNS_6VectorIPcSaISB_EEERKNSA_ImSaImEEERKNSA_IPKSt6vectorINS_12FabArrayBase10CopyComTagESaISM_EESaISQ_EEENSL_4CpOpEbENKUliiiiE_clEiiii
FNDA:0,_ZZN5amrex8FabArrayINS_7BaseFabIN5Model5Solid6Linear9LaplacianEEEE22unpack_recv_buffer_cpuIS5_EEvRS7_iiRKNS_6VectorIPcSaISB_EEERKNSA_ImSaImEEERKNSA_IPKSt6vectorINS_12FabArrayBase10CopyComTagESaISM_EESaISQ_EEENSL_4CpOpEbENKUliiiiE_clEiiii
FN:1011,_ZZN5amrex8FabArrayINS_7BaseFabIN3Set7Matrix4ILi3ELi1EEEEEE22unpack_recv_buffer_cpuIS4_EEvRS6_iiRKNS_6VectorIPcSaISA_EEERKNS9_ImSaImEEERKNS9_IPKSt6vectorINS_12FabArrayBase10CopyComTagESaISL_EESaISP_EEENSK_4CpOpEbENKUliiiiE_clEiiii
FNDA:0,_ZZN5amrex8FabArrayINS_7BaseFabIN3Set7Matrix4ILi3ELi1EEEEEE22unpack_recv_buffer_cpuIS4_EEvRS6_iiRKNS_6VectorIPcSaISA_EEERKNS9_ImSaImEEERKNS9_IPKSt6vectorINS_12FabArrayBase10CopyComTagESaISL_EESaISP_EEENSK_4CpOpEbENKUliiiiE_clEiiii
FN:1011,_ZZN5amrex8FabArrayINS_7BaseFabIN5Model5Solid7Elastic10NeoHookeanEEEE22unpack_recv_buffer_cpuIS5_EEvRS7_iiRKNS_6VectorIPcSaISB_EEERKNSA_ImSaImEEERKNSA_IPKSt6vectorINS_12FabArrayBase10CopyComTagESaISM_EESaISQ_EEENSL_4CpOpEbENKUliiiiE_clEiiii
FNDA:0,_ZZN5amrex8FabArrayINS_7BaseFabIN5Model5Solid7Elastic10NeoHookeanEEEE22unpack_recv_buffer_cpuIS5_EEvRS7_iiRKNS_6VectorIPcSaISB_EEERKNSA_ImSaImEEERKNSA_IPKSt6vectorINS_12FabArrayBase10CopyComTagESaISM_EESaISQ_EEENSL_4CpOpEbENKUliiiiE_clEiiii
FN:1011,_ZZN5amrex8FabArrayINS_7BaseFabIN3Set7Matrix4ILi3ELi4EEEEEE22unpack_recv_buffer_cpuIS4_EEvRS6_iiRKNS_6VectorIPcSaISA_EEERKNS9_ImSaImEEERKNS9_IPKSt6vectorINS_12FabArrayBase10CopyComTagESaISL_EESaISP_EEENSK_4CpOpEbENKUliiiiE_clEiiii
FNDA:0,_ZZN5amrex8FabArrayINS_7BaseFabIN3Set7Matrix4ILi3ELi4EEEEEE22unpack_recv_buffer_cpuIS4_EEvRS6_iiRKNS_6VectorIPcSaISA_EEERKNS9_ImSaImEEERKNS9_IPKSt6vectorINS_12FabArrayBase10CopyComTagESaISL_EESaISP_EEENSK_4CpOpEbENKUliiiiE_clEiiii
FN:1011,_ZZN5amrex8FabArrayINS_7BaseFabIN5Model5Solid7Elastic17PseudoLinearCubicEEEE22unpack_recv_buffer_cpuIS5_EEvRS7_iiRKNS_6VectorIPcSaISB_EEERKNSA_ImSaImEEERKNSA_IPKSt6vectorINS_12FabArrayBase10CopyComTagESaISM_EESaISQ_EEENSL_4CpOpEbENKUliiiiE_clEiiii
FNDA:0,_ZZN5amrex8FabArrayINS_7BaseFabIN5Model5Solid7Elastic17PseudoLinearCubicEEEE22unpack_recv_buffer_cpuIS5_EEvRS7_iiRKNS_6VectorIPcSaISB_EEERKNSA_ImSaImEEERKNSA_IPKSt6vectorINS_12FabArrayBase10CopyComTagESaISM_EESaISQ_EEENSL_4CpOpEbENKUliiiiE_clEiiii
FN:1011,_ZZN5amrex8FabArrayINS_7BaseFabIN3Set7Matrix4ILi3ELi3EEEEEE22unpack_recv_buffer_cpuIS4_EEvRS6_iiRKNS_6VectorIPcSaISA_EEERKNS9_ImSaImEEERKNS9_IPKSt6vectorINS_12FabArrayBase10CopyComTagESaISL_EESaISP_EEENSK_4CpOpEbENKUliiiiE_clEiiii
FNDA:0,_ZZN5amrex8FabArrayINS_7BaseFabIN3Set7Matrix4ILi3ELi3EEEEEE22unpack_recv_buffer_cpuIS4_EEvRS6_iiRKNS_6VectorIPcSaISA_EEERKNS9_ImSaImEEERKNS9_IPKSt6vectorINS_12FabArrayBase10CopyComTagESaISL_EESaISP_EEENSK_4CpOpEbENKUliiiiE_clEiiii
FN:1011,_ZZN5amrex8FabArrayINS_7BaseFabIN5Model5Solid7Elastic28PseudoLinearCubicPredeformedEEEE22unpack_recv_buffer_cpuIS5_EEvRS7_iiRKNS_6VectorIPcSaISB_EEERKNSA_ImSaImEEERKNSA_IPKSt6vectorINS_12FabArrayBase10CopyComTagESaISM_EESaISQ_EEENSL_4CpOpEbENKUliiiiE_clEiiii
FNDA:0,_ZZN5amrex8FabArrayINS_7BaseFabIN5Model5Solid7Elastic28PseudoLinearCubicPredeformedEEEE22unpack_recv_buffer_cpuIS5_EEvRS7_iiRKNS_6VectorIPcSaISB_EEERKNSA_ImSaImEEERKNSA_IPKSt6vectorINS_12FabArrayBase10CopyComTagESaISM_EESaISQ_EEENSL_4CpOpEbENKUliiiiE_clEiiii
FN:1011,_ZZN5amrex8FabArrayINS_7BaseFabIN5Model5Solid6Affine2J2EEEE22unpack_recv_buffer_cpuIS5_EEvRS7_iiRKNS_6VectorIPcSaISB_EEERKNSA_ImSaImEEERKNSA_IPKSt6vectorINS_12FabArrayBase10CopyComTagESaISM_EESaISQ_EEENSL_4CpOpEbENKUliiiiE_clEiiii
FNDA:0,_ZZN5amrex8FabArrayINS_7BaseFabIN5Model5Solid6Affine2J2EEEE22unpack_recv_buffer_cpuIS5_EEvRS7_iiRKNS_6VectorIPcSaISB_EEERKNSA_ImSaImEEERKNSA_IPKSt6vectorINS_12FabArrayBase10CopyComTagESaISM_EESaISQ_EEENSL_4CpOpEbENKUliiiiE_clEiiii
FN:1019,_ZZN5amrex8FabArrayINS_7BaseFabIN3Set7Matrix4ILi3ELi1EEEEEE22unpack_recv_buffer_cpuIS4_EEvRS6_iiRKNS_6VectorIPcSaISA_EEERKNS9_ImSaImEEERKNS9_IPKSt6vectorINS_12FabArrayBase10CopyComTagESaISL_EESaISP_EEENSK_4CpOpEbENKUliiiiE0_clEiiii
FNDA:0,_ZZN5amrex8FabArrayINS_7BaseFabIN3Set7Matrix4ILi3ELi1EEEEEE22unpack_recv_buffer_cpuIS4_EEvRS6_iiRKNS_6VectorIPcSaISA_EEERKNS9_ImSaImEEERKNS9_IPKSt6vectorINS_12FabArrayBase10CopyComTagESaISL_EESaISP_EEENSK_4CpOpEbENKUliiiiE0_clEiiii
FN:1019,_ZZN5amrex8FabArrayINS_7BaseFabIN3Set7Matrix4ILi3ELi4EEEEEE22unpack_recv_buffer_cpuIS4_EEvRS6_iiRKNS_6VectorIPcSaISA_EEERKNS9_ImSaImEEERKNS9_IPKSt6vectorINS_12FabArrayBase10CopyComTagESaISL_EESaISP_EEENSK_4CpOpEbENKUliiiiE0_clEiiii
FNDA:0,_ZZN5amrex8FabArrayINS_7BaseFabIN3Set7Matrix4ILi3ELi4EEEEEE22unpack_recv_buffer_cpuIS4_EEvRS6_iiRKNS_6VectorIPcSaISA_EEERKNS9_ImSaImEEERKNS9_IPKSt6vectorINS_12FabArrayBase10CopyComTagESaISL_EESaISP_EEENSK_4CpOpEbENKUliiiiE0_clEiiii
FN:1019,_ZZN5amrex8FabArrayINS_7BaseFabIN5Eigen6MatrixIdLi3ELi1ELi0ELi3ELi1EEEEEE22unpack_recv_buffer_cpuIS4_EEvRS6_iiRKNS_6VectorIPcSaISA_EEERKNS9_ImSaImEEERKNS9_IPKSt6vectorINS_12FabArrayBase10CopyComTagESaISL_EESaISP_EEENSK_4CpOpEbENKUliiiiE0_clEiiii
FNDA:0,_ZZN5amrex8FabArrayINS_7BaseFabIN5Eigen6MatrixIdLi3ELi1ELi0ELi3ELi1EEEEEE22unpack_recv_buffer_cpuIS4_EEvRS6_iiRKNS_6VectorIPcSaISA_EEERKNS9_ImSaImEEERKNS9_IPKSt6vectorINS_12FabArrayBase10CopyComTagESaISL_EESaISP_EEENSK_4CpOpEbENKUliiiiE0_clEiiii
FN:1019,_ZZN5amrex8FabArrayINS_7BaseFabIN5Model5Solid6Linear19IsotropicDegradableEEEE22unpack_recv_buffer_cpuIS5_EEvRS7_iiRKNS_6VectorIPcSaISB_EEERKNSA_ImSaImEEERKNSA_IPKSt6vectorINS_12FabArrayBase10CopyComTagESaISM_EESaISQ_EEENSL_4CpOpEbENKUliiiiE0_clEiiii
FNDA:0,_ZZN5amrex8FabArrayINS_7BaseFabIN5Model5Solid6Linear19IsotropicDegradableEEEE22unpack_recv_buffer_cpuIS5_EEvRS7_iiRKNS_6VectorIPcSaISB_EEERKNSA_ImSaImEEERKNSA_IPKSt6vectorINS_12FabArrayBase10CopyComTagESaISM_EESaISQ_EEENSL_4CpOpEbENKUliiiiE0_clEiiii
FN:1019,_ZZN5amrex8FabArrayINS_9FArrayBoxEE22unpack_recv_buffer_cpuIdEEvRS2_iiRKNS_6VectorIPcSaIS6_EEERKNS5_ImSaImEEERKNS5_IPKSt6vectorINS_12FabArrayBase10CopyComTagESaISH_EESaISL_EEENSG_4CpOpEbENKUliiiiE0_clEiiii
FNDA:0,_ZZN5amrex8FabArrayINS_9FArrayBoxEE22unpack_recv_buffer_cpuIdEEvRS2_iiRKNS_6VectorIPcSaIS6_EEERKNS5_ImSaImEEERKNS5_IPKSt6vectorINS_12FabArrayBase10CopyComTagESaISH_EESaISL_EEENSG_4CpOpEbENKUliiiiE0_clEiiii
FN:1019,_ZZN5amrex8FabArrayINS_7BaseFabIN5Model5Solid6Linear9IsotropicEEEE22unpack_recv_buffer_cpuIS5_EEvRS7_iiRKNS_6VectorIPcSaISB_EEERKNSA_ImSaImEEERKNSA_IPKSt6vectorINS_12FabArrayBase10CopyComTagESaISM_EESaISQ_EEENSL_4CpOpEbENKUliiiiE0_clEiiii
FNDA:0,_ZZN5amrex8FabArrayINS_7BaseFabIN5Model5Solid6Linear9IsotropicEEEE22unpack_recv_buffer_cpuIS5_EEvRS7_iiRKNS_6VectorIPcSaISB_EEERKNSA_ImSaImEEERKNSA_IPKSt6vectorINS_12FabArrayBase10CopyComTagESaISM_EESaISQ_EEENSL_4CpOpEbENKUliiiiE0_clEiiii
FN:1019,_ZZN5amrex8FabArrayINS_7BaseFabIN3Set7Matrix4ILi3ELi3EEEEEE22unpack_recv_buffer_cpuIS4_EEvRS6_iiRKNS_6VectorIPcSaISA_EEERKNS9_ImSaImEEERKNS9_IPKSt6vectorINS_12FabArrayBase10CopyComTagESaISL_EESaISP_EEENSK_4CpOpEbENKUliiiiE0_clEiiii
FNDA:0,_ZZN5amrex8FabArrayINS_7BaseFabIN3Set7Matrix4ILi3ELi3EEEEEE22unpack_recv_buffer_cpuIS4_EEvRS6_iiRKNS_6VectorIPcSaISA_EEERKNS9_ImSaImEEERKNS9_IPKSt6vectorINS_12FabArrayBase10CopyComTagESaISL_EESaISP_EEENSK_4CpOpEbENKUliiiiE0_clEiiii
FN:1019,_ZZN5amrex8FabArrayINS_7BaseFabIN5Model5Solid6Affine9IsotropicEEEE22unpack_recv_buffer_cpuIS5_EEvRS7_iiRKNS_6VectorIPcSaISB_EEERKNSA_ImSaImEEERKNSA_IPKSt6vectorINS_12FabArrayBase10CopyComTagESaISM_EESaISQ_EEENSL_4CpOpEbENKUliiiiE0_clEiiii
FNDA:0,_ZZN5amrex8FabArrayINS_7BaseFabIN5Model5Solid6Affine9IsotropicEEEE22unpack_recv_buffer_cpuIS5_EEvRS7_iiRKNS_6VectorIPcSaISB_EEERKNSA_ImSaImEEERKNSA_IPKSt6vectorINS_12FabArrayBase10CopyComTagESaISM_EESaISQ_EEENSL_4CpOpEbENKUliiiiE0_clEiiii
FN:1019,_ZZN5amrex8FabArrayINS_7BaseFabIN5Model5Solid6Linear5CubicEEEE22unpack_recv_buffer_cpuIS5_EEvRS7_iiRKNS_6VectorIPcSaISB_EEERKNSA_ImSaImEEERKNSA_IPKSt6vectorINS_12FabArrayBase10CopyComTagESaISM_EESaISQ_EEENSL_4CpOpEbENKUliiiiE0_clEiiii
FNDA:0,_ZZN5amrex8FabArrayINS_7BaseFabIN5Model5Solid6Linear5CubicEEEE22unpack_recv_buffer_cpuIS5_EEvRS7_iiRKNS_6VectorIPcSaISB_EEERKNSA_ImSaImEEERKNSA_IPKSt6vectorINS_12FabArrayBase10CopyComTagESaISM_EESaISQ_EEENSL_4CpOpEbENKUliiiiE0_clEiiii
FN:1019,_ZZN5amrex8FabArrayINS_7BaseFabIN5Model5Solid6Affine5CubicEEEE22unpack_recv_buffer_cpuIS5_EEvRS7_iiRKNS_6VectorIPcSaISB_EEERKNSA_ImSaImEEERKNSA_IPKSt6vectorINS_12FabArrayBase10CopyComTagESaISM_EESaISQ_EEENSL_4CpOpEbENKUliiiiE0_clEiiii
FNDA:0,_ZZN5amrex8FabArrayINS_7BaseFabIN5Model5Solid6Affine5CubicEEEE22unpack_recv_buffer_cpuIS5_EEvRS7_iiRKNS_6VectorIPcSaISB_EEERKNSA_ImSaImEEERKNSA_IPKSt6vectorINS_12FabArrayBase10CopyComTagESaISM_EESaISQ_EEENSL_4CpOpEbENKUliiiiE0_clEiiii
FN:1019,_ZZN5amrex8FabArrayINS_7BaseFabIN5Model5Solid6Affine9HexagonalEEEE22unpack_recv_buffer_cpuIS5_EEvRS7_iiRKNS_6VectorIPcSaISB_EEERKNSA_ImSaImEEERKNSA_IPKSt6vectorINS_12FabArrayBase10CopyComTagESaISM_EESaISQ_EEENSL_4CpOpEbENKUliiiiE0_clEiiii
FNDA:0,_ZZN5amrex8FabArrayINS_7BaseFabIN5Model5Solid6Affine9HexagonalEEEE22unpack_recv_buffer_cpuIS5_EEvRS7_iiRKNS_6VectorIPcSaISB_EEERKNSA_ImSaImEEERKNSA_IPKSt6vectorINS_12FabArrayBase10CopyComTagESaISM_EESaISQ_EEENSL_4CpOpEbENKUliiiiE0_clEiiii
FN:1019,_ZZN5amrex8FabArrayINS_7BaseFabIN5Model5Solid6Linear9LaplacianEEEE22unpack_recv_buffer_cpuIS5_EEvRS7_iiRKNS_6VectorIPcSaISB_EEERKNSA_ImSaImEEERKNSA_IPKSt6vectorINS_12FabArrayBase10CopyComTagESaISM_EESaISQ_EEENSL_4CpOpEbENKUliiiiE0_clEiiii
FNDA:0,_ZZN5amrex8FabArrayINS_7BaseFabIN5Model5Solid6Linear9LaplacianEEEE22unpack_recv_buffer_cpuIS5_EEvRS7_iiRKNS_6VectorIPcSaISB_EEERKNSA_ImSaImEEERKNSA_IPKSt6vectorINS_12FabArrayBase10CopyComTagESaISM_EESaISQ_EEENSL_4CpOpEbENKUliiiiE0_clEiiii
FN:1019,_ZZN5amrex8FabArrayINS_7BaseFabIN5Model5Solid7Elastic10NeoHookeanEEEE22unpack_recv_buffer_cpuIS5_EEvRS7_iiRKNS_6VectorIPcSaISB_EEERKNSA_ImSaImEEERKNSA_IPKSt6vectorINS_12FabArrayBase10CopyComTagESaISM_EESaISQ_EEENSL_4CpOpEbENKUliiiiE0_clEiiii
FNDA:0,_ZZN5amrex8FabArrayINS_7BaseFabIN5Model5Solid7Elastic10NeoHookeanEEEE22unpack_recv_buffer_cpuIS5_EEvRS7_iiRKNS_6VectorIPcSaISB_EEERKNSA_ImSaImEEERKNSA_IPKSt6vectorINS_12FabArrayBase10CopyComTagESaISM_EESaISQ_EEENSL_4CpOpEbENKUliiiiE0_clEiiii
FN:1019,_ZZN5amrex8FabArrayINS_7BaseFabIN5Eigen6MatrixIdLi3ELi3ELi0ELi3ELi3EEEEEE22unpack_recv_buffer_cpuIS4_EEvRS6_iiRKNS_6VectorIPcSaISA_EEERKNS9_ImSaImEEERKNS9_IPKSt6vectorINS_12FabArrayBase10CopyComTagESaISL_EESaISP_EEENSK_4CpOpEbENKUliiiiE0_clEiiii
FNDA:0,_ZZN5amrex8FabArrayINS_7BaseFabIN5Eigen6MatrixIdLi3ELi3ELi0ELi3ELi3EEEEEE22unpack_recv_buffer_cpuIS4_EEvRS6_iiRKNS_6VectorIPcSaISA_EEERKNS9_ImSaImEEERKNS9_IPKSt6vectorINS_12FabArrayBase10CopyComTagESaISL_EESaISP_EEENSK_4CpOpEbENKUliiiiE0_clEiiii
FN:1019,_ZZN5amrex8FabArrayINS_7BaseFabIN5Model5Solid7Elastic17PseudoLinearCubicEEEE22unpack_recv_buffer_cpuIS5_EEvRS7_iiRKNS_6VectorIPcSaISB_EEERKNSA_ImSaImEEERKNSA_IPKSt6vectorINS_12FabArrayBase10CopyComTagESaISM_EESaISQ_EEENSL_4CpOpEbENKUliiiiE0_clEiiii
FNDA:0,_ZZN5amrex8FabArrayINS_7BaseFabIN5Model5Solid7Elastic17PseudoLinearCubicEEEE22unpack_recv_buffer_cpuIS5_EEvRS7_iiRKNS_6VectorIPcSaISB_EEERKNSA_ImSaImEEERKNSA_IPKSt6vectorINS_12FabArrayBase10CopyComTagESaISM_EESaISQ_EEENSL_4CpOpEbENKUliiiiE0_clEiiii
FN:1019,_ZZN5amrex8FabArrayINS_7BaseFabIN3Set7Matrix4ILi3ELi6EEEEEE22unpack_recv_buffer_cpuIS4_EEvRS6_iiRKNS_6VectorIPcSaISA_EEERKNS9_ImSaImEEERKNS9_IPKSt6vectorINS_12FabArrayBase10CopyComTagESaISL_EESaISP_EEENSK_4CpOpEbENKUliiiiE0_clEiiii
FNDA:0,_ZZN5amrex8FabArrayINS_7BaseFabIN3Set7Matrix4ILi3ELi6EEEEEE22unpack_recv_buffer_cpuIS4_EEvRS6_iiRKNS_6VectorIPcSaISA_EEERKNS9_ImSaImEEERKNS9_IPKSt6vectorINS_12FabArrayBase10CopyComTagESaISL_EESaISP_EEENSK_4CpOpEbENKUliiiiE0_clEiiii
FN:1019,_ZZN5amrex8FabArrayINS_7BaseFabIN5Model5Solid7Elastic28PseudoLinearCubicPredeformedEEEE22unpack_recv_buffer_cpuIS5_EEvRS7_iiRKNS_6VectorIPcSaISB_EEERKNSA_ImSaImEEERKNSA_IPKSt6vectorINS_12FabArrayBase10CopyComTagESaISM_EESaISQ_EEENSL_4CpOpEbENKUliiiiE0_clEiiii
FNDA:0,_ZZN5amrex8FabArrayINS_7BaseFabIN5Model5Solid7Elastic28PseudoLinearCubicPredeformedEEEE22unpack_recv_buffer_cpuIS5_EEvRS7_iiRKNS_6VectorIPcSaISB_EEERKNSA_ImSaImEEERKNSA_IPKSt6vectorINS_12FabArrayBase10CopyComTagESaISM_EESaISQ_EEENSL_4CpOpEbENKUliiiiE0_clEiiii
FN:1019,_ZZN5amrex8FabArrayINS_7BaseFabIN5Model5Solid6Affine2J2EEEE22unpack_recv_buffer_cpuIS5_EEvRS7_iiRKNS_6VectorIPcSaISB_EEERKNSA_ImSaImEEERKNSA_IPKSt6vectorINS_12FabArrayBase10CopyComTagESaISM_EESaISQ_EEENSL_4CpOpEbENKUliiiiE0_clEiiii
FNDA:0,_ZZN5amrex8FabArrayINS_7BaseFabIN5Model5Solid6Affine2J2EEEE22unpack_recv_buffer_cpuIS5_EEvRS7_iiRKNS_6VectorIPcSaISB_EEERKNSA_ImSaImEEERKNSA_IPKSt6vectorINS_12FabArrayBase10CopyComTagESaISM_EESaISQ_EEENSL_4CpOpEbENKUliiiiE0_clEiiii
FN:1019,_ZZN5amrex8FabArrayINS_7BaseFabIdEEE22unpack_recv_buffer_cpuIdEEvRS3_iiRKNS_6VectorIPcSaIS7_EEERKNS6_ImSaImEEERKNS6_IPKSt6vectorINS_12FabArrayBase10CopyComTagESaISI_EESaISM_EEENSH_4CpOpEbENKUliiiiE0_clEiiii
FNDA:0,_ZZN5amrex8FabArrayINS_7BaseFabIdEEE22unpack_recv_buffer_cpuIdEEvRS3_iiRKNS_6VectorIPcSaIS7_EEERKNS6_ImSaImEEERKNS6_IPKSt6vectorINS_12FabArrayBase10CopyComTagESaISI_EESaISM_EEENSH_4CpOpEbENKUliiiiE0_clEiiii
DA:211,0
DA:213,0
DA:214,0
DA:215,0
DA:216,0
DA:217,0
DA:222,0
DA:224,0
DA:229,0
DA:230,0
DA:231,0
DA:236,0
DA:237,0
DA:239,0
DA:244,0
DA:245,0
DA:250,0
DA:252,0
DA:253,0
DA:254,0
DA:256,0
DA:257,0
DA:258,0
DA:211,0
DA:213,0
DA:214,0
DA:215,0
DA:216,0
DA:217,0
DA:222,0
DA:224,0
DA:229,0
DA:230,0
DA:231,0
DA:236,0
DA:237,0
DA:239,0
DA:244,0
DA:245,0
DA:250,0
DA:252,0
DA:253,0
DA:254,0
DA:256,0
DA:257,0
DA:258,0
DA:211,0
DA:213,0
DA:214,0
DA:215,0
DA:216,0
DA:217,0
DA:222,0
DA:224,0
DA:229,0
DA:230,0
DA:231,0
DA:236,0
DA:237,0
DA:239,0
DA:244,0
DA:245,0
DA:250,0
DA:252,0
DA:253,0
DA:254,0
DA:256,0
DA:257,0
DA:258,0
DA:211,0
DA:213,0
DA:214,0
DA:215,0
DA:216,0
DA:217,0
DA:222,0
DA:224,0
DA:229,0
DA:230,0
DA:231,0
DA:236,0
DA:237,0
DA:239,0
DA:244,0
DA:245,0
DA:250,0
DA:252,0
DA:253,0
DA:254,0
DA:256,0
DA:257,0
DA:258,0
DA:211,0
DA:213,0
DA:214,0
DA:215,0
DA:216,0
DA:217,0
DA:222,0
DA:224,0
DA:229,0
DA:230,0
DA:231,0
DA:236,0
DA:237,0
DA:239,0
DA:244,0
DA:245,0
DA:250,0
DA:252,0
DA:253,0
DA:254,0
DA:256,0
DA:257,0
DA:258,0
DA:211,0
DA:213,0
DA:214,0
DA:215,0
DA:216,0
DA:217,0
DA:222,0
DA:224,0
DA:229,0
DA:230,0
DA:231,0
DA:236,0
DA:237,0
DA:239,0
DA:244,0
DA:245,0
DA:250,0
DA:252,0
DA:253,0
DA:254,0
DA:256,0
DA:257,0
DA:258,0
DA:211,0
DA:213,0
DA:214,0
DA:215,0
DA:216,0
DA:217,0
DA:222,0
DA:224,0
DA:229,0
DA:230,0
DA:231,0
DA:236,0
DA:237,0
DA:239,0
DA:244,0
DA:245,0
DA:250,0
DA:252,0
DA:253,0
DA:254,0
DA:256,0
DA:257,0
DA:258,0
DA:211,0
DA:213,0
DA:214,0
DA:215,0
DA:216,0
DA:217,0
DA:222,0
DA:224,0
DA:229,0
DA:230,0
DA:231,0
DA:236,0
DA:237,0
DA:239,0
DA:244,0
DA:245,0
DA:250,0
DA:252,0
DA:253,0
DA:254,0
DA:256,0
DA:257,0
DA:258,0
DA:211,0
DA:213,0
DA:214,0
DA:215,0
DA:216,0
DA:217,0
DA:222,0
DA:224,0
DA:229,0
DA:230,0
DA:231,0
DA:236,0
DA:237,0
DA:239,0
DA:244,0
DA:245,0
DA:250,0
DA:252,0
DA:253,0
DA:254,0
DA:256,0
DA:257,0
DA:258,0
DA:211,0
DA:213,0
DA:214,0
DA:215,0
DA:216,0
DA:217,0
DA:222,0
DA:224,0
DA:229,0
DA:230,0
DA:231,0
DA:236,0
DA:237,0
DA:239,0
DA:244,0
DA:245,0
DA:250,0
DA:252,0
DA:253,0
DA:254,0
DA:256,0
DA:257,0
DA:258,0
DA:211,0
DA:213,0
DA:214,0
DA:215,0
DA:216,0
DA:217,0
DA:222,0
DA:224,0
DA:229,0
DA:230,0
DA:231,0
DA:236,0
DA:237,0
DA:239,0
DA:244,0
DA:245,0
DA:250,0
DA:252,0
DA:253,0
DA:254,0
DA:256,0
DA:257,0
DA:258,0
DA:211,0
DA:213,0
DA:214,0
DA:215,0
DA:216,0
DA:217,0
DA:222,0
DA:224,0
DA:229,0
DA:230,0
DA:231,0
DA:236,0
DA:237,0
DA:239,0
DA:244,0
DA:245,0
DA:250,0
DA:252,0
DA:253,0
DA:254,0
DA:256,0
DA:257,0
DA:258,0
DA:211,0
DA:213,0
DA:214,0
DA:215,0
DA:216,0
DA:217,0
DA:222,0
DA:224,0
DA:229,0
DA:230,0
DA:231,0
DA:236,0
DA:237,0
DA:239,0
DA:244,0
DA:245,0
DA:250,0
DA:252,0
DA:253,0
DA:254,0
DA:256,0
DA:257,0
DA:258,0
DA:211,0
DA:213,0
DA:214,0
DA:215,0
DA:216,0
DA:217,0
DA:222,0
DA:224,0
DA:229,0
DA:230,0
DA:231,0
DA:236,0
DA:237,0
DA:239,0
DA:244,0
DA:245,0
DA:250,0
DA:252,0
DA:253,0
DA:254,0
DA:256,0
DA:257,0
DA:258,0
DA:211,0
DA:213,0
DA:214,0
DA:215,0
DA:216,0
DA:217,0
DA:222,0
DA:224,0
DA:229,0
DA:230,0
DA:231,0
DA:236,0
DA:237,0
DA:239,0
DA:244,0
DA:245,0
DA:250,0
DA:252,0
DA:253,0
DA:254,0
DA:256,0
DA:257,0
DA:258,0
DA:211,0
DA:213,0
DA:214,0
DA:215,0
DA:216,0
DA:217,0
DA:222,0
DA:224,0
DA:229,0
DA:230,0
DA:231,0
DA:236,0
DA:237,0
DA:239,0
DA:244,0
DA:245,0
DA:250,0
DA:252,0
DA:253,0
DA:254,0
DA:256,0
DA:257,0
DA:258,0
DA:211,0
DA:213,0
DA:214,0
DA:215,0
DA:216,0
DA:217,0
DA:222,0
DA:224,0
DA:229,0
DA:230,0
DA:231,0
DA:236,0
DA:237,0
DA:239,0
DA:244,0
DA:245,0
DA:250,0
DA:252,0
DA:253,0
DA:254,0
DA:256,0
DA:257,0
DA:258,0
DA:211,0
DA:213,0
DA:214,0
DA:215,0
DA:216,0
DA:217,0
DA:222,0
DA:224,0
DA:229,0
DA:230,0
DA:231,0
DA:236,0
DA:237,0
DA:239,0
DA:244,0
DA:245,0
DA:250,0
DA:252,0
DA:253,0
DA:254,0
DA:256,0
DA:257,0
DA:258,0
DA:211,0
DA:213,0
DA:214,0
DA:215,0
DA:216,0
DA:217,0
DA:222,0
DA:224,0
DA:229,0
DA:230,0
DA:231,0
DA:236,0
DA:237,0
DA:239,0
DA:244,0
DA:245,0
DA:250,0
DA:252,0
DA:253,0
DA:254,0
DA:256,0
DA:257,0
DA:258,0
DA:259,0
DA:259,0
DA:259,0
DA:259,0
DA:259,0
DA:259,0
DA:259,0
DA:259,0
DA:259,0
DA:259,0
DA:259,0
DA:259,0
DA:259,0
DA:259,0
DA:259,0
DA:259,0
DA:259,0
DA:259,0
DA:259,0
DA:261,0
DA:900,0
DA:907,0
DA:908,0
DA:913,0
DA:915,0
DA:917,0
DA:918,0
DA:919,0
DA:921,0
DA:922,0
DA:924,0
DA:929,0
DA:900,0
DA:907,0
DA:908,0
DA:913,0
DA:915,0
DA:917,0
DA:918,0
DA:919,0
DA:921,0
DA:922,0
DA:924,0
DA:929,0
DA:900,0
DA:907,0
DA:908,0
DA:913,0
DA:915,0
DA:917,0
DA:918,0
DA:919,0
DA:921,0
DA:922,0
DA:924,0
DA:929,0
DA:900,0
DA:907,0
DA:908,0
DA:913,0
DA:915,0
DA:917,0
DA:918,0
DA:919,0
DA:921,0
DA:922,0
DA:924,0
DA:929,0
DA:900,0
DA:907,0
DA:908,0
DA:913,0
DA:915,0
DA:917,0
DA:918,0
DA:919,0
DA:921,0
DA:922,0
DA:924,0
DA:929,0
DA:900,0
DA:907,0
DA:908,0
DA:913,0
DA:915,0
DA:917,0
DA:918,0
DA:919,0
DA:921,0
DA:922,0
DA:924,0
DA:929,0
DA:900,0
DA:907,0
DA:908,0
DA:913,0
DA:915,0
DA:917,0
DA:918,0
DA:919,0
DA:921,0
DA:922,0
DA:924,0
DA:929,0
DA:900,0
DA:907,0
DA:908,0
DA:913,0
DA:915,0
DA:917,0
DA:918,0
DA:919,0
DA:921,0
DA:922,0
DA:924,0
DA:929,0
DA:900,0
DA:907,0
DA:908,0
DA:913,0
DA:915,0
DA:917,0
DA:918,0
DA:919,0
DA:921,0
DA:922,0
DA:924,0
DA:929,0
DA:900,0
DA:907,0
DA:908,0
DA:913,0
DA:915,0
DA:917,0
DA:918,0
DA:919,0
DA:921,0
DA:922,0
DA:924,0
DA:929,0
DA:900,0
DA:907,0
DA:908,0
DA:913,0
DA:915,0
DA:917,0
DA:918,0
DA:919,0
DA:921,0
DA:922,0
DA:924,0
DA:929,0
DA:900,0
DA:907,0
DA:908,0
DA:913,0
DA:915,0
DA:917,0
DA:918,0
DA:919,0
DA:921,0
DA:922,0
DA:924,0
DA:929,0
DA:900,0
DA:907,0
DA:908,0
DA:913,0
DA:915,0
DA:917,0
DA:918,0
DA:919,0
DA:921,0
DA:922,0
DA:924,0
DA:929,0
DA:900,0
DA:907,0
DA:908,0
DA:913,0
DA:915,0
DA:917,0
DA:918,0
DA:919,0
DA:921,0
DA:922,0
DA:924,0
DA:929,0
DA:900,0
DA:907,0
DA:908,0
DA:913,0
DA:915,0
DA:917,0
DA:918,0
DA:919,0
DA:921,0
DA:922,0
DA:924,0
DA:929,0
DA:900,0
DA:907,0
DA:908,0
DA:913,0
DA:915,0
DA:917,0
DA:918,0
DA:919,0
DA:921,0
DA:922,0
DA:924,0
DA:929,0
DA:900,0
DA:907,0
DA:908,0
DA:913,0
DA:915,0
DA:917,0
DA:918,0
DA:919,0
DA:921,0
DA:922,0
DA:924,0
DA:929,0
DA:900,0
DA:907,0
DA:908,0
DA:913,0
DA:915,0
DA:917,0
DA:918,0
DA:919,0
DA:921,0
DA:922,0
DA:924,0
DA:929,0
DA:900,0
DA:907,0
DA:908,0
DA:913,0
DA:915,0
DA:917,0
DA:918,0
DA:919,0
DA:921,0
DA:922,0
DA:924,0
DA:929,0
DA:925,0
DA:925,0
DA:925,0
DA:925,0
DA:925,0
DA:925,0
DA:925,0
DA:925,0
DA:925,0
DA:925,0
DA:925,0
DA:925,0
DA:925,0
DA:925,0
DA:925,0
DA:925,0
DA:925,0
DA:925,0
DA:925,0
DA:927,0
DA:939,0
DA:947,0
DA:948,0
DA:950,0
DA:955,0
DA:957,0
DA:959,0
DA:960,0
DA:961,0
DA:963,0
DA:964,0
DA:965,0
DA:967,0
DA:971,0
DA:973,0
DA:981,0
DA:982,0
DA:983,0
DA:985,0
DA:987,0
DA:988,0
DA:989,0
DA:991,0
DA:992,0
DA:1001,0
DA:1003,0
DA:1004,0
DA:1005,0
DA:1007,0
DA:1008,0
DA:1010,0
DA:1018,0
DA:939,0
DA:947,0
DA:948,0
DA:950,0
DA:955,0
DA:957,0
DA:959,0
DA:960,0
DA:961,0
DA:963,0
DA:964,0
DA:965,0
DA:967,0
DA:971,0
DA:973,0
DA:981,0
DA:982,0
DA:983,0
DA:985,0
DA:987,0
DA:988,0
DA:989,0
DA:991,0
DA:992,0
DA:1001,0
DA:1003,0
DA:1004,0
DA:1005,0
DA:1007,0
DA:1008,0
DA:1010,0
DA:1018,0
DA:939,0
DA:947,0
DA:948,0
DA:950,0
DA:955,0
DA:957,0
DA:959,0
DA:960,0
DA:961,0
DA:963,0
DA:964,0
DA:965,0
DA:967,0
DA:971,0
DA:973,0
DA:981,0
DA:982,0
DA:983,0
DA:985,0
DA:987,0
DA:988,0
DA:989,0
DA:991,0
DA:992,0
DA:1001,0
DA:1003,0
DA:1004,0
DA:1005,0
DA:1007,0
DA:1008,0
DA:1010,0
DA:1018,0
DA:939,0
DA:947,0
DA:948,0
DA:950,0
DA:955,0
DA:957,0
DA:959,0
DA:960,0
DA:961,0
DA:963,0
DA:964,0
DA:965,0
DA:967,0
DA:971,0
DA:973,0
DA:981,0
DA:982,0
DA:983,0
DA:985,0
DA:987,0
DA:988,0
DA:989,0
DA:991,0
DA:992,0
DA:1001,0
DA:1003,0
DA:1004,0
DA:1005,0
DA:1007,0
DA:1008,0
DA:1010,0
DA:1018,0
DA:939,0
DA:947,0
DA:948,0
DA:950,0
DA:955,0
DA:957,0
DA:959,0
DA:960,0
DA:961,0
DA:963,0
DA:964,0
DA:965,0
DA:967,0
DA:971,0
DA:973,0
DA:981,0
DA:982,0
DA:983,0
DA:985,0
DA:987,0
DA:988,0
DA:989,0
DA:991,0
DA:992,0
DA:1001,0
DA:1003,0
DA:1004,0
DA:1005,0
DA:1007,0
DA:1008,0
DA:1010,0
DA:1018,0
DA:939,0
DA:947,0
DA:948,0
DA:950,0
DA:955,0
DA:957,0
DA:959,0
DA:960,0
DA:961,0
DA:963,0
DA:964,0
DA:965,0
DA:967,0
DA:971,0
DA:973,0
DA:981,0
DA:982,0
DA:983,0
DA:985,0
DA:987,0
DA:988,0
DA:989,0
DA:991,0
DA:992,0
DA:1001,0
DA:1003,0
DA:1004,0
DA:1005,0
DA:1007,0
DA:1008,0
DA:1010,0
DA:1018,0
DA:939,0
DA:947,0
DA:948,0
DA:950,0
DA:955,0
DA:957,0
DA:959,0
DA:960,0
DA:961,0
DA:963,0
DA:964,0
DA:965,0
DA:967,0
DA:971,0
DA:973,0
DA:981,0
DA:982,0
DA:983,0
DA:985,0
DA:987,0
DA:988,0
DA:989,0
DA:991,0
DA:992,0
DA:1001,0
DA:1003,0
DA:1004,0
DA:1005,0
DA:1007,0
DA:1008,0
DA:1010,0
DA:1018,0
DA:939,0
DA:947,0
DA:948,0
DA:950,0
DA:955,0
DA:957,0
DA:959,0
DA:960,0
DA:961,0
DA:963,0
DA:964,0
DA:965,0
DA:967,0
DA:971,0
DA:973,0
DA:981,0
DA:982,0
DA:983,0
DA:985,0
DA:987,0
DA:988,0
DA:989,0
DA:991,0
DA:992,0
DA:1001,0
DA:1003,0
DA:1004,0
DA:1005,0
DA:1007,0
DA:1008,0
DA:1010,0
DA:1018,0
DA:939,0
DA:947,0
DA:948,0
DA:950,0
DA:955,0
DA:957,0
DA:959,0
DA:960,0
DA:961,0
DA:963,0
DA:964,0
DA:965,0
DA:967,0
DA:971,0
DA:973,0
DA:981,0
DA:982,0
DA:983,0
DA:985,0
DA:987,0
DA:988,0
DA:989,0
DA:991,0
DA:992,0
DA:1001,0
DA:1003,0
DA:1004,0
DA:1005,0
DA:1007,0
DA:1008,0
DA:1010,0
DA:1018,0
DA:939,0
DA:947,0
DA:948,0
DA:950,0
DA:955,0
DA:957,0
DA:959,0
DA:960,0
DA:961,0
DA:963,0
DA:964,0
DA:965,0
DA:967,0
DA:971,0
DA:973,0
DA:981,0
DA:982,0
DA:983,0
DA:985,0
DA:987,0
DA:988,0
DA:989,0
DA:991,0
DA:992,0
DA:1001,0
DA:1003,0
DA:1004,0
DA:1005,0
DA:1007,0
DA:1008,0
DA:1010,0
DA:1018,0
DA:939,0
DA:947,0
DA:948,0
DA:950,0
DA:955,0
DA:957,0
DA:959,0
DA:960,0
DA:961,0
DA:963,0
DA:964,0
DA:965,0
DA:967,0
DA:971,0
DA:973,0
DA:981,0
DA:982,0
DA:983,0
DA:985,0
DA:987,0
DA:988,0
DA:989,0
DA:991,0
DA:992,0
DA:1001,0
DA:1003,0
DA:1004,0
DA:1005,0
DA:1007,0
DA:1008,0
DA:1010,0
DA:1018,0
DA:939,0
DA:947,0
DA:948,0
DA:950,0
DA:955,0
DA:957,0
DA:959,0
DA:960,0
DA:961,0
DA:963,0
DA:964,0
DA:965,0
DA:967,0
DA:971,0
DA:973,0
DA:981,0
DA:982,0
DA:983,0
DA:985,0
DA:987,0
DA:988,0
DA:989,0
DA:991,0
DA:992,0
DA:1001,0
DA:1003,0
DA:1004,0
DA:1005,0
DA:1007,0
DA:1008,0
DA:1010,0
DA:1018,0
DA:939,0
DA:947,0
DA:948,0
DA:950,0
DA:955,0
DA:957,0
DA:959,0
DA:960,0
DA:961,0
DA:963,0
DA:964,0
DA:965,0
DA:967,0
DA:971,0
DA:973,0
DA:981,0
DA:982,0
DA:983,0
DA:985,0
DA:987,0
DA:988,0
DA:989,0
DA:991,0
DA:992,0
DA:1001,0
DA:1003,0
DA:1004,0
DA:1005,0
DA:1007,0
DA:1008,0
DA:1010,0
DA:1018,0
DA:939,0
DA:947,0
DA:948,0
DA:950,0
DA:955,0
DA:957,0
DA:959,0
DA:960,0
DA:961,0
DA:963,0
DA:964,0
DA:965,0
DA:967,0
DA:971,0
DA:973,0
DA:981,0
DA:982,0
DA:983,0
DA:985,0
DA:987,0
DA:988,0
DA:989,0
DA:991,0
DA:992,0
DA:1001,0
DA:1003,0
DA:1004,0
DA:1005,0
DA:1007,0
DA:1008,0
DA:1010,0
DA:1018,0
DA:939,0
DA:947,0
DA:948,0
DA:950,0
DA:955,0
DA:957,0
DA:959,0
DA:960,0
DA:961,0
DA:963,0
DA:964,0
DA:965,0
DA:967,0
DA:971,0
DA:973,0
DA:981,0
DA:982,0
DA:983,0
DA:985,0
DA:987,0
DA:988,0
DA:989,0
DA:991,0
DA:992,0
DA:1001,0
DA:1003,0
DA:1004,0
DA:1005,0
DA:1007,0
DA:1008,0
DA:1010,0
DA:1018,0
DA:939,0
DA:947,0
DA:948,0
DA:950,0
DA:955,0
DA:957,0
DA:959,0
DA:960,0
DA:961,0
DA:963,0
DA:964,0
DA:965,0
DA:967,0
DA:971,0
DA:973,0
DA:981,0
DA:982,0
DA:983,0
DA:985,0
DA:987,0
DA:988,0
DA:989,0
DA:991,0
DA:992,0
DA:1001,0
DA:1003,0
DA:1004,0
DA:1005,0
DA:1007,0
DA:1008,0
DA:1010,0
DA:1018,0
DA:939,0
DA:947,0
DA:948,0
DA:950,0
DA:955,0
DA:957,0
DA:959,0
DA:960,0
DA:961,0
DA:963,0
DA:964,0
DA:965,0
DA:967,0
DA:971,0
DA:973,0
DA:981,0
DA:982,0
DA:983,0
DA:985,0
DA:987,0
DA:988,0
DA:989,0
DA:991,0
DA:992,0
DA:1001,0
DA:1003,0
DA:1004,0
DA:1005,0
DA:1007,0
DA:1008,0
DA:1010,0
DA:1018,0
DA:939,0
DA:947,0
DA:948,0
DA:950,0
DA:955,0
DA:957,0
DA:959,0
DA:960,0
DA:961,0
DA:963,0
DA:964,0
DA:965,0
DA:967,0
DA:971,0
DA:973,0
DA:981,0
DA:982,0
DA:983,0
DA:985,0
DA:987,0
DA:988,0
DA:989,0
DA:991,0
DA:992,0
DA:1001,0
DA:1003,0
DA:1004,0
DA:1005,0
DA:1007,0
DA:1008,0
DA:1010,0
DA:1018,0
DA:939,0
DA:947,0
DA:948,0
DA:950,0
DA:955,0
DA:957,0
DA:959,0
DA:960,0
DA:961,0
DA:963,0
DA:964,0
DA:965,0
DA:967,0
DA:971,0
DA:973,0
DA:981,0
DA:982,0
DA:983,0
DA:985,0
DA:987,0
DA:988,0
DA:989,0
DA:991,0
DA:992,0
DA:1001,0
DA:1003,0
DA:1004,0
DA:1005,0
DA:1007,0
DA:1008,0
DA:1010,0
DA:1018,0
DA:1011,0
DA:1011,0
DA:1011,0
DA:1011,0
DA:1011,0
DA:1011,0
DA:1011,0
DA:1011,0
DA:1011,0
DA:1011,0
DA:1011,0
DA:1011,0
DA:1011,0
DA:1011,0
DA:1011,0
DA:1011,0
DA:1011,0
DA:1011,0
DA:1011,0
DA:1013,0
DA:1019,0
DA:1019,0
DA:1019,0
DA:1019,0
DA:1019,0
DA:1019,0
DA:1019,0
DA:1019,0
DA:1019,0
DA:1019,0
DA:1019,0
DA:1019,0
DA:1019,0
DA:1019,0
DA:1019,0
DA:1019,0
DA:1019,0
DA:1019,0
DA:1019,0
DA:1021,0
end_of_record
SF:/home/brunnels/Research/alamo/src/Integrator/Dendrite.H
FN:33,_ZN10Integrator8DendriteC1Ev
FNDA:0,_ZN10Integrator8DendriteC1Ev
FN:37,_ZN10Integrator8DendriteC1ERN2IO9ParmParseE
FNDA:0,_ZN10Integrator8DendriteC1ERN2IO9ParmParseE
FN:42,_ZN10Integrator8Dendrite5ParseERS0_RN2IO9ParmParseE
FNDA:0,_ZN10Integrator8Dendrite5ParseERS0_RN2IO9ParmParseE
FN:73,_ZN10Integrator8Dendrite10InitializeEi
FNDA:0,_ZN10Integrator8Dendrite10InitializeEi
FN:83,_ZN10Integrator8Dendrite7AdvanceEidd
FNDA:0,_ZN10Integrator8Dendrite7AdvanceEidd
FN:106,_ZZN10Integrator8Dendrite7AdvanceEiddENKUliiiE_clEiii
FNDA:0,_ZZN10Integrator8Dendrite7AdvanceEiddENKUliiiE_clEiii
FN:148,_ZN10Integrator8Dendrite21TagCellsForRefinementEiRN5amrex11TagBoxArrayEdi
FNDA:0,_ZN10Integrator8Dendrite21TagCellsForRefinementEiRN5amrex11TagBoxArrayEdi
FN:165,_ZZN10Integrator8Dendrite21TagCellsForRefinementEiRN5amrex11TagBoxArrayEdiENKUliiiE_clEiii
FNDA:0,_ZZN10Integrator8Dendrite21TagCellsForRefinementEiRN5amrex11TagBoxArrayEdiENKUliiiE_clEiii
DA:33,0
DA:34,0
DA:37,0
DA:39,0
DA:40,0
DA:42,0
DA:44,0
DA:45,0
DA:46,0
DA:48,0
DA:49,0
DA:52,0
DA:53,0
DA:56,0
DA:57,0
DA:60,0
DA:61,0
DA:62,0
DA:63,0
DA:65,0
DA:66,0
DA:67,0
DA:68,0
DA:69,0
DA:73,0
DA:75,0
DA:76,0
DA:77,0
DA:78,0
DA:79,0
DA:83,0
DA:87,0
DA:88,0
DA:91,0
DA:94,0
DA:97,0
DA:100,0
DA:101,0
DA:102,0
DA:103,0
DA:106,0
DA:109,0
DA:115,0
DA:119,0
DA:120,0
DA:126,0
DA:133,0
DA:134,0
DA:135,0
DA:141,0
DA:142,0
DA:143,0
DA:145,0
DA:148,0
DA:151,0
DA:153,0
DA:156,0
DA:159,0
DA:160,0
DA:161,0
DA:162,0
DA:165,0
DA:168,0
DA:169,0
DA:173,0
DA:174,0
DA:175,0
DA:176,0
DA:177,0
DA:179,0
end_of_record
SF:/home/brunnels/Research/alamo/src/BC/Operator/Elastic/TensionTest.H
FN:17,_ZN2BC8Operator7Elastic11TensionTestC2Ev
FNDA:0,_ZN2BC8Operator7Elastic11TensionTestC2Ev
FN:20,_ZN2BC8Operator7Elastic11TensionTestC2ERN2IO9ParmParseENSt7__cxx1112basic_stringIcSt11char_traitsIcESaIcEEE
FNDA:0,_ZN2BC8Operator7Elastic11TensionTestC2ERN2IO9ParmParseENSt7__cxx1112basic_stringIcSt11char_traitsIcESaIcEEE
FN:24,_ZN2BC8Operator7Elastic11TensionTestD2Ev
FNDA:0,_ZN2BC8Operator7Elastic11TensionTestD2Ev
FN:33,_ZN2BC8Operator7Elastic11TensionTest5ParseERS2_RN2IO9ParmParseE
FNDA:0,_ZN2BC8Operator7Elastic11TensionTest5ParseERS2_RN2IO9ParmParseE
DA:17,0
DA:18,0
DA:20,0
DA:21,0
DA:24,0
DA:33,0
DA:35,0
DA:36,0
DA:39,0
DA:41,0
DA:42,0
DA:43,0
DA:45,0
DA:46,0
DA:48,0
DA:50,0
DA:51,0
DA:54,0
DA:56,0
DA:59,0
DA:60,0
DA:61,0
DA:63,0
DA:64,0
DA:65,0
DA:66,0
DA:67,0
DA:68,0
DA:72,0
DA:74,0
DA:75,0
DA:77,0
DA:78,0
DA:79,0
DA:80,0
DA:81,0
DA:82,0
DA:86,0
DA:89,0
DA:90,0
DA:91,0
DA:95,0
DA:96,0
DA:97,0
DA:99,0
DA:100,0
DA:101,0
DA:102,0
DA:103,0
DA:104,0
DA:108,0
DA:110,0
DA:111,0
DA:112,0
DA:113,0
DA:114,0
DA:115,0
DA:117,0
DA:119,0
DA:120,0
DA:121,0
DA:122,0
DA:123,0
DA:124,0
DA:127,0
DA:129,0
DA:130,0
DA:131,0
DA:132,0
DA:133,0
DA:134,0
DA:135,0
DA:136,0
DA:137,0
DA:138,0
DA:139,0
DA:140,0
DA:142,0
DA:144,0
DA:145,0
DA:146,0
DA:147,0
DA:148,0
DA:149,0
DA:150,0
DA:151,0
DA:152,0
DA:153,0
DA:154,0
DA:155,0
DA:160,0
DA:161,0
DA:162,0
DA:164,0
DA:165,0
DA:166,0
DA:167,0
DA:168,0
DA:169,0
DA:174,0
DA:175,0
DA:176,0
DA:177,0
DA:178,0
DA:179,0
DA:180,0
DA:181,0
DA:182,0
DA:186,0
DA:189,0
DA:190,0
DA:191,0
DA:195,0
DA:196,0
DA:197,0
DA:199,0
DA:200,0
DA:201,0
DA:202,0
DA:203,0
DA:204,0
DA:208,0
DA:209,0
DA:210,0
DA:211,0
DA:212,0
DA:213,0
DA:215,0
DA:216,0
DA:217,0
DA:218,0
DA:219,0
DA:220,0
DA:221,0
DA:222,0
DA:223,0
DA:224,0
DA:225,0
DA:226,0
DA:230,0
DA:231,0
DA:232,0
DA:233,0
DA:234,0
DA:235,0
DA:237,0
DA:238,0
DA:239,0
DA:240,0
DA:241,0
DA:242,0
DA:243,0
DA:244,0
DA:245,0
DA:246,0
DA:247,0
DA:248,0
DA:252,0
DA:253,0
DA:254,0
DA:255,0
DA:256,0
DA:257,0
DA:258,0
DA:259,0
DA:260,0
DA:261,0
DA:262,0
DA:263,0
DA:264,0
DA:265,0
DA:266,0
DA:267,0
DA:268,0
DA:269,0
DA:275,0
DA:277,0
end_of_record
SF:/home/brunnels/Research/alamo/src/Integrator/ThermoElastic.H
FN:16,_ZN10Integrator13ThermoElasticC1Ev
FNDA:0,_ZN10Integrator13ThermoElasticC1Ev
FN:22,_ZN10Integrator13ThermoElasticC1ERN2IO9ParmParseE
FNDA:0,_ZN10Integrator13ThermoElasticC1ERN2IO9ParmParseE
FN:24,_ZN10Integrator13ThermoElastic5ParseERS0_RN2IO9ParmParseE
FNDA:0,_ZN10Integrator13ThermoElastic5ParseERS0_RN2IO9ParmParseE
FN:34,_ZN10Integrator13ThermoElastic10InitializeEi
FNDA:0,_ZN10Integrator13ThermoElastic10InitializeEi
FN:40,_ZN10Integrator13ThermoElastic11UpdateModelEi
FNDA:0,_ZN10Integrator13ThermoElastic11UpdateModelEi
FN:55,_ZZN10Integrator13ThermoElastic11UpdateModelEiENKUliiiE_clEiii
FNDA:0,_ZZN10Integrator13ThermoElastic11UpdateModelEiENKUliiiE_clEiii
FN:71,_ZN10Integrator13ThermoElastic13TimeStepBeginEdi
FNDA:0,_ZN10Integrator13ThermoElastic13TimeStepBeginEdi
FN:77,_ZN10Integrator13ThermoElastic7AdvanceEidd
FNDA:0,_ZN10Integrator13ThermoElastic7AdvanceEidd
FN:83,_ZN10Integrator13ThermoElastic21TagCellsForRefinementEiRN5amrex11TagBoxArrayEdi
FNDA:0,_ZN10Integrator13ThermoElastic21TagCellsForRefinementEiRN5amrex11TagBoxArrayEdi
DA:16,0
DA:18,0
DA:20,0
DA:21,0
DA:22,0
DA:23,0
DA:24,0
DA:26,0
DA:27,0
DA:29,0
DA:30,0
DA:34,0
DA:36,0
DA:37,0
DA:38,0
DA:40,0
DA:42,0
DA:47,0
DA:49,0
DA:51,0
DA:52,0
DA:53,0
DA:54,0
DA:55,0
DA:56,0
DA:57,0
DA:58,0
DA:60,0
DA:62,0
DA:63,0
DA:66,0
DA:69,0
DA:71,0
DA:73,0
DA:74,0
DA:75,0
DA:77,0
DA:79,0
DA:80,0
DA:81,0
DA:83,0
DA:85,0
DA:86,0
DA:87,0
end_of_record
SF:/home/brunnels/Research/alamo/ext/amrex/3d-coverage-g++-23.08/include/AMReX_Parser_Exe.H
FN:223,_ZN5amrex11ParserStackILi16EE4pushEd
FNDA:0,_ZN5amrex11ParserStackILi16EE4pushEd
FN:224,_ZN5amrex11ParserStackILi16EE3popEv
FNDA:0,_ZN5amrex11ParserStackILi16EE3popEv
FN:226,_ZN5amrex11ParserStackILi16EE3topEv
FNDA:0,_ZN5amrex11ParserStackILi16EE3topEv
FN:227,_ZNK5amrex11ParserStackILi16EEixEi
FNDA:0,_ZNK5amrex11ParserStackILi16EEixEi
FN:514,_ZN5amrex15parser_exe_sizeEPNS_12amrex_parserERiS2_
FNDA:0,_ZN5amrex15parser_exe_sizeEPNS_12amrex_parserERiS2_
FN:528,_ZN5amrex14parser_compileEPNS_12amrex_parserEPc
FNDA:0,_ZN5amrex14parser_compileEPNS_12amrex_parserEPc
DA:223,0
DA:224,0
DA:226,0
DA:227,0
DA:233,0
DA:234,0
DA:235,0
DA:237,0
DA:239,0
DA:240,0
DA:241,0
DA:243,0
DA:245,0
DA:246,0
DA:247,0
DA:248,0
DA:249,0
DA:251,0
DA:253,0
DA:254,0
DA:255,0
DA:256,0
DA:257,0
DA:259,0
DA:261,0
DA:262,0
DA:263,0
DA:264,0
DA:265,0
DA:267,0
DA:269,0
DA:270,0
DA:271,0
DA:272,0
DA:273,0
DA:275,0
DA:277,0
DA:278,0
DA:279,0
DA:280,0
DA:281,0
DA:283,0
DA:285,0
DA:286,0
DA:287,0
DA:288,0
DA:289,0
DA:291,0
DA:293,0
DA:294,0
DA:295,0
DA:296,0
DA:297,0
DA:299,0
DA:301,0
DA:302,0
DA:303,0
DA:305,0
DA:307,0
DA:308,0
DA:309,0
DA:310,0
DA:311,0
DA:313,0
DA:315,0
DA:316,0
DA:317,0
DA:318,0
DA:319,0
DA:321,0
DA:323,0
DA:324,0
DA:325,0
DA:326,0
DA:327,0
DA:329,0
DA:331,0
DA:332,0
DA:333,0
DA:334,0
DA:335,0
DA:337,0
DA:339,0
DA:340,0
DA:341,0
DA:342,0
DA:343,0
DA:345,0
DA:347,0
DA:348,0
DA:349,0
DA:350,0
DA:351,0
DA:353,0
DA:355,0
DA:356,0
DA:357,0
DA:358,0
DA:359,0
DA:360,0
DA:361,0
DA:363,0
DA:365,0
DA:366,0
DA:367,0
DA:368,0
DA:369,0
DA:370,0
DA:371,0
DA:373,0
DA:375,0
DA:376,0
DA:377,0
DA:378,0
DA:379,0
DA:380,0
DA:381,0
DA:383,0
DA:385,0
DA:386,0
DA:387,0
DA:388,0
DA:389,0
DA:390,0
DA:391,0
DA:393,0
DA:395,0
DA:396,0
DA:397,0
DA:399,0
DA:401,0
DA:402,0
DA:403,0
DA:405,0
DA:407,0
DA:408,0
DA:409,0
DA:411,0
DA:413,0
DA:414,0
DA:415,0
DA:417,0
DA:419,0
DA:420,0
DA:421,0
DA:422,0
DA:423,0
DA:425,0
DA:427,0
DA:428,0
DA:429,0
DA:430,0
DA:431,0
DA:433,0
DA:435,0
DA:436,0
DA:437,0
DA:438,0
DA:439,0
DA:441,0
DA:443,0
DA:444,0
DA:445,0
DA:446,0
DA:448,0
DA:450,0
DA:451,0
DA:453,0
DA:455,0
DA:456,0
DA:457,0
DA:458,0
DA:460,0
DA:462,0
DA:463,0
DA:464,0
DA:465,0
DA:466,0
DA:467,0
DA:469,0
DA:470,0
DA:471,0
DA:472,0
DA:473,0
DA:475,0
DA:476,0
DA:477,0
DA:480,0
DA:482,0
DA:484,0
DA:485,0
DA:487,0
DA:489,0
DA:490,0
DA:491,0
DA:492,0
DA:494,0
DA:495,0
DA:497,0
DA:499,0
DA:500,0
DA:501,0
DA:503,0
DA:507,0
DA:514,0
DA:516,0
DA:517,0
DA:518,0
DA:519,0
DA:520,0
DA:521,0
DA:522,0
DA:523,0
DA:524,0
DA:528,0
DA:530,0
DA:531,0
DA:532,0
DA:533,0
DA:534,0
DA:535,0
DA:536,0
end_of_record
SF:/home/brunnels/Research/alamo/ext/amrex/3d-coverage-g++-23.08/include/AMReX_CoordSys.H
FN:72,_ZNK5amrex8CoordSys8CellSizeEv
FNDA:0,_ZNK5amrex8CoordSys8CellSizeEv
DA:72,0
end_of_record
SF:/home/brunnels/Research/alamo/src/Numeric/Interpolator/Linear.H
FN:55,_ZN7Numeric12Interpolator6LinearIdEC2Ev
FNDA:0,_ZN7Numeric12Interpolator6LinearIdEC2Ev
FN:56,_ZN7Numeric12Interpolator6LinearIdED2Ev
FNDA:0,_ZN7Numeric12Interpolator6LinearIdED2Ev
FN:57,_ZN7Numeric12Interpolator6LinearIdEC2ERKd
FNDA:0,_ZN7Numeric12Interpolator6LinearIdEC2ERKd
FN:62,_ZN7Numeric12Interpolator6LinearIdEC2ENSt7__cxx1112basic_stringIcSt11char_traitsIcESaIcEEE
FNDA:0,_ZN7Numeric12Interpolator6LinearIdEC2ENSt7__cxx1112basic_stringIcSt11char_traitsIcESaIcEEE
FN:66,_ZN7Numeric12Interpolator6LinearIdEC2ESt6vectorIdSaIdEES5_
FNDA:0,_ZN7Numeric12Interpolator6LinearIdEC2ESt6vectorIdSaIdEES5_
FN:71,_ZN7Numeric12Interpolator6LinearIdE6defineENSt7__cxx1112basic_stringIcSt11char_traitsIcESaIcEEE
FNDA:0,_ZN7Numeric12Interpolator6LinearIdE6defineENSt7__cxx1112basic_stringIcSt11char_traitsIcESaIcEEE
FN:106,_ZN7Numeric12Interpolator6LinearIdE6defineESt6vectorIdSaIdEES5_
FNDA:0,_ZN7Numeric12Interpolator6LinearIdE6defineESt6vectorIdSaIdEES5_
FN:114,_ZNK7Numeric12Interpolator6LinearIdEclEd
FNDA:0,_ZNK7Numeric12Interpolator6LinearIdEclEd
FN:152,_ZN7Numeric12Interpolator6LinearIdE5ParseERS2_RN2IO9ParmParseE
FNDA:0,_ZN7Numeric12Interpolator6LinearIdE5ParseERS2_RN2IO9ParmParseE
DA:55,0
DA:56,0
DA:57,0
DA:58,0
DA:59,0
DA:60,0
DA:61,0
DA:62,0
DA:63,0
DA:64,0
DA:65,0
DA:66,0
DA:67,0
DA:68,0
DA:69,0
DA:71,0
DA:73,0
DA:75,0
DA:77,0
DA:78,0
DA:79,0
DA:80,0
DA:81,0
DA:83,0
DA:84,0
DA:85,0
DA:87,0
DA:88,0
DA:90,0
DA:92,0
DA:94,0
DA:95,0
DA:96,0
DA:101,0
DA:102,0
DA:104,0
DA:106,0
DA:108,0
DA:109,0
DA:110,0
DA:111,0
DA:112,0
DA:114,0
DA:117,0
DA:120,0
DA:122,0
DA:125,0
DA:126,0
DA:127,0
DA:129,0
DA:130,0
DA:131,0
DA:132,0
DA:136,0
DA:138,0
DA:140,0
DA:141,0
DA:142,0
DA:149,0
DA:152,0
DA:154,0
DA:155,0
DA:156,0
DA:157,0
end_of_record
SF:/home/brunnels/Research/alamo/src/Util/Util.H
FN:82,_ZN4Util5AbortIJA54_cEEEvNSt7__cxx1112basic_stringIcSt11char_traitsIcESaIcEEES7_iDpRKT_
FNDA:0,_ZN4Util5AbortIJA54_cEEEvNSt7__cxx1112basic_stringIcSt11char_traitsIcESaIcEEES7_iDpRKT_
FN:82,_ZN4Util5AbortIJA80_cNSt7__cxx1112basic_stringIcSt11char_traitsIcESaIcEEEA2_cEEEvS7_S7_iDpRKT_
FNDA:0,_ZN4Util5AbortIJA80_cNSt7__cxx1112basic_stringIcSt11char_traitsIcESaIcEEEA2_cEEEvS7_S7_iDpRKT_
FN:82,_ZN4Util5AbortIJA63_cNSt7__cxx1112basic_stringIcSt11char_traitsIcESaIcEEEA2_cEEEvS7_S7_iDpRKT_
FNDA:0,_ZN4Util5AbortIJA63_cNSt7__cxx1112basic_stringIcSt11char_traitsIcESaIcEEEA2_cEEEvS7_S7_iDpRKT_
FN:82,_ZN4Util5AbortIJA17_cNSt7__cxx1112basic_stringIcSt11char_traitsIcESaIcEEEEEEvS7_S7_iDpRKT_
FNDA:0,_ZN4Util5AbortIJA17_cNSt7__cxx1112basic_stringIcSt11char_traitsIcESaIcEEEEEEvS7_S7_iDpRKT_
FN:82,_ZN4Util5AbortIJA25_cEEEvNSt7__cxx1112basic_stringIcSt11char_traitsIcESaIcEEES7_iDpRKT_
FNDA:0,_ZN4Util5AbortIJA25_cEEEvNSt7__cxx1112basic_stringIcSt11char_traitsIcESaIcEEES7_iDpRKT_
FN:82,_ZN4Util5AbortIJA34_cEEEvNSt7__cxx1112basic_stringIcSt11char_traitsIcESaIcEEES7_iDpRKT_
FNDA:0,_ZN4Util5AbortIJA34_cEEEvNSt7__cxx1112basic_stringIcSt11char_traitsIcESaIcEEES7_iDpRKT_
FN:82,_ZN4Util5AbortIJA37_cEEEvNSt7__cxx1112basic_stringIcSt11char_traitsIcESaIcEEES7_iDpRKT_
FNDA:0,_ZN4Util5AbortIJA37_cEEEvNSt7__cxx1112basic_stringIcSt11char_traitsIcESaIcEEES7_iDpRKT_
FN:82,_ZN4Util5AbortIJA40_cEEEvNSt7__cxx1112basic_stringIcSt11char_traitsIcESaIcEEES7_iDpRKT_
FNDA:0,_ZN4Util5AbortIJA40_cEEEvNSt7__cxx1112basic_stringIcSt11char_traitsIcESaIcEEES7_iDpRKT_
FN:82,_ZN4Util5AbortIJPKcEEEvNSt7__cxx1112basic_stringIcSt11char_traitsIcESaIcEEES8_iDpRKT_
FNDA:0,_ZN4Util5AbortIJPKcEEEvNSt7__cxx1112basic_stringIcSt11char_traitsIcESaIcEEES8_iDpRKT_
FN:82,_ZN4Util5AbortIJA6_cNSt7__cxx1112basic_stringIcSt11char_traitsIcESaIcEEEA16_cEEEvS7_S7_iDpRKT_
FNDA:0,_ZN4Util5AbortIJA6_cNSt7__cxx1112basic_stringIcSt11char_traitsIcESaIcEEEA16_cEEEvS7_S7_iDpRKT_
FN:82,_ZN4Util5AbortIJA43_cEEEvNSt7__cxx1112basic_stringIcSt11char_traitsIcESaIcEEES7_iDpRKT_
FNDA:0,_ZN4Util5AbortIJA43_cEEEvNSt7__cxx1112basic_stringIcSt11char_traitsIcESaIcEEES7_iDpRKT_
FN:82,_ZN4Util5AbortIJA36_cEEEvNSt7__cxx1112basic_stringIcSt11char_traitsIcESaIcEEES7_iDpRKT_
FNDA:0,_ZN4Util5AbortIJA36_cEEEvNSt7__cxx1112basic_stringIcSt11char_traitsIcESaIcEEES7_iDpRKT_
FN:82,_ZN4Util5AbortIJA46_cEEEvNSt7__cxx1112basic_stringIcSt11char_traitsIcESaIcEEES7_iDpRKT_
FNDA:0,_ZN4Util5AbortIJA46_cEEEvNSt7__cxx1112basic_stringIcSt11char_traitsIcESaIcEEES7_iDpRKT_
FN:82,_ZN4Util5AbortIJA51_cEEEvNSt7__cxx1112basic_stringIcSt11char_traitsIcESaIcEEES7_iDpRKT_
FNDA:0,_ZN4Util5AbortIJA51_cEEEvNSt7__cxx1112basic_stringIcSt11char_traitsIcESaIcEEES7_iDpRKT_
FN:82,_ZN4Util5AbortIJA52_cEEEvNSt7__cxx1112basic_stringIcSt11char_traitsIcESaIcEEES7_iDpRKT_
FNDA:0,_ZN4Util5AbortIJA52_cEEEvNSt7__cxx1112basic_stringIcSt11char_traitsIcESaIcEEES7_iDpRKT_
FN:82,_ZN4Util5AbortIJA49_cEEEvNSt7__cxx1112basic_stringIcSt11char_traitsIcESaIcEEES7_iDpRKT_
FNDA:0,_ZN4Util5AbortIJA49_cEEEvNSt7__cxx1112basic_stringIcSt11char_traitsIcESaIcEEES7_iDpRKT_
FN:82,_ZN4Util5AbortIJA21_cdA4_cdA5_cdA6_cdEEEvNSt7__cxx1112basic_stringIcSt11char_traitsIcESaIcEEESA_iDpRKT_
FNDA:0,_ZN4Util5AbortIJA21_cdA4_cdA5_cdA6_cdEEEvNSt7__cxx1112basic_stringIcSt11char_traitsIcESaIcEEESA_iDpRKT_
FN:82,_ZN4Util5AbortIJA69_cEEEvNSt7__cxx1112basic_stringIcSt11char_traitsIcESaIcEEES7_iDpRKT_
FNDA:0,_ZN4Util5AbortIJA69_cEEEvNSt7__cxx1112basic_stringIcSt11char_traitsIcESaIcEEES7_iDpRKT_
FN:82,_ZN4Util5AbortIJA23_cEEEvNSt7__cxx1112basic_stringIcSt11char_traitsIcESaIcEEES7_iDpRKT_
FNDA:0,_ZN4Util5AbortIJA23_cEEEvNSt7__cxx1112basic_stringIcSt11char_traitsIcESaIcEEES7_iDpRKT_
FN:82,_ZN4Util5AbortIJA18_cEEEvNSt7__cxx1112basic_stringIcSt11char_traitsIcESaIcEEES7_iDpRKT_
FNDA:0,_ZN4Util5AbortIJA18_cEEEvNSt7__cxx1112basic_stringIcSt11char_traitsIcESaIcEEES7_iDpRKT_
FN:82,_ZN4Util5AbortIJA29_cEEEvNSt7__cxx1112basic_stringIcSt11char_traitsIcESaIcEEES7_iDpRKT_
FNDA:0,_ZN4Util5AbortIJA29_cEEEvNSt7__cxx1112basic_stringIcSt11char_traitsIcESaIcEEES7_iDpRKT_
FN:82,_ZN4Util5AbortIJA28_cEEEvNSt7__cxx1112basic_stringIcSt11char_traitsIcESaIcEEES7_iDpRKT_
FNDA:0,_ZN4Util5AbortIJA28_cEEEvNSt7__cxx1112basic_stringIcSt11char_traitsIcESaIcEEES7_iDpRKT_
FN:82,_ZN4Util5AbortIJA19_cEEEvNSt7__cxx1112basic_stringIcSt11char_traitsIcESaIcEEES7_iDpRKT_
FNDA:0,_ZN4Util5AbortIJA19_cEEEvNSt7__cxx1112basic_stringIcSt11char_traitsIcESaIcEEES7_iDpRKT_
FN:82,_ZN4Util5AbortIJA20_cEEEvNSt7__cxx1112basic_stringIcSt11char_traitsIcESaIcEEES7_iDpRKT_
FNDA:0,_ZN4Util5AbortIJA20_cEEEvNSt7__cxx1112basic_stringIcSt11char_traitsIcESaIcEEES7_iDpRKT_
FN:82,_ZN4Util5AbortIJNSt7__cxx1112basic_stringIcSt11char_traitsIcESaIcEEEA20_ciA17_cmEEEvS6_S6_iDpRKT_
FNDA:0,_ZN4Util5AbortIJNSt7__cxx1112basic_stringIcSt11char_traitsIcESaIcEEEA20_ciA17_cmEEEvS6_S6_iDpRKT_
FN:82,_ZN4Util5AbortIJNSt7__cxx1112basic_stringIcSt11char_traitsIcESaIcEEEA42_cmEEEvS6_S6_iDpRKT_
FNDA:0,_ZN4Util5AbortIJNSt7__cxx1112basic_stringIcSt11char_traitsIcESaIcEEEA42_cmEEEvS6_S6_iDpRKT_
FN:82,_ZN4Util5AbortIJA15_cEEEvNSt7__cxx1112basic_stringIcSt11char_traitsIcESaIcEEES7_iDpRKT_
FNDA:0,_ZN4Util5AbortIJA15_cEEEvNSt7__cxx1112basic_stringIcSt11char_traitsIcESaIcEEES7_iDpRKT_
FN:82,_ZN4Util5AbortIJEEEvNSt7__cxx1112basic_stringIcSt11char_traitsIcESaIcEEES6_iDpRKT_
FNDA:0,_ZN4Util5AbortIJEEEvNSt7__cxx1112basic_stringIcSt11char_traitsIcESaIcEEES6_iDpRKT_
FN:82,_ZN4Util5AbortIJA13_cNSt7__cxx1112basic_stringIcSt11char_traitsIcESaIcEEEEEEvS7_S7_iDpRKT_
FNDA:0,_ZN4Util5AbortIJA13_cNSt7__cxx1112basic_stringIcSt11char_traitsIcESaIcEEEEEEvS7_S7_iDpRKT_
FN:82,_ZN4Util5AbortIJA21_cNSt7__cxx1112basic_stringIcSt11char_traitsIcESaIcEEEA25_cjA15_cmEEEvS7_S7_iDpRKT_
FNDA:0,_ZN4Util5AbortIJA21_cNSt7__cxx1112basic_stringIcSt11char_traitsIcESaIcEEEA25_cjA15_cmEEEvS7_S7_iDpRKT_
FN:82,_ZN4Util5AbortIJA21_cNSt7__cxx1112basic_stringIcSt11char_traitsIcESaIcEEEA26_cjA20_cmEEEvS7_S7_iDpRKT_
FNDA:0,_ZN4Util5AbortIJA21_cNSt7__cxx1112basic_stringIcSt11char_traitsIcESaIcEEEA26_cjA20_cmEEEvS7_S7_iDpRKT_
FN:82,_ZN4Util5AbortIJA25_cNSt7__cxx1112basic_stringIcSt11char_traitsIcESaIcEEEEEEvS7_S7_iDpRKT_
FNDA:0,_ZN4Util5AbortIJA25_cNSt7__cxx1112basic_stringIcSt11char_traitsIcESaIcEEEEEEvS7_S7_iDpRKT_
FN:82,_ZN4Util5AbortIJA52_ciA7_cEEEvNSt7__cxx1112basic_stringIcSt11char_traitsIcESaIcEEES8_iDpRKT_
FNDA:0,_ZN4Util5AbortIJA52_ciA7_cEEEvNSt7__cxx1112basic_stringIcSt11char_traitsIcESaIcEEES8_iDpRKT_
FN:82,_ZN4Util5AbortIJA25_ciA26_ciA7_cEEEvNSt7__cxx1112basic_stringIcSt11char_traitsIcESaIcEEES9_iDpRKT_
FNDA:0,_ZN4Util5AbortIJA25_ciA26_ciA7_cEEEvNSt7__cxx1112basic_stringIcSt11char_traitsIcESaIcEEES9_iDpRKT_
FN:82,_ZN4Util5AbortIJA55_cEEEvNSt7__cxx1112basic_stringIcSt11char_traitsIcESaIcEEES7_iDpRKT_
FNDA:0,_ZN4Util5AbortIJA55_cEEEvNSt7__cxx1112basic_stringIcSt11char_traitsIcESaIcEEES7_iDpRKT_
FN:82,_ZN4Util5AbortIJA41_cEEEvNSt7__cxx1112basic_stringIcSt11char_traitsIcESaIcEEES7_iDpRKT_
FNDA:0,_ZN4Util5AbortIJA41_cEEEvNSt7__cxx1112basic_stringIcSt11char_traitsIcESaIcEEES7_iDpRKT_
FN:82,_ZN4Util5AbortIJA24_cEEEvNSt7__cxx1112basic_stringIcSt11char_traitsIcESaIcEEES7_iDpRKT_
FNDA:0,_ZN4Util5AbortIJA24_cEEEvNSt7__cxx1112basic_stringIcSt11char_traitsIcESaIcEEES7_iDpRKT_
FN:82,_ZN4Util5AbortIJA13_cEEEvNSt7__cxx1112basic_stringIcSt11char_traitsIcESaIcEEES7_iDpRKT_
FNDA:0,_ZN4Util5AbortIJA13_cEEEvNSt7__cxx1112basic_stringIcSt11char_traitsIcESaIcEEES7_iDpRKT_
FN:82,_ZN4Util5AbortIJA14_cNSt7__cxx1112basic_stringIcSt11char_traitsIcESaIcEEEA11_cEEEvS7_S7_iDpRKT_
FNDA:0,_ZN4Util5AbortIJA14_cNSt7__cxx1112basic_stringIcSt11char_traitsIcESaIcEEEA11_cEEEvS7_S7_iDpRKT_
FN:82,_ZN4Util5AbortIJA39_cEEEvNSt7__cxx1112basic_stringIcSt11char_traitsIcESaIcEEES7_iDpRKT_
FNDA:0,_ZN4Util5AbortIJA39_cEEEvNSt7__cxx1112basic_stringIcSt11char_traitsIcESaIcEEES7_iDpRKT_
FN:82,_ZN4Util5AbortIJA32_cNSt7__cxx1112basic_stringIcSt11char_traitsIcESaIcEEEEEEvS7_S7_iDpRKT_
FNDA:0,_ZN4Util5AbortIJA32_cNSt7__cxx1112basic_stringIcSt11char_traitsIcESaIcEEEEEEvS7_S7_iDpRKT_
FN:82,_ZN4Util5AbortIJA28_cNSt7__cxx1112basic_stringIcSt11char_traitsIcESaIcEEEEEEvS7_S7_iDpRKT_
FNDA:0,_ZN4Util5AbortIJA28_cNSt7__cxx1112basic_stringIcSt11char_traitsIcESaIcEEEEEEvS7_S7_iDpRKT_
FN:82,_ZN4Util5AbortIJA71_cNSt7__cxx1112basic_stringIcSt11char_traitsIcESaIcEEEEEEvS7_S7_iDpRKT_
FNDA:0,_ZN4Util5AbortIJA71_cNSt7__cxx1112basic_stringIcSt11char_traitsIcESaIcEEEEEEvS7_S7_iDpRKT_
FN:82,_ZN4Util5AbortIJA72_cNSt7__cxx1112basic_stringIcSt11char_traitsIcESaIcEEEEEEvS7_S7_iDpRKT_
FNDA:0,_ZN4Util5AbortIJA72_cNSt7__cxx1112basic_stringIcSt11char_traitsIcESaIcEEEEEEvS7_S7_iDpRKT_
FN:82,_ZN4Util5AbortIJA49_cNSt7__cxx1112basic_stringIcSt11char_traitsIcESaIcEEEEEEvS7_S7_iDpRKT_
FNDA:0,_ZN4Util5AbortIJA49_cNSt7__cxx1112basic_stringIcSt11char_traitsIcESaIcEEEEEEvS7_S7_iDpRKT_
FN:82,_ZN4Util5AbortIJA46_cNSt7__cxx1112basic_stringIcSt11char_traitsIcESaIcEEEEEEvS7_S7_iDpRKT_
FNDA:0,_ZN4Util5AbortIJA46_cNSt7__cxx1112basic_stringIcSt11char_traitsIcESaIcEEEEEEvS7_S7_iDpRKT_
FN:82,_ZN4Util5AbortIJA53_cEEEvNSt7__cxx1112basic_stringIcSt11char_traitsIcESaIcEEES7_iDpRKT_
FNDA:0,_ZN4Util5AbortIJA53_cEEEvNSt7__cxx1112basic_stringIcSt11char_traitsIcESaIcEEES7_iDpRKT_
FN:82,_ZN4Util5AbortIJA31_cNSt7__cxx1112basic_stringIcSt11char_traitsIcESaIcEEEEEEvS7_S7_iDpRKT_
FNDA:0,_ZN4Util5AbortIJA31_cNSt7__cxx1112basic_stringIcSt11char_traitsIcESaIcEEEEEEvS7_S7_iDpRKT_
FN:82,_ZN4Util5AbortIJA9_cNSt7__cxx1112basic_stringIcSt11char_traitsIcESaIcEEEA26_cEEEvS7_S7_iDpRKT_
FNDA:0,_ZN4Util5AbortIJA9_cNSt7__cxx1112basic_stringIcSt11char_traitsIcESaIcEEEA26_cEEEvS7_S7_iDpRKT_
FN:82,_ZN4Util5AbortIJNSt7__cxx1112basic_stringIcSt11char_traitsIcESaIcEEEA22_cEEEvS6_S6_iDpRKT_
FNDA:0,_ZN4Util5AbortIJNSt7__cxx1112basic_stringIcSt11char_traitsIcESaIcEEEA22_cEEEvS6_S6_iDpRKT_
FN:82,_ZN4Util5AbortIJA12_cEEEvNSt7__cxx1112basic_stringIcSt11char_traitsIcESaIcEEES7_iDpRKT_
FNDA:0,_ZN4Util5AbortIJA12_cEEEvNSt7__cxx1112basic_stringIcSt11char_traitsIcESaIcEEES7_iDpRKT_
FN:82,_ZN4Util5AbortIJA22_cdEEEvNSt7__cxx1112basic_stringIcSt11char_traitsIcESaIcEEES7_iDpRKT_
FNDA:0,_ZN4Util5AbortIJA22_cdEEEvNSt7__cxx1112basic_stringIcSt11char_traitsIcESaIcEEES7_iDpRKT_
FN:82,_ZN4Util5AbortIJA14_cA5_cN3Set7Matrix4ILi3ELi6EEEA6_cdA10_cdEEEvNSt7__cxx1112basic_stringIcSt11char_traitsIcESaIcEEESD_iDpRKT_
FNDA:0,_ZN4Util5AbortIJA14_cA5_cN3Set7Matrix4ILi3ELi6EEEA6_cdA10_cdEEEvNSt7__cxx1112basic_stringIcSt11char_traitsIcESaIcEEESD_iDpRKT_
FN:82,_ZN4Util5AbortIJA30_cEEEvNSt7__cxx1112basic_stringIcSt11char_traitsIcESaIcEEES7_iDpRKT_
FNDA:0,_ZN4Util5AbortIJA30_cEEEvNSt7__cxx1112basic_stringIcSt11char_traitsIcESaIcEEES7_iDpRKT_
FN:82,_ZN4Util5AbortIJA35_cEEEvNSt7__cxx1112basic_stringIcSt11char_traitsIcESaIcEEES7_iDpRKT_
FNDA:0,_ZN4Util5AbortIJA35_cEEEvNSt7__cxx1112basic_stringIcSt11char_traitsIcESaIcEEES7_iDpRKT_
FN:82,_ZN4Util5AbortIJA28_ciA11_cEEEvNSt7__cxx1112basic_stringIcSt11char_traitsIcESaIcEEES8_iDpRKT_
FNDA:0,_ZN4Util5AbortIJA28_ciA11_cEEEvNSt7__cxx1112basic_stringIcSt11char_traitsIcESaIcEEES8_iDpRKT_
FN:82,_ZN4Util5AbortIJA48_cEEEvNSt7__cxx1112basic_stringIcSt11char_traitsIcESaIcEEES7_iDpRKT_
FNDA:0,_ZN4Util5AbortIJA48_cEEEvNSt7__cxx1112basic_stringIcSt11char_traitsIcESaIcEEES7_iDpRKT_
FN:125,_ZN4Util7MessageIJN5Model5Solid6Linear9IsotropicEEEEvNSt7__cxx1112basic_stringIcSt11char_traitsIcESaIcEEESA_iDpRKT_
FNDA:0,_ZN4Util7MessageIJN5Model5Solid6Linear9IsotropicEEEEvNSt7__cxx1112basic_stringIcSt11char_traitsIcESaIcEEESA_iDpRKT_
FN:125,_ZN4Util7MessageIJA7_cdEEEvNSt7__cxx1112basic_stringIcSt11char_traitsIcESaIcEEES7_iDpRKT_
FNDA:0,_ZN4Util7MessageIJA7_cdEEEvNSt7__cxx1112basic_stringIcSt11char_traitsIcESaIcEEES7_iDpRKT_
FN:125,_ZN4Util7MessageIJA19_cEEEvNSt7__cxx1112basic_stringIcSt11char_traitsIcESaIcEEES7_iDpRKT_
FNDA:0,_ZN4Util7MessageIJA19_cEEEvNSt7__cxx1112basic_stringIcSt11char_traitsIcESaIcEEES7_iDpRKT_
FN:125,_ZN4Util7MessageIJA14_ciA26_cdEEEvNSt7__cxx1112basic_stringIcSt11char_traitsIcESaIcEEES8_iDpRKT_
FNDA:0,_ZN4Util7MessageIJA14_ciA26_cdEEEvNSt7__cxx1112basic_stringIcSt11char_traitsIcESaIcEEES8_iDpRKT_
FN:125,_ZN4Util7MessageIJA18_ciA5_ciEEEvNSt7__cxx1112basic_stringIcSt11char_traitsIcESaIcEEES8_iDpRKT_
FNDA:0,_ZN4Util7MessageIJA18_ciA5_ciEEEvNSt7__cxx1112basic_stringIcSt11char_traitsIcESaIcEEES8_iDpRKT_
FN:125,_ZN4Util7MessageIJNSt7__cxx1112basic_stringIcSt11char_traitsIcESaIcEEEEEEvS6_S6_iDpRKT_
FNDA:0,_ZN4Util7MessageIJNSt7__cxx1112basic_stringIcSt11char_traitsIcESaIcEEEEEEvS6_S6_iDpRKT_
FN:125,_ZN4Util7MessageIJdA2_cdS1_dEEEvNSt7__cxx1112basic_stringIcSt11char_traitsIcESaIcEEES7_iDpRKT_
FNDA:0,_ZN4Util7MessageIJdA2_cdS1_dEEEvNSt7__cxx1112basic_stringIcSt11char_traitsIcESaIcEEES7_iDpRKT_
FN:125,_ZN4Util7MessageIJEEEvNSt7__cxx1112basic_stringIcSt11char_traitsIcESaIcEEES6_iDpRKT_
FNDA:0,_ZN4Util7MessageIJEEEvNSt7__cxx1112basic_stringIcSt11char_traitsIcESaIcEEES6_iDpRKT_
FN:125,_ZN4Util7MessageIJA11_ciEEEvNSt7__cxx1112basic_stringIcSt11char_traitsIcESaIcEEES7_iDpRKT_
FNDA:0,_ZN4Util7MessageIJA11_ciEEEvNSt7__cxx1112basic_stringIcSt11char_traitsIcESaIcEEES7_iDpRKT_
FN:163,_ZN4Util7WarningIJA65_cEEEvNSt7__cxx1112basic_stringIcSt11char_traitsIcESaIcEEES7_iDpRKT_
FNDA:0,_ZN4Util7WarningIJA65_cEEEvNSt7__cxx1112basic_stringIcSt11char_traitsIcESaIcEEES7_iDpRKT_
FN:163,_ZN4Util7WarningIJA113_cEEEvNSt7__cxx1112basic_stringIcSt11char_traitsIcESaIcEEES7_iDpRKT_
FNDA:0,_ZN4Util7WarningIJA113_cEEEvNSt7__cxx1112basic_stringIcSt11char_traitsIcESaIcEEES7_iDpRKT_
FN:163,_ZN4Util7WarningIJNSt7__cxx1112basic_stringIcSt11char_traitsIcESaIcEEEEEEvS6_S6_iDpRKT_
FNDA:0,_ZN4Util7WarningIJNSt7__cxx1112basic_stringIcSt11char_traitsIcESaIcEEEEEEvS6_S6_iDpRKT_
FN:163,_ZN4Util7WarningIJA63_cEEEvNSt7__cxx1112basic_stringIcSt11char_traitsIcESaIcEEES7_iDpRKT_
FNDA:0,_ZN4Util7WarningIJA63_cEEEvNSt7__cxx1112basic_stringIcSt11char_traitsIcESaIcEEES7_iDpRKT_
FN:163,_ZN4Util7WarningIJA22_cNSt7__cxx1112basic_stringIcSt11char_traitsIcESaIcEEEA56_cEEEvS7_S7_iDpRKT_
FNDA:0,_ZN4Util7WarningIJA22_cNSt7__cxx1112basic_stringIcSt11char_traitsIcESaIcEEEA56_cEEEvS7_S7_iDpRKT_
FN:163,_ZN4Util7WarningIJA49_cEEEvNSt7__cxx1112basic_stringIcSt11char_traitsIcESaIcEEES7_iDpRKT_
FNDA:0,_ZN4Util7WarningIJA49_cEEEvNSt7__cxx1112basic_stringIcSt11char_traitsIcESaIcEEES7_iDpRKT_
FN:163,_ZN4Util7WarningIJA47_cEEEvNSt7__cxx1112basic_stringIcSt11char_traitsIcESaIcEEES7_iDpRKT_
FNDA:0,_ZN4Util7WarningIJA47_cEEEvNSt7__cxx1112basic_stringIcSt11char_traitsIcESaIcEEES7_iDpRKT_
FN:163,_ZN4Util7WarningIJEEEvNSt7__cxx1112basic_stringIcSt11char_traitsIcESaIcEEES6_iDpRKT_
FNDA:0,_ZN4Util7WarningIJEEEvNSt7__cxx1112basic_stringIcSt11char_traitsIcESaIcEEES6_iDpRKT_
DA:60,107
DA:62,0
DA:63,0
DA:64,0
DA:65,0
DA:66,0
DA:67,0
DA:70,0
DA:72,0
DA:73,0
DA:74,0
DA:76,0
DA:78,0
DA:82,0
DA:84,0
DA:86,0
DA:87,0
DA:88,0
DA:89,0
DA:90,0
DA:92,0
DA:94,0
DA:95,0
DA:97,0
DA:98,0
DA:100,0
DA:101,0
DA:82,0
DA:84,0
DA:86,0
DA:87,0
DA:88,0
DA:89,0
DA:90,0
DA:92,0
DA:94,0
DA:95,0
DA:97,0
DA:98,0
DA:100,0
DA:101,0
DA:82,0
DA:84,0
DA:86,0
DA:87,0
DA:88,0
DA:89,0
DA:90,0
DA:92,0
DA:94,0
DA:95,0
DA:97,0
DA:98,0
DA:100,0
DA:101,0
DA:82,0
DA:84,0
DA:86,0
DA:87,0
DA:88,0
DA:89,0
DA:90,0
DA:92,0
DA:94,0
DA:95,0
DA:97,0
DA:98,0
DA:100,0
DA:101,0
DA:82,0
DA:84,0
DA:86,0
DA:87,0
DA:88,0
DA:89,0
DA:90,0
DA:92,0
DA:94,0
DA:95,0
DA:97,0
DA:98,0
DA:100,0
DA:101,0
DA:82,0
DA:84,0
DA:86,0
DA:87,0
DA:88,0
DA:89,0
DA:90,0
DA:92,0
DA:94,0
DA:95,0
DA:97,0
DA:98,0
DA:100,0
DA:101,0
DA:82,0
DA:84,0
DA:86,0
DA:87,0
DA:88,0
DA:89,0
DA:90,0
DA:92,0
DA:94,0
DA:95,0
DA:97,0
DA:98,0
DA:100,0
DA:101,0
DA:82,0
DA:84,0
DA:86,0
DA:87,0
DA:88,0
DA:89,0
DA:90,0
DA:92,0
DA:94,0
DA:95,0
DA:97,0
DA:98,0
DA:100,0
DA:101,0
DA:82,0
DA:84,0
DA:86,0
DA:87,0
DA:88,0
DA:89,0
DA:90,0
DA:92,0
DA:94,0
DA:95,0
DA:97,0
DA:98,0
DA:100,0
DA:101,0
DA:82,0
DA:84,0
DA:86,0
DA:87,0
DA:88,0
DA:89,0
DA:90,0
DA:92,0
DA:94,0
DA:95,0
DA:97,0
DA:98,0
DA:100,0
DA:101,0
DA:82,0
DA:84,0
DA:86,0
DA:87,0
DA:88,0
DA:89,0
DA:90,0
DA:92,0
DA:94,0
DA:95,0
DA:97,0
DA:98,0
DA:100,0
DA:101,0
DA:82,0
DA:84,0
DA:86,0
DA:87,0
DA:88,0
DA:89,0
DA:90,0
DA:92,0
DA:94,0
DA:95,0
DA:97,0
DA:98,0
DA:100,0
DA:101,0
DA:82,0
DA:84,0
DA:86,0
DA:87,0
DA:88,0
DA:89,0
DA:90,0
DA:92,0
DA:94,0
DA:95,0
DA:97,0
DA:98,0
DA:100,0
DA:101,0
DA:82,0
DA:84,0
DA:86,0
DA:87,0
DA:88,0
DA:89,0
DA:90,0
DA:92,0
DA:94,0
DA:95,0
DA:97,0
DA:98,0
DA:100,0
DA:101,0
DA:82,0
DA:84,0
DA:86,0
DA:87,0
DA:88,0
DA:89,0
DA:90,0
DA:92,0
DA:94,0
DA:95,0
DA:97,0
DA:98,0
DA:100,0
DA:101,0
DA:82,0
DA:84,0
DA:86,0
DA:87,0
DA:88,0
DA:89,0
DA:90,0
DA:92,0
DA:94,0
DA:95,0
DA:97,0
DA:98,0
DA:100,0
DA:101,0
DA:82,0
DA:84,0
DA:86,0
DA:87,0
DA:88,0
DA:89,0
DA:90,0
DA:92,0
DA:94,0
DA:95,0
DA:97,0
DA:98,0
DA:100,0
DA:101,0
DA:82,0
DA:84,0
DA:86,0
DA:87,0
DA:88,0
DA:89,0
DA:90,0
DA:92,0
DA:94,0
DA:95,0
DA:97,0
DA:98,0
DA:100,0
DA:101,0
DA:82,0
DA:84,0
DA:86,0
DA:87,0
DA:88,0
DA:89,0
DA:90,0
DA:92,0
DA:94,0
DA:95,0
DA:97,0
DA:98,0
DA:100,0
DA:101,0
DA:82,0
DA:84,0
DA:86,0
DA:87,0
DA:88,0
DA:89,0
DA:90,0
DA:92,0
DA:94,0
DA:95,0
DA:97,0
DA:98,0
DA:100,0
DA:101,0
DA:82,0
DA:84,0
DA:86,0
DA:87,0
DA:88,0
DA:89,0
DA:90,0
DA:92,0
DA:94,0
DA:95,0
DA:97,0
DA:98,0
DA:100,0
DA:101,0
DA:82,0
DA:84,0
DA:86,0
DA:87,0
DA:88,0
DA:89,0
DA:90,0
DA:92,0
DA:94,0
DA:95,0
DA:97,0
DA:98,0
DA:100,0
DA:101,0
DA:82,0
DA:84,0
DA:86,0
DA:87,0
DA:88,0
DA:89,0
DA:90,0
DA:92,0
DA:94,0
DA:95,0
DA:97,0
DA:98,0
DA:100,0
DA:101,0
DA:82,0
DA:84,0
DA:86,0
DA:87,0
DA:88,0
DA:89,0
DA:90,0
DA:92,0
DA:94,0
DA:95,0
DA:97,0
DA:98,0
DA:100,0
DA:101,0
DA:82,0
DA:84,0
DA:86,0
DA:87,0
DA:88,0
DA:89,0
DA:90,0
DA:92,0
DA:94,0
DA:95,0
DA:97,0
DA:98,0
DA:100,0
DA:101,0
DA:82,0
DA:84,0
DA:86,0
DA:87,0
DA:88,0
DA:89,0
DA:90,0
DA:92,0
DA:94,0
DA:95,0
DA:97,0
DA:98,0
DA:100,0
DA:101,0
DA:82,0
DA:84,0
DA:86,0
DA:87,0
DA:88,0
DA:89,0
DA:90,0
DA:92,0
DA:94,0
DA:95,0
DA:97,0
DA:98,0
DA:100,0
DA:101,0
DA:82,0
DA:84,0
DA:86,0
DA:87,0
DA:88,0
DA:89,0
DA:90,0
DA:92,0
DA:94,0
DA:95,0
DA:97,0
DA:98,0
DA:100,0
DA:101,0
DA:82,0
DA:84,0
DA:86,0
DA:87,0
DA:88,0
DA:89,0
DA:90,0
DA:92,0
DA:94,0
DA:95,0
DA:97,0
DA:98,0
DA:100,0
DA:101,0
DA:82,0
DA:84,0
DA:86,0
DA:87,0
DA:88,0
DA:89,0
DA:90,0
DA:92,0
DA:94,0
DA:95,0
DA:97,0
DA:98,0
DA:100,0
DA:101,0
DA:82,0
DA:84,0
DA:86,0
DA:87,0
DA:88,0
DA:89,0
DA:90,0
DA:92,0
DA:94,0
DA:95,0
DA:97,0
DA:98,0
DA:100,0
DA:101,0
DA:82,0
DA:84,0
DA:86,0
DA:87,0
DA:88,0
DA:89,0
DA:90,0
DA:92,0
DA:94,0
DA:95,0
DA:97,0
DA:98,0
DA:100,0
DA:101,0
DA:82,0
DA:84,0
DA:86,0
DA:87,0
DA:88,0
DA:89,0
DA:90,0
DA:92,0
DA:94,0
DA:95,0
DA:97,0
DA:98,0
DA:100,0
DA:101,0
DA:82,0
DA:84,0
DA:86,0
DA:87,0
DA:88,0
DA:89,0
DA:90,0
DA:92,0
DA:94,0
DA:95,0
DA:97,0
DA:98,0
DA:100,0
DA:101,0
DA:82,0
DA:84,0
DA:86,0
DA:87,0
DA:88,0
DA:89,0
DA:90,0
DA:92,0
DA:94,0
DA:95,0
DA:97,0
DA:98,0
DA:100,0
DA:101,0
DA:82,0
DA:84,0
DA:86,0
DA:87,0
DA:88,0
DA:89,0
DA:90,0
DA:92,0
DA:94,0
DA:95,0
DA:97,0
DA:98,0
DA:100,0
DA:101,0
DA:82,0
DA:84,0
DA:86,0
DA:87,0
DA:88,0
DA:89,0
DA:90,0
DA:92,0
DA:94,0
DA:95,0
DA:97,0
DA:98,0
DA:100,0
DA:101,0
DA:82,0
DA:84,0
DA:86,0
DA:87,0
DA:88,0
DA:89,0
DA:90,0
DA:92,0
DA:94,0
DA:95,0
DA:97,0
DA:98,0
DA:100,0
DA:101,0
DA:82,0
DA:84,0
DA:86,0
DA:87,0
DA:88,0
DA:89,0
DA:90,0
DA:92,0
DA:94,0
DA:95,0
DA:97,0
DA:98,0
DA:100,0
DA:101,0
DA:82,0
DA:84,0
DA:86,0
DA:87,0
DA:88,0
DA:89,0
DA:90,0
DA:92,0
DA:94,0
DA:95,0
DA:97,0
DA:98,0
DA:100,0
DA:101,0
DA:82,0
DA:84,0
DA:86,0
DA:87,0
DA:88,0
DA:89,0
DA:90,0
DA:92,0
DA:94,0
DA:95,0
DA:97,0
DA:98,0
DA:100,0
DA:101,0
DA:82,0
DA:84,0
DA:86,0
DA:87,0
DA:88,0
DA:89,0
DA:90,0
DA:92,0
DA:94,0
DA:95,0
DA:97,0
DA:98,0
DA:100,0
DA:101,0
DA:82,0
DA:84,0
DA:86,0
DA:87,0
DA:88,0
DA:89,0
DA:90,0
DA:92,0
DA:94,0
DA:95,0
DA:97,0
DA:98,0
DA:100,0
DA:101,0
DA:82,0
DA:84,0
DA:86,0
DA:87,0
DA:88,0
DA:89,0
DA:90,0
DA:92,0
DA:94,0
DA:95,0
DA:97,0
DA:98,0
DA:100,0
DA:101,0
DA:82,0
DA:84,0
DA:86,0
DA:87,0
DA:88,0
DA:89,0
DA:90,0
DA:92,0
DA:94,0
DA:95,0
DA:97,0
DA:98,0
DA:100,0
DA:101,0
DA:82,0
DA:84,0
DA:86,0
DA:87,0
DA:88,0
DA:89,0
DA:90,0
DA:92,0
DA:94,0
DA:95,0
DA:97,0
DA:98,0
DA:100,0
DA:101,0
DA:82,0
DA:84,0
DA:86,0
DA:87,0
DA:88,0
DA:89,0
DA:90,0
DA:92,0
DA:94,0
DA:95,0
DA:97,0
DA:98,0
DA:100,0
DA:101,0
DA:82,0
DA:84,0
DA:86,0
DA:87,0
DA:88,0
DA:89,0
DA:90,0
DA:92,0
DA:94,0
DA:95,0
DA:97,0
DA:98,0
DA:100,0
DA:101,0
DA:82,0
DA:84,0
DA:86,0
DA:87,0
DA:88,0
DA:89,0
DA:90,0
DA:92,0
DA:94,0
DA:95,0
DA:97,0
DA:98,0
DA:100,0
DA:101,0
DA:82,0
DA:84,0
DA:86,0
DA:87,0
DA:88,0
DA:89,0
DA:90,0
DA:92,0
DA:94,0
DA:95,0
DA:97,0
DA:98,0
DA:100,0
DA:101,0
DA:82,0
DA:84,0
DA:86,0
DA:87,0
DA:88,0
DA:89,0
DA:90,0
DA:92,0
DA:94,0
DA:95,0
DA:97,0
DA:98,0
DA:100,0
DA:101,0
DA:82,0
DA:84,0
DA:86,0
DA:87,0
DA:88,0
DA:89,0
DA:90,0
DA:92,0
DA:94,0
DA:95,0
DA:97,0
DA:98,0
DA:100,0
DA:101,0
DA:82,0
DA:84,0
DA:86,0
DA:87,0
DA:88,0
DA:89,0
DA:90,0
DA:92,0
DA:94,0
DA:95,0
DA:97,0
DA:98,0
DA:100,0
DA:101,0
DA:82,0
DA:84,0
DA:86,0
DA:87,0
DA:88,0
DA:89,0
DA:90,0
DA:92,0
DA:94,0
DA:95,0
DA:97,0
DA:98,0
DA:100,0
DA:101,0
DA:82,0
DA:84,0
DA:86,0
DA:87,0
DA:88,0
DA:89,0
DA:90,0
DA:92,0
DA:94,0
DA:95,0
DA:97,0
DA:98,0
DA:100,0
DA:101,0
DA:82,0
DA:84,0
DA:86,0
DA:87,0
DA:88,0
DA:89,0
DA:90,0
DA:92,0
DA:94,0
DA:95,0
DA:97,0
DA:98,0
DA:100,0
DA:101,0
DA:82,0
DA:84,0
DA:86,0
DA:87,0
DA:88,0
DA:89,0
DA:90,0
DA:92,0
DA:94,0
DA:95,0
DA:97,0
DA:98,0
DA:100,0
DA:101,0
DA:125,0
DA:127,0
DA:129,0
DA:130,0
DA:131,0
DA:132,0
DA:133,0
DA:135,0
DA:137,0
DA:138,0
DA:140,0
DA:142,0
DA:144,0
DA:125,0
DA:127,0
DA:129,0
DA:130,0
DA:131,0
DA:132,0
DA:133,0
DA:135,0
DA:137,0
DA:138,0
DA:140,0
DA:142,0
DA:144,0
DA:125,0
DA:127,0
DA:129,0
DA:130,0
DA:131,0
DA:132,0
DA:133,0
DA:135,0
DA:137,0
DA:138,0
DA:140,0
DA:142,0
DA:144,0
DA:125,0
DA:127,0
DA:129,0
DA:130,0
DA:131,0
DA:132,0
DA:133,0
DA:135,0
DA:137,0
DA:138,0
DA:140,0
DA:142,0
DA:144,0
DA:125,0
DA:127,0
DA:129,0
DA:130,0
DA:131,0
DA:132,0
DA:133,0
DA:135,0
DA:137,0
DA:138,0
DA:140,0
DA:142,0
DA:144,0
DA:125,0
DA:127,0
DA:129,0
DA:130,0
DA:131,0
DA:132,0
DA:133,0
DA:135,0
DA:137,0
DA:138,0
DA:140,0
DA:142,0
DA:144,0
DA:125,0
DA:127,0
DA:129,0
DA:130,0
DA:131,0
DA:132,0
DA:133,0
DA:135,0
DA:137,0
DA:138,0
DA:140,0
DA:142,0
DA:144,0
DA:125,0
DA:127,0
DA:129,0
DA:130,0
DA:131,0
DA:132,0
DA:133,0
DA:135,0
DA:137,0
DA:138,0
DA:140,0
DA:142,0
DA:144,0
DA:125,0
DA:127,0
DA:129,0
DA:130,0
DA:131,0
DA:132,0
DA:133,0
DA:135,0
DA:137,0
DA:138,0
DA:140,0
DA:142,0
DA:144,0
DA:163,0
DA:165,0
DA:167,0
DA:168,0
DA:169,0
DA:170,0
DA:171,0
DA:173,0
DA:175,0
DA:176,0
DA:178,0
DA:180,0
DA:182,0
DA:163,0
DA:165,0
DA:167,0
DA:168,0
DA:169,0
DA:170,0
DA:171,0
DA:173,0
DA:175,0
DA:176,0
DA:178,0
DA:180,0
DA:182,0
DA:163,0
DA:165,0
DA:167,0
DA:168,0
DA:169,0
DA:170,0
DA:171,0
DA:173,0
DA:175,0
DA:176,0
DA:178,0
DA:180,0
DA:182,0
DA:163,0
DA:165,0
DA:167,0
DA:168,0
DA:169,0
DA:170,0
DA:171,0
DA:173,0
DA:175,0
DA:176,0
DA:178,0
DA:180,0
DA:182,0
DA:163,0
DA:165,0
DA:167,0
DA:168,0
DA:169,0
DA:170,0
DA:171,0
DA:173,0
DA:175,0
DA:176,0
DA:178,0
DA:180,0
DA:182,0
DA:163,0
DA:165,0
DA:167,0
DA:168,0
DA:169,0
DA:170,0
DA:171,0
DA:173,0
DA:175,0
DA:176,0
DA:178,0
DA:180,0
DA:182,0
DA:163,0
DA:165,0
DA:167,0
DA:168,0
DA:169,0
DA:170,0
DA:171,0
DA:173,0
DA:175,0
DA:176,0
DA:178,0
DA:180,0
DA:182,0
DA:163,0
DA:165,0
DA:167,0
DA:168,0
DA:169,0
DA:170,0
DA:171,0
DA:173,0
DA:175,0
DA:176,0
DA:178,0
DA:180,0
DA:182,0
DA:206,1007
DA:207,1007
DA:208,1007
DA:213,200
DA:214,200
DA:215,200
end_of_record
SF:/home/brunnels/Research/alamo/ext/amrex/3d-coverage-g++-23.08/include/AMReX_Parser_Y.H
FN:267,_ZN5amrex15parser_math_expIdEET_S1_
FNDA:0,_ZN5amrex15parser_math_expIdEET_S1_
FN:271,_ZN5amrex15parser_math_logIdEET_S1_
FNDA:0,_ZN5amrex15parser_math_logIdEET_S1_
FN:275,_ZN5amrex17parser_math_log10IdEET_S1_
FNDA:0,_ZN5amrex17parser_math_log10IdEET_S1_
FN:279,_ZN5amrex15parser_math_sinIdEET_S1_
FNDA:0,_ZN5amrex15parser_math_sinIdEET_S1_
FN:283,_ZN5amrex15parser_math_cosIdEET_S1_
FNDA:0,_ZN5amrex15parser_math_cosIdEET_S1_
FN:287,_ZN5amrex15parser_math_tanIdEET_S1_
FNDA:0,_ZN5amrex15parser_math_tanIdEET_S1_
FN:291,_ZN5amrex16parser_math_asinIdEET_S1_
FNDA:0,_ZN5amrex16parser_math_asinIdEET_S1_
FN:295,_ZN5amrex16parser_math_acosIdEET_S1_
FNDA:0,_ZN5amrex16parser_math_acosIdEET_S1_
FN:299,_ZN5amrex16parser_math_atanIdEET_S1_
FNDA:0,_ZN5amrex16parser_math_atanIdEET_S1_
FN:303,_ZN5amrex16parser_math_sinhIdEET_S1_
FNDA:0,_ZN5amrex16parser_math_sinhIdEET_S1_
FN:307,_ZN5amrex16parser_math_coshIdEET_S1_
FNDA:0,_ZN5amrex16parser_math_coshIdEET_S1_
FN:311,_ZN5amrex16parser_math_tanhIdEET_S1_
FNDA:0,_ZN5amrex16parser_math_tanhIdEET_S1_
FN:315,_ZN5amrex17parser_math_asinhIdEET_S1_
FNDA:0,_ZN5amrex17parser_math_asinhIdEET_S1_
FN:319,_ZN5amrex17parser_math_acoshIdEET_S1_
FNDA:0,_ZN5amrex17parser_math_acoshIdEET_S1_
FN:323,_ZN5amrex17parser_math_atanhIdEET_S1_
FNDA:0,_ZN5amrex17parser_math_atanhIdEET_S1_
FN:327,_ZN5amrex25parser_math_comp_ellint_1IdEET_S1_
FNDA:0,_ZN5amrex25parser_math_comp_ellint_1IdEET_S1_
FN:340,_ZN5amrex25parser_math_comp_ellint_2IdEET_S1_
FNDA:0,_ZN5amrex25parser_math_comp_ellint_2IdEET_S1_
FN:353,_ZN5amrex15parser_math_powIdEET_S1_S1_
FNDA:0,_ZN5amrex15parser_math_powIdEET_S1_S1_
FN:357,_ZN5amrex17parser_math_atan2IdEET_S1_S1_
FNDA:0,_ZN5amrex17parser_math_atan2IdEET_S1_S1_
FN:361,_ZN5amrex14parser_math_jnIdEET_iS1_
FNDA:0,_ZN5amrex14parser_math_jnIdEET_iS1_
DA:267,0
DA:271,0
DA:275,0
DA:279,0
DA:283,0
DA:287,0
DA:291,0
DA:295,0
DA:299,0
DA:303,0
DA:307,0
DA:311,0
DA:315,0
DA:319,0
DA:323,0
DA:327,0
DA:330,0
DA:340,0
DA:343,0
DA:353,0
DA:357,0
DA:361,0
DA:370,0
DA:377,0
DA:378,0
DA:379,0
DA:380,0
DA:381,0
DA:382,0
DA:383,0
DA:384,0
DA:385,0
DA:386,0
DA:387,0
DA:388,0
DA:389,0
DA:390,0
DA:391,0
DA:392,0
DA:393,0
DA:394,0
DA:395,0
DA:396,0
DA:397,0
DA:398,0
DA:399,0
DA:401,0
DA:408,0
DA:409,0
DA:410,0
DA:411,0
DA:412,0
DA:413,0
DA:414,0
DA:415,0
DA:416,0
DA:417,0
DA:418,0
DA:419,0
DA:420,0
DA:421,0
DA:422,0
DA:423,0
DA:424,0
DA:425,0
DA:426,0
DA:427,0
DA:428,0
DA:429,0
DA:430,0
DA:431,0
DA:432,0
DA:433,0
DA:434,0
DA:435,0
DA:436,0
DA:437,0
DA:438,0
DA:439,0
DA:441,0
end_of_record
SF:/home/brunnels/Research/alamo/ext/amrex/3d-coverage-g++-23.08/include/AMReX_FabArrayCommI.H
FN:8,_ZN5amrex8FabArrayINS_7BaseFabIN5Model5Solid6Linear9LaplacianEEEE11FBEP_nowaitIS5_S6_Li0EEEviiRKNS_7IntVectERKNS_11PeriodicityEbbb
FNDA:0,_ZN5amrex8FabArrayINS_7BaseFabIN5Model5Solid6Linear9LaplacianEEEE11FBEP_nowaitIS5_S6_Li0EEEviiRKNS_7IntVectERKNS_11PeriodicityEbbb
FN:8,_ZN5amrex8FabArrayINS_7BaseFabIdEEE11FBEP_nowaitIdS2_Li0EEEviiRKNS_7IntVectERKNS_11PeriodicityEbbb
FNDA:0,_ZN5amrex8FabArrayINS_7BaseFabIdEEE11FBEP_nowaitIdS2_Li0EEEviiRKNS_7IntVectERKNS_11PeriodicityEbbb
FN:8,_ZN5amrex8FabArrayINS_7BaseFabIN5Model5Solid6Affine2J2EEEE11FBEP_nowaitIS5_S6_Li0EEEviiRKNS_7IntVectERKNS_11PeriodicityEbbb
FNDA:0,_ZN5amrex8FabArrayINS_7BaseFabIN5Model5Solid6Affine2J2EEEE11FBEP_nowaitIS5_S6_Li0EEEviiRKNS_7IntVectERKNS_11PeriodicityEbbb
FN:8,_ZN5amrex8FabArrayINS_7BaseFabIN5Model5Solid6Linear5CubicEEEE11FBEP_nowaitIS5_S6_Li0EEEviiRKNS_7IntVectERKNS_11PeriodicityEbbb
FNDA:2,_ZN5amrex8FabArrayINS_7BaseFabIN5Model5Solid6Linear5CubicEEEE11FBEP_nowaitIS5_S6_Li0EEEviiRKNS_7IntVectERKNS_11PeriodicityEbbb
FN:8,_ZN5amrex8FabArrayINS_7BaseFabIN5Model5Solid6Affine5CubicEEEE11FBEP_nowaitIS5_S6_Li0EEEviiRKNS_7IntVectERKNS_11PeriodicityEbbb
FNDA:0,_ZN5amrex8FabArrayINS_7BaseFabIN5Model5Solid6Affine5CubicEEEE11FBEP_nowaitIS5_S6_Li0EEEviiRKNS_7IntVectERKNS_11PeriodicityEbbb
FN:8,_ZN5amrex8FabArrayINS_7BaseFabIN5Model5Solid7Elastic28PseudoLinearCubicPredeformedEEEE11FBEP_nowaitIS5_S6_Li0EEEviiRKNS_7IntVectERKNS_11PeriodicityEbbb
FNDA:0,_ZN5amrex8FabArrayINS_7BaseFabIN5Model5Solid7Elastic28PseudoLinearCubicPredeformedEEEE11FBEP_nowaitIS5_S6_Li0EEEviiRKNS_7IntVectERKNS_11PeriodicityEbbb
FN:8,_ZN5amrex8FabArrayINS_7BaseFabIN3Set7Matrix4ILi3ELi1EEEEEE11FBEP_nowaitIS4_S5_Li0EEEviiRKNS_7IntVectERKNS_11PeriodicityEbbb
FNDA:0,_ZN5amrex8FabArrayINS_7BaseFabIN3Set7Matrix4ILi3ELi1EEEEEE11FBEP_nowaitIS4_S5_Li0EEEviiRKNS_7IntVectERKNS_11PeriodicityEbbb
FN:8,_ZN5amrex8FabArrayINS_7BaseFabIN3Set7Matrix4ILi3ELi4EEEEEE11FBEP_nowaitIS4_S5_Li0EEEviiRKNS_7IntVectERKNS_11PeriodicityEbbb
FNDA:0,_ZN5amrex8FabArrayINS_7BaseFabIN3Set7Matrix4ILi3ELi4EEEEEE11FBEP_nowaitIS4_S5_Li0EEEviiRKNS_7IntVectERKNS_11PeriodicityEbbb
FN:8,_ZN5amrex8FabArrayINS_7BaseFabIN3Set7Matrix4ILi3ELi3EEEEEE11FBEP_nowaitIS4_S5_Li0EEEviiRKNS_7IntVectERKNS_11PeriodicityEbbb
FNDA:0,_ZN5amrex8FabArrayINS_7BaseFabIN3Set7Matrix4ILi3ELi3EEEEEE11FBEP_nowaitIS4_S5_Li0EEEviiRKNS_7IntVectERKNS_11PeriodicityEbbb
FN:8,_ZN5amrex8FabArrayINS_7BaseFabIN5Model5Solid6Linear9IsotropicEEEE11FBEP_nowaitIS5_S6_Li0EEEviiRKNS_7IntVectERKNS_11PeriodicityEbbb
FNDA:0,_ZN5amrex8FabArrayINS_7BaseFabIN5Model5Solid6Linear9IsotropicEEEE11FBEP_nowaitIS5_S6_Li0EEEviiRKNS_7IntVectERKNS_11PeriodicityEbbb
FN:8,_ZN5amrex8FabArrayINS_7BaseFabIN3Set7Matrix4ILi3ELi6EEEEEE11FBEP_nowaitIS4_S5_Li0EEEviiRKNS_7IntVectERKNS_11PeriodicityEbbb
FNDA:0,_ZN5amrex8FabArrayINS_7BaseFabIN3Set7Matrix4ILi3ELi6EEEEEE11FBEP_nowaitIS4_S5_Li0EEEviiRKNS_7IntVectERKNS_11PeriodicityEbbb
FN:8,_ZN5amrex8FabArrayINS_7BaseFabIN5Eigen6MatrixIdLi3ELi3ELi0ELi3ELi3EEEEEE11FBEP_nowaitIS4_S5_Li0EEEviiRKNS_7IntVectERKNS_11PeriodicityEbbb
FNDA:0,_ZN5amrex8FabArrayINS_7BaseFabIN5Eigen6MatrixIdLi3ELi3ELi0ELi3ELi3EEEEEE11FBEP_nowaitIS4_S5_Li0EEEviiRKNS_7IntVectERKNS_11PeriodicityEbbb
FN:8,_ZN5amrex8FabArrayINS_7BaseFabIN5Model5Solid7Elastic17PseudoLinearCubicEEEE11FBEP_nowaitIS5_S6_Li0EEEviiRKNS_7IntVectERKNS_11PeriodicityEbbb
FNDA:2,_ZN5amrex8FabArrayINS_7BaseFabIN5Model5Solid7Elastic17PseudoLinearCubicEEEE11FBEP_nowaitIS5_S6_Li0EEEviiRKNS_7IntVectERKNS_11PeriodicityEbbb
FN:8,_ZN5amrex8FabArrayINS_7BaseFabIN5Eigen6MatrixIdLi3ELi1ELi0ELi3ELi1EEEEEE11FBEP_nowaitIS4_S5_Li0EEEviiRKNS_7IntVectERKNS_11PeriodicityEbbb
FNDA:0,_ZN5amrex8FabArrayINS_7BaseFabIN5Eigen6MatrixIdLi3ELi1ELi0ELi3ELi1EEEEEE11FBEP_nowaitIS4_S5_Li0EEEviiRKNS_7IntVectERKNS_11PeriodicityEbbb
FN:8,_ZN5amrex8FabArrayINS_7BaseFabIN5Model5Solid6Affine9IsotropicEEEE11FBEP_nowaitIS5_S6_Li0EEEviiRKNS_7IntVectERKNS_11PeriodicityEbbb
FNDA:0,_ZN5amrex8FabArrayINS_7BaseFabIN5Model5Solid6Affine9IsotropicEEEE11FBEP_nowaitIS5_S6_Li0EEEviiRKNS_7IntVectERKNS_11PeriodicityEbbb
FN:8,_ZN5amrex8FabArrayINS_7BaseFabIN5Model5Solid6Linear19IsotropicDegradableEEEE11FBEP_nowaitIS5_S6_Li0EEEviiRKNS_7IntVectERKNS_11PeriodicityEbbb
FNDA:0,_ZN5amrex8FabArrayINS_7BaseFabIN5Model5Solid6Linear19IsotropicDegradableEEEE11FBEP_nowaitIS5_S6_Li0EEEviiRKNS_7IntVectERKNS_11PeriodicityEbbb
FN:8,_ZN5amrex8FabArrayINS_7BaseFabIN5Model5Solid7Elastic10NeoHookeanEEEE11FBEP_nowaitIS5_S6_Li0EEEviiRKNS_7IntVectERKNS_11PeriodicityEbbb
FNDA:0,_ZN5amrex8FabArrayINS_7BaseFabIN5Model5Solid7Elastic10NeoHookeanEEEE11FBEP_nowaitIS5_S6_Li0EEEviiRKNS_7IntVectERKNS_11PeriodicityEbbb
FN:8,_ZN5amrex8FabArrayINS_7BaseFabIN5Model5Solid6Affine9HexagonalEEEE11FBEP_nowaitIS5_S6_Li0EEEviiRKNS_7IntVectERKNS_11PeriodicityEbbb
FNDA:0,_ZN5amrex8FabArrayINS_7BaseFabIN5Model5Solid6Affine9HexagonalEEEE11FBEP_nowaitIS5_S6_Li0EEEviiRKNS_7IntVectERKNS_11PeriodicityEbbb
FN:8,_ZN5amrex8FabArrayINS_9FArrayBoxEE11FBEP_nowaitIdS1_Li0EEEviiRKNS_7IntVectERKNS_11PeriodicityEbbb
FNDA:0,_ZN5amrex8FabArrayINS_9FArrayBoxEE11FBEP_nowaitIdS1_Li0EEEviiRKNS_7IntVectERKNS_11PeriodicityEbbb
FN:168,_ZN5amrex8FabArrayINS_7BaseFabIN5Model5Solid6Affine5CubicEEEE19FillBoundary_finishIS5_S6_Li0EEEvv
FNDA:0,_ZN5amrex8FabArrayINS_7BaseFabIN5Model5Solid6Affine5CubicEEEE19FillBoundary_finishIS5_S6_Li0EEEvv
FN:168,_ZN5amrex8FabArrayINS_7BaseFabIN5Eigen6MatrixIdLi3ELi1ELi0ELi3ELi1EEEEEE19FillBoundary_finishIS4_S5_Li0EEEvv
FNDA:0,_ZN5amrex8FabArrayINS_7BaseFabIN5Eigen6MatrixIdLi3ELi1ELi0ELi3ELi1EEEEEE19FillBoundary_finishIS4_S5_Li0EEEvv
FN:168,_ZN5amrex8FabArrayINS_7BaseFabIN5Model5Solid6Linear9IsotropicEEEE19FillBoundary_finishIS5_S6_Li0EEEvv
FNDA:0,_ZN5amrex8FabArrayINS_7BaseFabIN5Model5Solid6Linear9IsotropicEEEE19FillBoundary_finishIS5_S6_Li0EEEvv
FN:168,_ZN5amrex8FabArrayINS_7BaseFabIN5Model5Solid6Linear5CubicEEEE19FillBoundary_finishIS5_S6_Li0EEEvv
FNDA:2,_ZN5amrex8FabArrayINS_7BaseFabIN5Model5Solid6Linear5CubicEEEE19FillBoundary_finishIS5_S6_Li0EEEvv
FN:168,_ZN5amrex8FabArrayINS_7BaseFabIN5Model5Solid6Affine9HexagonalEEEE19FillBoundary_finishIS5_S6_Li0EEEvv
FNDA:0,_ZN5amrex8FabArrayINS_7BaseFabIN5Model5Solid6Affine9HexagonalEEEE19FillBoundary_finishIS5_S6_Li0EEEvv
FN:168,_ZN5amrex8FabArrayINS_7BaseFabIN5Model5Solid6Linear9LaplacianEEEE19FillBoundary_finishIS5_S6_Li0EEEvv
FNDA:0,_ZN5amrex8FabArrayINS_7BaseFabIN5Model5Solid6Linear9LaplacianEEEE19FillBoundary_finishIS5_S6_Li0EEEvv
FN:168,_ZN5amrex8FabArrayINS_7BaseFabIN5Model5Solid7Elastic10NeoHookeanEEEE19FillBoundary_finishIS5_S6_Li0EEEvv
FNDA:0,_ZN5amrex8FabArrayINS_7BaseFabIN5Model5Solid7Elastic10NeoHookeanEEEE19FillBoundary_finishIS5_S6_Li0EEEvv
FN:168,_ZN5amrex8FabArrayINS_9FArrayBoxEE19FillBoundary_finishIdS1_Li0EEEvv
FNDA:0,_ZN5amrex8FabArrayINS_9FArrayBoxEE19FillBoundary_finishIdS1_Li0EEEvv
FN:168,_ZN5amrex8FabArrayINS_7BaseFabIN5Model5Solid6Linear19IsotropicDegradableEEEE19FillBoundary_finishIS5_S6_Li0EEEvv
FNDA:0,_ZN5amrex8FabArrayINS_7BaseFabIN5Model5Solid6Linear19IsotropicDegradableEEEE19FillBoundary_finishIS5_S6_Li0EEEvv
FN:168,_ZN5amrex8FabArrayINS_7BaseFabIN5Model5Solid6Affine9IsotropicEEEE19FillBoundary_finishIS5_S6_Li0EEEvv
FNDA:0,_ZN5amrex8FabArrayINS_7BaseFabIN5Model5Solid6Affine9IsotropicEEEE19FillBoundary_finishIS5_S6_Li0EEEvv
FN:168,_ZN5amrex8FabArrayINS_7BaseFabIN5Eigen6MatrixIdLi3ELi3ELi0ELi3ELi3EEEEEE19FillBoundary_finishIS4_S5_Li0EEEvv
FNDA:0,_ZN5amrex8FabArrayINS_7BaseFabIN5Eigen6MatrixIdLi3ELi3ELi0ELi3ELi3EEEEEE19FillBoundary_finishIS4_S5_Li0EEEvv
FN:168,_ZN5amrex8FabArrayINS_7BaseFabIN3Set7Matrix4ILi3ELi6EEEEEE19FillBoundary_finishIS4_S5_Li0EEEvv
FNDA:0,_ZN5amrex8FabArrayINS_7BaseFabIN3Set7Matrix4ILi3ELi6EEEEEE19FillBoundary_finishIS4_S5_Li0EEEvv
FN:168,_ZN5amrex8FabArrayINS_7BaseFabIdEEE19FillBoundary_finishIdS2_Li0EEEvv
FNDA:0,_ZN5amrex8FabArrayINS_7BaseFabIdEEE19FillBoundary_finishIdS2_Li0EEEvv
FN:168,_ZN5amrex8FabArrayINS_7BaseFabIN3Set7Matrix4ILi3ELi3EEEEEE19FillBoundary_finishIS4_S5_Li0EEEvv
FNDA:0,_ZN5amrex8FabArrayINS_7BaseFabIN3Set7Matrix4ILi3ELi3EEEEEE19FillBoundary_finishIS4_S5_Li0EEEvv
FN:168,_ZN5amrex8FabArrayINS_7BaseFabIN3Set7Matrix4ILi3ELi4EEEEEE19FillBoundary_finishIS4_S5_Li0EEEvv
FNDA:0,_ZN5amrex8FabArrayINS_7BaseFabIN3Set7Matrix4ILi3ELi4EEEEEE19FillBoundary_finishIS4_S5_Li0EEEvv
FN:168,_ZN5amrex8FabArrayINS_7BaseFabIN3Set7Matrix4ILi3ELi1EEEEEE19FillBoundary_finishIS4_S5_Li0EEEvv
FNDA:0,_ZN5amrex8FabArrayINS_7BaseFabIN3Set7Matrix4ILi3ELi1EEEEEE19FillBoundary_finishIS4_S5_Li0EEEvv
FN:168,_ZN5amrex8FabArrayINS_7BaseFabIN5Model5Solid6Affine2J2EEEE19FillBoundary_finishIS5_S6_Li0EEEvv
FNDA:0,_ZN5amrex8FabArrayINS_7BaseFabIN5Model5Solid6Affine2J2EEEE19FillBoundary_finishIS5_S6_Li0EEEvv
FN:168,_ZN5amrex8FabArrayINS_7BaseFabIN5Model5Solid7Elastic28PseudoLinearCubicPredeformedEEEE19FillBoundary_finishIS5_S6_Li0EEEvv
FNDA:0,_ZN5amrex8FabArrayINS_7BaseFabIN5Model5Solid7Elastic28PseudoLinearCubicPredeformedEEEE19FillBoundary_finishIS5_S6_Li0EEEvv
FN:168,_ZN5amrex8FabArrayINS_7BaseFabIN5Model5Solid7Elastic17PseudoLinearCubicEEEE19FillBoundary_finishIS5_S6_Li0EEEvv
FNDA:2,_ZN5amrex8FabArrayINS_7BaseFabIN5Model5Solid7Elastic17PseudoLinearCubicEEEE19FillBoundary_finishIS5_S6_Li0EEEvv
FN:252,_ZN5amrex8FabArrayINS_7BaseFabIN5Model5Solid6Affine5CubicEEEE12ParallelCopyERKS7_iiiRKNS_7IntVectESC_RKNS_11PeriodicityENS_12FabArrayBase4CpOpEPKNSG_3CPCE
FNDA:0,_ZN5amrex8FabArrayINS_7BaseFabIN5Model5Solid6Affine5CubicEEEE12ParallelCopyERKS7_iiiRKNS_7IntVectESC_RKNS_11PeriodicityENS_12FabArrayBase4CpOpEPKNSG_3CPCE
FN:252,_ZN5amrex8FabArrayINS_7BaseFabIN5Model5Solid7Elastic10NeoHookeanEEEE12ParallelCopyERKS7_iiiRKNS_7IntVectESC_RKNS_11PeriodicityENS_12FabArrayBase4CpOpEPKNSG_3CPCE
FNDA:0,_ZN5amrex8FabArrayINS_7BaseFabIN5Model5Solid7Elastic10NeoHookeanEEEE12ParallelCopyERKS7_iiiRKNS_7IntVectESC_RKNS_11PeriodicityENS_12FabArrayBase4CpOpEPKNSG_3CPCE
FN:252,_ZN5amrex8FabArrayINS_7BaseFabIN5Model5Solid6Linear9LaplacianEEEE12ParallelCopyERKS7_iiiRKNS_7IntVectESC_RKNS_11PeriodicityENS_12FabArrayBase4CpOpEPKNSG_3CPCE
FNDA:0,_ZN5amrex8FabArrayINS_7BaseFabIN5Model5Solid6Linear9LaplacianEEEE12ParallelCopyERKS7_iiiRKNS_7IntVectESC_RKNS_11PeriodicityENS_12FabArrayBase4CpOpEPKNSG_3CPCE
FN:252,_ZN5amrex8FabArrayINS_7BaseFabIN5Model5Solid7Elastic17PseudoLinearCubicEEEE12ParallelCopyERKS7_iiiRKNS_7IntVectESC_RKNS_11PeriodicityENS_12FabArrayBase4CpOpEPKNSG_3CPCE
FNDA:0,_ZN5amrex8FabArrayINS_7BaseFabIN5Model5Solid7Elastic17PseudoLinearCubicEEEE12ParallelCopyERKS7_iiiRKNS_7IntVectESC_RKNS_11PeriodicityENS_12FabArrayBase4CpOpEPKNSG_3CPCE
FN:252,_ZN5amrex8FabArrayINS_7BaseFabIN5Model5Solid6Affine9HexagonalEEEE12ParallelCopyERKS7_iiiRKNS_7IntVectESC_RKNS_11PeriodicityENS_12FabArrayBase4CpOpEPKNSG_3CPCE
FNDA:0,_ZN5amrex8FabArrayINS_7BaseFabIN5Model5Solid6Affine9HexagonalEEEE12ParallelCopyERKS7_iiiRKNS_7IntVectESC_RKNS_11PeriodicityENS_12FabArrayBase4CpOpEPKNSG_3CPCE
FN:252,_ZN5amrex8FabArrayINS_7BaseFabIN5Eigen6MatrixIdLi3ELi3ELi0ELi3ELi3EEEEEE12ParallelCopyERKS6_iiiRKNS_7IntVectESB_RKNS_11PeriodicityENS_12FabArrayBase4CpOpEPKNSF_3CPCE
FNDA:0,_ZN5amrex8FabArrayINS_7BaseFabIN5Eigen6MatrixIdLi3ELi3ELi0ELi3ELi3EEEEEE12ParallelCopyERKS6_iiiRKNS_7IntVectESB_RKNS_11PeriodicityENS_12FabArrayBase4CpOpEPKNSF_3CPCE
FN:252,_ZN5amrex8FabArrayINS_7BaseFabIN5Model5Solid6Linear5CubicEEEE12ParallelCopyERKS7_iiiRKNS_7IntVectESC_RKNS_11PeriodicityENS_12FabArrayBase4CpOpEPKNSG_3CPCE
FNDA:0,_ZN5amrex8FabArrayINS_7BaseFabIN5Model5Solid6Linear5CubicEEEE12ParallelCopyERKS7_iiiRKNS_7IntVectESC_RKNS_11PeriodicityENS_12FabArrayBase4CpOpEPKNSG_3CPCE
FN:252,_ZN5amrex8FabArrayINS_7BaseFabIN5Model5Solid7Elastic28PseudoLinearCubicPredeformedEEEE12ParallelCopyERKS7_iiiRKNS_7IntVectESC_RKNS_11PeriodicityENS_12FabArrayBase4CpOpEPKNSG_3CPCE
FNDA:0,_ZN5amrex8FabArrayINS_7BaseFabIN5Model5Solid7Elastic28PseudoLinearCubicPredeformedEEEE12ParallelCopyERKS7_iiiRKNS_7IntVectESC_RKNS_11PeriodicityENS_12FabArrayBase4CpOpEPKNSG_3CPCE
FN:252,_ZN5amrex8FabArrayINS_7BaseFabIN5Model5Solid6Linear9IsotropicEEEE12ParallelCopyERKS7_iiiRKNS_7IntVectESC_RKNS_11PeriodicityENS_12FabArrayBase4CpOpEPKNSG_3CPCE
FNDA:0,_ZN5amrex8FabArrayINS_7BaseFabIN5Model5Solid6Linear9IsotropicEEEE12ParallelCopyERKS7_iiiRKNS_7IntVectESC_RKNS_11PeriodicityENS_12FabArrayBase4CpOpEPKNSG_3CPCE
FN:252,_ZN5amrex8FabArrayINS_7BaseFabIN5Model5Solid6Affine2J2EEEE12ParallelCopyERKS7_iiiRKNS_7IntVectESC_RKNS_11PeriodicityENS_12FabArrayBase4CpOpEPKNSG_3CPCE
FNDA:0,_ZN5amrex8FabArrayINS_7BaseFabIN5Model5Solid6Affine2J2EEEE12ParallelCopyERKS7_iiiRKNS_7IntVectESC_RKNS_11PeriodicityENS_12FabArrayBase4CpOpEPKNSG_3CPCE
FN:252,_ZN5amrex8FabArrayINS_7BaseFabIN5Model5Solid6Linear19IsotropicDegradableEEEE12ParallelCopyERKS7_iiiRKNS_7IntVectESC_RKNS_11PeriodicityENS_12FabArrayBase4CpOpEPKNSG_3CPCE
FNDA:0,_ZN5amrex8FabArrayINS_7BaseFabIN5Model5Solid6Linear19IsotropicDegradableEEEE12ParallelCopyERKS7_iiiRKNS_7IntVectESC_RKNS_11PeriodicityENS_12FabArrayBase4CpOpEPKNSG_3CPCE
FN:252,_ZN5amrex8FabArrayINS_7BaseFabIN5Eigen6MatrixIdLi3ELi1ELi0ELi3ELi1EEEEEE12ParallelCopyERKS6_iiiRKNS_7IntVectESB_RKNS_11PeriodicityENS_12FabArrayBase4CpOpEPKNSF_3CPCE
FNDA:0,_ZN5amrex8FabArrayINS_7BaseFabIN5Eigen6MatrixIdLi3ELi1ELi0ELi3ELi1EEEEEE12ParallelCopyERKS6_iiiRKNS_7IntVectESB_RKNS_11PeriodicityENS_12FabArrayBase4CpOpEPKNSF_3CPCE
FN:252,_ZN5amrex8FabArrayINS_7BaseFabIN5Model5Solid6Affine9IsotropicEEEE12ParallelCopyERKS7_iiiRKNS_7IntVectESC_RKNS_11PeriodicityENS_12FabArrayBase4CpOpEPKNSG_3CPCE
FNDA:0,_ZN5amrex8FabArrayINS_7BaseFabIN5Model5Solid6Affine9IsotropicEEEE12ParallelCopyERKS7_iiiRKNS_7IntVectESC_RKNS_11PeriodicityENS_12FabArrayBase4CpOpEPKNSG_3CPCE
FN:270,_ZN5amrex8FabArrayINS_7BaseFabIN5Model5Solid6Linear9IsotropicEEEE19ParallelCopyToGhostERKS7_iiiRKNS_7IntVectESC_RKNS_11PeriodicityE
FNDA:0,_ZN5amrex8FabArrayINS_7BaseFabIN5Model5Solid6Linear9IsotropicEEEE19ParallelCopyToGhostERKS7_iiiRKNS_7IntVectESC_RKNS_11PeriodicityE
FN:270,_ZN5amrex8FabArrayINS_7BaseFabIN5Model5Solid6Linear5CubicEEEE19ParallelCopyToGhostERKS7_iiiRKNS_7IntVectESC_RKNS_11PeriodicityE
FNDA:0,_ZN5amrex8FabArrayINS_7BaseFabIN5Model5Solid6Linear5CubicEEEE19ParallelCopyToGhostERKS7_iiiRKNS_7IntVectESC_RKNS_11PeriodicityE
FN:270,_ZN5amrex8FabArrayINS_7BaseFabIN5Model5Solid6Affine5CubicEEEE19ParallelCopyToGhostERKS7_iiiRKNS_7IntVectESC_RKNS_11PeriodicityE
FNDA:0,_ZN5amrex8FabArrayINS_7BaseFabIN5Model5Solid6Affine5CubicEEEE19ParallelCopyToGhostERKS7_iiiRKNS_7IntVectESC_RKNS_11PeriodicityE
FN:270,_ZN5amrex8FabArrayINS_7BaseFabIN5Model5Solid6Affine9IsotropicEEEE19ParallelCopyToGhostERKS7_iiiRKNS_7IntVectESC_RKNS_11PeriodicityE
FNDA:0,_ZN5amrex8FabArrayINS_7BaseFabIN5Model5Solid6Affine9IsotropicEEEE19ParallelCopyToGhostERKS7_iiiRKNS_7IntVectESC_RKNS_11PeriodicityE
FN:270,_ZN5amrex8FabArrayINS_7BaseFabIN5Model5Solid6Affine2J2EEEE19ParallelCopyToGhostERKS7_iiiRKNS_7IntVectESC_RKNS_11PeriodicityE
FNDA:0,_ZN5amrex8FabArrayINS_7BaseFabIN5Model5Solid6Affine2J2EEEE19ParallelCopyToGhostERKS7_iiiRKNS_7IntVectESC_RKNS_11PeriodicityE
FN:270,_ZN5amrex8FabArrayINS_7BaseFabIN5Eigen6MatrixIdLi3ELi3ELi0ELi3ELi3EEEEEE19ParallelCopyToGhostERKS6_iiiRKNS_7IntVectESB_RKNS_11PeriodicityE
FNDA:0,_ZN5amrex8FabArrayINS_7BaseFabIN5Eigen6MatrixIdLi3ELi3ELi0ELi3ELi3EEEEEE19ParallelCopyToGhostERKS6_iiiRKNS_7IntVectESB_RKNS_11PeriodicityE
FN:270,_ZN5amrex8FabArrayINS_7BaseFabIN5Eigen6MatrixIdLi3ELi1ELi0ELi3ELi1EEEEEE19ParallelCopyToGhostERKS6_iiiRKNS_7IntVectESB_RKNS_11PeriodicityE
FNDA:0,_ZN5amrex8FabArrayINS_7BaseFabIN5Eigen6MatrixIdLi3ELi1ELi0ELi3ELi1EEEEEE19ParallelCopyToGhostERKS6_iiiRKNS_7IntVectESB_RKNS_11PeriodicityE
FN:270,_ZN5amrex8FabArrayINS_7BaseFabIN5Model5Solid6Linear19IsotropicDegradableEEEE19ParallelCopyToGhostERKS7_iiiRKNS_7IntVectESC_RKNS_11PeriodicityE
FNDA:0,_ZN5amrex8FabArrayINS_7BaseFabIN5Model5Solid6Linear19IsotropicDegradableEEEE19ParallelCopyToGhostERKS7_iiiRKNS_7IntVectESC_RKNS_11PeriodicityE
FN:270,_ZN5amrex8FabArrayINS_7BaseFabIN5Model5Solid6Affine9HexagonalEEEE19ParallelCopyToGhostERKS7_iiiRKNS_7IntVectESC_RKNS_11PeriodicityE
FNDA:0,_ZN5amrex8FabArrayINS_7BaseFabIN5Model5Solid6Affine9HexagonalEEEE19ParallelCopyToGhostERKS7_iiiRKNS_7IntVectESC_RKNS_11PeriodicityE
FN:270,_ZN5amrex8FabArrayINS_7BaseFabIN5Model5Solid7Elastic28PseudoLinearCubicPredeformedEEEE19ParallelCopyToGhostERKS7_iiiRKNS_7IntVectESC_RKNS_11PeriodicityE
FNDA:0,_ZN5amrex8FabArrayINS_7BaseFabIN5Model5Solid7Elastic28PseudoLinearCubicPredeformedEEEE19ParallelCopyToGhostERKS7_iiiRKNS_7IntVectESC_RKNS_11PeriodicityE
FN:270,_ZN5amrex8FabArrayINS_7BaseFabIN5Model5Solid6Linear9LaplacianEEEE19ParallelCopyToGhostERKS7_iiiRKNS_7IntVectESC_RKNS_11PeriodicityE
FNDA:0,_ZN5amrex8FabArrayINS_7BaseFabIN5Model5Solid6Linear9LaplacianEEEE19ParallelCopyToGhostERKS7_iiiRKNS_7IntVectESC_RKNS_11PeriodicityE
FN:270,_ZN5amrex8FabArrayINS_7BaseFabIN5Model5Solid7Elastic17PseudoLinearCubicEEEE19ParallelCopyToGhostERKS7_iiiRKNS_7IntVectESC_RKNS_11PeriodicityE
FNDA:0,_ZN5amrex8FabArrayINS_7BaseFabIN5Model5Solid7Elastic17PseudoLinearCubicEEEE19ParallelCopyToGhostERKS7_iiiRKNS_7IntVectESC_RKNS_11PeriodicityE
FN:270,_ZN5amrex8FabArrayINS_7BaseFabIN5Model5Solid7Elastic10NeoHookeanEEEE19ParallelCopyToGhostERKS7_iiiRKNS_7IntVectESC_RKNS_11PeriodicityE
FNDA:0,_ZN5amrex8FabArrayINS_7BaseFabIN5Model5Solid7Elastic10NeoHookeanEEEE19ParallelCopyToGhostERKS7_iiiRKNS_7IntVectESC_RKNS_11PeriodicityE
FN:309,_ZN5amrex8FabArrayINS_7BaseFabIN5Model5Solid6Affine9HexagonalEEEE19ParallelCopy_nowaitERKS7_iiiRKNS_7IntVectESC_RKNS_11PeriodicityENS_12FabArrayBase4CpOpEPKNSG_3CPCEb
FNDA:0,_ZN5amrex8FabArrayINS_7BaseFabIN5Model5Solid6Affine9HexagonalEEEE19ParallelCopy_nowaitERKS7_iiiRKNS_7IntVectESC_RKNS_11PeriodicityENS_12FabArrayBase4CpOpEPKNSG_3CPCEb
FN:309,_ZN5amrex8FabArrayINS_7BaseFabIN5Model5Solid7Elastic28PseudoLinearCubicPredeformedEEEE19ParallelCopy_nowaitERKS7_iiiRKNS_7IntVectESC_RKNS_11PeriodicityENS_12FabArrayBase4CpOpEPKNSG_3CPCEb
FNDA:0,_ZN5amrex8FabArrayINS_7BaseFabIN5Model5Solid7Elastic28PseudoLinearCubicPredeformedEEEE19ParallelCopy_nowaitERKS7_iiiRKNS_7IntVectESC_RKNS_11PeriodicityENS_12FabArrayBase4CpOpEPKNSG_3CPCEb
FN:309,_ZN5amrex8FabArrayINS_7BaseFabIN5Model5Solid6Linear9IsotropicEEEE19ParallelCopy_nowaitERKS7_iiiRKNS_7IntVectESC_RKNS_11PeriodicityENS_12FabArrayBase4CpOpEPKNSG_3CPCEb
FNDA:0,_ZN5amrex8FabArrayINS_7BaseFabIN5Model5Solid6Linear9IsotropicEEEE19ParallelCopy_nowaitERKS7_iiiRKNS_7IntVectESC_RKNS_11PeriodicityENS_12FabArrayBase4CpOpEPKNSG_3CPCEb
FN:309,_ZN5amrex8FabArrayINS_7BaseFabIN5Model5Solid6Linear5CubicEEEE19ParallelCopy_nowaitERKS7_iiiRKNS_7IntVectESC_RKNS_11PeriodicityENS_12FabArrayBase4CpOpEPKNSG_3CPCEb
FNDA:0,_ZN5amrex8FabArrayINS_7BaseFabIN5Model5Solid6Linear5CubicEEEE19ParallelCopy_nowaitERKS7_iiiRKNS_7IntVectESC_RKNS_11PeriodicityENS_12FabArrayBase4CpOpEPKNSG_3CPCEb
FN:309,_ZN5amrex8FabArrayINS_7BaseFabIN5Model5Solid6Affine9IsotropicEEEE19ParallelCopy_nowaitERKS7_iiiRKNS_7IntVectESC_RKNS_11PeriodicityENS_12FabArrayBase4CpOpEPKNSG_3CPCEb
FNDA:0,_ZN5amrex8FabArrayINS_7BaseFabIN5Model5Solid6Affine9IsotropicEEEE19ParallelCopy_nowaitERKS7_iiiRKNS_7IntVectESC_RKNS_11PeriodicityENS_12FabArrayBase4CpOpEPKNSG_3CPCEb
FN:309,_ZN5amrex8FabArrayINS_7BaseFabIN5Model5Solid6Linear9LaplacianEEEE19ParallelCopy_nowaitERKS7_iiiRKNS_7IntVectESC_RKNS_11PeriodicityENS_12FabArrayBase4CpOpEPKNSG_3CPCEb
FNDA:0,_ZN5amrex8FabArrayINS_7BaseFabIN5Model5Solid6Linear9LaplacianEEEE19ParallelCopy_nowaitERKS7_iiiRKNS_7IntVectESC_RKNS_11PeriodicityENS_12FabArrayBase4CpOpEPKNSG_3CPCEb
FN:309,_ZN5amrex8FabArrayINS_7BaseFabIN5Model5Solid7Elastic17PseudoLinearCubicEEEE19ParallelCopy_nowaitERKS7_iiiRKNS_7IntVectESC_RKNS_11PeriodicityENS_12FabArrayBase4CpOpEPKNSG_3CPCEb
FNDA:0,_ZN5amrex8FabArrayINS_7BaseFabIN5Model5Solid7Elastic17PseudoLinearCubicEEEE19ParallelCopy_nowaitERKS7_iiiRKNS_7IntVectESC_RKNS_11PeriodicityENS_12FabArrayBase4CpOpEPKNSG_3CPCEb
FN:309,_ZN5amrex8FabArrayINS_7BaseFabIN5Eigen6MatrixIdLi3ELi3ELi0ELi3ELi3EEEEEE19ParallelCopy_nowaitERKS6_iiiRKNS_7IntVectESB_RKNS_11PeriodicityENS_12FabArrayBase4CpOpEPKNSF_3CPCEb
FNDA:0,_ZN5amrex8FabArrayINS_7BaseFabIN5Eigen6MatrixIdLi3ELi3ELi0ELi3ELi3EEEEEE19ParallelCopy_nowaitERKS6_iiiRKNS_7IntVectESB_RKNS_11PeriodicityENS_12FabArrayBase4CpOpEPKNSF_3CPCEb
FN:309,_ZN5amrex8FabArrayINS_7BaseFabIN5Model5Solid6Affine2J2EEEE19ParallelCopy_nowaitERKS7_iiiRKNS_7IntVectESC_RKNS_11PeriodicityENS_12FabArrayBase4CpOpEPKNSG_3CPCEb
FNDA:0,_ZN5amrex8FabArrayINS_7BaseFabIN5Model5Solid6Affine2J2EEEE19ParallelCopy_nowaitERKS7_iiiRKNS_7IntVectESC_RKNS_11PeriodicityENS_12FabArrayBase4CpOpEPKNSG_3CPCEb
FN:309,_ZN5amrex8FabArrayINS_7BaseFabIN5Eigen6MatrixIdLi3ELi1ELi0ELi3ELi1EEEEEE19ParallelCopy_nowaitERKS6_iiiRKNS_7IntVectESB_RKNS_11PeriodicityENS_12FabArrayBase4CpOpEPKNSF_3CPCEb
FNDA:0,_ZN5amrex8FabArrayINS_7BaseFabIN5Eigen6MatrixIdLi3ELi1ELi0ELi3ELi1EEEEEE19ParallelCopy_nowaitERKS6_iiiRKNS_7IntVectESB_RKNS_11PeriodicityENS_12FabArrayBase4CpOpEPKNSF_3CPCEb
FN:309,_ZN5amrex8FabArrayINS_7BaseFabIN5Model5Solid7Elastic10NeoHookeanEEEE19ParallelCopy_nowaitERKS7_iiiRKNS_7IntVectESC_RKNS_11PeriodicityENS_12FabArrayBase4CpOpEPKNSG_3CPCEb
FNDA:0,_ZN5amrex8FabArrayINS_7BaseFabIN5Model5Solid7Elastic10NeoHookeanEEEE19ParallelCopy_nowaitERKS7_iiiRKNS_7IntVectESC_RKNS_11PeriodicityENS_12FabArrayBase4CpOpEPKNSG_3CPCEb
FN:309,_ZN5amrex8FabArrayINS_7BaseFabIN5Model5Solid6Linear19IsotropicDegradableEEEE19ParallelCopy_nowaitERKS7_iiiRKNS_7IntVectESC_RKNS_11PeriodicityENS_12FabArrayBase4CpOpEPKNSG_3CPCEb
FNDA:0,_ZN5amrex8FabArrayINS_7BaseFabIN5Model5Solid6Linear19IsotropicDegradableEEEE19ParallelCopy_nowaitERKS7_iiiRKNS_7IntVectESC_RKNS_11PeriodicityENS_12FabArrayBase4CpOpEPKNSG_3CPCEb
FN:309,_ZN5amrex8FabArrayINS_7BaseFabIN5Model5Solid6Affine5CubicEEEE19ParallelCopy_nowaitERKS7_iiiRKNS_7IntVectESC_RKNS_11PeriodicityENS_12FabArrayBase4CpOpEPKNSG_3CPCEb
FNDA:0,_ZN5amrex8FabArrayINS_7BaseFabIN5Model5Solid6Affine5CubicEEEE19ParallelCopy_nowaitERKS7_iiiRKNS_7IntVectESC_RKNS_11PeriodicityENS_12FabArrayBase4CpOpEPKNSG_3CPCEb
FN:496,_ZN5amrex8FabArrayINS_7BaseFabIN5Model5Solid6Affine9HexagonalEEEE19ParallelCopy_finishEv
FNDA:0,_ZN5amrex8FabArrayINS_7BaseFabIN5Model5Solid6Affine9HexagonalEEEE19ParallelCopy_finishEv
FN:496,_ZN5amrex8FabArrayINS_7BaseFabIN5Model5Solid6Affine5CubicEEEE19ParallelCopy_finishEv
FNDA:0,_ZN5amrex8FabArrayINS_7BaseFabIN5Model5Solid6Affine5CubicEEEE19ParallelCopy_finishEv
FN:496,_ZN5amrex8FabArrayINS_7BaseFabIN5Model5Solid6Affine2J2EEEE19ParallelCopy_finishEv
FNDA:0,_ZN5amrex8FabArrayINS_7BaseFabIN5Model5Solid6Affine2J2EEEE19ParallelCopy_finishEv
FN:496,_ZN5amrex8FabArrayINS_7BaseFabIN5Model5Solid7Elastic28PseudoLinearCubicPredeformedEEEE19ParallelCopy_finishEv
FNDA:0,_ZN5amrex8FabArrayINS_7BaseFabIN5Model5Solid7Elastic28PseudoLinearCubicPredeformedEEEE19ParallelCopy_finishEv
FN:496,_ZN5amrex8FabArrayINS_7BaseFabIN5Model5Solid7Elastic17PseudoLinearCubicEEEE19ParallelCopy_finishEv
FNDA:0,_ZN5amrex8FabArrayINS_7BaseFabIN5Model5Solid7Elastic17PseudoLinearCubicEEEE19ParallelCopy_finishEv
FN:496,_ZN5amrex8FabArrayINS_7BaseFabIN5Model5Solid7Elastic10NeoHookeanEEEE19ParallelCopy_finishEv
FNDA:0,_ZN5amrex8FabArrayINS_7BaseFabIN5Model5Solid7Elastic10NeoHookeanEEEE19ParallelCopy_finishEv
FN:496,_ZN5amrex8FabArrayINS_7BaseFabIN5Model5Solid6Linear9LaplacianEEEE19ParallelCopy_finishEv
FNDA:0,_ZN5amrex8FabArrayINS_7BaseFabIN5Model5Solid6Linear9LaplacianEEEE19ParallelCopy_finishEv
FN:496,_ZN5amrex8FabArrayINS_7BaseFabIN5Model5Solid6Linear5CubicEEEE19ParallelCopy_finishEv
FNDA:0,_ZN5amrex8FabArrayINS_7BaseFabIN5Model5Solid6Linear5CubicEEEE19ParallelCopy_finishEv
FN:496,_ZN5amrex8FabArrayINS_7BaseFabIN5Model5Solid6Linear9IsotropicEEEE19ParallelCopy_finishEv
FNDA:0,_ZN5amrex8FabArrayINS_7BaseFabIN5Model5Solid6Linear9IsotropicEEEE19ParallelCopy_finishEv
FN:496,_ZN5amrex8FabArrayINS_7BaseFabIN5Model5Solid6Affine9IsotropicEEEE19ParallelCopy_finishEv
FNDA:0,_ZN5amrex8FabArrayINS_7BaseFabIN5Model5Solid6Affine9IsotropicEEEE19ParallelCopy_finishEv
FN:496,_ZN5amrex8FabArrayINS_7BaseFabIN5Eigen6MatrixIdLi3ELi3ELi0ELi3ELi3EEEEEE19ParallelCopy_finishEv
FNDA:0,_ZN5amrex8FabArrayINS_7BaseFabIN5Eigen6MatrixIdLi3ELi3ELi0ELi3ELi3EEEEEE19ParallelCopy_finishEv
FN:496,_ZN5amrex8FabArrayINS_7BaseFabIN5Eigen6MatrixIdLi3ELi1ELi0ELi3ELi1EEEEEE19ParallelCopy_finishEv
FNDA:0,_ZN5amrex8FabArrayINS_7BaseFabIN5Eigen6MatrixIdLi3ELi1ELi0ELi3ELi1EEEEEE19ParallelCopy_finishEv
FN:496,_ZN5amrex8FabArrayINS_7BaseFabIN5Model5Solid6Linear19IsotropicDegradableEEEE19ParallelCopy_finishEv
FNDA:0,_ZN5amrex8FabArrayINS_7BaseFabIN5Model5Solid6Linear19IsotropicDegradableEEEE19ParallelCopy_finishEv
FN:635,_ZNK5amrex8FabArrayINS_7BaseFabIN5Model5Solid7Elastic17PseudoLinearCubicEEEE18PrepareSendBuffersIS5_EEvRKSt3mapIiSt6vectorINS_12FabArrayBase10CopyComTagESaISC_EESt4lessIiESaISt4pairIKiSE_EEERPcRNS_6VectorISO_SaISO_EEERNSQ_ImSaImEEERNSQ_IiSaIiEEESZ_RNSQ_IPKSE_SaIS11_EEEi
FNDA:0,_ZNK5amrex8FabArrayINS_7BaseFabIN5Model5Solid7Elastic17PseudoLinearCubicEEEE18PrepareSendBuffersIS5_EEvRKSt3mapIiSt6vectorINS_12FabArrayBase10CopyComTagESaISC_EESt4lessIiESaISt4pairIKiSE_EEERPcRNS_6VectorISO_SaISO_EEERNSQ_ImSaImEEERNSQ_IiSaIiEEESZ_RNSQ_IPKSE_SaIS11_EEEi
FN:635,_ZNK5amrex8FabArrayINS_7BaseFabIN5Model5Solid6Affine5CubicEEEE18PrepareSendBuffersIS5_EEvRKSt3mapIiSt6vectorINS_12FabArrayBase10CopyComTagESaISC_EESt4lessIiESaISt4pairIKiSE_EEERPcRNS_6VectorISO_SaISO_EEERNSQ_ImSaImEEERNSQ_IiSaIiEEESZ_RNSQ_IPKSE_SaIS11_EEEi
FNDA:0,_ZNK5amrex8FabArrayINS_7BaseFabIN5Model5Solid6Affine5CubicEEEE18PrepareSendBuffersIS5_EEvRKSt3mapIiSt6vectorINS_12FabArrayBase10CopyComTagESaISC_EESt4lessIiESaISt4pairIKiSE_EEERPcRNS_6VectorISO_SaISO_EEERNSQ_ImSaImEEERNSQ_IiSaIiEEESZ_RNSQ_IPKSE_SaIS11_EEEi
FN:635,_ZNK5amrex8FabArrayINS_7BaseFabIN3Set7Matrix4ILi3ELi1EEEEEE18PrepareSendBuffersIS4_EEvRKSt3mapIiSt6vectorINS_12FabArrayBase10CopyComTagESaISB_EESt4lessIiESaISt4pairIKiSD_EEERPcRNS_6VectorISN_SaISN_EEERNSP_ImSaImEEERNSP_IiSaIiEEESY_RNSP_IPKSD_SaIS10_EEEi
FNDA:0,_ZNK5amrex8FabArrayINS_7BaseFabIN3Set7Matrix4ILi3ELi1EEEEEE18PrepareSendBuffersIS4_EEvRKSt3mapIiSt6vectorINS_12FabArrayBase10CopyComTagESaISB_EESt4lessIiESaISt4pairIKiSD_EEERPcRNS_6VectorISN_SaISN_EEERNSP_ImSaImEEERNSP_IiSaIiEEESY_RNSP_IPKSD_SaIS10_EEEi
FN:635,_ZNK5amrex8FabArrayINS_7BaseFabIN5Eigen6MatrixIdLi3ELi3ELi0ELi3ELi3EEEEEE18PrepareSendBuffersIS4_EEvRKSt3mapIiSt6vectorINS_12FabArrayBase10CopyComTagESaISB_EESt4lessIiESaISt4pairIKiSD_EEERPcRNS_6VectorISN_SaISN_EEERNSP_ImSaImEEERNSP_IiSaIiEEESY_RNSP_IPKSD_SaIS10_EEEi
FNDA:0,_ZNK5amrex8FabArrayINS_7BaseFabIN5Eigen6MatrixIdLi3ELi3ELi0ELi3ELi3EEEEEE18PrepareSendBuffersIS4_EEvRKSt3mapIiSt6vectorINS_12FabArrayBase10CopyComTagESaISB_EESt4lessIiESaISt4pairIKiSD_EEERPcRNS_6VectorISN_SaISN_EEERNSP_ImSaImEEERNSP_IiSaIiEEESY_RNSP_IPKSD_SaIS10_EEEi
FN:635,_ZNK5amrex8FabArrayINS_7BaseFabIN5Model5Solid7Elastic10NeoHookeanEEEE18PrepareSendBuffersIS5_EEvRKSt3mapIiSt6vectorINS_12FabArrayBase10CopyComTagESaISC_EESt4lessIiESaISt4pairIKiSE_EEERPcRNS_6VectorISO_SaISO_EEERNSQ_ImSaImEEERNSQ_IiSaIiEEESZ_RNSQ_IPKSE_SaIS11_EEEi
FNDA:0,_ZNK5amrex8FabArrayINS_7BaseFabIN5Model5Solid7Elastic10NeoHookeanEEEE18PrepareSendBuffersIS5_EEvRKSt3mapIiSt6vectorINS_12FabArrayBase10CopyComTagESaISC_EESt4lessIiESaISt4pairIKiSE_EEERPcRNS_6VectorISO_SaISO_EEERNSQ_ImSaImEEERNSQ_IiSaIiEEESZ_RNSQ_IPKSE_SaIS11_EEEi
FN:635,_ZNK5amrex8FabArrayINS_7BaseFabIN3Set7Matrix4ILi3ELi6EEEEEE18PrepareSendBuffersIS4_EEvRKSt3mapIiSt6vectorINS_12FabArrayBase10CopyComTagESaISB_EESt4lessIiESaISt4pairIKiSD_EEERPcRNS_6VectorISN_SaISN_EEERNSP_ImSaImEEERNSP_IiSaIiEEESY_RNSP_IPKSD_SaIS10_EEEi
FNDA:0,_ZNK5amrex8FabArrayINS_7BaseFabIN3Set7Matrix4ILi3ELi6EEEEEE18PrepareSendBuffersIS4_EEvRKSt3mapIiSt6vectorINS_12FabArrayBase10CopyComTagESaISB_EESt4lessIiESaISt4pairIKiSD_EEERPcRNS_6VectorISN_SaISN_EEERNSP_ImSaImEEERNSP_IiSaIiEEESY_RNSP_IPKSD_SaIS10_EEEi
FN:635,_ZNK5amrex8FabArrayINS_7BaseFabIN5Model5Solid6Linear9LaplacianEEEE18PrepareSendBuffersIS5_EEvRKSt3mapIiSt6vectorINS_12FabArrayBase10CopyComTagESaISC_EESt4lessIiESaISt4pairIKiSE_EEERPcRNS_6VectorISO_SaISO_EEERNSQ_ImSaImEEERNSQ_IiSaIiEEESZ_RNSQ_IPKSE_SaIS11_EEEi
FNDA:0,_ZNK5amrex8FabArrayINS_7BaseFabIN5Model5Solid6Linear9LaplacianEEEE18PrepareSendBuffersIS5_EEvRKSt3mapIiSt6vectorINS_12FabArrayBase10CopyComTagESaISC_EESt4lessIiESaISt4pairIKiSE_EEERPcRNS_6VectorISO_SaISO_EEERNSQ_ImSaImEEERNSQ_IiSaIiEEESZ_RNSQ_IPKSE_SaIS11_EEEi
FN:635,_ZNK5amrex8FabArrayINS_7BaseFabIN5Eigen6MatrixIdLi3ELi1ELi0ELi3ELi1EEEEEE18PrepareSendBuffersIS4_EEvRKSt3mapIiSt6vectorINS_12FabArrayBase10CopyComTagESaISB_EESt4lessIiESaISt4pairIKiSD_EEERPcRNS_6VectorISN_SaISN_EEERNSP_ImSaImEEERNSP_IiSaIiEEESY_RNSP_IPKSD_SaIS10_EEEi
FNDA:0,_ZNK5amrex8FabArrayINS_7BaseFabIN5Eigen6MatrixIdLi3ELi1ELi0ELi3ELi1EEEEEE18PrepareSendBuffersIS4_EEvRKSt3mapIiSt6vectorINS_12FabArrayBase10CopyComTagESaISB_EESt4lessIiESaISt4pairIKiSD_EEERPcRNS_6VectorISN_SaISN_EEERNSP_ImSaImEEERNSP_IiSaIiEEESY_RNSP_IPKSD_SaIS10_EEEi
FN:635,_ZNK5amrex8FabArrayINS_7BaseFabIN5Model5Solid6Linear9IsotropicEEEE18PrepareSendBuffersIS5_EEvRKSt3mapIiSt6vectorINS_12FabArrayBase10CopyComTagESaISC_EESt4lessIiESaISt4pairIKiSE_EEERPcRNS_6VectorISO_SaISO_EEERNSQ_ImSaImEEERNSQ_IiSaIiEEESZ_RNSQ_IPKSE_SaIS11_EEEi
FNDA:0,_ZNK5amrex8FabArrayINS_7BaseFabIN5Model5Solid6Linear9IsotropicEEEE18PrepareSendBuffersIS5_EEvRKSt3mapIiSt6vectorINS_12FabArrayBase10CopyComTagESaISC_EESt4lessIiESaISt4pairIKiSE_EEERPcRNS_6VectorISO_SaISO_EEERNSQ_ImSaImEEERNSQ_IiSaIiEEESZ_RNSQ_IPKSE_SaIS11_EEEi
FN:635,_ZNK5amrex8FabArrayINS_7BaseFabIN5Model5Solid6Affine9HexagonalEEEE18PrepareSendBuffersIS5_EEvRKSt3mapIiSt6vectorINS_12FabArrayBase10CopyComTagESaISC_EESt4lessIiESaISt4pairIKiSE_EEERPcRNS_6VectorISO_SaISO_EEERNSQ_ImSaImEEERNSQ_IiSaIiEEESZ_RNSQ_IPKSE_SaIS11_EEEi
FNDA:0,_ZNK5amrex8FabArrayINS_7BaseFabIN5Model5Solid6Affine9HexagonalEEEE18PrepareSendBuffersIS5_EEvRKSt3mapIiSt6vectorINS_12FabArrayBase10CopyComTagESaISC_EESt4lessIiESaISt4pairIKiSE_EEERPcRNS_6VectorISO_SaISO_EEERNSQ_ImSaImEEERNSQ_IiSaIiEEESZ_RNSQ_IPKSE_SaIS11_EEEi
FN:635,_ZNK5amrex8FabArrayINS_7BaseFabIN5Model5Solid6Linear5CubicEEEE18PrepareSendBuffersIS5_EEvRKSt3mapIiSt6vectorINS_12FabArrayBase10CopyComTagESaISC_EESt4lessIiESaISt4pairIKiSE_EEERPcRNS_6VectorISO_SaISO_EEERNSQ_ImSaImEEERNSQ_IiSaIiEEESZ_RNSQ_IPKSE_SaIS11_EEEi
FNDA:0,_ZNK5amrex8FabArrayINS_7BaseFabIN5Model5Solid6Linear5CubicEEEE18PrepareSendBuffersIS5_EEvRKSt3mapIiSt6vectorINS_12FabArrayBase10CopyComTagESaISC_EESt4lessIiESaISt4pairIKiSE_EEERPcRNS_6VectorISO_SaISO_EEERNSQ_ImSaImEEERNSQ_IiSaIiEEESZ_RNSQ_IPKSE_SaIS11_EEEi
FN:635,_ZNK5amrex8FabArrayINS_7BaseFabIN5Model5Solid7Elastic28PseudoLinearCubicPredeformedEEEE18PrepareSendBuffersIS5_EEvRKSt3mapIiSt6vectorINS_12FabArrayBase10CopyComTagESaISC_EESt4lessIiESaISt4pairIKiSE_EEERPcRNS_6VectorISO_SaISO_EEERNSQ_ImSaImEEERNSQ_IiSaIiEEESZ_RNSQ_IPKSE_SaIS11_EEEi
FNDA:0,_ZNK5amrex8FabArrayINS_7BaseFabIN5Model5Solid7Elastic28PseudoLinearCubicPredeformedEEEE18PrepareSendBuffersIS5_EEvRKSt3mapIiSt6vectorINS_12FabArrayBase10CopyComTagESaISC_EESt4lessIiESaISt4pairIKiSE_EEERPcRNS_6VectorISO_SaISO_EEERNSQ_ImSaImEEERNSQ_IiSaIiEEESZ_RNSQ_IPKSE_SaIS11_EEEi
FN:635,_ZNK5amrex8FabArrayINS_7BaseFabIN3Set7Matrix4ILi3ELi3EEEEEE18PrepareSendBuffersIS4_EEvRKSt3mapIiSt6vectorINS_12FabArrayBase10CopyComTagESaISB_EESt4lessIiESaISt4pairIKiSD_EEERPcRNS_6VectorISN_SaISN_EEERNSP_ImSaImEEERNSP_IiSaIiEEESY_RNSP_IPKSD_SaIS10_EEEi
FNDA:0,_ZNK5amrex8FabArrayINS_7BaseFabIN3Set7Matrix4ILi3ELi3EEEEEE18PrepareSendBuffersIS4_EEvRKSt3mapIiSt6vectorINS_12FabArrayBase10CopyComTagESaISB_EESt4lessIiESaISt4pairIKiSD_EEERPcRNS_6VectorISN_SaISN_EEERNSP_ImSaImEEERNSP_IiSaIiEEESY_RNSP_IPKSD_SaIS10_EEEi
FN:635,_ZNK5amrex8FabArrayINS_7BaseFabIN5Model5Solid6Linear19IsotropicDegradableEEEE18PrepareSendBuffersIS5_EEvRKSt3mapIiSt6vectorINS_12FabArrayBase10CopyComTagESaISC_EESt4lessIiESaISt4pairIKiSE_EEERPcRNS_6VectorISO_SaISO_EEERNSQ_ImSaImEEERNSQ_IiSaIiEEESZ_RNSQ_IPKSE_SaIS11_EEEi
FNDA:0,_ZNK5amrex8FabArrayINS_7BaseFabIN5Model5Solid6Linear19IsotropicDegradableEEEE18PrepareSendBuffersIS5_EEvRKSt3mapIiSt6vectorINS_12FabArrayBase10CopyComTagESaISC_EESt4lessIiESaISt4pairIKiSE_EEERPcRNS_6VectorISO_SaISO_EEERNSQ_ImSaImEEERNSQ_IiSaIiEEESZ_RNSQ_IPKSE_SaIS11_EEEi
FN:635,_ZNK5amrex8FabArrayINS_7BaseFabIN3Set7Matrix4ILi3ELi4EEEEEE18PrepareSendBuffersIS4_EEvRKSt3mapIiSt6vectorINS_12FabArrayBase10CopyComTagESaISB_EESt4lessIiESaISt4pairIKiSD_EEERPcRNS_6VectorISN_SaISN_EEERNSP_ImSaImEEERNSP_IiSaIiEEESY_RNSP_IPKSD_SaIS10_EEEi
FNDA:0,_ZNK5amrex8FabArrayINS_7BaseFabIN3Set7Matrix4ILi3ELi4EEEEEE18PrepareSendBuffersIS4_EEvRKSt3mapIiSt6vectorINS_12FabArrayBase10CopyComTagESaISB_EESt4lessIiESaISt4pairIKiSD_EEERPcRNS_6VectorISN_SaISN_EEERNSP_ImSaImEEERNSP_IiSaIiEEESY_RNSP_IPKSD_SaIS10_EEEi
FN:635,_ZNK5amrex8FabArrayINS_7BaseFabIN5Model5Solid6Affine2J2EEEE18PrepareSendBuffersIS5_EEvRKSt3mapIiSt6vectorINS_12FabArrayBase10CopyComTagESaISC_EESt4lessIiESaISt4pairIKiSE_EEERPcRNS_6VectorISO_SaISO_EEERNSQ_ImSaImEEERNSQ_IiSaIiEEESZ_RNSQ_IPKSE_SaIS11_EEEi
FNDA:0,_ZNK5amrex8FabArrayINS_7BaseFabIN5Model5Solid6Affine2J2EEEE18PrepareSendBuffersIS5_EEvRKSt3mapIiSt6vectorINS_12FabArrayBase10CopyComTagESaISC_EESt4lessIiESaISt4pairIKiSE_EEERPcRNS_6VectorISO_SaISO_EEERNSQ_ImSaImEEERNSQ_IiSaIiEEESZ_RNSQ_IPKSE_SaIS11_EEEi
FN:635,_ZNK5amrex8FabArrayINS_7BaseFabIdEEE18PrepareSendBuffersIdEEvRKSt3mapIiSt6vectorINS_12FabArrayBase10CopyComTagESaIS8_EESt4lessIiESaISt4pairIKiSA_EEERPcRNS_6VectorISK_SaISK_EEERNSM_ImSaImEEERNSM_IiSaIiEEESV_RNSM_IPKSA_SaISX_EEEi
FNDA:0,_ZNK5amrex8FabArrayINS_7BaseFabIdEEE18PrepareSendBuffersIdEEvRKSt3mapIiSt6vectorINS_12FabArrayBase10CopyComTagESaIS8_EESt4lessIiESaISt4pairIKiSA_EEERPcRNS_6VectorISK_SaISK_EEERNSM_ImSaImEEERNSM_IiSaIiEEESV_RNSM_IPKSA_SaISX_EEEi
FN:635,_ZNK5amrex8FabArrayINS_7BaseFabIN5Model5Solid6Affine9IsotropicEEEE18PrepareSendBuffersIS5_EEvRKSt3mapIiSt6vectorINS_12FabArrayBase10CopyComTagESaISC_EESt4lessIiESaISt4pairIKiSE_EEERPcRNS_6VectorISO_SaISO_EEERNSQ_ImSaImEEERNSQ_IiSaIiEEESZ_RNSQ_IPKSE_SaIS11_EEEi
FNDA:0,_ZNK5amrex8FabArrayINS_7BaseFabIN5Model5Solid6Affine9IsotropicEEEE18PrepareSendBuffersIS5_EEvRKSt3mapIiSt6vectorINS_12FabArrayBase10CopyComTagESaISC_EESt4lessIiESaISt4pairIKiSE_EEERPcRNS_6VectorISO_SaISO_EEERNSQ_ImSaImEEERNSQ_IiSaIiEEESZ_RNSQ_IPKSE_SaIS11_EEEi
FN:635,_ZNK5amrex8FabArrayINS_9FArrayBoxEE18PrepareSendBuffersIdEEvRKSt3mapIiSt6vectorINS_12FabArrayBase10CopyComTagESaIS7_EESt4lessIiESaISt4pairIKiS9_EEERPcRNS_6VectorISJ_SaISJ_EEERNSL_ImSaImEEERNSL_IiSaIiEEESU_RNSL_IPKS9_SaISW_EEEi
FNDA:0,_ZNK5amrex8FabArrayINS_9FArrayBoxEE18PrepareSendBuffersIdEEvRKSt3mapIiSt6vectorINS_12FabArrayBase10CopyComTagESaIS7_EESt4lessIiESaISt4pairIKiS9_EEERPcRNS_6VectorISJ_SaISJ_EEERNSL_ImSaImEEERNSL_IiSaIiEEESU_RNSL_IPKS9_SaISW_EEEi
FN:699,_ZN5amrex8FabArrayINS_7BaseFabIN5Eigen6MatrixIdLi3ELi1ELi0ELi3ELi1EEEEEE8PostSndsERKNS_6VectorIPcSaIS8_EEERKNS7_ImSaImEEERKNS7_IiSaIiEEERSI_i
FNDA:0,_ZN5amrex8FabArrayINS_7BaseFabIN5Eigen6MatrixIdLi3ELi1ELi0ELi3ELi1EEEEEE8PostSndsERKNS_6VectorIPcSaIS8_EEERKNS7_ImSaImEEERKNS7_IiSaIiEEERSI_i
FN:699,_ZN5amrex8FabArrayINS_7BaseFabIN3Set7Matrix4ILi3ELi3EEEEEE8PostSndsERKNS_6VectorIPcSaIS8_EEERKNS7_ImSaImEEERKNS7_IiSaIiEEERSI_i
FNDA:0,_ZN5amrex8FabArrayINS_7BaseFabIN3Set7Matrix4ILi3ELi3EEEEEE8PostSndsERKNS_6VectorIPcSaIS8_EEERKNS7_ImSaImEEERKNS7_IiSaIiEEERSI_i
FN:699,_ZN5amrex8FabArrayINS_7BaseFabIN5Model5Solid6Affine5CubicEEEE8PostSndsERKNS_6VectorIPcSaIS9_EEERKNS8_ImSaImEEERKNS8_IiSaIiEEERSJ_i
FNDA:0,_ZN5amrex8FabArrayINS_7BaseFabIN5Model5Solid6Affine5CubicEEEE8PostSndsERKNS_6VectorIPcSaIS9_EEERKNS8_ImSaImEEERKNS8_IiSaIiEEERSJ_i
FN:699,_ZN5amrex8FabArrayINS_7BaseFabIN5Model5Solid6Linear5CubicEEEE8PostSndsERKNS_6VectorIPcSaIS9_EEERKNS8_ImSaImEEERKNS8_IiSaIiEEERSJ_i
FNDA:0,_ZN5amrex8FabArrayINS_7BaseFabIN5Model5Solid6Linear5CubicEEEE8PostSndsERKNS_6VectorIPcSaIS9_EEERKNS8_ImSaImEEERKNS8_IiSaIiEEERSJ_i
FN:699,_ZN5amrex8FabArrayINS_7BaseFabIN5Model5Solid6Linear9IsotropicEEEE8PostSndsERKNS_6VectorIPcSaIS9_EEERKNS8_ImSaImEEERKNS8_IiSaIiEEERSJ_i
FNDA:0,_ZN5amrex8FabArrayINS_7BaseFabIN5Model5Solid6Linear9IsotropicEEEE8PostSndsERKNS_6VectorIPcSaIS9_EEERKNS8_ImSaImEEERKNS8_IiSaIiEEERSJ_i
FN:699,_ZN5amrex8FabArrayINS_9FArrayBoxEE8PostSndsERKNS_6VectorIPcSaIS4_EEERKNS3_ImSaImEEERKNS3_IiSaIiEEERSE_i
FNDA:0,_ZN5amrex8FabArrayINS_9FArrayBoxEE8PostSndsERKNS_6VectorIPcSaIS4_EEERKNS3_ImSaImEEERKNS3_IiSaIiEEERSE_i
FN:699,_ZN5amrex8FabArrayINS_7BaseFabIN3Set7Matrix4ILi3ELi4EEEEEE8PostSndsERKNS_6VectorIPcSaIS8_EEERKNS7_ImSaImEEERKNS7_IiSaIiEEERSI_i
FNDA:0,_ZN5amrex8FabArrayINS_7BaseFabIN3Set7Matrix4ILi3ELi4EEEEEE8PostSndsERKNS_6VectorIPcSaIS8_EEERKNS7_ImSaImEEERKNS7_IiSaIiEEERSI_i
FN:699,_ZN5amrex8FabArrayINS_7BaseFabIN3Set7Matrix4ILi3ELi6EEEEEE8PostSndsERKNS_6VectorIPcSaIS8_EEERKNS7_ImSaImEEERKNS7_IiSaIiEEERSI_i
FNDA:0,_ZN5amrex8FabArrayINS_7BaseFabIN3Set7Matrix4ILi3ELi6EEEEEE8PostSndsERKNS_6VectorIPcSaIS8_EEERKNS7_ImSaImEEERKNS7_IiSaIiEEERSI_i
FN:699,_ZN5amrex8FabArrayINS_7BaseFabIN5Eigen6MatrixIdLi3ELi3ELi0ELi3ELi3EEEEEE8PostSndsERKNS_6VectorIPcSaIS8_EEERKNS7_ImSaImEEERKNS7_IiSaIiEEERSI_i
FNDA:0,_ZN5amrex8FabArrayINS_7BaseFabIN5Eigen6MatrixIdLi3ELi3ELi0ELi3ELi3EEEEEE8PostSndsERKNS_6VectorIPcSaIS8_EEERKNS7_ImSaImEEERKNS7_IiSaIiEEERSI_i
FN:699,_ZN5amrex8FabArrayINS_7BaseFabIN5Model5Solid6Linear19IsotropicDegradableEEEE8PostSndsERKNS_6VectorIPcSaIS9_EEERKNS8_ImSaImEEERKNS8_IiSaIiEEERSJ_i
FNDA:0,_ZN5amrex8FabArrayINS_7BaseFabIN5Model5Solid6Linear19IsotropicDegradableEEEE8PostSndsERKNS_6VectorIPcSaIS9_EEERKNS8_ImSaImEEERKNS8_IiSaIiEEERSJ_i
FN:699,_ZN5amrex8FabArrayINS_7BaseFabIN3Set7Matrix4ILi3ELi1EEEEEE8PostSndsERKNS_6VectorIPcSaIS8_EEERKNS7_ImSaImEEERKNS7_IiSaIiEEERSI_i
FNDA:0,_ZN5amrex8FabArrayINS_7BaseFabIN3Set7Matrix4ILi3ELi1EEEEEE8PostSndsERKNS_6VectorIPcSaIS8_EEERKNS7_ImSaImEEERKNS7_IiSaIiEEERSI_i
FN:699,_ZN5amrex8FabArrayINS_7BaseFabIN5Model5Solid6Affine9IsotropicEEEE8PostSndsERKNS_6VectorIPcSaIS9_EEERKNS8_ImSaImEEERKNS8_IiSaIiEEERSJ_i
FNDA:0,_ZN5amrex8FabArrayINS_7BaseFabIN5Model5Solid6Affine9IsotropicEEEE8PostSndsERKNS_6VectorIPcSaIS9_EEERKNS8_ImSaImEEERKNS8_IiSaIiEEERSJ_i
FN:699,_ZN5amrex8FabArrayINS_7BaseFabIN5Model5Solid7Elastic17PseudoLinearCubicEEEE8PostSndsERKNS_6VectorIPcSaIS9_EEERKNS8_ImSaImEEERKNS8_IiSaIiEEERSJ_i
FNDA:0,_ZN5amrex8FabArrayINS_7BaseFabIN5Model5Solid7Elastic17PseudoLinearCubicEEEE8PostSndsERKNS_6VectorIPcSaIS9_EEERKNS8_ImSaImEEERKNS8_IiSaIiEEERSJ_i
FN:699,_ZN5amrex8FabArrayINS_7BaseFabIN5Model5Solid7Elastic10NeoHookeanEEEE8PostSndsERKNS_6VectorIPcSaIS9_EEERKNS8_ImSaImEEERKNS8_IiSaIiEEERSJ_i
FNDA:0,_ZN5amrex8FabArrayINS_7BaseFabIN5Model5Solid7Elastic10NeoHookeanEEEE8PostSndsERKNS_6VectorIPcSaIS9_EEERKNS8_ImSaImEEERKNS8_IiSaIiEEERSJ_i
FN:699,_ZN5amrex8FabArrayINS_7BaseFabIdEEE8PostSndsERKNS_6VectorIPcSaIS5_EEERKNS4_ImSaImEEERKNS4_IiSaIiEEERSF_i
FNDA:0,_ZN5amrex8FabArrayINS_7BaseFabIdEEE8PostSndsERKNS_6VectorIPcSaIS5_EEERKNS4_ImSaImEEERKNS4_IiSaIiEEERSF_i
FN:699,_ZN5amrex8FabArrayINS_7BaseFabIN5Model5Solid6Linear9LaplacianEEEE8PostSndsERKNS_6VectorIPcSaIS9_EEERKNS8_ImSaImEEERKNS8_IiSaIiEEERSJ_i
FNDA:0,_ZN5amrex8FabArrayINS_7BaseFabIN5Model5Solid6Linear9LaplacianEEEE8PostSndsERKNS_6VectorIPcSaIS9_EEERKNS8_ImSaImEEERKNS8_IiSaIiEEERSJ_i
FN:699,_ZN5amrex8FabArrayINS_7BaseFabIN5Model5Solid6Affine2J2EEEE8PostSndsERKNS_6VectorIPcSaIS9_EEERKNS8_ImSaImEEERKNS8_IiSaIiEEERSJ_i
FNDA:0,_ZN5amrex8FabArrayINS_7BaseFabIN5Model5Solid6Affine2J2EEEE8PostSndsERKNS_6VectorIPcSaIS9_EEERKNS8_ImSaImEEERKNS8_IiSaIiEEERSJ_i
FN:699,_ZN5amrex8FabArrayINS_7BaseFabIN5Model5Solid6Affine9HexagonalEEEE8PostSndsERKNS_6VectorIPcSaIS9_EEERKNS8_ImSaImEEERKNS8_IiSaIiEEERSJ_i
FNDA:0,_ZN5amrex8FabArrayINS_7BaseFabIN5Model5Solid6Affine9HexagonalEEEE8PostSndsERKNS_6VectorIPcSaIS9_EEERKNS8_ImSaImEEERKNS8_IiSaIiEEERSJ_i
FN:699,_ZN5amrex8FabArrayINS_7BaseFabIN5Model5Solid7Elastic28PseudoLinearCubicPredeformedEEEE8PostSndsERKNS_6VectorIPcSaIS9_EEERKNS8_ImSaImEEERKNS8_IiSaIiEEERSJ_i
FNDA:0,_ZN5amrex8FabArrayINS_7BaseFabIN5Model5Solid7Elastic28PseudoLinearCubicPredeformedEEEE8PostSndsERKNS_6VectorIPcSaIS9_EEERKNS8_ImSaImEEERKNS8_IiSaIiEEERSJ_i
FN:736,_ZNK5amrex8FabArrayINS_7BaseFabIN5Model5Solid6Linear19IsotropicDegradableEEEE8PostRcvsIS5_EEvRKSt3mapIiSt6vectorINS_12FabArrayBase10CopyComTagESaISC_EESt4lessIiESaISt4pairIKiSE_EEERPcRNS_6VectorISO_SaISO_EEERNSQ_ImSaImEEERNSQ_IiSaIiEEESZ_ii
FNDA:0,_ZNK5amrex8FabArrayINS_7BaseFabIN5Model5Solid6Linear19IsotropicDegradableEEEE8PostRcvsIS5_EEvRKSt3mapIiSt6vectorINS_12FabArrayBase10CopyComTagESaISC_EESt4lessIiESaISt4pairIKiSE_EEERPcRNS_6VectorISO_SaISO_EEERNSQ_ImSaImEEERNSQ_IiSaIiEEESZ_ii
FN:736,_ZNK5amrex8FabArrayINS_7BaseFabIN3Set7Matrix4ILi3ELi4EEEEEE8PostRcvsIS4_EEvRKSt3mapIiSt6vectorINS_12FabArrayBase10CopyComTagESaISB_EESt4lessIiESaISt4pairIKiSD_EEERPcRNS_6VectorISN_SaISN_EEERNSP_ImSaImEEERNSP_IiSaIiEEESY_ii
FNDA:0,_ZNK5amrex8FabArrayINS_7BaseFabIN3Set7Matrix4ILi3ELi4EEEEEE8PostRcvsIS4_EEvRKSt3mapIiSt6vectorINS_12FabArrayBase10CopyComTagESaISB_EESt4lessIiESaISt4pairIKiSD_EEERPcRNS_6VectorISN_SaISN_EEERNSP_ImSaImEEERNSP_IiSaIiEEESY_ii
FN:736,_ZNK5amrex8FabArrayINS_7BaseFabIN5Model5Solid7Elastic17PseudoLinearCubicEEEE8PostRcvsIS5_EEvRKSt3mapIiSt6vectorINS_12FabArrayBase10CopyComTagESaISC_EESt4lessIiESaISt4pairIKiSE_EEERPcRNS_6VectorISO_SaISO_EEERNSQ_ImSaImEEERNSQ_IiSaIiEEESZ_ii
FNDA:0,_ZNK5amrex8FabArrayINS_7BaseFabIN5Model5Solid7Elastic17PseudoLinearCubicEEEE8PostRcvsIS5_EEvRKSt3mapIiSt6vectorINS_12FabArrayBase10CopyComTagESaISC_EESt4lessIiESaISt4pairIKiSE_EEERPcRNS_6VectorISO_SaISO_EEERNSQ_ImSaImEEERNSQ_IiSaIiEEESZ_ii
FN:736,_ZNK5amrex8FabArrayINS_7BaseFabIN5Model5Solid6Affine5CubicEEEE8PostRcvsIS5_EEvRKSt3mapIiSt6vectorINS_12FabArrayBase10CopyComTagESaISC_EESt4lessIiESaISt4pairIKiSE_EEERPcRNS_6VectorISO_SaISO_EEERNSQ_ImSaImEEERNSQ_IiSaIiEEESZ_ii
FNDA:0,_ZNK5amrex8FabArrayINS_7BaseFabIN5Model5Solid6Affine5CubicEEEE8PostRcvsIS5_EEvRKSt3mapIiSt6vectorINS_12FabArrayBase10CopyComTagESaISC_EESt4lessIiESaISt4pairIKiSE_EEERPcRNS_6VectorISO_SaISO_EEERNSQ_ImSaImEEERNSQ_IiSaIiEEESZ_ii
FN:736,_ZNK5amrex8FabArrayINS_7BaseFabIN5Eigen6MatrixIdLi3ELi3ELi0ELi3ELi3EEEEEE8PostRcvsIS4_EEvRKSt3mapIiSt6vectorINS_12FabArrayBase10CopyComTagESaISB_EESt4lessIiESaISt4pairIKiSD_EEERPcRNS_6VectorISN_SaISN_EEERNSP_ImSaImEEERNSP_IiSaIiEEESY_ii
FNDA:0,_ZNK5amrex8FabArrayINS_7BaseFabIN5Eigen6MatrixIdLi3ELi3ELi0ELi3ELi3EEEEEE8PostRcvsIS4_EEvRKSt3mapIiSt6vectorINS_12FabArrayBase10CopyComTagESaISB_EESt4lessIiESaISt4pairIKiSD_EEERPcRNS_6VectorISN_SaISN_EEERNSP_ImSaImEEERNSP_IiSaIiEEESY_ii
FN:736,_ZNK5amrex8FabArrayINS_7BaseFabIN5Model5Solid7Elastic10NeoHookeanEEEE8PostRcvsIS5_EEvRKSt3mapIiSt6vectorINS_12FabArrayBase10CopyComTagESaISC_EESt4lessIiESaISt4pairIKiSE_EEERPcRNS_6VectorISO_SaISO_EEERNSQ_ImSaImEEERNSQ_IiSaIiEEESZ_ii
FNDA:0,_ZNK5amrex8FabArrayINS_7BaseFabIN5Model5Solid7Elastic10NeoHookeanEEEE8PostRcvsIS5_EEvRKSt3mapIiSt6vectorINS_12FabArrayBase10CopyComTagESaISC_EESt4lessIiESaISt4pairIKiSE_EEERPcRNS_6VectorISO_SaISO_EEERNSQ_ImSaImEEERNSQ_IiSaIiEEESZ_ii
FN:736,_ZNK5amrex8FabArrayINS_7BaseFabIN5Model5Solid6Affine9IsotropicEEEE8PostRcvsIS5_EEvRKSt3mapIiSt6vectorINS_12FabArrayBase10CopyComTagESaISC_EESt4lessIiESaISt4pairIKiSE_EEERPcRNS_6VectorISO_SaISO_EEERNSQ_ImSaImEEERNSQ_IiSaIiEEESZ_ii
FNDA:0,_ZNK5amrex8FabArrayINS_7BaseFabIN5Model5Solid6Affine9IsotropicEEEE8PostRcvsIS5_EEvRKSt3mapIiSt6vectorINS_12FabArrayBase10CopyComTagESaISC_EESt4lessIiESaISt4pairIKiSE_EEERPcRNS_6VectorISO_SaISO_EEERNSQ_ImSaImEEERNSQ_IiSaIiEEESZ_ii
FN:736,_ZNK5amrex8FabArrayINS_7BaseFabIN5Model5Solid6Affine2J2EEEE8PostRcvsIS5_EEvRKSt3mapIiSt6vectorINS_12FabArrayBase10CopyComTagESaISC_EESt4lessIiESaISt4pairIKiSE_EEERPcRNS_6VectorISO_SaISO_EEERNSQ_ImSaImEEERNSQ_IiSaIiEEESZ_ii
FNDA:0,_ZNK5amrex8FabArrayINS_7BaseFabIN5Model5Solid6Affine2J2EEEE8PostRcvsIS5_EEvRKSt3mapIiSt6vectorINS_12FabArrayBase10CopyComTagESaISC_EESt4lessIiESaISt4pairIKiSE_EEERPcRNS_6VectorISO_SaISO_EEERNSQ_ImSaImEEERNSQ_IiSaIiEEESZ_ii
FN:736,_ZNK5amrex8FabArrayINS_7BaseFabIN3Set7Matrix4ILi3ELi6EEEEEE8PostRcvsIS4_EEvRKSt3mapIiSt6vectorINS_12FabArrayBase10CopyComTagESaISB_EESt4lessIiESaISt4pairIKiSD_EEERPcRNS_6VectorISN_SaISN_EEERNSP_ImSaImEEERNSP_IiSaIiEEESY_ii
FNDA:0,_ZNK5amrex8FabArrayINS_7BaseFabIN3Set7Matrix4ILi3ELi6EEEEEE8PostRcvsIS4_EEvRKSt3mapIiSt6vectorINS_12FabArrayBase10CopyComTagESaISB_EESt4lessIiESaISt4pairIKiSD_EEERPcRNS_6VectorISN_SaISN_EEERNSP_ImSaImEEERNSP_IiSaIiEEESY_ii
FN:736,_ZNK5amrex8FabArrayINS_7BaseFabIN5Model5Solid7Elastic28PseudoLinearCubicPredeformedEEEE8PostRcvsIS5_EEvRKSt3mapIiSt6vectorINS_12FabArrayBase10CopyComTagESaISC_EESt4lessIiESaISt4pairIKiSE_EEERPcRNS_6VectorISO_SaISO_EEERNSQ_ImSaImEEERNSQ_IiSaIiEEESZ_ii
FNDA:0,_ZNK5amrex8FabArrayINS_7BaseFabIN5Model5Solid7Elastic28PseudoLinearCubicPredeformedEEEE8PostRcvsIS5_EEvRKSt3mapIiSt6vectorINS_12FabArrayBase10CopyComTagESaISC_EESt4lessIiESaISt4pairIKiSE_EEERPcRNS_6VectorISO_SaISO_EEERNSQ_ImSaImEEERNSQ_IiSaIiEEESZ_ii
FN:736,_ZNK5amrex8FabArrayINS_7BaseFabIN3Set7Matrix4ILi3ELi1EEEEEE8PostRcvsIS4_EEvRKSt3mapIiSt6vectorINS_12FabArrayBase10CopyComTagESaISB_EESt4lessIiESaISt4pairIKiSD_EEERPcRNS_6VectorISN_SaISN_EEERNSP_ImSaImEEERNSP_IiSaIiEEESY_ii
FNDA:0,_ZNK5amrex8FabArrayINS_7BaseFabIN3Set7Matrix4ILi3ELi1EEEEEE8PostRcvsIS4_EEvRKSt3mapIiSt6vectorINS_12FabArrayBase10CopyComTagESaISB_EESt4lessIiESaISt4pairIKiSD_EEERPcRNS_6VectorISN_SaISN_EEERNSP_ImSaImEEERNSP_IiSaIiEEESY_ii
FN:736,_ZNK5amrex8FabArrayINS_7BaseFabIN5Model5Solid6Linear9LaplacianEEEE8PostRcvsIS5_EEvRKSt3mapIiSt6vectorINS_12FabArrayBase10CopyComTagESaISC_EESt4lessIiESaISt4pairIKiSE_EEERPcRNS_6VectorISO_SaISO_EEERNSQ_ImSaImEEERNSQ_IiSaIiEEESZ_ii
FNDA:0,_ZNK5amrex8FabArrayINS_7BaseFabIN5Model5Solid6Linear9LaplacianEEEE8PostRcvsIS5_EEvRKSt3mapIiSt6vectorINS_12FabArrayBase10CopyComTagESaISC_EESt4lessIiESaISt4pairIKiSE_EEERPcRNS_6VectorISO_SaISO_EEERNSQ_ImSaImEEERNSQ_IiSaIiEEESZ_ii
FN:736,_ZNK5amrex8FabArrayINS_7BaseFabIN5Eigen6MatrixIdLi3ELi1ELi0ELi3ELi1EEEEEE8PostRcvsIS4_EEvRKSt3mapIiSt6vectorINS_12FabArrayBase10CopyComTagESaISB_EESt4lessIiESaISt4pairIKiSD_EEERPcRNS_6VectorISN_SaISN_EEERNSP_ImSaImEEERNSP_IiSaIiEEESY_ii
FNDA:0,_ZNK5amrex8FabArrayINS_7BaseFabIN5Eigen6MatrixIdLi3ELi1ELi0ELi3ELi1EEEEEE8PostRcvsIS4_EEvRKSt3mapIiSt6vectorINS_12FabArrayBase10CopyComTagESaISB_EESt4lessIiESaISt4pairIKiSD_EEERPcRNS_6VectorISN_SaISN_EEERNSP_ImSaImEEERNSP_IiSaIiEEESY_ii
FN:736,_ZNK5amrex8FabArrayINS_9FArrayBoxEE8PostRcvsIdEEvRKSt3mapIiSt6vectorINS_12FabArrayBase10CopyComTagESaIS7_EESt4lessIiESaISt4pairIKiS9_EEERPcRNS_6VectorISJ_SaISJ_EEERNSL_ImSaImEEERNSL_IiSaIiEEESU_ii
FNDA:0,_ZNK5amrex8FabArrayINS_9FArrayBoxEE8PostRcvsIdEEvRKSt3mapIiSt6vectorINS_12FabArrayBase10CopyComTagESaIS7_EESt4lessIiESaISt4pairIKiS9_EEERPcRNS_6VectorISJ_SaISJ_EEERNSL_ImSaImEEERNSL_IiSaIiEEESU_ii
FN:736,_ZNK5amrex8FabArrayINS_7BaseFabIN5Model5Solid6Affine9HexagonalEEEE8PostRcvsIS5_EEvRKSt3mapIiSt6vectorINS_12FabArrayBase10CopyComTagESaISC_EESt4lessIiESaISt4pairIKiSE_EEERPcRNS_6VectorISO_SaISO_EEERNSQ_ImSaImEEERNSQ_IiSaIiEEESZ_ii
FNDA:0,_ZNK5amrex8FabArrayINS_7BaseFabIN5Model5Solid6Affine9HexagonalEEEE8PostRcvsIS5_EEvRKSt3mapIiSt6vectorINS_12FabArrayBase10CopyComTagESaISC_EESt4lessIiESaISt4pairIKiSE_EEERPcRNS_6VectorISO_SaISO_EEERNSQ_ImSaImEEERNSQ_IiSaIiEEESZ_ii
FN:736,_ZNK5amrex8FabArrayINS_7BaseFabIN5Model5Solid6Linear9IsotropicEEEE8PostRcvsIS5_EEvRKSt3mapIiSt6vectorINS_12FabArrayBase10CopyComTagESaISC_EESt4lessIiESaISt4pairIKiSE_EEERPcRNS_6VectorISO_SaISO_EEERNSQ_ImSaImEEERNSQ_IiSaIiEEESZ_ii
FNDA:0,_ZNK5amrex8FabArrayINS_7BaseFabIN5Model5Solid6Linear9IsotropicEEEE8PostRcvsIS5_EEvRKSt3mapIiSt6vectorINS_12FabArrayBase10CopyComTagESaISC_EESt4lessIiESaISt4pairIKiSE_EEERPcRNS_6VectorISO_SaISO_EEERNSQ_ImSaImEEERNSQ_IiSaIiEEESZ_ii
FN:736,_ZNK5amrex8FabArrayINS_7BaseFabIN3Set7Matrix4ILi3ELi3EEEEEE8PostRcvsIS4_EEvRKSt3mapIiSt6vectorINS_12FabArrayBase10CopyComTagESaISB_EESt4lessIiESaISt4pairIKiSD_EEERPcRNS_6VectorISN_SaISN_EEERNSP_ImSaImEEERNSP_IiSaIiEEESY_ii
FNDA:0,_ZNK5amrex8FabArrayINS_7BaseFabIN3Set7Matrix4ILi3ELi3EEEEEE8PostRcvsIS4_EEvRKSt3mapIiSt6vectorINS_12FabArrayBase10CopyComTagESaISB_EESt4lessIiESaISt4pairIKiSD_EEERPcRNS_6VectorISN_SaISN_EEERNSP_ImSaImEEERNSP_IiSaIiEEESY_ii
FN:736,_ZNK5amrex8FabArrayINS_7BaseFabIdEEE8PostRcvsIdEEvRKSt3mapIiSt6vectorINS_12FabArrayBase10CopyComTagESaIS8_EESt4lessIiESaISt4pairIKiSA_EEERPcRNS_6VectorISK_SaISK_EEERNSM_ImSaImEEERNSM_IiSaIiEEESV_ii
FNDA:0,_ZNK5amrex8FabArrayINS_7BaseFabIdEEE8PostRcvsIdEEvRKSt3mapIiSt6vectorINS_12FabArrayBase10CopyComTagESaIS8_EESt4lessIiESaISt4pairIKiSA_EEERPcRNS_6VectorISK_SaISK_EEERNSM_ImSaImEEERNSM_IiSaIiEEESV_ii
FN:736,_ZNK5amrex8FabArrayINS_7BaseFabIN5Model5Solid6Linear5CubicEEEE8PostRcvsIS5_EEvRKSt3mapIiSt6vectorINS_12FabArrayBase10CopyComTagESaISC_EESt4lessIiESaISt4pairIKiSE_EEERPcRNS_6VectorISO_SaISO_EEERNSQ_ImSaImEEERNSQ_IiSaIiEEESZ_ii
FNDA:0,_ZNK5amrex8FabArrayINS_7BaseFabIN5Model5Solid6Linear5CubicEEEE8PostRcvsIS5_EEvRKSt3mapIiSt6vectorINS_12FabArrayBase10CopyComTagESaISC_EESt4lessIiESaISt4pairIKiSE_EEERPcRNS_6VectorISO_SaISO_EEERNSQ_ImSaImEEERNSQ_IiSaIiEEESZ_ii
FN:831,_ZN5amrex8FabArrayINS_9FArrayBoxEE17FillBoundary_testEv
FNDA:0,_ZN5amrex8FabArrayINS_9FArrayBoxEE17FillBoundary_testEv
FN:831,_ZN5amrex8FabArrayINS_7BaseFabIdEEE17FillBoundary_testEv
FNDA:0,_ZN5amrex8FabArrayINS_7BaseFabIdEEE17FillBoundary_testEv
FN:831,_ZN5amrex8FabArrayINS_7BaseFabIN3Set7Matrix4ILi3ELi4EEEEEE17FillBoundary_testEv
FNDA:0,_ZN5amrex8FabArrayINS_7BaseFabIN3Set7Matrix4ILi3ELi4EEEEEE17FillBoundary_testEv
FN:831,_ZN5amrex8FabArrayINS_7BaseFabIN5Model5Solid6Affine2J2EEEE17FillBoundary_testEv
FNDA:0,_ZN5amrex8FabArrayINS_7BaseFabIN5Model5Solid6Affine2J2EEEE17FillBoundary_testEv
FN:831,_ZN5amrex8FabArrayINS_7BaseFabIN3Set7Matrix4ILi3ELi3EEEEEE17FillBoundary_testEv
FNDA:0,_ZN5amrex8FabArrayINS_7BaseFabIN3Set7Matrix4ILi3ELi3EEEEEE17FillBoundary_testEv
FN:831,_ZN5amrex8FabArrayINS_7BaseFabIN5Model5Solid6Linear19IsotropicDegradableEEEE17FillBoundary_testEv
FNDA:0,_ZN5amrex8FabArrayINS_7BaseFabIN5Model5Solid6Linear19IsotropicDegradableEEEE17FillBoundary_testEv
FN:831,_ZN5amrex8FabArrayINS_7BaseFabIN3Set7Matrix4ILi3ELi1EEEEEE17FillBoundary_testEv
FNDA:0,_ZN5amrex8FabArrayINS_7BaseFabIN3Set7Matrix4ILi3ELi1EEEEEE17FillBoundary_testEv
FN:831,_ZN5amrex8FabArrayINS_7BaseFabIN5Model5Solid7Elastic28PseudoLinearCubicPredeformedEEEE17FillBoundary_testEv
FNDA:0,_ZN5amrex8FabArrayINS_7BaseFabIN5Model5Solid7Elastic28PseudoLinearCubicPredeformedEEEE17FillBoundary_testEv
FN:831,_ZN5amrex8FabArrayINS_7BaseFabIN5Model5Solid6Affine9IsotropicEEEE17FillBoundary_testEv
FNDA:0,_ZN5amrex8FabArrayINS_7BaseFabIN5Model5Solid6Affine9IsotropicEEEE17FillBoundary_testEv
FN:831,_ZN5amrex8FabArrayINS_7BaseFabIN5Model5Solid7Elastic17PseudoLinearCubicEEEE17FillBoundary_testEv
FNDA:0,_ZN5amrex8FabArrayINS_7BaseFabIN5Model5Solid7Elastic17PseudoLinearCubicEEEE17FillBoundary_testEv
FN:831,_ZN5amrex8FabArrayINS_7BaseFabIN5Eigen6MatrixIdLi3ELi3ELi0ELi3ELi3EEEEEE17FillBoundary_testEv
FNDA:0,_ZN5amrex8FabArrayINS_7BaseFabIN5Eigen6MatrixIdLi3ELi3ELi0ELi3ELi3EEEEEE17FillBoundary_testEv
FN:831,_ZN5amrex8FabArrayINS_7BaseFabIN5Model5Solid7Elastic10NeoHookeanEEEE17FillBoundary_testEv
FNDA:0,_ZN5amrex8FabArrayINS_7BaseFabIN5Model5Solid7Elastic10NeoHookeanEEEE17FillBoundary_testEv
FN:831,_ZN5amrex8FabArrayINS_7BaseFabIN3Set7Matrix4ILi3ELi6EEEEEE17FillBoundary_testEv
FNDA:0,_ZN5amrex8FabArrayINS_7BaseFabIN3Set7Matrix4ILi3ELi6EEEEEE17FillBoundary_testEv
FN:831,_ZN5amrex8FabArrayINS_7BaseFabIN5Eigen6MatrixIdLi3ELi1ELi0ELi3ELi1EEEEEE17FillBoundary_testEv
FNDA:0,_ZN5amrex8FabArrayINS_7BaseFabIN5Eigen6MatrixIdLi3ELi1ELi0ELi3ELi1EEEEEE17FillBoundary_testEv
FN:831,_ZN5amrex8FabArrayINS_7BaseFabIN5Model5Solid6Linear9IsotropicEEEE17FillBoundary_testEv
FNDA:0,_ZN5amrex8FabArrayINS_7BaseFabIN5Model5Solid6Linear9IsotropicEEEE17FillBoundary_testEv
FN:831,_ZN5amrex8FabArrayINS_7BaseFabIN5Model5Solid6Linear9LaplacianEEEE17FillBoundary_testEv
FNDA:0,_ZN5amrex8FabArrayINS_7BaseFabIN5Model5Solid6Linear9LaplacianEEEE17FillBoundary_testEv
FN:831,_ZN5amrex8FabArrayINS_7BaseFabIN5Model5Solid6Linear5CubicEEEE17FillBoundary_testEv
FNDA:0,_ZN5amrex8FabArrayINS_7BaseFabIN5Model5Solid6Linear5CubicEEEE17FillBoundary_testEv
FN:831,_ZN5amrex8FabArrayINS_7BaseFabIN5Model5Solid6Affine9HexagonalEEEE17FillBoundary_testEv
FNDA:0,_ZN5amrex8FabArrayINS_7BaseFabIN5Model5Solid6Affine9HexagonalEEEE17FillBoundary_testEv
FN:831,_ZN5amrex8FabArrayINS_7BaseFabIN5Model5Solid6Affine5CubicEEEE17FillBoundary_testEv
FNDA:0,_ZN5amrex8FabArrayINS_7BaseFabIN5Model5Solid6Affine5CubicEEEE17FillBoundary_testEv
DA:8,0
DA:20,0
DA:21,0
DA:22,0
DA:23,0
DA:25,0
DA:27,0
DA:29,0
DA:31,0
DA:36,0
DA:37,0
DA:55,0
DA:58,0
DA:67,0
DA:69,0
DA:70,0
DA:71,0
DA:73,0
DA:75,0
DA:78,0
DA:79,0
DA:80,0
DA:81,0
DA:82,0
DA:88,0
DA:89,0
DA:90,0
DA:92,0
DA:98,0
DA:99,0
DA:100,0
DA:101,0
DA:102,0
DA:103,0
DA:105,0
DA:107,0
DA:126,0
DA:130,0
DA:133,0
DA:138,0
DA:156,0
DA:159,0
DA:8,0
DA:20,0
DA:21,0
DA:22,0
DA:23,0
DA:25,0
DA:27,0
DA:29,0
DA:31,0
DA:36,0
DA:37,0
DA:55,0
DA:58,0
DA:67,0
DA:69,0
DA:70,0
DA:71,0
DA:73,0
DA:75,0
DA:78,0
DA:79,0
DA:80,0
DA:81,0
DA:82,0
DA:88,0
DA:89,0
DA:90,0
DA:92,0
DA:98,0
DA:99,0
DA:100,0
DA:101,0
DA:102,0
DA:103,0
DA:105,0
DA:107,0
DA:126,0
DA:130,0
DA:133,0
DA:138,0
DA:156,0
DA:159,0
DA:8,0
DA:20,0
DA:21,0
DA:22,0
DA:23,0
DA:25,0
DA:27,0
DA:29,0
DA:31,0
DA:36,0
DA:37,0
DA:55,0
DA:58,0
DA:67,0
DA:69,0
DA:70,0
DA:71,0
DA:73,0
DA:75,0
DA:78,0
DA:79,0
DA:80,0
DA:81,0
DA:82,0
DA:88,0
DA:89,0
DA:90,0
DA:92,0
DA:98,0
DA:99,0
DA:100,0
DA:101,0
DA:102,0
DA:103,0
DA:105,0
DA:107,0
DA:126,0
DA:130,0
DA:133,0
DA:138,0
DA:156,0
DA:159,0
DA:8,0
DA:20,0
DA:21,0
DA:22,0
DA:23,0
DA:25,0
DA:27,0
DA:29,0
DA:31,0
DA:36,0
DA:37,0
DA:55,0
DA:58,0
DA:67,0
DA:69,0
DA:70,0
DA:71,0
DA:73,0
DA:75,0
DA:78,0
DA:79,0
DA:80,0
DA:81,0
DA:82,0
DA:88,0
DA:89,0
DA:90,0
DA:92,0
DA:98,0
DA:99,0
DA:100,0
DA:101,0
DA:102,0
DA:103,0
DA:105,0
DA:107,0
DA:126,0
DA:130,0
DA:133,0
DA:138,0
DA:156,0
DA:159,0
DA:8,0
DA:20,0
DA:21,0
DA:22,0
DA:23,0
DA:25,0
DA:27,0
DA:29,0
DA:31,0
DA:36,0
DA:37,0
DA:55,0
DA:58,0
DA:67,0
DA:69,0
DA:70,0
DA:71,0
DA:73,0
DA:75,0
DA:78,0
DA:79,0
DA:80,0
DA:81,0
DA:82,0
DA:88,0
DA:89,0
DA:90,0
DA:92,0
DA:98,0
DA:99,0
DA:100,0
DA:101,0
DA:102,0
DA:103,0
DA:105,0
DA:107,0
DA:126,0
DA:130,0
DA:133,0
DA:138,0
DA:156,0
DA:159,0
DA:8,0
DA:20,0
DA:21,0
DA:22,0
DA:23,0
DA:25,0
DA:27,0
DA:29,0
DA:31,0
DA:36,0
DA:37,0
DA:55,0
DA:58,0
DA:67,0
DA:69,0
DA:70,0
DA:71,0
DA:73,0
DA:75,0
DA:78,0
DA:79,0
DA:80,0
DA:81,0
DA:82,0
DA:88,0
DA:89,0
DA:90,0
DA:92,0
DA:98,0
DA:99,0
DA:100,0
DA:101,0
DA:102,0
DA:103,0
DA:105,0
DA:107,0
DA:126,0
DA:130,0
DA:133,0
DA:138,0
DA:156,0
DA:159,0
DA:8,0
DA:20,0
DA:21,0
DA:22,0
DA:23,0
DA:25,0
DA:27,0
DA:29,0
DA:31,0
DA:36,0
DA:37,0
DA:55,0
DA:58,0
DA:67,0
DA:69,0
DA:70,0
DA:71,0
DA:73,0
DA:75,0
DA:78,0
DA:79,0
DA:80,0
DA:81,0
DA:82,0
DA:88,0
DA:89,0
DA:90,0
DA:92,0
DA:98,0
DA:99,0
DA:100,0
DA:101,0
DA:102,0
DA:103,0
DA:105,0
DA:107,0
DA:126,0
DA:130,0
DA:133,0
DA:138,0
DA:156,0
DA:159,0
DA:8,0
DA:20,0
DA:21,0
DA:22,0
DA:23,0
DA:25,0
DA:27,0
DA:29,0
DA:31,0
DA:36,0
DA:37,0
DA:55,0
DA:58,0
DA:67,0
DA:69,0
DA:70,0
DA:71,0
DA:73,0
DA:75,0
DA:78,0
DA:79,0
DA:80,0
DA:81,0
DA:82,0
DA:88,0
DA:89,0
DA:90,0
DA:92,0
DA:98,0
DA:99,0
DA:100,0
DA:101,0
DA:102,0
DA:103,0
DA:105,0
DA:107,0
DA:126,0
DA:130,0
DA:133,0
DA:138,0
DA:156,0
DA:159,0
DA:8,0
DA:20,0
DA:21,0
DA:22,0
DA:23,0
DA:25,0
DA:27,0
DA:29,0
DA:31,0
DA:36,0
DA:37,0
DA:55,0
DA:58,0
DA:67,0
DA:69,0
DA:70,0
DA:71,0
DA:73,0
DA:75,0
DA:78,0
DA:79,0
DA:80,0
DA:81,0
DA:82,0
DA:88,0
DA:89,0
DA:90,0
DA:92,0
DA:98,0
DA:99,0
DA:100,0
DA:101,0
DA:102,0
DA:103,0
DA:105,0
DA:107,0
DA:126,0
DA:130,0
DA:133,0
DA:138,0
DA:156,0
DA:159,0
DA:8,2
DA:20,2
DA:21,0
DA:22,2
DA:23,0
DA:25,2
DA:27,4
DA:29,2
DA:31,2
DA:36,2
DA:37,2
DA:55,0
DA:58,0
DA:67,0
DA:69,0
DA:70,0
DA:71,0
DA:73,0
DA:75,0
DA:78,0
DA:79,0
DA:80,0
DA:81,0
DA:82,0
DA:88,0
DA:89,0
DA:90,0
DA:92,0
DA:98,0
DA:99,0
DA:100,0
DA:101,0
DA:102,0
DA:103,0
DA:105,0
DA:107,0
DA:126,0
DA:130,0
DA:133,0
DA:138,0
DA:156,0
DA:159,0
DA:8,0
DA:20,0
DA:21,0
DA:22,0
DA:23,0
DA:25,0
DA:27,0
DA:29,0
DA:31,0
DA:36,0
DA:37,0
DA:55,0
DA:58,0
DA:67,0
DA:69,0
DA:70,0
DA:71,0
DA:73,0
DA:75,0
DA:78,0
DA:79,0
DA:80,0
DA:81,0
DA:82,0
DA:88,0
DA:89,0
DA:90,0
DA:92,0
DA:98,0
DA:99,0
DA:100,0
DA:101,0
DA:102,0
DA:103,0
DA:105,0
DA:107,0
DA:126,0
DA:130,0
DA:133,0
DA:138,0
DA:156,0
DA:159,0
DA:8,0
DA:20,0
DA:21,0
DA:22,0
DA:23,0
DA:25,0
DA:27,0
DA:29,0
DA:31,0
DA:36,0
DA:37,0
DA:55,0
DA:58,0
DA:67,0
DA:69,0
DA:70,0
DA:71,0
DA:73,0
DA:75,0
DA:78,0
DA:79,0
DA:80,0
DA:81,0
DA:82,0
DA:88,0
DA:89,0
DA:90,0
DA:92,0
DA:98,0
DA:99,0
DA:100,0
DA:101,0
DA:102,0
DA:103,0
DA:105,0
DA:107,0
DA:126,0
DA:130,0
DA:133,0
DA:138,0
DA:156,0
DA:159,0
DA:8,0
DA:20,0
DA:21,0
DA:22,0
DA:23,0
DA:25,0
DA:27,0
DA:29,0
DA:31,0
DA:36,0
DA:37,0
DA:55,0
DA:58,0
DA:67,0
DA:69,0
DA:70,0
DA:71,0
DA:73,0
DA:75,0
DA:78,0
DA:79,0
DA:80,0
DA:81,0
DA:82,0
DA:88,0
DA:89,0
DA:90,0
DA:92,0
DA:98,0
DA:99,0
DA:100,0
DA:101,0
DA:102,0
DA:103,0
DA:105,0
DA:107,0
DA:126,0
DA:130,0
DA:133,0
DA:138,0
DA:156,0
DA:159,0
DA:8,0
DA:20,0
DA:21,0
DA:22,0
DA:23,0
DA:25,0
DA:27,0
DA:29,0
DA:31,0
DA:36,0
DA:37,0
DA:55,0
DA:58,0
DA:67,0
DA:69,0
DA:70,0
DA:71,0
DA:73,0
DA:75,0
DA:78,0
DA:79,0
DA:80,0
DA:81,0
DA:82,0
DA:88,0
DA:89,0
DA:90,0
DA:92,0
DA:98,0
DA:99,0
DA:100,0
DA:101,0
DA:102,0
DA:103,0
DA:105,0
DA:107,0
DA:126,0
DA:130,0
DA:133,0
DA:138,0
DA:156,0
DA:159,0
DA:8,2
DA:20,2
DA:21,0
DA:22,2
DA:23,0
DA:25,2
DA:27,4
DA:29,2
DA:31,2
DA:36,2
DA:37,2
DA:55,0
DA:58,0
DA:67,0
DA:69,0
DA:70,0
DA:71,0
DA:73,0
DA:75,0
DA:78,0
DA:79,0
DA:80,0
DA:81,0
DA:82,0
DA:88,0
DA:89,0
DA:90,0
DA:92,0
DA:98,0
DA:99,0
DA:100,0
DA:101,0
DA:102,0
DA:103,0
DA:105,0
DA:107,0
DA:126,0
DA:130,0
DA:133,0
DA:138,0
DA:156,0
DA:159,0
DA:8,0
DA:20,0
DA:21,0
DA:22,0
DA:23,0
DA:25,0
DA:27,0
DA:29,0
DA:31,0
DA:36,0
DA:37,0
DA:55,0
DA:58,0
DA:67,0
DA:69,0
DA:70,0
DA:71,0
DA:73,0
DA:75,0
DA:78,0
DA:79,0
DA:80,0
DA:81,0
DA:82,0
DA:88,0
DA:89,0
DA:90,0
DA:92,0
DA:98,0
DA:99,0
DA:100,0
DA:101,0
DA:102,0
DA:103,0
DA:105,0
DA:107,0
DA:126,0
DA:130,0
DA:133,0
DA:138,0
DA:156,0
DA:159,0
DA:8,0
DA:20,0
DA:21,0
DA:22,0
DA:23,0
DA:25,0
DA:27,0
DA:29,0
DA:31,0
DA:36,0
DA:37,0
DA:55,0
DA:58,0
DA:67,0
DA:69,0
DA:70,0
DA:71,0
DA:73,0
DA:75,0
DA:78,0
DA:79,0
DA:80,0
DA:81,0
DA:82,0
DA:88,0
DA:89,0
DA:90,0
DA:92,0
DA:98,0
DA:99,0
DA:100,0
DA:101,0
DA:102,0
DA:103,0
DA:105,0
DA:107,0
DA:126,0
DA:130,0
DA:133,0
DA:138,0
DA:156,0
DA:159,0
DA:8,0
DA:20,0
DA:21,0
DA:22,0
DA:23,0
DA:25,0
DA:27,0
DA:29,0
DA:31,0
DA:36,0
DA:37,0
DA:55,0
DA:58,0
DA:67,0
DA:69,0
DA:70,0
DA:71,0
DA:73,0
DA:75,0
DA:78,0
DA:79,0
DA:80,0
DA:81,0
DA:82,0
DA:88,0
DA:89,0
DA:90,0
DA:92,0
DA:98,0
DA:99,0
DA:100,0
DA:101,0
DA:102,0
DA:103,0
DA:105,0
DA:107,0
DA:126,0
DA:130,0
DA:133,0
DA:138,0
DA:156,0
DA:159,0
DA:8,0
DA:20,0
DA:21,0
DA:22,0
DA:23,0
DA:25,0
DA:27,0
DA:29,0
DA:31,0
DA:36,0
DA:37,0
DA:55,0
DA:58,0
DA:67,0
DA:69,0
DA:70,0
DA:71,0
DA:73,0
DA:75,0
DA:78,0
DA:79,0
DA:80,0
DA:81,0
DA:82,0
DA:88,0
DA:89,0
DA:90,0
DA:92,0
DA:98,0
DA:99,0
DA:100,0
DA:101,0
DA:102,0
DA:103,0
DA:105,0
DA:107,0
DA:126,0
DA:130,0
DA:133,0
DA:138,0
DA:156,0
DA:159,0
DA:168,0
DA:175,0
DA:177,0
DA:178,0
DA:179,0
DA:181,0
DA:182,0
DA:184,0
DA:186,0
DA:187,0
DA:191,0
DA:193,0
DA:194,0
DA:203,0
DA:225,0
DA:229,0
DA:231,0
DA:232,0
DA:236,0
DA:237,0
DA:238,0
DA:239,0
DA:240,0
DA:241,0
DA:244,0
DA:168,0
DA:175,0
DA:177,0
DA:178,0
DA:179,0
DA:181,0
DA:182,0
DA:184,0
DA:186,0
DA:187,0
DA:191,0
DA:193,0
DA:194,0
DA:203,0
DA:225,0
DA:229,0
DA:231,0
DA:232,0
DA:236,0
DA:237,0
DA:238,0
DA:239,0
DA:240,0
DA:241,0
DA:244,0
DA:168,0
DA:175,0
DA:177,0
DA:178,0
DA:179,0
DA:181,0
DA:182,0
DA:184,0
DA:186,0
DA:187,0
DA:191,0
DA:193,0
DA:194,0
DA:203,0
DA:225,0
DA:229,0
DA:231,0
DA:232,0
DA:236,0
DA:237,0
DA:238,0
DA:239,0
DA:240,0
DA:241,0
DA:244,0
DA:168,0
DA:175,0
DA:177,0
DA:178,0
DA:179,0
DA:181,0
DA:182,0
DA:184,0
DA:186,0
DA:187,0
DA:191,0
DA:193,0
DA:194,0
DA:203,0
DA:225,0
DA:229,0
DA:231,0
DA:232,0
DA:236,0
DA:237,0
DA:238,0
DA:239,0
DA:240,0
DA:241,0
DA:244,0
DA:168,0
DA:175,0
DA:177,0
DA:178,0
DA:179,0
DA:181,0
DA:182,0
DA:184,0
DA:186,0
DA:187,0
DA:191,0
DA:193,0
DA:194,0
DA:203,0
DA:225,0
DA:229,0
DA:231,0
DA:232,0
DA:236,0
DA:237,0
DA:238,0
DA:239,0
DA:240,0
DA:241,0
DA:244,0
DA:168,0
DA:175,0
DA:177,0
DA:178,0
DA:179,0
DA:181,0
DA:182,0
DA:184,0
DA:186,0
DA:187,0
DA:191,0
DA:193,0
DA:194,0
DA:203,0
DA:225,0
DA:229,0
DA:231,0
DA:232,0
DA:236,0
DA:237,0
DA:238,0
DA:239,0
DA:240,0
DA:241,0
DA:244,0
DA:168,0
DA:175,0
DA:177,0
DA:178,0
DA:179,0
DA:181,0
DA:182,0
DA:184,0
DA:186,0
DA:187,0
DA:191,0
DA:193,0
DA:194,0
DA:203,0
DA:225,0
DA:229,0
DA:231,0
DA:232,0
DA:236,0
DA:237,0
DA:238,0
DA:239,0
DA:240,0
DA:241,0
DA:244,0
DA:168,0
DA:175,0
DA:177,0
DA:178,0
DA:179,0
DA:181,0
DA:182,0
DA:184,0
DA:186,0
DA:187,0
DA:191,0
DA:193,0
DA:194,0
DA:203,0
DA:225,0
DA:229,0
DA:231,0
DA:232,0
DA:236,0
DA:237,0
DA:238,0
DA:239,0
DA:240,0
DA:241,0
DA:244,0
DA:168,0
DA:175,0
DA:177,0
DA:178,0
DA:179,0
DA:181,0
DA:182,0
DA:184,0
DA:186,0
DA:187,0
DA:191,0
DA:193,0
DA:194,0
DA:203,0
DA:225,0
DA:229,0
DA:231,0
DA:232,0
DA:236,0
DA:237,0
DA:238,0
DA:239,0
DA:240,0
DA:241,0
DA:244,0
DA:168,2
DA:175,4
DA:177,0
DA:178,0
DA:179,0
DA:181,0
DA:182,0
DA:184,0
DA:186,0
DA:187,0
DA:191,0
DA:193,0
DA:194,0
DA:203,0
DA:225,0
DA:229,0
DA:231,0
DA:232,0
DA:236,0
DA:237,0
DA:238,0
DA:239,0
DA:240,0
DA:241,0
DA:244,0
DA:168,0
DA:175,0
DA:177,0
DA:178,0
DA:179,0
DA:181,0
DA:182,0
DA:184,0
DA:186,0
DA:187,0
DA:191,0
DA:193,0
DA:194,0
DA:203,0
DA:225,0
DA:229,0
DA:231,0
DA:232,0
DA:236,0
DA:237,0
DA:238,0
DA:239,0
DA:240,0
DA:241,0
DA:244,0
DA:168,0
DA:175,0
DA:177,0
DA:178,0
DA:179,0
DA:181,0
DA:182,0
DA:184,0
DA:186,0
DA:187,0
DA:191,0
DA:193,0
DA:194,0
DA:203,0
DA:225,0
DA:229,0
DA:231,0
DA:232,0
DA:236,0
DA:237,0
DA:238,0
DA:239,0
DA:240,0
DA:241,0
DA:244,0
DA:168,0
DA:175,0
DA:177,0
DA:178,0
DA:179,0
DA:181,0
DA:182,0
DA:184,0
DA:186,0
DA:187,0
DA:191,0
DA:193,0
DA:194,0
DA:203,0
DA:225,0
DA:229,0
DA:231,0
DA:232,0
DA:236,0
DA:237,0
DA:238,0
DA:239,0
DA:240,0
DA:241,0
DA:244,0
DA:168,0
DA:175,0
DA:177,0
DA:178,0
DA:179,0
DA:181,0
DA:182,0
DA:184,0
DA:186,0
DA:187,0
DA:191,0
DA:193,0
DA:194,0
DA:203,0
DA:225,0
DA:229,0
DA:231,0
DA:232,0
DA:236,0
DA:237,0
DA:238,0
DA:239,0
DA:240,0
DA:241,0
DA:244,0
DA:168,2
DA:175,4
DA:177,0
DA:178,0
DA:179,0
DA:181,0
DA:182,0
DA:184,0
DA:186,0
DA:187,0
DA:191,0
DA:193,0
DA:194,0
DA:203,0
DA:225,0
DA:229,0
DA:231,0
DA:232,0
DA:236,0
DA:237,0
DA:238,0
DA:239,0
DA:240,0
DA:241,0
DA:244,0
DA:168,0
DA:175,0
DA:177,0
DA:178,0
DA:179,0
DA:181,0
DA:182,0
DA:184,0
DA:186,0
DA:187,0
DA:191,0
DA:193,0
DA:194,0
DA:203,0
DA:225,0
DA:229,0
DA:231,0
DA:232,0
DA:236,0
DA:237,0
DA:238,0
DA:239,0
DA:240,0
DA:241,0
DA:244,0
DA:168,0
DA:175,0
DA:177,0
DA:178,0
DA:179,0
DA:181,0
DA:182,0
DA:184,0
DA:186,0
DA:187,0
DA:191,0
DA:193,0
DA:194,0
DA:203,0
DA:225,0
DA:229,0
DA:231,0
DA:232,0
DA:236,0
DA:237,0
DA:238,0
DA:239,0
DA:240,0
DA:241,0
DA:244,0
DA:168,0
DA:175,0
DA:177,0
DA:178,0
DA:179,0
DA:181,0
DA:182,0
DA:184,0
DA:186,0
DA:187,0
DA:191,0
DA:193,0
DA:194,0
DA:203,0
DA:225,0
DA:229,0
DA:231,0
DA:232,0
DA:236,0
DA:237,0
DA:238,0
DA:239,0
DA:240,0
DA:241,0
DA:244,0
DA:168,0
DA:175,0
DA:177,0
DA:178,0
DA:179,0
DA:181,0
DA:182,0
DA:184,0
DA:186,0
DA:187,0
DA:191,0
DA:193,0
DA:194,0
DA:203,0
DA:225,0
DA:229,0
DA:231,0
DA:232,0
DA:236,0
DA:237,0
DA:238,0
DA:239,0
DA:240,0
DA:241,0
DA:244,0
DA:252,0
DA:264,0
DA:265,0
DA:266,0
DA:252,0
DA:264,0
DA:265,0
DA:266,0
DA:252,0
DA:264,0
DA:265,0
DA:266,0
DA:252,0
DA:264,0
DA:265,0
DA:266,0
DA:252,0
DA:264,0
DA:265,0
DA:266,0
DA:252,0
DA:264,0
DA:265,0
DA:266,0
DA:252,0
DA:264,0
DA:265,0
DA:266,0
DA:252,0
DA:264,0
DA:265,0
DA:266,0
DA:252,0
DA:264,0
DA:265,0
DA:266,0
DA:252,0
DA:264,0
DA:265,0
DA:266,0
DA:252,0
DA:264,0
DA:265,0
DA:266,0
DA:252,0
DA:264,0
DA:265,0
DA:266,0
DA:252,0
DA:264,0
DA:265,0
DA:266,0
DA:270,0
DA:280,0
DA:282,0
DA:283,0
DA:270,0
DA:280,0
DA:282,0
DA:283,0
DA:270,0
DA:280,0
DA:282,0
DA:283,0
DA:270,0
DA:280,0
DA:282,0
DA:283,0
DA:270,0
DA:280,0
DA:282,0
DA:283,0
DA:270,0
DA:280,0
DA:282,0
DA:283,0
DA:270,0
DA:280,0
DA:282,0
DA:283,0
DA:270,0
DA:280,0
DA:282,0
DA:283,0
DA:270,0
DA:280,0
DA:282,0
DA:283,0
DA:270,0
DA:280,0
DA:282,0
DA:283,0
DA:270,0
DA:280,0
DA:282,0
DA:283,0
DA:270,0
DA:280,0
DA:282,0
DA:283,0
DA:270,0
DA:280,0
DA:282,0
DA:283,0
DA:309,0
DA:325,0
DA:326,0
DA:334,0
DA:336,0
DA:337,0
DA:338,0
DA:339,0
DA:340,0
DA:347,0
DA:348,0
DA:349,0
DA:351,0
DA:354,0
DA:357,0
DA:359,0
DA:365,0
DA:366,0
DA:375,0
DA:378,0
DA:387,0
DA:389,0
DA:390,0
DA:391,0
DA:393,0
DA:398,0
DA:404,0
DA:405,0
DA:407,0
DA:409,0
DA:410,0
DA:411,0
DA:412,0
DA:413,0
DA:415,0
DA:416,0
DA:418,0
DA:419,0
DA:420,0
DA:425,0
DA:427,0
DA:428,0
DA:429,0
DA:430,0
DA:431,0
DA:437,0
DA:438,0
DA:439,0
DA:440,0
DA:442,0
DA:444,0
DA:445,0
DA:455,0
DA:459,0
DA:465,0
DA:475,0
DA:479,0
DA:481,0
DA:483,0
DA:484,0
DA:487,0
DA:488,0
DA:309,0
DA:325,0
DA:326,0
DA:334,0
DA:336,0
DA:337,0
DA:338,0
DA:339,0
DA:340,0
DA:347,0
DA:348,0
DA:349,0
DA:351,0
DA:354,0
DA:357,0
DA:359,0
DA:365,0
DA:366,0
DA:375,0
DA:378,0
DA:387,0
DA:389,0
DA:390,0
DA:391,0
DA:393,0
DA:398,0
DA:404,0
DA:405,0
DA:407,0
DA:409,0
DA:410,0
DA:411,0
DA:412,0
DA:413,0
DA:415,0
DA:416,0
DA:418,0
DA:419,0
DA:420,0
DA:425,0
DA:427,0
DA:428,0
DA:429,0
DA:430,0
DA:431,0
DA:437,0
DA:438,0
DA:439,0
DA:440,0
DA:442,0
DA:444,0
DA:445,0
DA:455,0
DA:459,0
DA:465,0
DA:475,0
DA:479,0
DA:481,0
DA:483,0
DA:484,0
DA:487,0
DA:488,0
DA:309,0
DA:325,0
DA:326,0
DA:334,0
DA:336,0
DA:337,0
DA:338,0
DA:339,0
DA:340,0
DA:347,0
DA:348,0
DA:349,0
DA:351,0
DA:354,0
DA:357,0
DA:359,0
DA:365,0
DA:366,0
DA:375,0
DA:378,0
DA:387,0
DA:389,0
DA:390,0
DA:391,0
DA:393,0
DA:398,0
DA:404,0
DA:405,0
DA:407,0
DA:409,0
DA:410,0
DA:411,0
DA:412,0
DA:413,0
DA:415,0
DA:416,0
DA:418,0
DA:419,0
DA:420,0
DA:425,0
DA:427,0
DA:428,0
DA:429,0
DA:430,0
DA:431,0
DA:437,0
DA:438,0
DA:439,0
DA:440,0
DA:442,0
DA:444,0
DA:445,0
DA:455,0
DA:459,0
DA:465,0
DA:475,0
DA:479,0
DA:481,0
DA:483,0
DA:484,0
DA:487,0
DA:488,0
DA:309,0
DA:325,0
DA:326,0
DA:334,0
DA:336,0
DA:337,0
DA:338,0
DA:339,0
DA:340,0
DA:347,0
DA:348,0
DA:349,0
DA:351,0
DA:354,0
DA:357,0
DA:359,0
DA:365,0
DA:366,0
DA:375,0
DA:378,0
DA:387,0
DA:389,0
DA:390,0
DA:391,0
DA:393,0
DA:398,0
DA:404,0
DA:405,0
DA:407,0
DA:409,0
DA:410,0
DA:411,0
DA:412,0
DA:413,0
DA:415,0
DA:416,0
DA:418,0
DA:419,0
DA:420,0
DA:425,0
DA:427,0
DA:428,0
DA:429,0
DA:430,0
DA:431,0
DA:437,0
DA:438,0
DA:439,0
DA:440,0
DA:442,0
DA:444,0
DA:445,0
DA:455,0
DA:459,0
DA:465,0
DA:475,0
DA:479,0
DA:481,0
DA:483,0
DA:484,0
DA:487,0
DA:488,0
DA:309,0
DA:325,0
DA:326,0
DA:334,0
DA:336,0
DA:337,0
DA:338,0
DA:339,0
DA:340,0
DA:347,0
DA:348,0
DA:349,0
DA:351,0
DA:354,0
DA:357,0
DA:359,0
DA:365,0
DA:366,0
DA:375,0
DA:378,0
DA:387,0
DA:389,0
DA:390,0
DA:391,0
DA:393,0
DA:398,0
DA:404,0
DA:405,0
DA:407,0
DA:409,0
DA:410,0
DA:411,0
DA:412,0
DA:413,0
DA:415,0
DA:416,0
DA:418,0
DA:419,0
DA:420,0
DA:425,0
DA:427,0
DA:428,0
DA:429,0
DA:430,0
DA:431,0
DA:437,0
DA:438,0
DA:439,0
DA:440,0
DA:442,0
DA:444,0
DA:445,0
DA:455,0
DA:459,0
DA:465,0
DA:475,0
DA:479,0
DA:481,0
DA:483,0
DA:484,0
DA:487,0
DA:488,0
DA:309,0
DA:325,0
DA:326,0
DA:334,0
DA:336,0
DA:337,0
DA:338,0
DA:339,0
DA:340,0
DA:347,0
DA:348,0
DA:349,0
DA:351,0
DA:354,0
DA:357,0
DA:359,0
DA:365,0
DA:366,0
DA:375,0
DA:378,0
DA:387,0
DA:389,0
DA:390,0
DA:391,0
DA:393,0
DA:398,0
DA:404,0
DA:405,0
DA:407,0
DA:409,0
DA:410,0
DA:411,0
DA:412,0
DA:413,0
DA:415,0
DA:416,0
DA:418,0
DA:419,0
DA:420,0
DA:425,0
DA:427,0
DA:428,0
DA:429,0
DA:430,0
DA:431,0
DA:437,0
DA:438,0
DA:439,0
DA:440,0
DA:442,0
DA:444,0
DA:445,0
DA:455,0
DA:459,0
DA:465,0
DA:475,0
DA:479,0
DA:481,0
DA:483,0
DA:484,0
DA:487,0
DA:488,0
DA:309,0
DA:325,0
DA:326,0
DA:334,0
DA:336,0
DA:337,0
DA:338,0
DA:339,0
DA:340,0
DA:347,0
DA:348,0
DA:349,0
DA:351,0
DA:354,0
DA:357,0
DA:359,0
DA:365,0
DA:366,0
DA:375,0
DA:378,0
DA:387,0
DA:389,0
DA:390,0
DA:391,0
DA:393,0
DA:398,0
DA:404,0
DA:405,0
DA:407,0
DA:409,0
DA:410,0
DA:411,0
DA:412,0
DA:413,0
DA:415,0
DA:416,0
DA:418,0
DA:419,0
DA:420,0
DA:425,0
DA:427,0
DA:428,0
DA:429,0
DA:430,0
DA:431,0
DA:437,0
DA:438,0
DA:439,0
DA:440,0
DA:442,0
DA:444,0
DA:445,0
DA:455,0
DA:459,0
DA:465,0
DA:475,0
DA:479,0
DA:481,0
DA:483,0
DA:484,0
DA:487,0
DA:488,0
DA:309,0
DA:325,0
DA:326,0
DA:334,0
DA:336,0
DA:337,0
DA:338,0
DA:339,0
DA:340,0
DA:347,0
DA:348,0
DA:349,0
DA:351,0
DA:354,0
DA:357,0
DA:359,0
DA:365,0
DA:366,0
DA:375,0
DA:378,0
DA:387,0
DA:389,0
DA:390,0
DA:391,0
DA:393,0
DA:398,0
DA:404,0
DA:405,0
DA:407,0
DA:409,0
DA:410,0
DA:411,0
DA:412,0
DA:413,0
DA:415,0
DA:416,0
DA:418,0
DA:419,0
DA:420,0
DA:425,0
DA:427,0
DA:428,0
DA:429,0
DA:430,0
DA:431,0
DA:437,0
DA:438,0
DA:439,0
DA:440,0
DA:442,0
DA:444,0
DA:445,0
DA:455,0
DA:459,0
DA:465,0
DA:475,0
DA:479,0
DA:481,0
DA:483,0
DA:484,0
DA:487,0
DA:488,0
DA:309,0
DA:325,0
DA:326,0
DA:334,0
DA:336,0
DA:337,0
DA:338,0
DA:339,0
DA:340,0
DA:347,0
DA:348,0
DA:349,0
DA:351,0
DA:354,0
DA:357,0
DA:359,0
DA:365,0
DA:366,0
DA:375,0
DA:378,0
DA:387,0
DA:389,0
DA:390,0
DA:391,0
DA:393,0
DA:398,0
DA:404,0
DA:405,0
DA:407,0
DA:409,0
DA:410,0
DA:411,0
DA:412,0
DA:413,0
DA:415,0
DA:416,0
DA:418,0
DA:419,0
DA:420,0
DA:425,0
DA:427,0
DA:428,0
DA:429,0
DA:430,0
DA:431,0
DA:437,0
DA:438,0
DA:439,0
DA:440,0
DA:442,0
DA:444,0
DA:445,0
DA:455,0
DA:459,0
DA:465,0
DA:475,0
DA:479,0
DA:481,0
DA:483,0
DA:484,0
DA:487,0
DA:488,0
DA:309,0
DA:325,0
DA:326,0
DA:334,0
DA:336,0
DA:337,0
DA:338,0
DA:339,0
DA:340,0
DA:347,0
DA:348,0
DA:349,0
DA:351,0
DA:354,0
DA:357,0
DA:359,0
DA:365,0
DA:366,0
DA:375,0
DA:378,0
DA:387,0
DA:389,0
DA:390,0
DA:391,0
DA:393,0
DA:398,0
DA:404,0
DA:405,0
DA:407,0
DA:409,0
DA:410,0
DA:411,0
DA:412,0
DA:413,0
DA:415,0
DA:416,0
DA:418,0
DA:419,0
DA:420,0
DA:425,0
DA:427,0
DA:428,0
DA:429,0
DA:430,0
DA:431,0
DA:437,0
DA:438,0
DA:439,0
DA:440,0
DA:442,0
DA:444,0
DA:445,0
DA:455,0
DA:459,0
DA:465,0
DA:475,0
DA:479,0
DA:481,0
DA:483,0
DA:484,0
DA:487,0
DA:488,0
DA:309,0
DA:325,0
DA:326,0
DA:334,0
DA:336,0
DA:337,0
DA:338,0
DA:339,0
DA:340,0
DA:347,0
DA:348,0
DA:349,0
DA:351,0
DA:354,0
DA:357,0
DA:359,0
DA:365,0
DA:366,0
DA:375,0
DA:378,0
DA:387,0
DA:389,0
DA:390,0
DA:391,0
DA:393,0
DA:398,0
DA:404,0
DA:405,0
DA:407,0
DA:409,0
DA:410,0
DA:411,0
DA:412,0
DA:413,0
DA:415,0
DA:416,0
DA:418,0
DA:419,0
DA:420,0
DA:425,0
DA:427,0
DA:428,0
DA:429,0
DA:430,0
DA:431,0
DA:437,0
DA:438,0
DA:439,0
DA:440,0
DA:442,0
DA:444,0
DA:445,0
DA:455,0
DA:459,0
DA:465,0
DA:475,0
DA:479,0
DA:481,0
DA:483,0
DA:484,0
DA:487,0
DA:488,0
DA:309,0
DA:325,0
DA:326,0
DA:334,0
DA:336,0
DA:337,0
DA:338,0
DA:339,0
DA:340,0
DA:347,0
DA:348,0
DA:349,0
DA:351,0
DA:354,0
DA:357,0
DA:359,0
DA:365,0
DA:366,0
DA:375,0
DA:378,0
DA:387,0
DA:389,0
DA:390,0
DA:391,0
DA:393,0
DA:398,0
DA:404,0
DA:405,0
DA:407,0
DA:409,0
DA:410,0
DA:411,0
DA:412,0
DA:413,0
DA:415,0
DA:416,0
DA:418,0
DA:419,0
DA:420,0
DA:425,0
DA:427,0
DA:428,0
DA:429,0
DA:430,0
DA:431,0
DA:437,0
DA:438,0
DA:439,0
DA:440,0
DA:442,0
DA:444,0
DA:445,0
DA:455,0
DA:459,0
DA:465,0
DA:475,0
DA:479,0
DA:481,0
DA:483,0
DA:484,0
DA:487,0
DA:488,0
DA:309,0
DA:325,0
DA:326,0
DA:334,0
DA:336,0
DA:337,0
DA:338,0
DA:339,0
DA:340,0
DA:347,0
DA:348,0
DA:349,0
DA:351,0
DA:354,0
DA:357,0
DA:359,0
DA:365,0
DA:366,0
DA:375,0
DA:378,0
DA:387,0
DA:389,0
DA:390,0
DA:391,0
DA:393,0
DA:398,0
DA:404,0
DA:405,0
DA:407,0
DA:409,0
DA:410,0
DA:411,0
DA:412,0
DA:413,0
DA:415,0
DA:416,0
DA:418,0
DA:419,0
DA:420,0
DA:425,0
DA:427,0
DA:428,0
DA:429,0
DA:430,0
DA:431,0
DA:437,0
DA:438,0
DA:439,0
DA:440,0
DA:442,0
DA:444,0
DA:445,0
DA:455,0
DA:459,0
DA:465,0
DA:475,0
DA:479,0
DA:481,0
DA:483,0
DA:484,0
DA:487,0
DA:488,0
DA:496,0
DA:504,0
DA:506,0
DA:508,0
DA:509,0
DA:511,0
DA:513,0
DA:514,0
DA:516,0
DA:518,0
DA:519,0
DA:523,0
DA:524,0
DA:525,0
DA:534,0
DA:545,0
DA:546,0
DA:549,0
DA:551,0
DA:552,0
DA:556,0
DA:557,0
DA:558,0
DA:559,0
DA:561,0
DA:562,0
DA:565,0
DA:496,0
DA:504,0
DA:506,0
DA:508,0
DA:509,0
DA:511,0
DA:513,0
DA:514,0
DA:516,0
DA:518,0
DA:519,0
DA:523,0
DA:524,0
DA:525,0
DA:534,0
DA:545,0
DA:546,0
DA:549,0
DA:551,0
DA:552,0
DA:556,0
DA:557,0
DA:558,0
DA:559,0
DA:561,0
DA:562,0
DA:565,0
DA:496,0
DA:504,0
DA:506,0
DA:508,0
DA:509,0
DA:511,0
DA:513,0
DA:514,0
DA:516,0
DA:518,0
DA:519,0
DA:523,0
DA:524,0
DA:525,0
DA:534,0
DA:545,0
DA:546,0
DA:549,0
DA:551,0
DA:552,0
DA:556,0
DA:557,0
DA:558,0
DA:559,0
DA:561,0
DA:562,0
DA:565,0
DA:496,0
DA:504,0
DA:506,0
DA:508,0
DA:509,0
DA:511,0
DA:513,0
DA:514,0
DA:516,0
DA:518,0
DA:519,0
DA:523,0
DA:524,0
DA:525,0
DA:534,0
DA:545,0
DA:546,0
DA:549,0
DA:551,0
DA:552,0
DA:556,0
DA:557,0
DA:558,0
DA:559,0
DA:561,0
DA:562,0
DA:565,0
DA:496,0
DA:504,0
DA:506,0
DA:508,0
DA:509,0
DA:511,0
DA:513,0
DA:514,0
DA:516,0
DA:518,0
DA:519,0
DA:523,0
DA:524,0
DA:525,0
DA:534,0
DA:545,0
DA:546,0
DA:549,0
DA:551,0
DA:552,0
DA:556,0
DA:557,0
DA:558,0
DA:559,0
DA:561,0
DA:562,0
DA:565,0
DA:496,0
DA:504,0
DA:506,0
DA:508,0
DA:509,0
DA:511,0
DA:513,0
DA:514,0
DA:516,0
DA:518,0
DA:519,0
DA:523,0
DA:524,0
DA:525,0
DA:534,0
DA:545,0
DA:546,0
DA:549,0
DA:551,0
DA:552,0
DA:556,0
DA:557,0
DA:558,0
DA:559,0
DA:561,0
DA:562,0
DA:565,0
DA:496,0
DA:504,0
DA:506,0
DA:508,0
DA:509,0
DA:511,0
DA:513,0
DA:514,0
DA:516,0
DA:518,0
DA:519,0
DA:523,0
DA:524,0
DA:525,0
DA:534,0
DA:545,0
DA:546,0
DA:549,0
DA:551,0
DA:552,0
DA:556,0
DA:557,0
DA:558,0
DA:559,0
DA:561,0
DA:562,0
DA:565,0
DA:496,0
DA:504,0
DA:506,0
DA:508,0
DA:509,0
DA:511,0
DA:513,0
DA:514,0
DA:516,0
DA:518,0
DA:519,0
DA:523,0
DA:524,0
DA:525,0
DA:534,0
DA:545,0
DA:546,0
DA:549,0
DA:551,0
DA:552,0
DA:556,0
DA:557,0
DA:558,0
DA:559,0
DA:561,0
DA:562,0
DA:565,0
DA:496,0
DA:504,0
DA:506,0
DA:508,0
DA:509,0
DA:511,0
DA:513,0
DA:514,0
DA:516,0
DA:518,0
DA:519,0
DA:523,0
DA:524,0
DA:525,0
DA:534,0
DA:545,0
DA:546,0
DA:549,0
DA:551,0
DA:552,0
DA:556,0
DA:557,0
DA:558,0
DA:559,0
DA:561,0
DA:562,0
DA:565,0
DA:496,0
DA:504,0
DA:506,0
DA:508,0
DA:509,0
DA:511,0
DA:513,0
DA:514,0
DA:516,0
DA:518,0
DA:519,0
DA:523,0
DA:524,0
DA:525,0
DA:534,0
DA:545,0
DA:546,0
DA:549,0
DA:551,0
DA:552,0
DA:556,0
DA:557,0
DA:558,0
DA:559,0
DA:561,0
DA:562,0
DA:565,0
DA:496,0
DA:504,0
DA:506,0
DA:508,0
DA:509,0
DA:511,0
DA:513,0
DA:514,0
DA:516,0
DA:518,0
DA:519,0
DA:523,0
DA:524,0
DA:525,0
DA:534,0
DA:545,0
DA:546,0
DA:549,0
DA:551,0
DA:552,0
DA:556,0
DA:557,0
DA:558,0
DA:559,0
DA:561,0
DA:562,0
DA:565,0
DA:496,0
DA:504,0
DA:506,0
DA:508,0
DA:509,0
DA:511,0
DA:513,0
DA:514,0
DA:516,0
DA:518,0
DA:519,0
DA:523,0
DA:524,0
DA:525,0
DA:534,0
DA:545,0
DA:546,0
DA:549,0
DA:551,0
DA:552,0
DA:556,0
DA:557,0
DA:558,0
DA:559,0
DA:561,0
DA:562,0
DA:565,0
DA:496,0
DA:504,0
DA:506,0
DA:508,0
DA:509,0
DA:511,0
DA:513,0
DA:514,0
DA:516,0
DA:518,0
DA:519,0
DA:523,0
DA:524,0
DA:525,0
DA:534,0
DA:545,0
DA:546,0
DA:549,0
DA:551,0
DA:552,0
DA:556,0
DA:557,0
DA:558,0
DA:559,0
DA:561,0
DA:562,0
DA:565,0
DA:635,0
DA:644,0
DA:645,0
DA:646,0
DA:647,0
DA:648,0
DA:649,0
DA:650,0
DA:651,0
DA:652,0
DA:653,0
DA:654,0
DA:655,0
DA:657,0
DA:658,0
DA:659,0
DA:661,0
DA:663,0
DA:664,0
DA:666,0
DA:669,0
DA:670,0
DA:673,0
DA:676,0
DA:677,0
DA:679,0
DA:680,0
DA:681,0
DA:682,0
DA:683,0
DA:686,0
DA:688,0
DA:689,0
DA:690,0
DA:693,0
DA:635,0
DA:644,0
DA:645,0
DA:646,0
DA:647,0
DA:648,0
DA:649,0
DA:650,0
DA:651,0
DA:652,0
DA:653,0
DA:654,0
DA:655,0
DA:657,0
DA:658,0
DA:659,0
DA:661,0
DA:663,0
DA:664,0
DA:666,0
DA:669,0
DA:670,0
DA:673,0
DA:676,0
DA:677,0
DA:679,0
DA:680,0
DA:681,0
DA:682,0
DA:683,0
DA:686,0
DA:688,0
DA:689,0
DA:690,0
DA:693,0
DA:635,0
DA:644,0
DA:645,0
DA:646,0
DA:647,0
DA:648,0
DA:649,0
DA:650,0
DA:651,0
DA:652,0
DA:653,0
DA:654,0
DA:655,0
DA:657,0
DA:658,0
DA:659,0
DA:661,0
DA:663,0
DA:664,0
DA:666,0
DA:669,0
DA:670,0
DA:673,0
DA:676,0
DA:677,0
DA:679,0
DA:680,0
DA:681,0
DA:682,0
DA:683,0
DA:686,0
DA:688,0
DA:689,0
DA:690,0
DA:693,0
DA:635,0
DA:644,0
DA:645,0
DA:646,0
DA:647,0
DA:648,0
DA:649,0
DA:650,0
DA:651,0
DA:652,0
DA:653,0
DA:654,0
DA:655,0
DA:657,0
DA:658,0
DA:659,0
DA:661,0
DA:663,0
DA:664,0
DA:666,0
DA:669,0
DA:670,0
DA:673,0
DA:676,0
DA:677,0
DA:679,0
DA:680,0
DA:681,0
DA:682,0
DA:683,0
DA:686,0
DA:688,0
DA:689,0
DA:690,0
DA:693,0
DA:635,0
DA:644,0
DA:645,0
DA:646,0
DA:647,0
DA:648,0
DA:649,0
DA:650,0
DA:651,0
DA:652,0
DA:653,0
DA:654,0
DA:655,0
DA:657,0
DA:658,0
DA:659,0
DA:661,0
DA:663,0
DA:664,0
DA:666,0
DA:669,0
DA:670,0
DA:673,0
DA:676,0
DA:677,0
DA:679,0
DA:680,0
DA:681,0
DA:682,0
DA:683,0
DA:686,0
DA:688,0
DA:689,0
DA:690,0
DA:693,0
DA:635,0
DA:644,0
DA:645,0
DA:646,0
DA:647,0
DA:648,0
DA:649,0
DA:650,0
DA:651,0
DA:652,0
DA:653,0
DA:654,0
DA:655,0
DA:657,0
DA:658,0
DA:659,0
DA:661,0
DA:663,0
DA:664,0
DA:666,0
DA:669,0
DA:670,0
DA:673,0
DA:676,0
DA:677,0
DA:679,0
DA:680,0
DA:681,0
DA:682,0
DA:683,0
DA:686,0
DA:688,0
DA:689,0
DA:690,0
DA:693,0
DA:635,0
DA:644,0
DA:645,0
DA:646,0
DA:647,0
DA:648,0
DA:649,0
DA:650,0
DA:651,0
DA:652,0
DA:653,0
DA:654,0
DA:655,0
DA:657,0
DA:658,0
DA:659,0
DA:661,0
DA:663,0
DA:664,0
DA:666,0
DA:669,0
DA:670,0
DA:673,0
DA:676,0
DA:677,0
DA:679,0
DA:680,0
DA:681,0
DA:682,0
DA:683,0
DA:686,0
DA:688,0
DA:689,0
DA:690,0
DA:693,0
DA:635,0
DA:644,0
DA:645,0
DA:646,0
DA:647,0
DA:648,0
DA:649,0
DA:650,0
DA:651,0
DA:652,0
DA:653,0
DA:654,0
DA:655,0
DA:657,0
DA:658,0
DA:659,0
DA:661,0
DA:663,0
DA:664,0
DA:666,0
DA:669,0
DA:670,0
DA:673,0
DA:676,0
DA:677,0
DA:679,0
DA:680,0
DA:681,0
DA:682,0
DA:683,0
DA:686,0
DA:688,0
DA:689,0
DA:690,0
DA:693,0
DA:635,0
DA:644,0
DA:645,0
DA:646,0
DA:647,0
DA:648,0
DA:649,0
DA:650,0
DA:651,0
DA:652,0
DA:653,0
DA:654,0
DA:655,0
DA:657,0
DA:658,0
DA:659,0
DA:661,0
DA:663,0
DA:664,0
DA:666,0
DA:669,0
DA:670,0
DA:673,0
DA:676,0
DA:677,0
DA:679,0
DA:680,0
DA:681,0
DA:682,0
DA:683,0
DA:686,0
DA:688,0
DA:689,0
DA:690,0
DA:693,0
DA:635,0
DA:644,0
DA:645,0
DA:646,0
DA:647,0
DA:648,0
DA:649,0
DA:650,0
DA:651,0
DA:652,0
DA:653,0
DA:654,0
DA:655,0
DA:657,0
DA:658,0
DA:659,0
DA:661,0
DA:663,0
DA:664,0
DA:666,0
DA:669,0
DA:670,0
DA:673,0
DA:676,0
DA:677,0
DA:679,0
DA:680,0
DA:681,0
DA:682,0
DA:683,0
DA:686,0
DA:688,0
DA:689,0
DA:690,0
DA:693,0
DA:635,0
DA:644,0
DA:645,0
DA:646,0
DA:647,0
DA:648,0
DA:649,0
DA:650,0
DA:651,0
DA:652,0
DA:653,0
DA:654,0
DA:655,0
DA:657,0
DA:658,0
DA:659,0
DA:661,0
DA:663,0
DA:664,0
DA:666,0
DA:669,0
DA:670,0
DA:673,0
DA:676,0
DA:677,0
DA:679,0
DA:680,0
DA:681,0
DA:682,0
DA:683,0
DA:686,0
DA:688,0
DA:689,0
DA:690,0
DA:693,0
DA:635,0
DA:644,0
DA:645,0
DA:646,0
DA:647,0
DA:648,0
DA:649,0
DA:650,0
DA:651,0
DA:652,0
DA:653,0
DA:654,0
DA:655,0
DA:657,0
DA:658,0
DA:659,0
DA:661,0
DA:663,0
DA:664,0
DA:666,0
DA:669,0
DA:670,0
DA:673,0
DA:676,0
DA:677,0
DA:679,0
DA:680,0
DA:681,0
DA:682,0
DA:683,0
DA:686,0
DA:688,0
DA:689,0
DA:690,0
DA:693,0
DA:635,0
DA:644,0
DA:645,0
DA:646,0
DA:647,0
DA:648,0
DA:649,0
DA:650,0
DA:651,0
DA:652,0
DA:653,0
DA:654,0
DA:655,0
DA:657,0
DA:658,0
DA:659,0
DA:661,0
DA:663,0
DA:664,0
DA:666,0
DA:669,0
DA:670,0
DA:673,0
DA:676,0
DA:677,0
DA:679,0
DA:680,0
DA:681,0
DA:682,0
DA:683,0
DA:686,0
DA:688,0
DA:689,0
DA:690,0
DA:693,0
DA:635,0
DA:644,0
DA:645,0
DA:646,0
DA:647,0
DA:648,0
DA:649,0
DA:650,0
DA:651,0
DA:652,0
DA:653,0
DA:654,0
DA:655,0
DA:657,0
DA:658,0
DA:659,0
DA:661,0
DA:663,0
DA:664,0
DA:666,0
DA:669,0
DA:670,0
DA:673,0
DA:676,0
DA:677,0
DA:679,0
DA:680,0
DA:681,0
DA:682,0
DA:683,0
DA:686,0
DA:688,0
DA:689,0
DA:690,0
DA:693,0
DA:635,0
DA:644,0
DA:645,0
DA:646,0
DA:647,0
DA:648,0
DA:649,0
DA:650,0
DA:651,0
DA:652,0
DA:653,0
DA:654,0
DA:655,0
DA:657,0
DA:658,0
DA:659,0
DA:661,0
DA:663,0
DA:664,0
DA:666,0
DA:669,0
DA:670,0
DA:673,0
DA:676,0
DA:677,0
DA:679,0
DA:680,0
DA:681,0
DA:682,0
DA:683,0
DA:686,0
DA:688,0
DA:689,0
DA:690,0
DA:693,0
DA:635,0
DA:644,0
DA:645,0
DA:646,0
DA:647,0
DA:648,0
DA:649,0
DA:650,0
DA:651,0
DA:652,0
DA:653,0
DA:654,0
DA:655,0
DA:657,0
DA:658,0
DA:659,0
DA:661,0
DA:663,0
DA:664,0
DA:666,0
DA:669,0
DA:670,0
DA:673,0
DA:676,0
DA:677,0
DA:679,0
DA:680,0
DA:681,0
DA:682,0
DA:683,0
DA:686,0
DA:688,0
DA:689,0
DA:690,0
DA:693,0
DA:635,0
DA:644,0
DA:645,0
DA:646,0
DA:647,0
DA:648,0
DA:649,0
DA:650,0
DA:651,0
DA:652,0
DA:653,0
DA:654,0
DA:655,0
DA:657,0
DA:658,0
DA:659,0
DA:661,0
DA:663,0
DA:664,0
DA:666,0
DA:669,0
DA:670,0
DA:673,0
DA:676,0
DA:677,0
DA:679,0
DA:680,0
DA:681,0
DA:682,0
DA:683,0
DA:686,0
DA:688,0
DA:689,0
DA:690,0
DA:693,0
DA:635,0
DA:644,0
DA:645,0
DA:646,0
DA:647,0
DA:648,0
DA:649,0
DA:650,0
DA:651,0
DA:652,0
DA:653,0
DA:654,0
DA:655,0
DA:657,0
DA:658,0
DA:659,0
DA:661,0
DA:663,0
DA:664,0
DA:666,0
DA:669,0
DA:670,0
DA:673,0
DA:676,0
DA:677,0
DA:679,0
DA:680,0
DA:681,0
DA:682,0
DA:683,0
DA:686,0
DA:688,0
DA:689,0
DA:690,0
DA:693,0
DA:635,0
DA:644,0
DA:645,0
DA:646,0
DA:647,0
DA:648,0
DA:649,0
DA:650,0
DA:651,0
DA:652,0
DA:653,0
DA:654,0
DA:655,0
DA:657,0
DA:658,0
DA:659,0
DA:661,0
DA:663,0
DA:664,0
DA:666,0
DA:669,0
DA:670,0
DA:673,0
DA:676,0
DA:677,0
DA:679,0
DA:680,0
DA:681,0
DA:682,0
DA:683,0
DA:686,0
DA:688,0
DA:689,0
DA:690,0
DA:693,0
DA:699,0
DA:705,0
DA:707,0
DA:708,0
DA:710,0
DA:711,0
DA:712,0
DA:713,0
DA:716,0
DA:699,0
DA:705,0
DA:707,0
DA:708,0
DA:710,0
DA:711,0
DA:712,0
DA:713,0
DA:716,0
DA:699,0
DA:705,0
DA:707,0
DA:708,0
DA:710,0
DA:711,0
DA:712,0
DA:713,0
DA:716,0
DA:699,0
DA:705,0
DA:707,0
DA:708,0
DA:710,0
DA:711,0
DA:712,0
DA:713,0
DA:716,0
DA:699,0
DA:705,0
DA:707,0
DA:708,0
DA:710,0
DA:711,0
DA:712,0
DA:713,0
DA:716,0
DA:699,0
DA:705,0
DA:707,0
DA:708,0
DA:710,0
DA:711,0
DA:712,0
DA:713,0
DA:716,0
DA:699,0
DA:705,0
DA:707,0
DA:708,0
DA:710,0
DA:711,0
DA:712,0
DA:713,0
DA:716,0
DA:699,0
DA:705,0
DA:707,0
DA:708,0
DA:710,0
DA:711,0
DA:712,0
DA:713,0
DA:716,0
DA:699,0
DA:705,0
DA:707,0
DA:708,0
DA:710,0
DA:711,0
DA:712,0
DA:713,0
DA:716,0
DA:699,0
DA:705,0
DA:707,0
DA:708,0
DA:710,0
DA:711,0
DA:712,0
DA:713,0
DA:716,0
DA:699,0
DA:705,0
DA:707,0
DA:708,0
DA:710,0
DA:711,0
DA:712,0
DA:713,0
DA:716,0
DA:699,0
DA:705,0
DA:707,0
DA:708,0
DA:710,0
DA:711,0
DA:712,0
DA:713,0
DA:716,0
DA:699,0
DA:705,0
DA:707,0
DA:708,0
DA:710,0
DA:711,0
DA:712,0
DA:713,0
DA:716,0
DA:699,0
DA:705,0
DA:707,0
DA:708,0
DA:710,0
DA:711,0
DA:712,0
DA:713,0
DA:716,0
DA:699,0
DA:705,0
DA:707,0
DA:708,0
DA:710,0
DA:711,0
DA:712,0
DA:713,0
DA:716,0
DA:699,0
DA:705,0
DA:707,0
DA:708,0
DA:710,0
DA:711,0
DA:712,0
DA:713,0
DA:716,0
DA:699,0
DA:705,0
DA:707,0
DA:708,0
DA:710,0
DA:711,0
DA:712,0
DA:713,0
DA:716,0
DA:699,0
DA:705,0
DA:707,0
DA:708,0
DA:710,0
DA:711,0
DA:712,0
DA:713,0
DA:716,0
DA:699,0
DA:705,0
DA:707,0
DA:708,0
DA:710,0
DA:711,0
DA:712,0
DA:713,0
DA:716,0
DA:736,0
DA:745,0
DA:746,0
DA:747,0
DA:748,0
DA:750,0
DA:751,0
DA:752,0
DA:754,0
DA:755,0
DA:757,0
DA:760,0
DA:761,0
DA:764,0
DA:767,0
DA:768,0
DA:770,0
DA:771,0
DA:772,0
DA:773,0
DA:776,0
DA:778,0
DA:780,0
DA:782,0
DA:786,0
DA:788,0
DA:790,0
DA:791,0
DA:793,0
DA:794,0
DA:795,0
DA:799,0
DA:736,0
DA:745,0
DA:746,0
DA:747,0
DA:748,0
DA:750,0
DA:751,0
DA:752,0
DA:754,0
DA:755,0
DA:757,0
DA:760,0
DA:761,0
DA:764,0
DA:767,0
DA:768,0
DA:770,0
DA:771,0
DA:772,0
DA:773,0
DA:776,0
DA:778,0
DA:780,0
DA:782,0
DA:786,0
DA:788,0
DA:790,0
DA:791,0
DA:793,0
DA:794,0
DA:795,0
DA:799,0
DA:736,0
DA:745,0
DA:746,0
DA:747,0
DA:748,0
DA:750,0
DA:751,0
DA:752,0
DA:754,0
DA:755,0
DA:757,0
DA:760,0
DA:761,0
DA:764,0
DA:767,0
DA:768,0
DA:770,0
DA:771,0
DA:772,0
DA:773,0
DA:776,0
DA:778,0
DA:780,0
DA:782,0
DA:786,0
DA:788,0
DA:790,0
DA:791,0
DA:793,0
DA:794,0
DA:795,0
DA:799,0
DA:736,0
DA:745,0
DA:746,0
DA:747,0
DA:748,0
DA:750,0
DA:751,0
DA:752,0
DA:754,0
DA:755,0
DA:757,0
DA:760,0
DA:761,0
DA:764,0
DA:767,0
DA:768,0
DA:770,0
DA:771,0
DA:772,0
DA:773,0
DA:776,0
DA:778,0
DA:780,0
DA:782,0
DA:786,0
DA:788,0
DA:790,0
DA:791,0
DA:793,0
DA:794,0
DA:795,0
DA:799,0
DA:736,0
DA:745,0
DA:746,0
DA:747,0
DA:748,0
DA:750,0
DA:751,0
DA:752,0
DA:754,0
DA:755,0
DA:757,0
DA:760,0
DA:761,0
DA:764,0
DA:767,0
DA:768,0
DA:770,0
DA:771,0
DA:772,0
DA:773,0
DA:776,0
DA:778,0
DA:780,0
DA:782,0
DA:786,0
DA:788,0
DA:790,0
DA:791,0
DA:793,0
DA:794,0
DA:795,0
DA:799,0
DA:736,0
DA:745,0
DA:746,0
DA:747,0
DA:748,0
DA:750,0
DA:751,0
DA:752,0
DA:754,0
DA:755,0
DA:757,0
DA:760,0
DA:761,0
DA:764,0
DA:767,0
DA:768,0
DA:770,0
DA:771,0
DA:772,0
DA:773,0
DA:776,0
DA:778,0
DA:780,0
DA:782,0
DA:786,0
DA:788,0
DA:790,0
DA:791,0
DA:793,0
DA:794,0
DA:795,0
DA:799,0
DA:736,0
DA:745,0
DA:746,0
DA:747,0
DA:748,0
DA:750,0
DA:751,0
DA:752,0
DA:754,0
DA:755,0
DA:757,0
DA:760,0
DA:761,0
DA:764,0
DA:767,0
DA:768,0
DA:770,0
DA:771,0
DA:772,0
DA:773,0
DA:776,0
DA:778,0
DA:780,0
DA:782,0
DA:786,0
DA:788,0
DA:790,0
DA:791,0
DA:793,0
DA:794,0
DA:795,0
DA:799,0
DA:736,0
DA:745,0
DA:746,0
DA:747,0
DA:748,0
DA:750,0
DA:751,0
DA:752,0
DA:754,0
DA:755,0
DA:757,0
DA:760,0
DA:761,0
DA:764,0
DA:767,0
DA:768,0
DA:770,0
DA:771,0
DA:772,0
DA:773,0
DA:776,0
DA:778,0
DA:780,0
DA:782,0
DA:786,0
DA:788,0
DA:790,0
DA:791,0
DA:793,0
DA:794,0
DA:795,0
DA:799,0
DA:736,0
DA:745,0
DA:746,0
DA:747,0
DA:748,0
DA:750,0
DA:751,0
DA:752,0
DA:754,0
DA:755,0
DA:757,0
DA:760,0
DA:761,0
DA:764,0
DA:767,0
DA:768,0
DA:770,0
DA:771,0
DA:772,0
DA:773,0
DA:776,0
DA:778,0
DA:780,0
DA:782,0
DA:786,0
DA:788,0
DA:790,0
DA:791,0
DA:793,0
DA:794,0
DA:795,0
DA:799,0
DA:736,0
DA:745,0
DA:746,0
DA:747,0
DA:748,0
DA:750,0
DA:751,0
DA:752,0
DA:754,0
DA:755,0
DA:757,0
DA:760,0
DA:761,0
DA:764,0
DA:767,0
DA:768,0
DA:770,0
DA:771,0
DA:772,0
DA:773,0
DA:776,0
DA:778,0
DA:780,0
DA:782,0
DA:786,0
DA:788,0
DA:790,0
DA:791,0
DA:793,0
DA:794,0
DA:795,0
DA:799,0
DA:736,0
DA:745,0
DA:746,0
DA:747,0
DA:748,0
DA:750,0
DA:751,0
DA:752,0
DA:754,0
DA:755,0
DA:757,0
DA:760,0
DA:761,0
DA:764,0
DA:767,0
DA:768,0
DA:770,0
DA:771,0
DA:772,0
DA:773,0
DA:776,0
DA:778,0
DA:780,0
DA:782,0
DA:786,0
DA:788,0
DA:790,0
DA:791,0
DA:793,0
DA:794,0
DA:795,0
DA:799,0
DA:736,0
DA:745,0
DA:746,0
DA:747,0
DA:748,0
DA:750,0
DA:751,0
DA:752,0
DA:754,0
DA:755,0
DA:757,0
DA:760,0
DA:761,0
DA:764,0
DA:767,0
DA:768,0
DA:770,0
DA:771,0
DA:772,0
DA:773,0
DA:776,0
DA:778,0
DA:780,0
DA:782,0
DA:786,0
DA:788,0
DA:790,0
DA:791,0
DA:793,0
DA:794,0
DA:795,0
DA:799,0
DA:736,0
DA:745,0
DA:746,0
DA:747,0
DA:748,0
DA:750,0
DA:751,0
DA:752,0
DA:754,0
DA:755,0
DA:757,0
DA:760,0
DA:761,0
DA:764,0
DA:767,0
DA:768,0
DA:770,0
DA:771,0
DA:772,0
DA:773,0
DA:776,0
DA:778,0
DA:780,0
DA:782,0
DA:786,0
DA:788,0
DA:790,0
DA:791,0
DA:793,0
DA:794,0
DA:795,0
DA:799,0
DA:736,0
DA:745,0
DA:746,0
DA:747,0
DA:748,0
DA:750,0
DA:751,0
DA:752,0
DA:754,0
DA:755,0
DA:757,0
DA:760,0
DA:761,0
DA:764,0
DA:767,0
DA:768,0
DA:770,0
DA:771,0
DA:772,0
DA:773,0
DA:776,0
DA:778,0
DA:780,0
DA:782,0
DA:786,0
DA:788,0
DA:790,0
DA:791,0
DA:793,0
DA:794,0
DA:795,0
DA:799,0
DA:736,0
DA:745,0
DA:746,0
DA:747,0
DA:748,0
DA:750,0
DA:751,0
DA:752,0
DA:754,0
DA:755,0
DA:757,0
DA:760,0
DA:761,0
DA:764,0
DA:767,0
DA:768,0
DA:770,0
DA:771,0
DA:772,0
DA:773,0
DA:776,0
DA:778,0
DA:780,0
DA:782,0
DA:786,0
DA:788,0
DA:790,0
DA:791,0
DA:793,0
DA:794,0
DA:795,0
DA:799,0
DA:736,0
DA:745,0
DA:746,0
DA:747,0
DA:748,0
DA:750,0
DA:751,0
DA:752,0
DA:754,0
DA:755,0
DA:757,0
DA:760,0
DA:761,0
DA:764,0
DA:767,0
DA:768,0
DA:770,0
DA:771,0
DA:772,0
DA:773,0
DA:776,0
DA:778,0
DA:780,0
DA:782,0
DA:786,0
DA:788,0
DA:790,0
DA:791,0
DA:793,0
DA:794,0
DA:795,0
DA:799,0
DA:736,0
DA:745,0
DA:746,0
DA:747,0
DA:748,0
DA:750,0
DA:751,0
DA:752,0
DA:754,0
DA:755,0
DA:757,0
DA:760,0
DA:761,0
DA:764,0
DA:767,0
DA:768,0
DA:770,0
DA:771,0
DA:772,0
DA:773,0
DA:776,0
DA:778,0
DA:780,0
DA:782,0
DA:786,0
DA:788,0
DA:790,0
DA:791,0
DA:793,0
DA:794,0
DA:795,0
DA:799,0
DA:736,0
DA:745,0
DA:746,0
DA:747,0
DA:748,0
DA:750,0
DA:751,0
DA:752,0
DA:754,0
DA:755,0
DA:757,0
DA:760,0
DA:761,0
DA:764,0
DA:767,0
DA:768,0
DA:770,0
DA:771,0
DA:772,0
DA:773,0
DA:776,0
DA:778,0
DA:780,0
DA:782,0
DA:786,0
DA:788,0
DA:790,0
DA:791,0
DA:793,0
DA:794,0
DA:795,0
DA:799,0
DA:736,0
DA:745,0
DA:746,0
DA:747,0
DA:748,0
DA:750,0
DA:751,0
DA:752,0
DA:754,0
DA:755,0
DA:757,0
DA:760,0
DA:761,0
DA:764,0
DA:767,0
DA:768,0
DA:770,0
DA:771,0
DA:772,0
DA:773,0
DA:776,0
DA:778,0
DA:780,0
DA:782,0
DA:786,0
DA:788,0
DA:790,0
DA:791,0
DA:793,0
DA:794,0
DA:795,0
DA:799,0
DA:831,0
DA:837,0
DA:839,0
DA:831,0
DA:837,0
DA:839,0
DA:831,0
DA:837,0
DA:839,0
DA:831,0
DA:837,0
DA:839,0
DA:831,0
DA:837,0
DA:839,0
DA:831,0
DA:837,0
DA:839,0
DA:831,0
DA:837,0
DA:839,0
DA:831,0
DA:837,0
DA:839,0
DA:831,0
DA:837,0
DA:839,0
DA:831,0
DA:837,0
DA:839,0
DA:831,0
DA:837,0
DA:839,0
DA:831,0
DA:837,0
DA:839,0
DA:831,0
DA:837,0
DA:839,0
DA:831,0
DA:837,0
DA:839,0
DA:831,0
DA:837,0
DA:839,0
DA:831,0
DA:837,0
DA:839,0
DA:831,0
DA:837,0
DA:839,0
DA:831,0
DA:837,0
DA:839,0
DA:831,0
DA:837,0
DA:839,0
end_of_record
SF:/home/brunnels/Research/alamo/src/Set/Matrix4_Diagonal.H
FN:14,_ZN3Set7Matrix4ILi3ELi4EEC2Ev
FNDA:0,_ZN3Set7Matrix4ILi3ELi4EEC2Ev
FN:15,_ZN3Set7Matrix4ILi3ELi4EEC2EN5Eigen6MatrixIdLi3ELi3ELi0ELi3ELi3EEE
FNDA:0,_ZN3Set7Matrix4ILi3ELi4EEC2EN5Eigen6MatrixIdLi3ELi3ELi0ELi3ELi3EEE
FN:30,_ZN3Set7Matrix4ILi3ELi4EE4ZeroEv
FNDA:0,_ZN3Set7Matrix4ILi3ELi4EE4ZeroEv
FN:46,_ZN3Set7Matrix4ILi3ELi4EEpLERKS1_
FNDA:0,_ZN3Set7Matrix4ILi3ELi4EEpLERKS1_
DA:14,0
DA:15,0
DA:30,0
DA:32,0
DA:33,0
DA:34,0
DA:46,0
DA:67,0
DA:69,0
DA:71,0
DA:73,0
DA:77,0
DA:101,0
DA:102,0
DA:103,0
DA:109,0
DA:110,0
DA:111,0
DA:117,0
DA:118,0
DA:119,0
end_of_record
SF:/home/brunnels/Research/alamo/src/Model/Solid/Solid.H
FN:32,_ZN5Model5Solid5SolidILN3Set3SymE6EEC2Ev
FNDA:0,_ZN5Model5Solid5SolidILN3Set3SymE6EEC2Ev
FN:32,_ZN5Model5Solid5SolidILN3Set3SymE1EEC2Ev
FNDA:2189,_ZN5Model5Solid5SolidILN3Set3SymE1EEC2Ev
FN:32,_ZN5Model5Solid5SolidILN3Set3SymE4EEC2Ev
FNDA:0,_ZN5Model5Solid5SolidILN3Set3SymE4EEC2Ev
FN:32,_ZN5Model5Solid5SolidILN3Set3SymE3EEC2Ev
FNDA:0,_ZN5Model5Solid5SolidILN3Set3SymE3EEC2Ev
FN:34,_ZN5Model5Solid5SolidILN3Set3SymE6EED2Ev
FNDA:0,_ZN5Model5Solid5SolidILN3Set3SymE6EED2Ev
FN:34,_ZN5Model5Solid5SolidILN3Set3SymE6EED0Ev
FNDA:0,_ZN5Model5Solid5SolidILN3Set3SymE6EED0Ev
FN:34,_ZN5Model5Solid5SolidILN3Set3SymE1EED2Ev
FNDA:2920,_ZN5Model5Solid5SolidILN3Set3SymE1EED2Ev
FN:34,_ZN5Model5Solid5SolidILN3Set3SymE1EED0Ev
FNDA:0,_ZN5Model5Solid5SolidILN3Set3SymE1EED0Ev
FN:34,_ZN5Model5Solid5SolidILN3Set3SymE4EED2Ev
FNDA:0,_ZN5Model5Solid5SolidILN3Set3SymE4EED2Ev
FN:34,_ZN5Model5Solid5SolidILN3Set3SymE4EED0Ev
FNDA:0,_ZN5Model5Solid5SolidILN3Set3SymE4EED0Ev
FN:34,_ZN5Model5Solid5SolidILN3Set3SymE3EED2Ev
FNDA:0,_ZN5Model5Solid5SolidILN3Set3SymE3EED2Ev
FN:34,_ZN5Model5Solid5SolidILN3Set3SymE3EED0Ev
FNDA:0,_ZN5Model5Solid5SolidILN3Set3SymE3EED0Ev
FN:38,_ZNK5Model5Solid5SolidILN3Set3SymE3EE1WERKN5Eigen6MatrixIdLi3ELi3ELi0ELi3ELi3EEE
FNDA:0,_ZNK5Model5Solid5SolidILN3Set3SymE3EE1WERKN5Eigen6MatrixIdLi3ELi3ELi0ELi3ELi3EEE
FN:38,_ZNK5Model5Solid5SolidILN3Set3SymE6EE1WERKN5Eigen6MatrixIdLi3ELi3ELi0ELi3ELi3EEE
FNDA:0,_ZNK5Model5Solid5SolidILN3Set3SymE6EE1WERKN5Eigen6MatrixIdLi3ELi3ELi0ELi3ELi3EEE
FN:38,_ZNK5Model5Solid5SolidILN3Set3SymE1EE1WERKN5Eigen6MatrixIdLi3ELi3ELi0ELi3ELi3EEE
FNDA:0,_ZNK5Model5Solid5SolidILN3Set3SymE1EE1WERKN5Eigen6MatrixIdLi3ELi3ELi0ELi3ELi3EEE
FN:38,_ZNK5Model5Solid5SolidILN3Set3SymE4EE1WERKN5Eigen6MatrixIdLi3ELi3ELi0ELi3ELi3EEE
FNDA:0,_ZNK5Model5Solid5SolidILN3Set3SymE4EE1WERKN5Eigen6MatrixIdLi3ELi3ELi0ELi3ELi3EEE
FN:40,_ZNK5Model5Solid5SolidILN3Set3SymE6EE2DWERKN5Eigen6MatrixIdLi3ELi3ELi0ELi3ELi3EEE
FNDA:0,_ZNK5Model5Solid5SolidILN3Set3SymE6EE2DWERKN5Eigen6MatrixIdLi3ELi3ELi0ELi3ELi3EEE
FN:40,_ZNK5Model5Solid5SolidILN3Set3SymE3EE2DWERKN5Eigen6MatrixIdLi3ELi3ELi0ELi3ELi3EEE
FNDA:0,_ZNK5Model5Solid5SolidILN3Set3SymE3EE2DWERKN5Eigen6MatrixIdLi3ELi3ELi0ELi3ELi3EEE
FN:40,_ZNK5Model5Solid5SolidILN3Set3SymE1EE2DWERKN5Eigen6MatrixIdLi3ELi3ELi0ELi3ELi3EEE
FNDA:0,_ZNK5Model5Solid5SolidILN3Set3SymE1EE2DWERKN5Eigen6MatrixIdLi3ELi3ELi0ELi3ELi3EEE
FN:40,_ZNK5Model5Solid5SolidILN3Set3SymE4EE2DWERKN5Eigen6MatrixIdLi3ELi3ELi0ELi3ELi3EEE
FNDA:0,_ZNK5Model5Solid5SolidILN3Set3SymE4EE2DWERKN5Eigen6MatrixIdLi3ELi3ELi0ELi3ELi3EEE
FN:42,_ZNK5Model5Solid5SolidILN3Set3SymE3EE3DDWERKN5Eigen6MatrixIdLi3ELi3ELi0ELi3ELi3EEE
FNDA:0,_ZNK5Model5Solid5SolidILN3Set3SymE3EE3DDWERKN5Eigen6MatrixIdLi3ELi3ELi0ELi3ELi3EEE
FN:42,_ZNK5Model5Solid5SolidILN3Set3SymE6EE3DDWERKN5Eigen6MatrixIdLi3ELi3ELi0ELi3ELi3EEE
FNDA:0,_ZNK5Model5Solid5SolidILN3Set3SymE6EE3DDWERKN5Eigen6MatrixIdLi3ELi3ELi0ELi3ELi3EEE
FN:42,_ZNK5Model5Solid5SolidILN3Set3SymE1EE3DDWERKN5Eigen6MatrixIdLi3ELi3ELi0ELi3ELi3EEE
FNDA:0,_ZNK5Model5Solid5SolidILN3Set3SymE1EE3DDWERKN5Eigen6MatrixIdLi3ELi3ELi0ELi3ELi3EEE
FN:42,_ZNK5Model5Solid5SolidILN3Set3SymE4EE3DDWERKN5Eigen6MatrixIdLi3ELi3ELi0ELi3ELi3EEE
FNDA:0,_ZNK5Model5Solid5SolidILN3Set3SymE4EE3DDWERKN5Eigen6MatrixIdLi3ELi3ELi0ELi3ELi3EEE
FN:45,_ZN5Model5Solid5SolidILN3Set3SymE4EE7AdvanceEdN5Eigen6MatrixIdLi3ELi3ELi0ELi3ELi3EEES7_
FNDA:0,_ZN5Model5Solid5SolidILN3Set3SymE4EE7AdvanceEdN5Eigen6MatrixIdLi3ELi3ELi0ELi3ELi3EEES7_
FN:45,_ZN5Model5Solid5SolidILN3Set3SymE1EE7AdvanceEdN5Eigen6MatrixIdLi3ELi3ELi0ELi3ELi3EEES7_
FNDA:12500,_ZN5Model5Solid5SolidILN3Set3SymE1EE7AdvanceEdN5Eigen6MatrixIdLi3ELi3ELi0ELi3ELi3EEES7_
FN:45,_ZN5Model5Solid5SolidILN3Set3SymE6EE7AdvanceEdN5Eigen6MatrixIdLi3ELi3ELi0ELi3ELi3EEES7_
FNDA:0,_ZN5Model5Solid5SolidILN3Set3SymE6EE7AdvanceEdN5Eigen6MatrixIdLi3ELi3ELi0ELi3ELi3EEES7_
FN:45,_ZN5Model5Solid5SolidILN3Set3SymE3EE7AdvanceEdN5Eigen6MatrixIdLi3ELi3ELi0ELi3ELi3EEES7_
FNDA:0,_ZN5Model5Solid5SolidILN3Set3SymE3EE7AdvanceEdN5Eigen6MatrixIdLi3ELi3ELi0ELi3ELi3EEES7_
FN:48,_ZN5Model5Solid5SolidILN3Set3SymE1EE11ContainsNanEv
FNDA:0,_ZN5Model5Solid5SolidILN3Set3SymE1EE11ContainsNanEv
FN:48,_ZN5Model5Solid5SolidILN3Set3SymE6EE11ContainsNanEv
FNDA:0,_ZN5Model5Solid5SolidILN3Set3SymE6EE11ContainsNanEv
FN:48,_ZN5Model5Solid5SolidILN3Set3SymE3EE11ContainsNanEv
FNDA:0,_ZN5Model5Solid5SolidILN3Set3SymE3EE11ContainsNanEv
FN:48,_ZN5Model5Solid5SolidILN3Set3SymE4EE11ContainsNanEv
FNDA:0,_ZN5Model5Solid5SolidILN3Set3SymE4EE11ContainsNanEv
FN:55,_ZN5Model5SolidlsERSoRKNS0_5SolidILN3Set3SymE6EEE
FNDA:0,_ZN5Model5SolidlsERSoRKNS0_5SolidILN3Set3SymE6EEE
FN:60,_ZNK5Model5Solid5SolidILN3Set3SymE4EE5PrintERSo
FNDA:0,_ZNK5Model5Solid5SolidILN3Set3SymE4EE5PrintERSo
FN:60,_ZNK5Model5Solid5SolidILN3Set3SymE6EE5PrintERSo
FNDA:0,_ZNK5Model5Solid5SolidILN3Set3SymE6EE5PrintERSo
FN:60,_ZNK5Model5Solid5SolidILN3Set3SymE1EE5PrintERSo
FNDA:0,_ZNK5Model5Solid5SolidILN3Set3SymE1EE5PrintERSo
FN:60,_ZNK5Model5Solid5SolidILN3Set3SymE3EE5PrintERSo
FNDA:0,_ZNK5Model5Solid5SolidILN3Set3SymE3EE5PrintERSo
DA:32,0
DA:32,0
DA:32,2189
DA:32,0
DA:34,0
DA:34,0
DA:34,0
DA:34,0
DA:34,0
DA:34,2920
DA:34,0
DA:34,0
DA:38,0
DA:39,0
DA:38,0
DA:39,0
DA:38,0
DA:39,0
DA:38,0
DA:39,0
DA:40,0
DA:41,0
DA:40,0
DA:41,0
DA:40,0
DA:41,0
DA:40,0
DA:41,0
DA:42,0
DA:43,0
DA:42,0
DA:43,0
DA:42,0
DA:43,0
DA:42,0
DA:43,0
DA:45,12500
DA:45,0
DA:45,0
DA:45,0
DA:48,0
DA:48,0
DA:48,0
DA:48,0
DA:55,0
DA:57,0
DA:58,0
DA:60,0
DA:62,0
DA:63,0
DA:60,0
DA:62,0
DA:63,0
DA:60,0
DA:62,0
DA:63,0
DA:60,0
DA:62,0
DA:63,0
end_of_record
SF:/home/brunnels/Research/alamo/src/Model/Interface/Crack/Crack.H
FN:22,_ZN5Model9Interface5Crack5CrackC2Ev
FNDA:0,_ZN5Model9Interface5Crack5CrackC2Ev
FN:25,_ZN5Model9Interface5Crack5Crack5w_phiEdd
FNDA:0,_ZN5Model9Interface5Crack5Crack5w_phiEdd
FN:38,_ZN5Model9Interface5Crack5Crack5g_phiEdd
FNDA:0,_ZN5Model9Interface5Crack5Crack5g_phiEdd
FN:53,_ZN5Model9Interface5Crack5Crack6Dw_phiEdd
FNDA:0,_ZN5Model9Interface5Crack5Crack6Dw_phiEdd
FN:66,_ZN5Model9Interface5Crack5Crack6Dg_phiEdd
FNDA:0,_ZN5Model9Interface5Crack5Crack6Dg_phiEdd
FN:100,_ZN5Model9Interface5Crack5Crack8SetGTypeENS2_5GTypeE
FNDA:0,_ZN5Model9Interface5Crack5Crack8SetGTypeENS2_5GTypeE
FN:105,_ZN5Model9Interface5Crack5Crack8SetWTypeENS2_5WTypeE
FNDA:0,_ZN5Model9Interface5Crack5Crack8SetWTypeENS2_5WTypeE
FN:110,_ZN5Model9Interface5Crack5Crack18SetDuctileExponentEd
FNDA:0,_ZN5Model9Interface5Crack5Crack18SetDuctileExponentEd
DA:22,0
DA:25,0
DA:27,0
DA:29,0
DA:30,0
DA:31,0
DA:32,0
DA:34,0
DA:38,0
DA:40,0
DA:42,0
DA:43,0
DA:44,0
DA:45,0
DA:46,0
DA:47,0
DA:49,0
DA:53,0
DA:55,0
DA:57,0
DA:58,0
DA:59,0
DA:60,0
DA:62,0
DA:66,0
DA:68,0
DA:70,0
DA:71,0
DA:72,0
DA:73,0
DA:74,0
DA:75,0
DA:77,0
DA:100,0
DA:102,0
DA:103,0
DA:105,0
DA:107,0
DA:108,0
DA:110,0
DA:112,0
DA:113,0
end_of_record
SF:/home/brunnels/Research/alamo/ext/amrex/3d-coverage-g++-23.08/include/AMReX_Print.H
FN:44,_ZN5amrex5PrintC2ERSo
FNDA:0,_ZN5amrex5PrintC2ERSo
FN:54,_ZN5amrex5PrintC2EiRSo
FNDA:0,_ZN5amrex5PrintC2EiRSo
FN:70,_ZN5amrex5PrintD2Ev
FNDA:0,_ZN5amrex5PrintD2Ev
FN:95,_ZN5amrex5PrintlsISt5_SetwEERS0_RKT_
FNDA:0,_ZN5amrex5PrintlsISt5_SetwEERS0_RKT_
FN:95,_ZN5amrex5PrintlsINSt7__cxx1112basic_stringIcSt11char_traitsIcESaIcEEEEERS0_RKT_
FNDA:0,_ZN5amrex5PrintlsINSt7__cxx1112basic_stringIcSt11char_traitsIcESaIcEEEEERS0_RKT_
FN:95,_ZN5amrex5PrintlsIA24_cEERS0_RKT_
FNDA:0,_ZN5amrex5PrintlsIA24_cEERS0_RKT_
FN:95,_ZN5amrex5PrintlsIlEERS0_RKT_
FNDA:0,_ZN5amrex5PrintlsIlEERS0_RKT_
FN:95,_ZN5amrex5PrintlsIA2_cEERS0_RKT_
FNDA:0,_ZN5amrex5PrintlsIA2_cEERS0_RKT_
FN:95,_ZN5amrex5PrintlsIiEERS0_RKT_
FNDA:0,_ZN5amrex5PrintlsIiEERS0_RKT_
FN:95,_ZN5amrex5PrintlsIA35_cEERS0_RKT_
FNDA:0,_ZN5amrex5PrintlsIA35_cEERS0_RKT_
FN:95,_ZN5amrex5PrintlsIdEERS0_RKT_
FNDA:0,_ZN5amrex5PrintlsIdEERS0_RKT_
FN:95,_ZN5amrex5PrintlsIA28_cEERS0_RKT_
FNDA:0,_ZN5amrex5PrintlsIA28_cEERS0_RKT_
FN:95,_ZN5amrex5PrintlsIA17_cEERS0_RKT_
FNDA:0,_ZN5amrex5PrintlsIA17_cEERS0_RKT_
FN:95,_ZN5amrex5PrintlsIA30_cEERS0_RKT_
FNDA:0,_ZN5amrex5PrintlsIA30_cEERS0_RKT_
FN:95,_ZN5amrex5PrintlsIA13_cEERS0_RKT_
FNDA:0,_ZN5amrex5PrintlsIA13_cEERS0_RKT_
FN:95,_ZN5amrex5PrintlsIA4_cEERS0_RKT_
FNDA:0,_ZN5amrex5PrintlsIA4_cEERS0_RKT_
FN:95,_ZN5amrex5PrintlsIA19_cEERS0_RKT_
FNDA:0,_ZN5amrex5PrintlsIA19_cEERS0_RKT_
FN:95,_ZN5amrex5PrintlsIA15_cEERS0_RKT_
FNDA:0,_ZN5amrex5PrintlsIA15_cEERS0_RKT_
FN:95,_ZN5amrex5PrintlsIA3_cEERS0_RKT_
FNDA:0,_ZN5amrex5PrintlsIA3_cEERS0_RKT_
FN:95,_ZN5amrex5PrintlsIA33_cEERS0_RKT_
FNDA:0,_ZN5amrex5PrintlsIA33_cEERS0_RKT_
FN:95,_ZN5amrex5PrintlsIA32_cEERS0_RKT_
FNDA:0,_ZN5amrex5PrintlsIA32_cEERS0_RKT_
FN:95,_ZN5amrex5PrintlsIA23_cEERS0_RKT_
FNDA:0,_ZN5amrex5PrintlsIA23_cEERS0_RKT_
FN:95,_ZN5amrex5PrintlsIA9_cEERS0_RKT_
FNDA:0,_ZN5amrex5PrintlsIA9_cEERS0_RKT_
FN:95,_ZN5amrex5PrintlsIA11_cEERS0_RKT_
FNDA:0,_ZN5amrex5PrintlsIA11_cEERS0_RKT_
FN:95,_ZN5amrex5PrintlsIA49_cEERS0_RKT_
FNDA:0,_ZN5amrex5PrintlsIA49_cEERS0_RKT_
FN:95,_ZN5amrex5PrintlsIA34_cEERS0_RKT_
FNDA:0,_ZN5amrex5PrintlsIA34_cEERS0_RKT_
FN:120,_ZN5amrex8AllPrintC2ERSo
FNDA:0,_ZN5amrex8AllPrintC2ERSo
DA:44,0
DA:45,0
DA:46,0
DA:47,0
DA:48,0
DA:54,0
DA:55,0
DA:56,0
DA:57,0
DA:58,0
DA:70,0
DA:71,0
DA:72,0
DA:73,0
DA:74,0
DA:75,0
DA:76,0
DA:78,0
DA:79,0
DA:80,0
DA:82,0
DA:95,0
DA:96,0
DA:97,0
DA:95,0
DA:96,0
DA:97,0
DA:95,0
DA:96,0
DA:97,0
DA:95,0
DA:96,0
DA:97,0
DA:95,0
DA:96,0
DA:97,0
DA:95,0
DA:96,0
DA:97,0
DA:95,0
DA:96,0
DA:97,0
DA:95,0
DA:96,0
DA:97,0
DA:95,0
DA:96,0
DA:97,0
DA:95,0
DA:96,0
DA:97,0
DA:95,0
DA:96,0
DA:97,0
DA:95,0
DA:96,0
DA:97,0
DA:95,0
DA:96,0
DA:97,0
DA:95,0
DA:96,0
DA:97,0
DA:95,0
DA:96,0
DA:97,0
DA:95,0
DA:96,0
DA:97,0
DA:95,0
DA:96,0
DA:97,0
DA:95,0
DA:96,0
DA:97,0
DA:95,0
DA:96,0
DA:97,0
DA:95,0
DA:96,0
DA:97,0
DA:95,0
DA:96,0
DA:97,0
DA:95,0
DA:96,0
DA:97,0
DA:95,0
DA:96,0
DA:97,0
DA:120,0
DA:121,0
DA:122,0
end_of_record
SF:/home/brunnels/Research/alamo/src/IC/Expression.H
FN:53,_ZN2IC10ExpressionC2ERN5amrex6VectorINS1_8GeometryESaIS3_EEERN2IO9ParmParseENSt7__cxx1112basic_stringIcSt11char_traitsIcESaIcEEE
FNDA:0,_ZN2IC10ExpressionC2ERN5amrex6VectorINS1_8GeometryESaIS3_EEERN2IO9ParmParseENSt7__cxx1112basic_stringIcSt11char_traitsIcESaIcEEE
FN:57,_ZN2IC10Expression3AddERKiRN3Set5FieldIdEEd
FNDA:0,_ZN2IC10Expression3AddERKiRN3Set5FieldIdEEd
FN:72,_ZZN2IC10Expression3AddERKiRN3Set5FieldIdEEdENKUliiiE_clEiii
FNDA:0,_ZZN2IC10Expression3AddERKiRN3Set5FieldIdEEdENKUliiiE_clEiii
FN:96,_ZN2IC10Expression5ParseERS0_RN2IO9ParmParseE
FNDA:0,_ZN2IC10Expression5ParseERS0_RN2IO9ParmParseE
DA:53,0
DA:55,0
DA:56,0
DA:57,0
DA:59,0
DA:60,0
DA:62,0
DA:64,0
DA:65,0
DA:66,0
DA:67,0
DA:69,0
DA:70,0
DA:72,0
DA:74,0
DA:75,0
DA:82,0
DA:86,0
DA:88,0
DA:91,0
DA:94,0
DA:95,0
DA:96,0
DA:98,0
DA:100,0
DA:103,0
DA:104,0
DA:105,0
DA:106,0
DA:108,0
DA:109,0
DA:111,0
DA:112,0
DA:114,0
DA:119,0
DA:120,0
DA:121,0
DA:122,0
DA:124,0
DA:125,0
DA:126,0
DA:127,0
DA:128,0
DA:129,0
DA:132,0
DA:134,0
DA:135,0
DA:137,0
DA:139,0
DA:140,0
DA:142,0
DA:144,0
end_of_record
SF:/home/brunnels/Research/alamo/src/IC/Ellipsoid.H
FN:33,_ZN2IC9EllipsoidC2ERN5amrex6VectorINS1_8GeometryESaIS3_EEE
FNDA:0,_ZN2IC9EllipsoidC2ERN5amrex6VectorINS1_8GeometryESaIS3_EEE
FN:35,_ZN2IC9Ellipsoid3AddERKiRN3Set5FieldIdEEd
FNDA:0,_ZN2IC9Ellipsoid3AddERKiRN3Set5FieldIdEEd
FN:44,_ZZN2IC9Ellipsoid3AddERKiRN3Set5FieldIdEEdENKUliiiE_clEiii
FNDA:0,_ZZN2IC9Ellipsoid3AddERKiRN3Set5FieldIdEEdENKUliiiE_clEiii
FN:73,_ZN2IC9Ellipsoid5ParseERS0_RN2IO9ParmParseE
FNDA:0,_ZN2IC9Ellipsoid5ParseERS0_RN2IO9ParmParseE
DA:33,0
DA:35,0
DA:37,0
DA:39,0
DA:40,0
DA:41,0
DA:43,0
DA:44,0
DA:46,0
DA:48,0
DA:49,0
DA:51,0
DA:52,0
DA:53,0
DA:54,0
DA:55,0
DA:57,0
DA:58,0
DA:59,0
DA:60,0
DA:62,0
DA:63,0
DA:73,0
DA:75,0
DA:76,0
DA:78,0
DA:81,0
DA:82,0
DA:85,0
DA:86,0
DA:88,0
DA:89,0
DA:92,0
DA:93,0
DA:94,0
DA:96,0
DA:97,0
DA:99,0
DA:101,0
DA:102,0
DA:107,0
DA:109,0
DA:110,0
DA:112,0
DA:115,0
DA:117,0
DA:118,0
DA:119,0
DA:124,0
DA:125,0
DA:127,0
DA:128,0
DA:130,0
DA:131,0
DA:135,0
DA:136,0
DA:138,0
DA:139,0
DA:140,0
DA:141,0
DA:143,0
DA:144,0
end_of_record
SF:/home/brunnels/Research/alamo/src/Model/Solid/Affine/J2.H
FN:50,_ZN5Model5Solid6Affine2J2C2Ev
FNDA:0,_ZN5Model5Solid6Affine2J2C2Ev
FN:52,_ZN5Model5Solid6Affine2J27AdvanceEdN5Eigen6MatrixIdLi3ELi3ELi0ELi3ELi3EEES5_
FNDA:0,_ZN5Model5Solid6Affine2J27AdvanceEdN5Eigen6MatrixIdLi3ELi3ELi0ELi3ELi3EEES5_
FN:64,_ZN5Model5Solid6Affine2J24ZeroEv
FNDA:0,_ZN5Model5Solid6Affine2J24ZeroEv
FN:74,_ZN5Model5Solid6Affine2J25ParseERS2_RN2IO9ParmParseE
FNDA:0,_ZN5Model5Solid6Affine2J25ParseERS2_RN2IO9ParmParseE
FN:92,_ZNK3Set5FieldIN5Model5Solid6Affine2J2EE5NCompEv
FNDA:0,_ZNK3Set5FieldIN5Model5Solid6Affine2J2EE5NCompEv
FN:98,_ZNK3Set5FieldIN5Model5Solid6Affine2J2EE4NameB5cxx11Ei
FNDA:0,_ZNK3Set5FieldIN5Model5Solid6Affine2J2EE4NameB5cxx11Ei
FN:113,_ZNK3Set5FieldIN5Model5Solid6Affine2J2EE4CopyEiRN5amrex8MultiFabEii
FNDA:0,_ZNK3Set5FieldIN5Model5Solid6Affine2J2EE4CopyEiRN5amrex8MultiFabEii
FN:124,_ZZNK3Set5FieldIN5Model5Solid6Affine2J2EE4CopyEiRN5amrex8MultiFabEiiENKUliiiE_clEiii
FNDA:0,_ZZNK3Set5FieldIN5Model5Solid6Affine2J2EE4CopyEiRN5amrex8MultiFabEiiENKUliiiE_clEiii
DA:50,0
DA:52,0
DA:54,0
DA:55,0
DA:56,0
DA:57,0
DA:58,0
DA:59,0
DA:64,0
DA:66,0
DA:67,0
DA:68,0
DA:69,0
DA:70,0
DA:74,0
DA:76,0
DA:78,0
DA:79,0
DA:92,0
DA:94,0
DA:98,0
DA:100,0
DA:101,0
DA:102,0
DA:103,0
DA:104,0
DA:105,0
DA:106,0
DA:107,0
DA:108,0
DA:109,0
DA:113,0
DA:115,0
DA:117,0
DA:118,0
DA:120,0
DA:121,0
DA:122,0
DA:124,0
DA:125,0
DA:126,0
DA:130,0
end_of_record
SF:/home/brunnels/Research/alamo/src/BC/Step.H
FN:27,_ZN2BC4StepC2ERN2IO9ParmParseENSt7__cxx1112basic_stringIcSt11char_traitsIcESaIcEEE
FNDA:0,_ZN2BC4StepC2ERN2IO9ParmParseENSt7__cxx1112basic_stringIcSt11char_traitsIcESaIcEEE
FN:30,_ZN2BC4Step12FillBoundaryERN5amrex7BaseFabIdEERKNS1_3BoxEiiidNS_11OrientationEPKNS1_4MaskE
FNDA:0,_ZN2BC4Step12FillBoundaryERN5amrex7BaseFabIdEERKNS1_3BoxEiiidNS_11OrientationEPKNS1_4MaskE
FN:44,_ZZN2BC4Step12FillBoundaryERN5amrex7BaseFabIdEERKNS1_3BoxEiiidNS_11OrientationEPKNS1_4MaskEENKUliiiE_clEiii
FNDA:0,_ZZN2BC4Step12FillBoundaryERN5amrex7BaseFabIdEERKNS1_3BoxEiiidNS_11OrientationEPKNS1_4MaskEENKUliiiE_clEiii
FN:97,_ZN2BC4Step8GetBCRecEv
FNDA:0,_ZN2BC4Step8GetBCRecEv
FN:109,_ZN2BC4Step5ParseERS0_RN5amrex9ParmParseE
FNDA:0,_ZN2BC4Step5ParseERS0_RN5amrex9ParmParseE
DA:27,0
DA:28,0
DA:30,0
DA:36,0
DA:38,0
DA:39,0
DA:40,0
DA:42,0
DA:44,0
DA:46,0
DA:47,0
DA:51,0
DA:52,0
DA:57,0
DA:59,0
DA:61,0
DA:62,0
DA:66,0
DA:67,0
DA:70,0
DA:72,0
DA:74,0
DA:75,0
DA:79,0
DA:80,0
DA:83,0
DA:85,0
DA:86,0
DA:88,0
DA:90,0
DA:91,0
DA:93,0
DA:96,0
DA:97,0
DA:99,0
DA:100,0
DA:102,0
DA:109,0
DA:111,0
DA:112,0
DA:113,0
end_of_record
SF:/home/brunnels/Research/alamo/ext/amrex/3d-coverage-g++-23.08/include/AMReX_BaseFab.H
FN:75,_ZN5amrex8DestCompC2Ei
FNDA:0,_ZN5amrex8DestCompC2Ei
FN:81,_ZN5amrex8NumCompsC2Ei
FNDA:0,_ZN5amrex8NumCompsC2Ei
FN:158,_ZN5amrex12placementNewIN5Model5Solid6Linear19IsotropicDegradableEEENSt9enable_ifIXntsrSt34is_trivially_default_constructibleIT_E5valueEvE4typeEPS7_l
FNDA:0,_ZN5amrex12placementNewIN5Model5Solid6Linear19IsotropicDegradableEEENSt9enable_ifIXntsrSt34is_trivially_default_constructibleIT_E5valueEvE4typeEPS7_l
FN:158,_ZN5amrex12placementNewIN3Set7Matrix4ILi3ELi1EEEEENSt9enable_ifIXntsrSt34is_trivially_default_constructibleIT_E5valueEvE4typeEPS6_l
FNDA:0,_ZN5amrex12placementNewIN3Set7Matrix4ILi3ELi1EEEEENSt9enable_ifIXntsrSt34is_trivially_default_constructibleIT_E5valueEvE4typeEPS6_l
FN:158,_ZN5amrex12placementNewIN5Eigen6MatrixIdLi3ELi1ELi0ELi3ELi1EEEEENSt9enable_ifIXntsrSt34is_trivially_default_constructibleIT_E5valueEvE4typeEPS6_l
FNDA:0,_ZN5amrex12placementNewIN5Eigen6MatrixIdLi3ELi1ELi0ELi3ELi1EEEEENSt9enable_ifIXntsrSt34is_trivially_default_constructibleIT_E5valueEvE4typeEPS6_l
FN:158,_ZN5amrex12placementNewIN5Model5Solid6Affine9IsotropicEEENSt9enable_ifIXntsrSt34is_trivially_default_constructibleIT_E5valueEvE4typeEPS7_l
FNDA:0,_ZN5amrex12placementNewIN5Model5Solid6Affine9IsotropicEEENSt9enable_ifIXntsrSt34is_trivially_default_constructibleIT_E5valueEvE4typeEPS7_l
FN:158,_ZN5amrex12placementNewIN5Model5Solid6Linear9IsotropicEEENSt9enable_ifIXntsrSt34is_trivially_default_constructibleIT_E5valueEvE4typeEPS7_l
FNDA:0,_ZN5amrex12placementNewIN5Model5Solid6Linear9IsotropicEEENSt9enable_ifIXntsrSt34is_trivially_default_constructibleIT_E5valueEvE4typeEPS7_l
FN:158,_ZN5amrex12placementNewIN5Model5Solid6Linear5CubicEEENSt9enable_ifIXntsrSt34is_trivially_default_constructibleIT_E5valueEvE4typeEPS7_l
FNDA:1,_ZN5amrex12placementNewIN5Model5Solid6Linear5CubicEEENSt9enable_ifIXntsrSt34is_trivially_default_constructibleIT_E5valueEvE4typeEPS7_l
FN:158,_ZN5amrex12placementNewIN5Model5Solid6Affine5CubicEEENSt9enable_ifIXntsrSt34is_trivially_default_constructibleIT_E5valueEvE4typeEPS7_l
FNDA:0,_ZN5amrex12placementNewIN5Model5Solid6Affine5CubicEEENSt9enable_ifIXntsrSt34is_trivially_default_constructibleIT_E5valueEvE4typeEPS7_l
FN:158,_ZN5amrex12placementNewIN5Model5Solid6Affine9HexagonalEEENSt9enable_ifIXntsrSt34is_trivially_default_constructibleIT_E5valueEvE4typeEPS7_l
FNDA:0,_ZN5amrex12placementNewIN5Model5Solid6Affine9HexagonalEEENSt9enable_ifIXntsrSt34is_trivially_default_constructibleIT_E5valueEvE4typeEPS7_l
FN:158,_ZN5amrex12placementNewIN5Model5Solid6Linear9LaplacianEEENSt9enable_ifIXntsrSt34is_trivially_default_constructibleIT_E5valueEvE4typeEPS7_l
FNDA:0,_ZN5amrex12placementNewIN5Model5Solid6Linear9LaplacianEEENSt9enable_ifIXntsrSt34is_trivially_default_constructibleIT_E5valueEvE4typeEPS7_l
FN:158,_ZN5amrex12placementNewIN5Model5Solid7Elastic10NeoHookeanEEENSt9enable_ifIXntsrSt34is_trivially_default_constructibleIT_E5valueEvE4typeEPS7_l
FNDA:0,_ZN5amrex12placementNewIN5Model5Solid7Elastic10NeoHookeanEEENSt9enable_ifIXntsrSt34is_trivially_default_constructibleIT_E5valueEvE4typeEPS7_l
FN:158,_ZN5amrex12placementNewIN5Model5Solid7Elastic17PseudoLinearCubicEEENSt9enable_ifIXntsrSt34is_trivially_default_constructibleIT_E5valueEvE4typeEPS7_l
FNDA:1,_ZN5amrex12placementNewIN5Model5Solid7Elastic17PseudoLinearCubicEEENSt9enable_ifIXntsrSt34is_trivially_default_constructibleIT_E5valueEvE4typeEPS7_l
FN:158,_ZN5amrex12placementNewIN5Model5Solid7Elastic28PseudoLinearCubicPredeformedEEENSt9enable_ifIXntsrSt34is_trivially_default_constructibleIT_E5valueEvE4typeEPS7_l
FNDA:0,_ZN5amrex12placementNewIN5Model5Solid7Elastic28PseudoLinearCubicPredeformedEEENSt9enable_ifIXntsrSt34is_trivially_default_constructibleIT_E5valueEvE4typeEPS7_l
FN:158,_ZN5amrex12placementNewIN5Model5Solid6Affine2J2EEENSt9enable_ifIXntsrSt34is_trivially_default_constructibleIT_E5valueEvE4typeEPS7_l
FNDA:0,_ZN5amrex12placementNewIN5Model5Solid6Affine2J2EEENSt9enable_ifIXntsrSt34is_trivially_default_constructibleIT_E5valueEvE4typeEPS7_l
FN:158,_ZN5amrex12placementNewIN5Eigen6MatrixIdLi3ELi3ELi0ELi3ELi3EEEEENSt9enable_ifIXntsrSt34is_trivially_default_constructibleIT_E5valueEvE4typeEPS6_l
FNDA:0,_ZN5amrex12placementNewIN5Eigen6MatrixIdLi3ELi3ELi0ELi3ELi3EEEEENSt9enable_ifIXntsrSt34is_trivially_default_constructibleIT_E5valueEvE4typeEPS6_l
FN:158,_ZN5amrex12placementNewIN3Set7Matrix4ILi3ELi6EEEEENSt9enable_ifIXntsrSt34is_trivially_default_constructibleIT_E5valueEvE4typeEPS6_l
FNDA:0,_ZN5amrex12placementNewIN3Set7Matrix4ILi3ELi6EEEEENSt9enable_ifIXntsrSt34is_trivially_default_constructibleIT_E5valueEvE4typeEPS6_l
FN:158,_ZN5amrex12placementNewIN3Set7Matrix4ILi3ELi3EEEEENSt9enable_ifIXntsrSt34is_trivially_default_constructibleIT_E5valueEvE4typeEPS6_l
FNDA:0,_ZN5amrex12placementNewIN3Set7Matrix4ILi3ELi3EEEEENSt9enable_ifIXntsrSt34is_trivially_default_constructibleIT_E5valueEvE4typeEPS6_l
FN:158,_ZN5amrex12placementNewIN3Set7Matrix4ILi3ELi4EEEEENSt9enable_ifIXntsrSt34is_trivially_default_constructibleIT_E5valueEvE4typeEPS6_l
FNDA:0,_ZN5amrex12placementNewIN3Set7Matrix4ILi3ELi4EEEEENSt9enable_ifIXntsrSt34is_trivially_default_constructibleIT_E5valueEvE4typeEPS6_l
FN:168,_ZN5amrex15placementDeleteIN3Set7Matrix4ILi3ELi1EEEEENSt9enable_ifIXsrSt25is_trivially_destructibleIT_E5valueEvE4typeEPS6_l
FNDA:0,_ZN5amrex15placementDeleteIN3Set7Matrix4ILi3ELi1EEEEENSt9enable_ifIXsrSt25is_trivially_destructibleIT_E5valueEvE4typeEPS6_l
FN:168,_ZN5amrex15placementDeleteIN3Set7Matrix4ILi3ELi4EEEEENSt9enable_ifIXsrSt25is_trivially_destructibleIT_E5valueEvE4typeEPS6_l
FNDA:0,_ZN5amrex15placementDeleteIN3Set7Matrix4ILi3ELi4EEEEENSt9enable_ifIXsrSt25is_trivially_destructibleIT_E5valueEvE4typeEPS6_l
FN:168,_ZN5amrex15placementDeleteIN5Eigen6MatrixIdLi3ELi3ELi0ELi3ELi3EEEEENSt9enable_ifIXsrSt25is_trivially_destructibleIT_E5valueEvE4typeEPS6_l
FNDA:0,_ZN5amrex15placementDeleteIN5Eigen6MatrixIdLi3ELi3ELi0ELi3ELi3EEEEENSt9enable_ifIXsrSt25is_trivially_destructibleIT_E5valueEvE4typeEPS6_l
FN:168,_ZN5amrex15placementDeleteIN5Eigen6MatrixIdLi3ELi1ELi0ELi3ELi1EEEEENSt9enable_ifIXsrSt25is_trivially_destructibleIT_E5valueEvE4typeEPS6_l
FNDA:0,_ZN5amrex15placementDeleteIN5Eigen6MatrixIdLi3ELi1ELi0ELi3ELi1EEEEENSt9enable_ifIXsrSt25is_trivially_destructibleIT_E5valueEvE4typeEPS6_l
FN:168,_ZN5amrex15placementDeleteIN3Set7Matrix4ILi3ELi6EEEEENSt9enable_ifIXsrSt25is_trivially_destructibleIT_E5valueEvE4typeEPS6_l
FNDA:0,_ZN5amrex15placementDeleteIN3Set7Matrix4ILi3ELi6EEEEENSt9enable_ifIXsrSt25is_trivially_destructibleIT_E5valueEvE4typeEPS6_l
FN:168,_ZN5amrex15placementDeleteIN3Set7Matrix4ILi3ELi3EEEEENSt9enable_ifIXsrSt25is_trivially_destructibleIT_E5valueEvE4typeEPS6_l
FNDA:0,_ZN5amrex15placementDeleteIN3Set7Matrix4ILi3ELi3EEEEENSt9enable_ifIXsrSt25is_trivially_destructibleIT_E5valueEvE4typeEPS6_l
FN:173,_ZN5amrex15placementDeleteIN5Model5Solid6Linear19IsotropicDegradableEEENSt9enable_ifIXntsrSt25is_trivially_destructibleIT_E5valueEvE4typeEPS7_l
FNDA:0,_ZN5amrex15placementDeleteIN5Model5Solid6Linear19IsotropicDegradableEEENSt9enable_ifIXntsrSt25is_trivially_destructibleIT_E5valueEvE4typeEPS7_l
FN:173,_ZN5amrex15placementDeleteIN5Model5Solid6Linear9IsotropicEEENSt9enable_ifIXntsrSt25is_trivially_destructibleIT_E5valueEvE4typeEPS7_l
FNDA:0,_ZN5amrex15placementDeleteIN5Model5Solid6Linear9IsotropicEEENSt9enable_ifIXntsrSt25is_trivially_destructibleIT_E5valueEvE4typeEPS7_l
FN:173,_ZN5amrex15placementDeleteIN5Model5Solid6Linear5CubicEEENSt9enable_ifIXntsrSt25is_trivially_destructibleIT_E5valueEvE4typeEPS7_l
FNDA:1,_ZN5amrex15placementDeleteIN5Model5Solid6Linear5CubicEEENSt9enable_ifIXntsrSt25is_trivially_destructibleIT_E5valueEvE4typeEPS7_l
FN:173,_ZN5amrex15placementDeleteIN5Model5Solid6Affine5CubicEEENSt9enable_ifIXntsrSt25is_trivially_destructibleIT_E5valueEvE4typeEPS7_l
FNDA:0,_ZN5amrex15placementDeleteIN5Model5Solid6Affine5CubicEEENSt9enable_ifIXntsrSt25is_trivially_destructibleIT_E5valueEvE4typeEPS7_l
FN:173,_ZN5amrex15placementDeleteIN5Model5Solid6Affine9IsotropicEEENSt9enable_ifIXntsrSt25is_trivially_destructibleIT_E5valueEvE4typeEPS7_l
FNDA:0,_ZN5amrex15placementDeleteIN5Model5Solid6Affine9IsotropicEEENSt9enable_ifIXntsrSt25is_trivially_destructibleIT_E5valueEvE4typeEPS7_l
FN:173,_ZN5amrex15placementDeleteIN5Model5Solid6Affine9HexagonalEEENSt9enable_ifIXntsrSt25is_trivially_destructibleIT_E5valueEvE4typeEPS7_l
FNDA:0,_ZN5amrex15placementDeleteIN5Model5Solid6Affine9HexagonalEEENSt9enable_ifIXntsrSt25is_trivially_destructibleIT_E5valueEvE4typeEPS7_l
FN:173,_ZN5amrex15placementDeleteIN5Model5Solid6Linear9LaplacianEEENSt9enable_ifIXntsrSt25is_trivially_destructibleIT_E5valueEvE4typeEPS7_l
FNDA:0,_ZN5amrex15placementDeleteIN5Model5Solid6Linear9LaplacianEEENSt9enable_ifIXntsrSt25is_trivially_destructibleIT_E5valueEvE4typeEPS7_l
FN:173,_ZN5amrex15placementDeleteIN5Model5Solid7Elastic17PseudoLinearCubicEEENSt9enable_ifIXntsrSt25is_trivially_destructibleIT_E5valueEvE4typeEPS7_l
FNDA:1,_ZN5amrex15placementDeleteIN5Model5Solid7Elastic17PseudoLinearCubicEEENSt9enable_ifIXntsrSt25is_trivially_destructibleIT_E5valueEvE4typeEPS7_l
FN:173,_ZN5amrex15placementDeleteIN5Model5Solid7Elastic28PseudoLinearCubicPredeformedEEENSt9enable_ifIXntsrSt25is_trivially_destructibleIT_E5valueEvE4typeEPS7_l
FNDA:0,_ZN5amrex15placementDeleteIN5Model5Solid7Elastic28PseudoLinearCubicPredeformedEEENSt9enable_ifIXntsrSt25is_trivially_destructibleIT_E5valueEvE4typeEPS7_l
FN:173,_ZN5amrex15placementDeleteIN5Model5Solid6Affine2J2EEENSt9enable_ifIXntsrSt25is_trivially_destructibleIT_E5valueEvE4typeEPS7_l
FNDA:0,_ZN5amrex15placementDeleteIN5Model5Solid6Affine2J2EEENSt9enable_ifIXntsrSt25is_trivially_destructibleIT_E5valueEvE4typeEPS7_l
FN:173,_ZN5amrex15placementDeleteIN5Model5Solid7Elastic10NeoHookeanEEENSt9enable_ifIXntsrSt25is_trivially_destructibleIT_E5valueEvE4typeEPS7_l
FNDA:0,_ZN5amrex15placementDeleteIN5Model5Solid7Elastic10NeoHookeanEEENSt9enable_ifIXntsrSt25is_trivially_destructibleIT_E5valueEvE4typeEPS7_l
FN:267,_ZNK5amrex7BaseFabIN5Model5Solid7Elastic28PseudoLinearCubicPredeformedEE6nBytesEv
FNDA:0,_ZNK5amrex7BaseFabIN5Model5Solid7Elastic28PseudoLinearCubicPredeformedEE6nBytesEv
FN:267,_ZNK5amrex7BaseFabIN5Model5Solid6Affine5CubicEE6nBytesEv
FNDA:0,_ZNK5amrex7BaseFabIN5Model5Solid6Affine5CubicEE6nBytesEv
FN:267,_ZNK5amrex7BaseFabIN5Model5Solid6Affine9HexagonalEE6nBytesEv
FNDA:0,_ZNK5amrex7BaseFabIN5Model5Solid6Affine9HexagonalEE6nBytesEv
FN:267,_ZNK5amrex7BaseFabIN5Model5Solid6Linear9IsotropicEE6nBytesEv
FNDA:0,_ZNK5amrex7BaseFabIN5Model5Solid6Linear9IsotropicEE6nBytesEv
FN:267,_ZNK5amrex7BaseFabIN5Model5Solid6Linear5CubicEE6nBytesEv
FNDA:2,_ZNK5amrex7BaseFabIN5Model5Solid6Linear5CubicEE6nBytesEv
FN:267,_ZNK5amrex7BaseFabIN5Model5Solid6Linear9LaplacianEE6nBytesEv
FNDA:0,_ZNK5amrex7BaseFabIN5Model5Solid6Linear9LaplacianEE6nBytesEv
FN:267,_ZNK5amrex7BaseFabIN5Model5Solid7Elastic10NeoHookeanEE6nBytesEv
FNDA:0,_ZNK5amrex7BaseFabIN5Model5Solid7Elastic10NeoHookeanEE6nBytesEv
FN:267,_ZNK5amrex7BaseFabIN5Model5Solid6Affine9IsotropicEE6nBytesEv
FNDA:0,_ZNK5amrex7BaseFabIN5Model5Solid6Affine9IsotropicEE6nBytesEv
FN:267,_ZNK5amrex7BaseFabIN5Model5Solid6Linear19IsotropicDegradableEE6nBytesEv
FNDA:0,_ZNK5amrex7BaseFabIN5Model5Solid6Linear19IsotropicDegradableEE6nBytesEv
FN:267,_ZNK5amrex7BaseFabIN5Model5Solid7Elastic17PseudoLinearCubicEE6nBytesEv
FNDA:2,_ZNK5amrex7BaseFabIN5Model5Solid7Elastic17PseudoLinearCubicEE6nBytesEv
FN:267,_ZNK5amrex7BaseFabIN5Model5Solid6Affine2J2EE6nBytesEv
FNDA:0,_ZNK5amrex7BaseFabIN5Model5Solid6Affine2J2EE6nBytesEv
FN:267,_ZNK5amrex7BaseFabIN3Set7Matrix4ILi3ELi1EEEE6nBytesEv
FNDA:0,_ZNK5amrex7BaseFabIN3Set7Matrix4ILi3ELi1EEEE6nBytesEv
FN:267,_ZNK5amrex7BaseFabIN3Set7Matrix4ILi3ELi6EEEE6nBytesEv
FNDA:0,_ZNK5amrex7BaseFabIN3Set7Matrix4ILi3ELi6EEEE6nBytesEv
FN:267,_ZNK5amrex7BaseFabIN3Set7Matrix4ILi3ELi4EEEE6nBytesEv
FNDA:0,_ZNK5amrex7BaseFabIN3Set7Matrix4ILi3ELi4EEEE6nBytesEv
FN:267,_ZNK5amrex7BaseFabIN5Eigen6MatrixIdLi3ELi3ELi0ELi3ELi3EEEE6nBytesEv
FNDA:0,_ZNK5amrex7BaseFabIN5Eigen6MatrixIdLi3ELi3ELi0ELi3ELi3EEEE6nBytesEv
FN:267,_ZNK5amrex7BaseFabIN5Eigen6MatrixIdLi3ELi1ELi0ELi3ELi1EEEE6nBytesEv
FNDA:0,_ZNK5amrex7BaseFabIN5Eigen6MatrixIdLi3ELi1ELi0ELi3ELi1EEEE6nBytesEv
FN:267,_ZNK5amrex7BaseFabIN3Set7Matrix4ILi3ELi3EEEE6nBytesEv
FNDA:0,_ZNK5amrex7BaseFabIN3Set7Matrix4ILi3ELi3EEEE6nBytesEv
FN:267,_ZNK5amrex7BaseFabIiE6nBytesEv
FNDA:0,_ZNK5amrex7BaseFabIiE6nBytesEv
FN:267,_ZNK5amrex7BaseFabIdE6nBytesEv
FNDA:0,_ZNK5amrex7BaseFabIdE6nBytesEv
FN:269,_ZNK5amrex7BaseFabIN5Model5Solid6Linear9LaplacianEE11nBytesOwnedEv
FNDA:0,_ZNK5amrex7BaseFabIN5Model5Solid6Linear9LaplacianEE11nBytesOwnedEv
FN:269,_ZNK5amrex7BaseFabIN5Model5Solid6Affine2J2EE11nBytesOwnedEv
FNDA:0,_ZNK5amrex7BaseFabIN5Model5Solid6Affine2J2EE11nBytesOwnedEv
FN:269,_ZNK5amrex7BaseFabIN5Model5Solid7Elastic28PseudoLinearCubicPredeformedEE11nBytesOwnedEv
FNDA:0,_ZNK5amrex7BaseFabIN5Model5Solid7Elastic28PseudoLinearCubicPredeformedEE11nBytesOwnedEv
FN:269,_ZNK5amrex7BaseFabIN5Eigen6MatrixIdLi3ELi1ELi0ELi3ELi1EEEE11nBytesOwnedEv
FNDA:0,_ZNK5amrex7BaseFabIN5Eigen6MatrixIdLi3ELi1ELi0ELi3ELi1EEEE11nBytesOwnedEv
FN:269,_ZNK5amrex7BaseFabIN3Set7Matrix4ILi3ELi4EEEE11nBytesOwnedEv
FNDA:0,_ZNK5amrex7BaseFabIN3Set7Matrix4ILi3ELi4EEEE11nBytesOwnedEv
FN:269,_ZNK5amrex7BaseFabIN3Set7Matrix4ILi3ELi1EEEE11nBytesOwnedEv
FNDA:0,_ZNK5amrex7BaseFabIN3Set7Matrix4ILi3ELi1EEEE11nBytesOwnedEv
FN:269,_ZNK5amrex7BaseFabIiE11nBytesOwnedEv
FNDA:0,_ZNK5amrex7BaseFabIiE11nBytesOwnedEv
FN:269,_ZNK5amrex7BaseFabIN3Set7Matrix4ILi3ELi3EEEE11nBytesOwnedEv
FNDA:0,_ZNK5amrex7BaseFabIN3Set7Matrix4ILi3ELi3EEEE11nBytesOwnedEv
FN:269,_ZNK5amrex7BaseFabIdE11nBytesOwnedEv
FNDA:0,_ZNK5amrex7BaseFabIdE11nBytesOwnedEv
FN:269,_ZNK5amrex7BaseFabIN5Model5Solid7Elastic17PseudoLinearCubicEE11nBytesOwnedEv
FNDA:2,_ZNK5amrex7BaseFabIN5Model5Solid7Elastic17PseudoLinearCubicEE11nBytesOwnedEv
FN:269,_ZNK5amrex7BaseFabIN5Eigen6MatrixIdLi3ELi3ELi0ELi3ELi3EEEE11nBytesOwnedEv
FNDA:0,_ZNK5amrex7BaseFabIN5Eigen6MatrixIdLi3ELi3ELi0ELi3ELi3EEEE11nBytesOwnedEv
FN:269,_ZNK5amrex7BaseFabIN3Set7Matrix4ILi3ELi6EEEE11nBytesOwnedEv
FNDA:0,_ZNK5amrex7BaseFabIN3Set7Matrix4ILi3ELi6EEEE11nBytesOwnedEv
FN:269,_ZNK5amrex7BaseFabIN5Model5Solid6Linear19IsotropicDegradableEE11nBytesOwnedEv
FNDA:0,_ZNK5amrex7BaseFabIN5Model5Solid6Linear19IsotropicDegradableEE11nBytesOwnedEv
FN:269,_ZNK5amrex7BaseFabIN5Model5Solid7Elastic10NeoHookeanEE11nBytesOwnedEv
FNDA:0,_ZNK5amrex7BaseFabIN5Model5Solid7Elastic10NeoHookeanEE11nBytesOwnedEv
FN:269,_ZNK5amrex7BaseFabIN5Model5Solid6Affine9IsotropicEE11nBytesOwnedEv
FNDA:0,_ZNK5amrex7BaseFabIN5Model5Solid6Affine9IsotropicEE11nBytesOwnedEv
FN:269,_ZNK5amrex7BaseFabIN5Model5Solid6Affine5CubicEE11nBytesOwnedEv
FNDA:0,_ZNK5amrex7BaseFabIN5Model5Solid6Affine5CubicEE11nBytesOwnedEv
FN:269,_ZNK5amrex7BaseFabIN5Model5Solid6Affine9HexagonalEE11nBytesOwnedEv
FNDA:0,_ZNK5amrex7BaseFabIN5Model5Solid6Affine9HexagonalEE11nBytesOwnedEv
FN:269,_ZNK5amrex7BaseFabIN5Model5Solid6Linear9IsotropicEE11nBytesOwnedEv
FNDA:0,_ZNK5amrex7BaseFabIN5Model5Solid6Linear9IsotropicEE11nBytesOwnedEv
FN:269,_ZNK5amrex7BaseFabIN5Model5Solid6Linear5CubicEE11nBytesOwnedEv
FNDA:2,_ZNK5amrex7BaseFabIN5Model5Solid6Linear5CubicEE11nBytesOwnedEv
FN:292,_ZNK5amrex7BaseFabIN5Model5Solid7Elastic17PseudoLinearCubicEE3boxEv
FNDA:0,_ZNK5amrex7BaseFabIN5Model5Solid7Elastic17PseudoLinearCubicEE3boxEv
FN:292,_ZNK5amrex7BaseFabIN5Model5Solid6Affine9IsotropicEE3boxEv
FNDA:0,_ZNK5amrex7BaseFabIN5Model5Solid6Affine9IsotropicEE3boxEv
FN:292,_ZNK5amrex7BaseFabIN5Model5Solid6Linear9IsotropicEE3boxEv
FNDA:0,_ZNK5amrex7BaseFabIN5Model5Solid6Linear9IsotropicEE3boxEv
FN:292,_ZNK5amrex7BaseFabIN5Model5Solid6Linear5CubicEE3boxEv
FNDA:0,_ZNK5amrex7BaseFabIN5Model5Solid6Linear5CubicEE3boxEv
FN:292,_ZNK5amrex7BaseFabIN5Model5Solid6Affine5CubicEE3boxEv
FNDA:0,_ZNK5amrex7BaseFabIN5Model5Solid6Affine5CubicEE3boxEv
FN:292,_ZNK5amrex7BaseFabIN5Model5Solid6Affine9HexagonalEE3boxEv
FNDA:0,_ZNK5amrex7BaseFabIN5Model5Solid6Affine9HexagonalEE3boxEv
FN:292,_ZNK5amrex7BaseFabIN5Model5Solid6Linear9LaplacianEE3boxEv
FNDA:0,_ZNK5amrex7BaseFabIN5Model5Solid6Linear9LaplacianEE3boxEv
FN:292,_ZNK5amrex7BaseFabIN5Model5Solid7Elastic10NeoHookeanEE3boxEv
FNDA:0,_ZNK5amrex7BaseFabIN5Model5Solid7Elastic10NeoHookeanEE3boxEv
FN:292,_ZNK5amrex7BaseFabIN5Model5Solid6Linear19IsotropicDegradableEE3boxEv
FNDA:0,_ZNK5amrex7BaseFabIN5Model5Solid6Linear19IsotropicDegradableEE3boxEv
FN:292,_ZNK5amrex7BaseFabIN5Model5Solid7Elastic28PseudoLinearCubicPredeformedEE3boxEv
FNDA:0,_ZNK5amrex7BaseFabIN5Model5Solid7Elastic28PseudoLinearCubicPredeformedEE3boxEv
FN:292,_ZNK5amrex7BaseFabIN5Model5Solid6Affine2J2EE3boxEv
FNDA:0,_ZNK5amrex7BaseFabIN5Model5Solid6Affine2J2EE3boxEv
FN:292,_ZNK5amrex7BaseFabIN5Eigen6MatrixIdLi3ELi3ELi0ELi3ELi3EEEE3boxEv
FNDA:0,_ZNK5amrex7BaseFabIN5Eigen6MatrixIdLi3ELi3ELi0ELi3ELi3EEEE3boxEv
FN:292,_ZNK5amrex7BaseFabIN5Eigen6MatrixIdLi3ELi1ELi0ELi3ELi1EEEE3boxEv
FNDA:0,_ZNK5amrex7BaseFabIN5Eigen6MatrixIdLi3ELi1ELi0ELi3ELi1EEEE3boxEv
FN:362,_ZNK5amrex7BaseFabIN5Model5Solid6Affine2J2EE7dataPtrEi
FNDA:0,_ZNK5amrex7BaseFabIN5Model5Solid6Affine2J2EE7dataPtrEi
FN:362,_ZNK5amrex7BaseFabIN5Model5Solid7Elastic10NeoHookeanEE7dataPtrEi
FNDA:0,_ZNK5amrex7BaseFabIN5Model5Solid7Elastic10NeoHookeanEE7dataPtrEi
FN:362,_ZNK5amrex7BaseFabIN5Model5Solid7Elastic17PseudoLinearCubicEE7dataPtrEi
FNDA:0,_ZNK5amrex7BaseFabIN5Model5Solid7Elastic17PseudoLinearCubicEE7dataPtrEi
FN:362,_ZNK5amrex7BaseFabIN5Model5Solid7Elastic28PseudoLinearCubicPredeformedEE7dataPtrEi
FNDA:0,_ZNK5amrex7BaseFabIN5Model5Solid7Elastic28PseudoLinearCubicPredeformedEE7dataPtrEi
FN:362,_ZNK5amrex7BaseFabIN5Eigen6MatrixIdLi3ELi3ELi0ELi3ELi3EEEE7dataPtrEi
FNDA:0,_ZNK5amrex7BaseFabIN5Eigen6MatrixIdLi3ELi3ELi0ELi3ELi3EEEE7dataPtrEi
FN:362,_ZNK5amrex7BaseFabIN5Model5Solid6Affine5CubicEE7dataPtrEi
FNDA:0,_ZNK5amrex7BaseFabIN5Model5Solid6Affine5CubicEE7dataPtrEi
FN:362,_ZNK5amrex7BaseFabIN5Model5Solid6Linear5CubicEE7dataPtrEi
FNDA:0,_ZNK5amrex7BaseFabIN5Model5Solid6Linear5CubicEE7dataPtrEi
FN:362,_ZNK5amrex7BaseFabIN5Model5Solid6Linear9IsotropicEE7dataPtrEi
FNDA:0,_ZNK5amrex7BaseFabIN5Model5Solid6Linear9IsotropicEE7dataPtrEi
FN:362,_ZNK5amrex7BaseFabIN5Model5Solid6Affine9HexagonalEE7dataPtrEi
FNDA:0,_ZNK5amrex7BaseFabIN5Model5Solid6Affine9HexagonalEE7dataPtrEi
FN:362,_ZNK5amrex7BaseFabIN5Model5Solid6Affine9IsotropicEE7dataPtrEi
FNDA:0,_ZNK5amrex7BaseFabIN5Model5Solid6Affine9IsotropicEE7dataPtrEi
FN:362,_ZNK5amrex7BaseFabIN5Eigen6MatrixIdLi3ELi1ELi0ELi3ELi1EEEE7dataPtrEi
FNDA:0,_ZNK5amrex7BaseFabIN5Eigen6MatrixIdLi3ELi1ELi0ELi3ELi1EEEE7dataPtrEi
FN:362,_ZNK5amrex7BaseFabIN5Model5Solid6Linear19IsotropicDegradableEE7dataPtrEi
FNDA:0,_ZNK5amrex7BaseFabIN5Model5Solid6Linear19IsotropicDegradableEE7dataPtrEi
FN:362,_ZNK5amrex7BaseFabIN5Model5Solid6Linear9LaplacianEE7dataPtrEi
FNDA:0,_ZNK5amrex7BaseFabIN5Model5Solid6Linear9LaplacianEE7dataPtrEi
FN:362,_ZNK5amrex7BaseFabIN3Set7Matrix4ILi3ELi1EEEE7dataPtrEi
FNDA:0,_ZNK5amrex7BaseFabIN3Set7Matrix4ILi3ELi1EEEE7dataPtrEi
FN:362,_ZNK5amrex7BaseFabIN3Set7Matrix4ILi3ELi4EEEE7dataPtrEi
FNDA:0,_ZNK5amrex7BaseFabIN3Set7Matrix4ILi3ELi4EEEE7dataPtrEi
FN:362,_ZNK5amrex7BaseFabIN3Set7Matrix4ILi3ELi3EEEE7dataPtrEi
FNDA:0,_ZNK5amrex7BaseFabIN3Set7Matrix4ILi3ELi3EEEE7dataPtrEi
FN:362,_ZNK5amrex7BaseFabIN3Set7Matrix4ILi3ELi6EEEE7dataPtrEi
FNDA:0,_ZNK5amrex7BaseFabIN3Set7Matrix4ILi3ELi6EEEE7dataPtrEi
FN:1835,_ZN5amrex7BaseFabIiE6setValILNS_5RunOnE1EEEvRKiRKNS_3BoxEii
FNDA:0,_ZN5amrex7BaseFabIiE6setValILNS_5RunOnE1EEEvRKiRKNS_3BoxEii
FN:1851,_ZN5amrex7BaseFabIN5Eigen6MatrixIdLi3ELi1ELi0ELi3ELi1EEEE4copyILNS_5RunOnE1EEERS4_RKS4_RKNS_3BoxEiSC_ii
FNDA:0,_ZN5amrex7BaseFabIN5Eigen6MatrixIdLi3ELi1ELi0ELi3ELi1EEEE4copyILNS_5RunOnE1EEERS4_RKS4_RKNS_3BoxEiSC_ii
FN:1851,_ZN5amrex7BaseFabIN5Model5Solid6Linear9IsotropicEE4copyILNS_5RunOnE1EEERS5_RKS5_RKNS_3BoxEiSD_ii
FNDA:0,_ZN5amrex7BaseFabIN5Model5Solid6Linear9IsotropicEE4copyILNS_5RunOnE1EEERS5_RKS5_RKNS_3BoxEiSD_ii
FN:1851,_ZN5amrex7BaseFabIN5Model5Solid6Linear5CubicEE4copyILNS_5RunOnE1EEERS5_RKS5_RKNS_3BoxEiSD_ii
FNDA:0,_ZN5amrex7BaseFabIN5Model5Solid6Linear5CubicEE4copyILNS_5RunOnE1EEERS5_RKS5_RKNS_3BoxEiSD_ii
FN:1851,_ZN5amrex7BaseFabIN5Model5Solid6Affine5CubicEE4copyILNS_5RunOnE1EEERS5_RKS5_RKNS_3BoxEiSD_ii
FNDA:0,_ZN5amrex7BaseFabIN5Model5Solid6Affine5CubicEE4copyILNS_5RunOnE1EEERS5_RKS5_RKNS_3BoxEiSD_ii
FN:1851,_ZN5amrex7BaseFabIN5Model5Solid6Affine9HexagonalEE4copyILNS_5RunOnE1EEERS5_RKS5_RKNS_3BoxEiSD_ii
FNDA:0,_ZN5amrex7BaseFabIN5Model5Solid6Affine9HexagonalEE4copyILNS_5RunOnE1EEERS5_RKS5_RKNS_3BoxEiSD_ii
FN:1851,_ZN5amrex7BaseFabIN5Eigen6MatrixIdLi3ELi3ELi0ELi3ELi3EEEE4copyILNS_5RunOnE0EEERS4_RKS4_RKNS_3BoxEiSC_ii
FNDA:0,_ZN5amrex7BaseFabIN5Eigen6MatrixIdLi3ELi3ELi0ELi3ELi3EEEE4copyILNS_5RunOnE0EEERS4_RKS4_RKNS_3BoxEiSC_ii
FN:1851,_ZN5amrex7BaseFabIN5Model5Solid6Linear9LaplacianEE4copyILNS_5RunOnE1EEERS5_RKS5_RKNS_3BoxEiSD_ii
FNDA:0,_ZN5amrex7BaseFabIN5Model5Solid6Linear9LaplacianEE4copyILNS_5RunOnE1EEERS5_RKS5_RKNS_3BoxEiSD_ii
FN:1851,_ZN5amrex7BaseFabIN5Model5Solid6Linear9LaplacianEE4copyILNS_5RunOnE0EEERS5_RKS5_RKNS_3BoxEiSD_ii
FNDA:0,_ZN5amrex7BaseFabIN5Model5Solid6Linear9LaplacianEE4copyILNS_5RunOnE0EEERS5_RKS5_RKNS_3BoxEiSD_ii
FN:1851,_ZN5amrex7BaseFabIdE4copyILNS_5RunOnE1EEERS1_RKS1_RKNS_3BoxEiS9_ii
FNDA:0,_ZN5amrex7BaseFabIdE4copyILNS_5RunOnE1EEERS1_RKS1_RKNS_3BoxEiS9_ii
FN:1851,_ZN5amrex7BaseFabIN5Model5Solid7Elastic10NeoHookeanEE4copyILNS_5RunOnE1EEERS5_RKS5_RKNS_3BoxEiSD_ii
FNDA:0,_ZN5amrex7BaseFabIN5Model5Solid7Elastic10NeoHookeanEE4copyILNS_5RunOnE1EEERS5_RKS5_RKNS_3BoxEiSD_ii
FN:1851,_ZN5amrex7BaseFabIN5Model5Solid7Elastic17PseudoLinearCubicEE4copyILNS_5RunOnE1EEERS5_RKS5_RKNS_3BoxEiSD_ii
FNDA:0,_ZN5amrex7BaseFabIN5Model5Solid7Elastic17PseudoLinearCubicEE4copyILNS_5RunOnE1EEERS5_RKS5_RKNS_3BoxEiSD_ii
FN:1851,_ZN5amrex7BaseFabIN5Model5Solid6Linear19IsotropicDegradableEE4copyILNS_5RunOnE1EEERS5_RKS5_RKNS_3BoxEiSD_ii
FNDA:0,_ZN5amrex7BaseFabIN5Model5Solid6Linear19IsotropicDegradableEE4copyILNS_5RunOnE1EEERS5_RKS5_RKNS_3BoxEiSD_ii
FN:1851,_ZN5amrex7BaseFabIN5Model5Solid6Affine9IsotropicEE4copyILNS_5RunOnE1EEERS5_RKS5_RKNS_3BoxEiSD_ii
FNDA:0,_ZN5amrex7BaseFabIN5Model5Solid6Affine9IsotropicEE4copyILNS_5RunOnE1EEERS5_RKS5_RKNS_3BoxEiSD_ii
FN:1851,_ZN5amrex7BaseFabIN5Model5Solid7Elastic28PseudoLinearCubicPredeformedEE4copyILNS_5RunOnE1EEERS5_RKS5_RKNS_3BoxEiSD_ii
FNDA:0,_ZN5amrex7BaseFabIN5Model5Solid7Elastic28PseudoLinearCubicPredeformedEE4copyILNS_5RunOnE1EEERS5_RKS5_RKNS_3BoxEiSD_ii
FN:1851,_ZN5amrex7BaseFabIN5Model5Solid6Affine2J2EE4copyILNS_5RunOnE1EEERS5_RKS5_RKNS_3BoxEiSD_ii
FNDA:0,_ZN5amrex7BaseFabIN5Model5Solid6Affine2J2EE4copyILNS_5RunOnE1EEERS5_RKS5_RKNS_3BoxEiSD_ii
FN:1851,_ZN5amrex7BaseFabIN5Eigen6MatrixIdLi3ELi3ELi0ELi3ELi3EEEE4copyILNS_5RunOnE1EEERS4_RKS4_RKNS_3BoxEiSC_ii
FNDA:0,_ZN5amrex7BaseFabIN5Eigen6MatrixIdLi3ELi3ELi0ELi3ELi3EEEE4copyILNS_5RunOnE1EEERS4_RKS4_RKNS_3BoxEiSC_ii
FN:1851,_ZN5amrex7BaseFabIN3Set7Matrix4ILi3ELi6EEEE4copyILNS_5RunOnE1EEERS4_RKS4_RKNS_3BoxEiSC_ii
FNDA:0,_ZN5amrex7BaseFabIN3Set7Matrix4ILi3ELi6EEEE4copyILNS_5RunOnE1EEERS4_RKS4_RKNS_3BoxEiSC_ii
FN:1851,_ZN5amrex7BaseFabIN3Set7Matrix4ILi3ELi6EEEE4copyILNS_5RunOnE0EEERS4_RKS4_RKNS_3BoxEiSC_ii
FNDA:0,_ZN5amrex7BaseFabIN3Set7Matrix4ILi3ELi6EEEE4copyILNS_5RunOnE0EEERS4_RKS4_RKNS_3BoxEiSC_ii
FN:1851,_ZN5amrex7BaseFabIN3Set7Matrix4ILi3ELi4EEEE4copyILNS_5RunOnE0EEERS4_RKS4_RKNS_3BoxEiSC_ii
FNDA:0,_ZN5amrex7BaseFabIN3Set7Matrix4ILi3ELi4EEEE4copyILNS_5RunOnE0EEERS4_RKS4_RKNS_3BoxEiSC_ii
FN:1851,_ZN5amrex7BaseFabIN5Model5Solid6Linear5CubicEE4copyILNS_5RunOnE0EEERS5_RKS5_RKNS_3BoxEiSD_ii
FNDA:0,_ZN5amrex7BaseFabIN5Model5Solid6Linear5CubicEE4copyILNS_5RunOnE0EEERS5_RKS5_RKNS_3BoxEiSD_ii
FN:1851,_ZN5amrex7BaseFabIN5Model5Solid7Elastic10NeoHookeanEE4copyILNS_5RunOnE0EEERS5_RKS5_RKNS_3BoxEiSD_ii
FNDA:0,_ZN5amrex7BaseFabIN5Model5Solid7Elastic10NeoHookeanEE4copyILNS_5RunOnE0EEERS5_RKS5_RKNS_3BoxEiSD_ii
FN:1851,_ZN5amrex7BaseFabIN5Model5Solid7Elastic17PseudoLinearCubicEE4copyILNS_5RunOnE0EEERS5_RKS5_RKNS_3BoxEiSD_ii
FNDA:0,_ZN5amrex7BaseFabIN5Model5Solid7Elastic17PseudoLinearCubicEE4copyILNS_5RunOnE0EEERS5_RKS5_RKNS_3BoxEiSD_ii
FN:1851,_ZN5amrex7BaseFabIN5Model5Solid6Affine5CubicEE4copyILNS_5RunOnE0EEERS5_RKS5_RKNS_3BoxEiSD_ii
FNDA:0,_ZN5amrex7BaseFabIN5Model5Solid6Affine5CubicEE4copyILNS_5RunOnE0EEERS5_RKS5_RKNS_3BoxEiSD_ii
FN:1851,_ZN5amrex7BaseFabIN3Set7Matrix4ILi3ELi1EEEE4copyILNS_5RunOnE1EEERS4_RKS4_RKNS_3BoxEiSC_ii
FNDA:0,_ZN5amrex7BaseFabIN3Set7Matrix4ILi3ELi1EEEE4copyILNS_5RunOnE1EEERS4_RKS4_RKNS_3BoxEiSC_ii
FN:1851,_ZN5amrex7BaseFabIN5Model5Solid6Linear9IsotropicEE4copyILNS_5RunOnE0EEERS5_RKS5_RKNS_3BoxEiSD_ii
FNDA:0,_ZN5amrex7BaseFabIN5Model5Solid6Linear9IsotropicEE4copyILNS_5RunOnE0EEERS5_RKS5_RKNS_3BoxEiSD_ii
FN:1851,_ZN5amrex7BaseFabIN3Set7Matrix4ILi3ELi4EEEE4copyILNS_5RunOnE1EEERS4_RKS4_RKNS_3BoxEiSC_ii
FNDA:0,_ZN5amrex7BaseFabIN3Set7Matrix4ILi3ELi4EEEE4copyILNS_5RunOnE1EEERS4_RKS4_RKNS_3BoxEiSC_ii
FN:1851,_ZN5amrex7BaseFabIN5Model5Solid6Affine9IsotropicEE4copyILNS_5RunOnE0EEERS5_RKS5_RKNS_3BoxEiSD_ii
FNDA:0,_ZN5amrex7BaseFabIN5Model5Solid6Affine9IsotropicEE4copyILNS_5RunOnE0EEERS5_RKS5_RKNS_3BoxEiSD_ii
FN:1851,_ZN5amrex7BaseFabIN3Set7Matrix4ILi3ELi3EEEE4copyILNS_5RunOnE1EEERS4_RKS4_RKNS_3BoxEiSC_ii
FNDA:0,_ZN5amrex7BaseFabIN3Set7Matrix4ILi3ELi3EEEE4copyILNS_5RunOnE1EEERS4_RKS4_RKNS_3BoxEiSC_ii
FN:1851,_ZN5amrex7BaseFabIN5Eigen6MatrixIdLi3ELi1ELi0ELi3ELi1EEEE4copyILNS_5RunOnE0EEERS4_RKS4_RKNS_3BoxEiSC_ii
FNDA:0,_ZN5amrex7BaseFabIN5Eigen6MatrixIdLi3ELi1ELi0ELi3ELi1EEEE4copyILNS_5RunOnE0EEERS4_RKS4_RKNS_3BoxEiSC_ii
FN:1851,_ZN5amrex7BaseFabIN5Model5Solid6Linear19IsotropicDegradableEE4copyILNS_5RunOnE0EEERS5_RKS5_RKNS_3BoxEiSD_ii
FNDA:0,_ZN5amrex7BaseFabIN5Model5Solid6Linear19IsotropicDegradableEE4copyILNS_5RunOnE0EEERS5_RKS5_RKNS_3BoxEiSD_ii
FN:1851,_ZN5amrex7BaseFabIN5Model5Solid6Affine2J2EE4copyILNS_5RunOnE0EEERS5_RKS5_RKNS_3BoxEiSD_ii
FNDA:0,_ZN5amrex7BaseFabIN5Model5Solid6Affine2J2EE4copyILNS_5RunOnE0EEERS5_RKS5_RKNS_3BoxEiSD_ii
FN:1851,_ZN5amrex7BaseFabIN5Model5Solid6Affine9HexagonalEE4copyILNS_5RunOnE0EEERS5_RKS5_RKNS_3BoxEiSD_ii
FNDA:0,_ZN5amrex7BaseFabIN5Model5Solid6Affine9HexagonalEE4copyILNS_5RunOnE0EEERS5_RKS5_RKNS_3BoxEiSD_ii
FN:1851,_ZN5amrex7BaseFabIN3Set7Matrix4ILi3ELi1EEEE4copyILNS_5RunOnE0EEERS4_RKS4_RKNS_3BoxEiSC_ii
FNDA:0,_ZN5amrex7BaseFabIN3Set7Matrix4ILi3ELi1EEEE4copyILNS_5RunOnE0EEERS4_RKS4_RKNS_3BoxEiSC_ii
FN:1851,_ZN5amrex7BaseFabIN3Set7Matrix4ILi3ELi3EEEE4copyILNS_5RunOnE0EEERS4_RKS4_RKNS_3BoxEiSC_ii
FNDA:0,_ZN5amrex7BaseFabIN3Set7Matrix4ILi3ELi3EEEE4copyILNS_5RunOnE0EEERS4_RKS4_RKNS_3BoxEiSC_ii
FN:1851,_ZN5amrex7BaseFabIN5Model5Solid7Elastic28PseudoLinearCubicPredeformedEE4copyILNS_5RunOnE0EEERS5_RKS5_RKNS_3BoxEiSD_ii
FNDA:0,_ZN5amrex7BaseFabIN5Model5Solid7Elastic28PseudoLinearCubicPredeformedEE4copyILNS_5RunOnE0EEERS5_RKS5_RKNS_3BoxEiSD_ii
FN:1867,_ZZN5amrex7BaseFabIN5Model5Solid6Affine5CubicEE4copyILNS_5RunOnE1EEERS5_RKS5_RKNS_3BoxEiSD_iiENKUliiiiE_clEiiii
FNDA:0,_ZZN5amrex7BaseFabIN5Model5Solid6Affine5CubicEE4copyILNS_5RunOnE1EEERS5_RKS5_RKNS_3BoxEiSD_iiENKUliiiiE_clEiiii
FN:1867,_ZZN5amrex7BaseFabIN5Model5Solid6Affine9IsotropicEE4copyILNS_5RunOnE1EEERS5_RKS5_RKNS_3BoxEiSD_iiENKUliiiiE_clEiiii
FNDA:0,_ZZN5amrex7BaseFabIN5Model5Solid6Affine9IsotropicEE4copyILNS_5RunOnE1EEERS5_RKS5_RKNS_3BoxEiSD_iiENKUliiiiE_clEiiii
FN:1867,_ZZN5amrex7BaseFabIN5Model5Solid7Elastic17PseudoLinearCubicEE4copyILNS_5RunOnE0EEERS5_RKS5_RKNS_3BoxEiSD_iiENKUliiiiE_clEiiii
FNDA:0,_ZZN5amrex7BaseFabIN5Model5Solid7Elastic17PseudoLinearCubicEE4copyILNS_5RunOnE0EEERS5_RKS5_RKNS_3BoxEiSD_iiENKUliiiiE_clEiiii
FN:1867,_ZZN5amrex7BaseFabIN3Set7Matrix4ILi3ELi4EEEE4copyILNS_5RunOnE0EEERS4_RKS4_RKNS_3BoxEiSC_iiENKUliiiiE_clEiiii
FNDA:0,_ZZN5amrex7BaseFabIN3Set7Matrix4ILi3ELi4EEEE4copyILNS_5RunOnE0EEERS4_RKS4_RKNS_3BoxEiSC_iiENKUliiiiE_clEiiii
FN:1867,_ZZN5amrex7BaseFabIN3Set7Matrix4ILi3ELi6EEEE4copyILNS_5RunOnE0EEERS4_RKS4_RKNS_3BoxEiSC_iiENKUliiiiE_clEiiii
FNDA:0,_ZZN5amrex7BaseFabIN3Set7Matrix4ILi3ELi6EEEE4copyILNS_5RunOnE0EEERS4_RKS4_RKNS_3BoxEiSC_iiENKUliiiiE_clEiiii
FN:1867,_ZZN5amrex7BaseFabIN5Model5Solid6Linear5CubicEE4copyILNS_5RunOnE0EEERS5_RKS5_RKNS_3BoxEiSD_iiENKUliiiiE_clEiiii
FNDA:0,_ZZN5amrex7BaseFabIN5Model5Solid6Linear5CubicEE4copyILNS_5RunOnE0EEERS5_RKS5_RKNS_3BoxEiSD_iiENKUliiiiE_clEiiii
FN:1867,_ZZN5amrex7BaseFabIN5Model5Solid6Linear19IsotropicDegradableEE4copyILNS_5RunOnE1EEERS5_RKS5_RKNS_3BoxEiSD_iiENKUliiiiE_clEiiii
FNDA:0,_ZZN5amrex7BaseFabIN5Model5Solid6Linear19IsotropicDegradableEE4copyILNS_5RunOnE1EEERS5_RKS5_RKNS_3BoxEiSD_iiENKUliiiiE_clEiiii
FN:1867,_ZZN5amrex7BaseFabIN5Model5Solid6Linear9IsotropicEE4copyILNS_5RunOnE1EEERS5_RKS5_RKNS_3BoxEiSD_iiENKUliiiiE_clEiiii
FNDA:0,_ZZN5amrex7BaseFabIN5Model5Solid6Linear9IsotropicEE4copyILNS_5RunOnE1EEERS5_RKS5_RKNS_3BoxEiSD_iiENKUliiiiE_clEiiii
FN:1867,_ZZN5amrex7BaseFabIN5Model5Solid6Affine2J2EE4copyILNS_5RunOnE1EEERS5_RKS5_RKNS_3BoxEiSD_iiENKUliiiiE_clEiiii
FNDA:0,_ZZN5amrex7BaseFabIN5Model5Solid6Affine2J2EE4copyILNS_5RunOnE1EEERS5_RKS5_RKNS_3BoxEiSD_iiENKUliiiiE_clEiiii
FN:1867,_ZZN5amrex7BaseFabIN5Model5Solid7Elastic28PseudoLinearCubicPredeformedEE4copyILNS_5RunOnE0EEERS5_RKS5_RKNS_3BoxEiSD_iiENKUliiiiE_clEiiii
FNDA:0,_ZZN5amrex7BaseFabIN5Model5Solid7Elastic28PseudoLinearCubicPredeformedEE4copyILNS_5RunOnE0EEERS5_RKS5_RKNS_3BoxEiSD_iiENKUliiiiE_clEiiii
FN:1867,_ZZN5amrex7BaseFabIN5Model5Solid6Linear9IsotropicEE4copyILNS_5RunOnE0EEERS5_RKS5_RKNS_3BoxEiSD_iiENKUliiiiE_clEiiii
FNDA:0,_ZZN5amrex7BaseFabIN5Model5Solid6Linear9IsotropicEE4copyILNS_5RunOnE0EEERS5_RKS5_RKNS_3BoxEiSD_iiENKUliiiiE_clEiiii
FN:1867,_ZZN5amrex7BaseFabIN5Model5Solid6Linear5CubicEE4copyILNS_5RunOnE1EEERS5_RKS5_RKNS_3BoxEiSD_iiENKUliiiiE_clEiiii
FNDA:0,_ZZN5amrex7BaseFabIN5Model5Solid6Linear5CubicEE4copyILNS_5RunOnE1EEERS5_RKS5_RKNS_3BoxEiSD_iiENKUliiiiE_clEiiii
FN:1867,_ZZN5amrex7BaseFabIN3Set7Matrix4ILi3ELi1EEEE4copyILNS_5RunOnE0EEERS4_RKS4_RKNS_3BoxEiSC_iiENKUliiiiE_clEiiii
FNDA:0,_ZZN5amrex7BaseFabIN3Set7Matrix4ILi3ELi1EEEE4copyILNS_5RunOnE0EEERS4_RKS4_RKNS_3BoxEiSC_iiENKUliiiiE_clEiiii
FN:1867,_ZZN5amrex7BaseFabIN5Model5Solid7Elastic17PseudoLinearCubicEE4copyILNS_5RunOnE1EEERS5_RKS5_RKNS_3BoxEiSD_iiENKUliiiiE_clEiiii
FNDA:0,_ZZN5amrex7BaseFabIN5Model5Solid7Elastic17PseudoLinearCubicEE4copyILNS_5RunOnE1EEERS5_RKS5_RKNS_3BoxEiSD_iiENKUliiiiE_clEiiii
FN:1867,_ZZN5amrex7BaseFabIN3Set7Matrix4ILi3ELi3EEEE4copyILNS_5RunOnE0EEERS4_RKS4_RKNS_3BoxEiSC_iiENKUliiiiE_clEiiii
FNDA:0,_ZZN5amrex7BaseFabIN3Set7Matrix4ILi3ELi3EEEE4copyILNS_5RunOnE0EEERS4_RKS4_RKNS_3BoxEiSC_iiENKUliiiiE_clEiiii
FN:1867,_ZZN5amrex7BaseFabIN5Model5Solid6Affine9IsotropicEE4copyILNS_5RunOnE0EEERS5_RKS5_RKNS_3BoxEiSD_iiENKUliiiiE_clEiiii
FNDA:0,_ZZN5amrex7BaseFabIN5Model5Solid6Affine9IsotropicEE4copyILNS_5RunOnE0EEERS5_RKS5_RKNS_3BoxEiSD_iiENKUliiiiE_clEiiii
FN:1867,_ZZN5amrex7BaseFabIN5Model5Solid7Elastic28PseudoLinearCubicPredeformedEE4copyILNS_5RunOnE1EEERS5_RKS5_RKNS_3BoxEiSD_iiENKUliiiiE_clEiiii
FNDA:0,_ZZN5amrex7BaseFabIN5Model5Solid7Elastic28PseudoLinearCubicPredeformedEE4copyILNS_5RunOnE1EEERS5_RKS5_RKNS_3BoxEiSD_iiENKUliiiiE_clEiiii
FN:1867,_ZZN5amrex7BaseFabIN5Model5Solid6Affine9HexagonalEE4copyILNS_5RunOnE1EEERS5_RKS5_RKNS_3BoxEiSD_iiENKUliiiiE_clEiiii
FNDA:0,_ZZN5amrex7BaseFabIN5Model5Solid6Affine9HexagonalEE4copyILNS_5RunOnE1EEERS5_RKS5_RKNS_3BoxEiSD_iiENKUliiiiE_clEiiii
FN:1867,_ZZN5amrex7BaseFabIN5Eigen6MatrixIdLi3ELi3ELi0ELi3ELi3EEEE4copyILNS_5RunOnE1EEERS4_RKS4_RKNS_3BoxEiSC_iiENKUliiiiE_clEiiii
FNDA:0,_ZZN5amrex7BaseFabIN5Eigen6MatrixIdLi3ELi3ELi0ELi3ELi3EEEE4copyILNS_5RunOnE1EEERS4_RKS4_RKNS_3BoxEiSC_iiENKUliiiiE_clEiiii
FN:1867,_ZZN5amrex7BaseFabIN5Model5Solid6Linear9LaplacianEE4copyILNS_5RunOnE1EEERS5_RKS5_RKNS_3BoxEiSD_iiENKUliiiiE_clEiiii
FNDA:0,_ZZN5amrex7BaseFabIN5Model5Solid6Linear9LaplacianEE4copyILNS_5RunOnE1EEERS5_RKS5_RKNS_3BoxEiSD_iiENKUliiiiE_clEiiii
FN:1867,_ZZN5amrex7BaseFabIN5Eigen6MatrixIdLi3ELi1ELi0ELi3ELi1EEEE4copyILNS_5RunOnE0EEERS4_RKS4_RKNS_3BoxEiSC_iiENKUliiiiE_clEiiii
FNDA:0,_ZZN5amrex7BaseFabIN5Eigen6MatrixIdLi3ELi1ELi0ELi3ELi1EEEE4copyILNS_5RunOnE0EEERS4_RKS4_RKNS_3BoxEiSC_iiENKUliiiiE_clEiiii
FN:1867,_ZZN5amrex7BaseFabIN3Set7Matrix4ILi3ELi6EEEE4copyILNS_5RunOnE1EEERS4_RKS4_RKNS_3BoxEiSC_iiENKUliiiiE_clEiiii
FNDA:0,_ZZN5amrex7BaseFabIN3Set7Matrix4ILi3ELi6EEEE4copyILNS_5RunOnE1EEERS4_RKS4_RKNS_3BoxEiSC_iiENKUliiiiE_clEiiii
FN:1867,_ZZN5amrex7BaseFabIN5Model5Solid7Elastic10NeoHookeanEE4copyILNS_5RunOnE1EEERS5_RKS5_RKNS_3BoxEiSD_iiENKUliiiiE_clEiiii
FNDA:0,_ZZN5amrex7BaseFabIN5Model5Solid7Elastic10NeoHookeanEE4copyILNS_5RunOnE1EEERS5_RKS5_RKNS_3BoxEiSD_iiENKUliiiiE_clEiiii
FN:1867,_ZZN5amrex7BaseFabIN5Model5Solid6Linear19IsotropicDegradableEE4copyILNS_5RunOnE0EEERS5_RKS5_RKNS_3BoxEiSD_iiENKUliiiiE_clEiiii
FNDA:0,_ZZN5amrex7BaseFabIN5Model5Solid6Linear19IsotropicDegradableEE4copyILNS_5RunOnE0EEERS5_RKS5_RKNS_3BoxEiSD_iiENKUliiiiE_clEiiii
FN:1867,_ZZN5amrex7BaseFabIN5Model5Solid6Affine2J2EE4copyILNS_5RunOnE0EEERS5_RKS5_RKNS_3BoxEiSD_iiENKUliiiiE_clEiiii
FNDA:0,_ZZN5amrex7BaseFabIN5Model5Solid6Affine2J2EE4copyILNS_5RunOnE0EEERS5_RKS5_RKNS_3BoxEiSD_iiENKUliiiiE_clEiiii
FN:1867,_ZZN5amrex7BaseFabIN5Model5Solid7Elastic10NeoHookeanEE4copyILNS_5RunOnE0EEERS5_RKS5_RKNS_3BoxEiSD_iiENKUliiiiE_clEiiii
FNDA:0,_ZZN5amrex7BaseFabIN5Model5Solid7Elastic10NeoHookeanEE4copyILNS_5RunOnE0EEERS5_RKS5_RKNS_3BoxEiSD_iiENKUliiiiE_clEiiii
FN:1867,_ZZN5amrex7BaseFabIN5Model5Solid6Linear9LaplacianEE4copyILNS_5RunOnE0EEERS5_RKS5_RKNS_3BoxEiSD_iiENKUliiiiE_clEiiii
FNDA:0,_ZZN5amrex7BaseFabIN5Model5Solid6Linear9LaplacianEE4copyILNS_5RunOnE0EEERS5_RKS5_RKNS_3BoxEiSD_iiENKUliiiiE_clEiiii
FN:1867,_ZZN5amrex7BaseFabIN5Eigen6MatrixIdLi3ELi3ELi0ELi3ELi3EEEE4copyILNS_5RunOnE0EEERS4_RKS4_RKNS_3BoxEiSC_iiENKUliiiiE_clEiiii
FNDA:0,_ZZN5amrex7BaseFabIN5Eigen6MatrixIdLi3ELi3ELi0ELi3ELi3EEEE4copyILNS_5RunOnE0EEERS4_RKS4_RKNS_3BoxEiSC_iiENKUliiiiE_clEiiii
FN:1867,_ZZN5amrex7BaseFabIN3Set7Matrix4ILi3ELi3EEEE4copyILNS_5RunOnE1EEERS4_RKS4_RKNS_3BoxEiSC_iiENKUliiiiE_clEiiii
FNDA:0,_ZZN5amrex7BaseFabIN3Set7Matrix4ILi3ELi3EEEE4copyILNS_5RunOnE1EEERS4_RKS4_RKNS_3BoxEiSC_iiENKUliiiiE_clEiiii
FN:1867,_ZZN5amrex7BaseFabIN3Set7Matrix4ILi3ELi4EEEE4copyILNS_5RunOnE1EEERS4_RKS4_RKNS_3BoxEiSC_iiENKUliiiiE_clEiiii
FNDA:0,_ZZN5amrex7BaseFabIN3Set7Matrix4ILi3ELi4EEEE4copyILNS_5RunOnE1EEERS4_RKS4_RKNS_3BoxEiSC_iiENKUliiiiE_clEiiii
FN:1867,_ZZN5amrex7BaseFabIN5Model5Solid6Affine9HexagonalEE4copyILNS_5RunOnE0EEERS5_RKS5_RKNS_3BoxEiSD_iiENKUliiiiE_clEiiii
FNDA:0,_ZZN5amrex7BaseFabIN5Model5Solid6Affine9HexagonalEE4copyILNS_5RunOnE0EEERS5_RKS5_RKNS_3BoxEiSD_iiENKUliiiiE_clEiiii
FN:1867,_ZZN5amrex7BaseFabIN3Set7Matrix4ILi3ELi1EEEE4copyILNS_5RunOnE1EEERS4_RKS4_RKNS_3BoxEiSC_iiENKUliiiiE_clEiiii
FNDA:0,_ZZN5amrex7BaseFabIN3Set7Matrix4ILi3ELi1EEEE4copyILNS_5RunOnE1EEERS4_RKS4_RKNS_3BoxEiSC_iiENKUliiiiE_clEiiii
FN:1867,_ZZN5amrex7BaseFabIdE4copyILNS_5RunOnE1EEERS1_RKS1_RKNS_3BoxEiS9_iiENKUliiiiE_clEiiii
FNDA:0,_ZZN5amrex7BaseFabIdE4copyILNS_5RunOnE1EEERS1_RKS1_RKNS_3BoxEiS9_iiENKUliiiiE_clEiiii
FN:1867,_ZZN5amrex7BaseFabIN5Eigen6MatrixIdLi3ELi1ELi0ELi3ELi1EEEE4copyILNS_5RunOnE1EEERS4_RKS4_RKNS_3BoxEiSC_iiENKUliiiiE_clEiiii
FNDA:0,_ZZN5amrex7BaseFabIN5Eigen6MatrixIdLi3ELi1ELi0ELi3ELi1EEEE4copyILNS_5RunOnE1EEERS4_RKS4_RKNS_3BoxEiSC_iiENKUliiiiE_clEiiii
FN:1867,_ZZN5amrex7BaseFabIN5Model5Solid6Affine5CubicEE4copyILNS_5RunOnE0EEERS5_RKS5_RKNS_3BoxEiSD_iiENKUliiiiE_clEiiii
FNDA:0,_ZZN5amrex7BaseFabIN5Model5Solid6Affine5CubicEE4copyILNS_5RunOnE0EEERS5_RKS5_RKNS_3BoxEiSD_iiENKUliiiiE_clEiiii
FN:1893,_ZN5amrex7BaseFabIN5Eigen6MatrixIdLi3ELi1ELi0ELi3ELi1EEEE6defineEv
FNDA:0,_ZN5amrex7BaseFabIN5Eigen6MatrixIdLi3ELi1ELi0ELi3ELi1EEEE6defineEv
FN:1893,_ZN5amrex7BaseFabIN5Model5Solid6Linear9LaplacianEE6defineEv
FNDA:0,_ZN5amrex7BaseFabIN5Model5Solid6Linear9LaplacianEE6defineEv
FN:1893,_ZN5amrex7BaseFabIN5Model5Solid6Affine9HexagonalEE6defineEv
FNDA:0,_ZN5amrex7BaseFabIN5Model5Solid6Affine9HexagonalEE6defineEv
FN:1893,_ZN5amrex7BaseFabIN5Model5Solid6Affine5CubicEE6defineEv
FNDA:0,_ZN5amrex7BaseFabIN5Model5Solid6Affine5CubicEE6defineEv
FN:1893,_ZN5amrex7BaseFabIN5Model5Solid7Elastic10NeoHookeanEE6defineEv
FNDA:0,_ZN5amrex7BaseFabIN5Model5Solid7Elastic10NeoHookeanEE6defineEv
FN:1893,_ZN5amrex7BaseFabIN5Model5Solid7Elastic17PseudoLinearCubicEE6defineEv
FNDA:1,_ZN5amrex7BaseFabIN5Model5Solid7Elastic17PseudoLinearCubicEE6defineEv
FN:1893,_ZN5amrex7BaseFabIN5Model5Solid6Linear5CubicEE6defineEv
FNDA:1,_ZN5amrex7BaseFabIN5Model5Solid6Linear5CubicEE6defineEv
FN:1893,_ZN5amrex7BaseFabIN5Model5Solid6Linear9IsotropicEE6defineEv
FNDA:0,_ZN5amrex7BaseFabIN5Model5Solid6Linear9IsotropicEE6defineEv
FN:1893,_ZN5amrex7BaseFabIN5Model5Solid7Elastic28PseudoLinearCubicPredeformedEE6defineEv
FNDA:0,_ZN5amrex7BaseFabIN5Model5Solid7Elastic28PseudoLinearCubicPredeformedEE6defineEv
FN:1893,_ZN5amrex7BaseFabIN5Model5Solid6Affine9IsotropicEE6defineEv
FNDA:0,_ZN5amrex7BaseFabIN5Model5Solid6Affine9IsotropicEE6defineEv
FN:1893,_ZN5amrex7BaseFabIN3Set7Matrix4ILi3ELi3EEEE6defineEv
FNDA:0,_ZN5amrex7BaseFabIN3Set7Matrix4ILi3ELi3EEEE6defineEv
FN:1893,_ZN5amrex7BaseFabIN5Model5Solid6Linear19IsotropicDegradableEE6defineEv
FNDA:0,_ZN5amrex7BaseFabIN5Model5Solid6Linear19IsotropicDegradableEE6defineEv
FN:1893,_ZN5amrex7BaseFabIN3Set7Matrix4ILi3ELi1EEEE6defineEv
FNDA:0,_ZN5amrex7BaseFabIN3Set7Matrix4ILi3ELi1EEEE6defineEv
FN:1893,_ZN5amrex7BaseFabIN5Model5Solid6Affine2J2EE6defineEv
FNDA:0,_ZN5amrex7BaseFabIN5Model5Solid6Affine2J2EE6defineEv
FN:1893,_ZN5amrex7BaseFabIN3Set7Matrix4ILi3ELi4EEEE6defineEv
FNDA:0,_ZN5amrex7BaseFabIN3Set7Matrix4ILi3ELi4EEEE6defineEv
FN:1893,_ZN5amrex7BaseFabIN5Eigen6MatrixIdLi3ELi3ELi0ELi3ELi3EEEE6defineEv
FNDA:0,_ZN5amrex7BaseFabIN5Eigen6MatrixIdLi3ELi3ELi0ELi3ELi3EEEE6defineEv
FN:1893,_ZN5amrex7BaseFabIN3Set7Matrix4ILi3ELi6EEEE6defineEv
FNDA:0,_ZN5amrex7BaseFabIN3Set7Matrix4ILi3ELi6EEEE6defineEv
FN:1923,_ZN5amrex7BaseFabIN5Model5Solid7Elastic28PseudoLinearCubicPredeformedEEC2ERKNS_3BoxEibbPNS_5ArenaE
FNDA:0,_ZN5amrex7BaseFabIN5Model5Solid7Elastic28PseudoLinearCubicPredeformedEEC2ERKNS_3BoxEibbPNS_5ArenaE
FN:1923,_ZN5amrex7BaseFabIN5Model5Solid6Linear19IsotropicDegradableEEC2ERKNS_3BoxEibbPNS_5ArenaE
FNDA:0,_ZN5amrex7BaseFabIN5Model5Solid6Linear19IsotropicDegradableEEC2ERKNS_3BoxEibbPNS_5ArenaE
FN:1923,_ZN5amrex7BaseFabIN5Model5Solid7Elastic17PseudoLinearCubicEEC2ERKNS_3BoxEibbPNS_5ArenaE
FNDA:1,_ZN5amrex7BaseFabIN5Model5Solid7Elastic17PseudoLinearCubicEEC2ERKNS_3BoxEibbPNS_5ArenaE
FN:1923,_ZN5amrex7BaseFabIN3Set7Matrix4ILi3ELi4EEEEC2ERKNS_3BoxEibbPNS_5ArenaE
FNDA:0,_ZN5amrex7BaseFabIN3Set7Matrix4ILi3ELi4EEEEC2ERKNS_3BoxEibbPNS_5ArenaE
FN:1923,_ZN5amrex7BaseFabIN3Set7Matrix4ILi3ELi1EEEEC2ERKNS_3BoxEibbPNS_5ArenaE
FNDA:0,_ZN5amrex7BaseFabIN3Set7Matrix4ILi3ELi1EEEEC2ERKNS_3BoxEibbPNS_5ArenaE
FN:1923,_ZN5amrex7BaseFabIN5Model5Solid6Affine2J2EEC2ERKNS_3BoxEibbPNS_5ArenaE
FNDA:0,_ZN5amrex7BaseFabIN5Model5Solid6Affine2J2EEC2ERKNS_3BoxEibbPNS_5ArenaE
FN:1923,_ZN5amrex7BaseFabIN5Model5Solid7Elastic10NeoHookeanEEC2ERKNS_3BoxEibbPNS_5ArenaE
FNDA:0,_ZN5amrex7BaseFabIN5Model5Solid7Elastic10NeoHookeanEEC2ERKNS_3BoxEibbPNS_5ArenaE
FN:1923,_ZN5amrex7BaseFabIN5Eigen6MatrixIdLi3ELi1ELi0ELi3ELi1EEEEC2ERKNS_3BoxEibbPNS_5ArenaE
FNDA:0,_ZN5amrex7BaseFabIN5Eigen6MatrixIdLi3ELi1ELi0ELi3ELi1EEEEC2ERKNS_3BoxEibbPNS_5ArenaE
FN:1923,_ZN5amrex7BaseFabIN5Model5Solid6Linear9LaplacianEEC2ERKNS_3BoxEibbPNS_5ArenaE
FNDA:0,_ZN5amrex7BaseFabIN5Model5Solid6Linear9LaplacianEEC2ERKNS_3BoxEibbPNS_5ArenaE
FN:1923,_ZN5amrex7BaseFabIN5Model5Solid6Affine9IsotropicEEC2ERKNS_3BoxEibbPNS_5ArenaE
FNDA:0,_ZN5amrex7BaseFabIN5Model5Solid6Affine9IsotropicEEC2ERKNS_3BoxEibbPNS_5ArenaE
FN:1923,_ZN5amrex7BaseFabIN5Model5Solid6Linear9IsotropicEEC2ERKNS_3BoxEibbPNS_5ArenaE
FNDA:0,_ZN5amrex7BaseFabIN5Model5Solid6Linear9IsotropicEEC2ERKNS_3BoxEibbPNS_5ArenaE
FN:1923,_ZN5amrex7BaseFabIN5Model5Solid6Affine9HexagonalEEC2ERKNS_3BoxEibbPNS_5ArenaE
FNDA:0,_ZN5amrex7BaseFabIN5Model5Solid6Affine9HexagonalEEC2ERKNS_3BoxEibbPNS_5ArenaE
FN:1923,_ZN5amrex7BaseFabIN5Eigen6MatrixIdLi3ELi3ELi0ELi3ELi3EEEEC2ERKNS_3BoxEibbPNS_5ArenaE
FNDA:0,_ZN5amrex7BaseFabIN5Eigen6MatrixIdLi3ELi3ELi0ELi3ELi3EEEEC2ERKNS_3BoxEibbPNS_5ArenaE
FN:1923,_ZN5amrex7BaseFabIN5Model5Solid6Linear5CubicEEC2ERKNS_3BoxEibbPNS_5ArenaE
FNDA:1,_ZN5amrex7BaseFabIN5Model5Solid6Linear5CubicEEC2ERKNS_3BoxEibbPNS_5ArenaE
FN:1923,_ZN5amrex7BaseFabIN3Set7Matrix4ILi3ELi6EEEEC2ERKNS_3BoxEibbPNS_5ArenaE
FNDA:0,_ZN5amrex7BaseFabIN3Set7Matrix4ILi3ELi6EEEEC2ERKNS_3BoxEibbPNS_5ArenaE
FN:1923,_ZN5amrex7BaseFabIN3Set7Matrix4ILi3ELi3EEEEC2ERKNS_3BoxEibbPNS_5ArenaE
FNDA:0,_ZN5amrex7BaseFabIN3Set7Matrix4ILi3ELi3EEEEC2ERKNS_3BoxEibbPNS_5ArenaE
FN:1923,_ZN5amrex7BaseFabIN5Model5Solid6Affine5CubicEEC2ERKNS_3BoxEibbPNS_5ArenaE
FNDA:0,_ZN5amrex7BaseFabIN5Model5Solid6Affine5CubicEEC2ERKNS_3BoxEibbPNS_5ArenaE
FN:1930,_ZN5amrex7BaseFabIN5Model5Solid6Affine2J2EEC2ERKS5_NS_8MakeTypeEii
FNDA:0,_ZN5amrex7BaseFabIN5Model5Solid6Affine2J2EEC2ERKS5_NS_8MakeTypeEii
FN:1930,_ZN5amrex7BaseFabIN3Set7Matrix4ILi3ELi1EEEEC2ERKS4_NS_8MakeTypeEii
FNDA:0,_ZN5amrex7BaseFabIN3Set7Matrix4ILi3ELi1EEEEC2ERKS4_NS_8MakeTypeEii
FN:1930,_ZN5amrex7BaseFabIN5Eigen6MatrixIdLi3ELi3ELi0ELi3ELi3EEEEC2ERKS4_NS_8MakeTypeEii
FNDA:0,_ZN5amrex7BaseFabIN5Eigen6MatrixIdLi3ELi3ELi0ELi3ELi3EEEEC2ERKS4_NS_8MakeTypeEii
FN:1930,_ZN5amrex7BaseFabIN3Set7Matrix4ILi3ELi6EEEEC2ERKS4_NS_8MakeTypeEii
FNDA:0,_ZN5amrex7BaseFabIN3Set7Matrix4ILi3ELi6EEEEC2ERKS4_NS_8MakeTypeEii
FN:1930,_ZN5amrex7BaseFabIN3Set7Matrix4ILi3ELi4EEEEC2ERKS4_NS_8MakeTypeEii
FNDA:0,_ZN5amrex7BaseFabIN3Set7Matrix4ILi3ELi4EEEEC2ERKS4_NS_8MakeTypeEii
FN:1930,_ZN5amrex7BaseFabIN5Model5Solid6Linear5CubicEEC2ERKS5_NS_8MakeTypeEii
FNDA:0,_ZN5amrex7BaseFabIN5Model5Solid6Linear5CubicEEC2ERKS5_NS_8MakeTypeEii
FN:1930,_ZN5amrex7BaseFabIN5Model5Solid7Elastic28PseudoLinearCubicPredeformedEEC2ERKS5_NS_8MakeTypeEii
FNDA:0,_ZN5amrex7BaseFabIN5Model5Solid7Elastic28PseudoLinearCubicPredeformedEEC2ERKS5_NS_8MakeTypeEii
FN:1930,_ZN5amrex7BaseFabIN5Model5Solid6Linear19IsotropicDegradableEEC2ERKS5_NS_8MakeTypeEii
FNDA:0,_ZN5amrex7BaseFabIN5Model5Solid6Linear19IsotropicDegradableEEC2ERKS5_NS_8MakeTypeEii
FN:1930,_ZN5amrex7BaseFabIN5Model5Solid6Linear9IsotropicEEC2ERKS5_NS_8MakeTypeEii
FNDA:0,_ZN5amrex7BaseFabIN5Model5Solid6Linear9IsotropicEEC2ERKS5_NS_8MakeTypeEii
FN:1930,_ZN5amrex7BaseFabIN5Model5Solid7Elastic10NeoHookeanEEC2ERKS5_NS_8MakeTypeEii
FNDA:0,_ZN5amrex7BaseFabIN5Model5Solid7Elastic10NeoHookeanEEC2ERKS5_NS_8MakeTypeEii
FN:1930,_ZN5amrex7BaseFabIN5Model5Solid6Linear9LaplacianEEC2ERKS5_NS_8MakeTypeEii
FNDA:0,_ZN5amrex7BaseFabIN5Model5Solid6Linear9LaplacianEEC2ERKS5_NS_8MakeTypeEii
FN:1930,_ZN5amrex7BaseFabIN5Eigen6MatrixIdLi3ELi1ELi0ELi3ELi1EEEEC2ERKS4_NS_8MakeTypeEii
FNDA:0,_ZN5amrex7BaseFabIN5Eigen6MatrixIdLi3ELi1ELi0ELi3ELi1EEEEC2ERKS4_NS_8MakeTypeEii
FN:1930,_ZN5amrex7BaseFabIN3Set7Matrix4ILi3ELi3EEEEC2ERKS4_NS_8MakeTypeEii
FNDA:0,_ZN5amrex7BaseFabIN3Set7Matrix4ILi3ELi3EEEEC2ERKS4_NS_8MakeTypeEii
FN:1930,_ZN5amrex7BaseFabIN5Model5Solid6Affine5CubicEEC2ERKS5_NS_8MakeTypeEii
FNDA:0,_ZN5amrex7BaseFabIN5Model5Solid6Affine5CubicEEC2ERKS5_NS_8MakeTypeEii
FN:1930,_ZN5amrex7BaseFabIN5Model5Solid7Elastic17PseudoLinearCubicEEC2ERKS5_NS_8MakeTypeEii
FNDA:0,_ZN5amrex7BaseFabIN5Model5Solid7Elastic17PseudoLinearCubicEEC2ERKS5_NS_8MakeTypeEii
FN:1930,_ZN5amrex7BaseFabIN5Model5Solid6Affine9IsotropicEEC2ERKS5_NS_8MakeTypeEii
FNDA:0,_ZN5amrex7BaseFabIN5Model5Solid6Affine9IsotropicEEC2ERKS5_NS_8MakeTypeEii
FN:1930,_ZN5amrex7BaseFabIN5Model5Solid6Affine9HexagonalEEC2ERKS5_NS_8MakeTypeEii
FNDA:0,_ZN5amrex7BaseFabIN5Model5Solid6Affine9HexagonalEEC2ERKS5_NS_8MakeTypeEii
FN:1994,_ZN5amrex7BaseFabIN3Set7Matrix4ILi3ELi3EEEED2Ev
FNDA:0,_ZN5amrex7BaseFabIN3Set7Matrix4ILi3ELi3EEEED2Ev
FN:1994,_ZN5amrex7BaseFabIN5Eigen6MatrixIdLi3ELi3ELi0ELi3ELi3EEEED0Ev
FNDA:0,_ZN5amrex7BaseFabIN5Eigen6MatrixIdLi3ELi3ELi0ELi3ELi3EEEED0Ev
FN:1994,_ZN5amrex7BaseFabIN5Eigen6MatrixIdLi3ELi3ELi0ELi3ELi3EEEED2Ev
FNDA:0,_ZN5amrex7BaseFabIN5Eigen6MatrixIdLi3ELi3ELi0ELi3ELi3EEEED2Ev
FN:1994,_ZN5amrex7BaseFabIN3Set7Matrix4ILi3ELi1EEEED0Ev
FNDA:0,_ZN5amrex7BaseFabIN3Set7Matrix4ILi3ELi1EEEED0Ev
FN:1994,_ZN5amrex7BaseFabIN5Model5Solid7Elastic10NeoHookeanEED2Ev
FNDA:0,_ZN5amrex7BaseFabIN5Model5Solid7Elastic10NeoHookeanEED2Ev
FN:1994,_ZN5amrex7BaseFabIN3Set7Matrix4ILi3ELi4EEEED0Ev
FNDA:0,_ZN5amrex7BaseFabIN3Set7Matrix4ILi3ELi4EEEED0Ev
FN:1994,_ZN5amrex7BaseFabIN3Set7Matrix4ILi3ELi6EEEED0Ev
FNDA:0,_ZN5amrex7BaseFabIN3Set7Matrix4ILi3ELi6EEEED0Ev
FN:1994,_ZN5amrex7BaseFabIN3Set7Matrix4ILi3ELi6EEEED2Ev
FNDA:0,_ZN5amrex7BaseFabIN3Set7Matrix4ILi3ELi6EEEED2Ev
FN:1994,_ZN5amrex7BaseFabIN3Set7Matrix4ILi3ELi4EEEED2Ev
FNDA:0,_ZN5amrex7BaseFabIN3Set7Matrix4ILi3ELi4EEEED2Ev
FN:1994,_ZN5amrex7BaseFabIN3Set7Matrix4ILi3ELi3EEEED0Ev
FNDA:0,_ZN5amrex7BaseFabIN3Set7Matrix4ILi3ELi3EEEED0Ev
FN:1994,_ZN5amrex7BaseFabIN3Set7Matrix4ILi3ELi1EEEED2Ev
FNDA:0,_ZN5amrex7BaseFabIN3Set7Matrix4ILi3ELi1EEEED2Ev
FN:1994,_ZN5amrex7BaseFabIN5Model5Solid6Affine2J2EED2Ev
FNDA:0,_ZN5amrex7BaseFabIN5Model5Solid6Affine2J2EED2Ev
FN:1994,_ZN5amrex7BaseFabIN5Model5Solid6Linear19IsotropicDegradableEED0Ev
FNDA:0,_ZN5amrex7BaseFabIN5Model5Solid6Linear19IsotropicDegradableEED0Ev
FN:1994,_ZN5amrex7BaseFabIN5Model5Solid6Linear19IsotropicDegradableEED2Ev
FNDA:0,_ZN5amrex7BaseFabIN5Model5Solid6Linear19IsotropicDegradableEED2Ev
FN:1994,_ZN5amrex7BaseFabIN5Eigen6MatrixIdLi3ELi1ELi0ELi3ELi1EEEED0Ev
FNDA:0,_ZN5amrex7BaseFabIN5Eigen6MatrixIdLi3ELi1ELi0ELi3ELi1EEEED0Ev
FN:1994,_ZN5amrex7BaseFabIN5Eigen6MatrixIdLi3ELi1ELi0ELi3ELi1EEEED2Ev
FNDA:0,_ZN5amrex7BaseFabIN5Eigen6MatrixIdLi3ELi1ELi0ELi3ELi1EEEED2Ev
FN:1994,_ZN5amrex7BaseFabIN5Model5Solid6Affine9IsotropicEED0Ev
FNDA:0,_ZN5amrex7BaseFabIN5Model5Solid6Affine9IsotropicEED0Ev
FN:1994,_ZN5amrex7BaseFabIN5Model5Solid6Affine9IsotropicEED2Ev
FNDA:0,_ZN5amrex7BaseFabIN5Model5Solid6Affine9IsotropicEED2Ev
FN:1994,_ZN5amrex7BaseFabIN5Model5Solid6Linear9IsotropicEED0Ev
FNDA:0,_ZN5amrex7BaseFabIN5Model5Solid6Linear9IsotropicEED0Ev
FN:1994,_ZN5amrex7BaseFabIN5Model5Solid6Linear9IsotropicEED2Ev
FNDA:0,_ZN5amrex7BaseFabIN5Model5Solid6Linear9IsotropicEED2Ev
FN:1994,_ZN5amrex7BaseFabIN5Model5Solid6Linear5CubicEED0Ev
FNDA:1,_ZN5amrex7BaseFabIN5Model5Solid6Linear5CubicEED0Ev
FN:1994,_ZN5amrex7BaseFabIN5Model5Solid6Linear5CubicEED2Ev
FNDA:1,_ZN5amrex7BaseFabIN5Model5Solid6Linear5CubicEED2Ev
FN:1994,_ZN5amrex7BaseFabIN5Model5Solid6Affine5CubicEED0Ev
FNDA:0,_ZN5amrex7BaseFabIN5Model5Solid6Affine5CubicEED0Ev
FN:1994,_ZN5amrex7BaseFabIN5Model5Solid6Affine5CubicEED2Ev
FNDA:0,_ZN5amrex7BaseFabIN5Model5Solid6Affine5CubicEED2Ev
FN:1994,_ZN5amrex7BaseFabIN5Model5Solid6Affine9HexagonalEED0Ev
FNDA:0,_ZN5amrex7BaseFabIN5Model5Solid6Affine9HexagonalEED0Ev
FN:1994,_ZN5amrex7BaseFabIN5Model5Solid6Affine9HexagonalEED2Ev
FNDA:0,_ZN5amrex7BaseFabIN5Model5Solid6Affine9HexagonalEED2Ev
FN:1994,_ZN5amrex7BaseFabIN5Model5Solid6Linear9LaplacianEED0Ev
FNDA:0,_ZN5amrex7BaseFabIN5Model5Solid6Linear9LaplacianEED0Ev
FN:1994,_ZN5amrex7BaseFabIN5Model5Solid6Affine2J2EED0Ev
FNDA:0,_ZN5amrex7BaseFabIN5Model5Solid6Affine2J2EED0Ev
FN:1994,_ZN5amrex7BaseFabIN5Model5Solid6Linear9LaplacianEED2Ev
FNDA:0,_ZN5amrex7BaseFabIN5Model5Solid6Linear9LaplacianEED2Ev
FN:1994,_ZN5amrex7BaseFabIN5Model5Solid7Elastic10NeoHookeanEED0Ev
FNDA:0,_ZN5amrex7BaseFabIN5Model5Solid7Elastic10NeoHookeanEED0Ev
FN:1994,_ZN5amrex7BaseFabIN5Model5Solid7Elastic28PseudoLinearCubicPredeformedEED2Ev
FNDA:0,_ZN5amrex7BaseFabIN5Model5Solid7Elastic28PseudoLinearCubicPredeformedEED2Ev
FN:1994,_ZN5amrex7BaseFabIN5Model5Solid7Elastic28PseudoLinearCubicPredeformedEED0Ev
FNDA:0,_ZN5amrex7BaseFabIN5Model5Solid7Elastic28PseudoLinearCubicPredeformedEED0Ev
FN:1994,_ZN5amrex7BaseFabIN5Model5Solid7Elastic17PseudoLinearCubicEED2Ev
FNDA:1,_ZN5amrex7BaseFabIN5Model5Solid7Elastic17PseudoLinearCubicEED2Ev
FN:1994,_ZN5amrex7BaseFabIN5Model5Solid7Elastic17PseudoLinearCubicEED0Ev
FNDA:1,_ZN5amrex7BaseFabIN5Model5Solid7Elastic17PseudoLinearCubicEED0Ev
FN:2098,_ZN5amrex7BaseFabIN5Model5Solid6Linear9LaplacianEE5clearEv
FNDA:0,_ZN5amrex7BaseFabIN5Model5Solid6Linear9LaplacianEE5clearEv
FN:2098,_ZN5amrex7BaseFabIN3Set7Matrix4ILi3ELi3EEEE5clearEv
FNDA:0,_ZN5amrex7BaseFabIN3Set7Matrix4ILi3ELi3EEEE5clearEv
FN:2098,_ZN5amrex7BaseFabIN3Set7Matrix4ILi3ELi4EEEE5clearEv
FNDA:0,_ZN5amrex7BaseFabIN3Set7Matrix4ILi3ELi4EEEE5clearEv
FN:2098,_ZN5amrex7BaseFabIN5Model5Solid6Affine2J2EE5clearEv
FNDA:0,_ZN5amrex7BaseFabIN5Model5Solid6Affine2J2EE5clearEv
FN:2098,_ZN5amrex7BaseFabIN5Model5Solid7Elastic28PseudoLinearCubicPredeformedEE5clearEv
FNDA:0,_ZN5amrex7BaseFabIN5Model5Solid7Elastic28PseudoLinearCubicPredeformedEE5clearEv
FN:2098,_ZN5amrex7BaseFabIN5Model5Solid7Elastic17PseudoLinearCubicEE5clearEv
FNDA:1,_ZN5amrex7BaseFabIN5Model5Solid7Elastic17PseudoLinearCubicEE5clearEv
FN:2098,_ZN5amrex7BaseFabIN5Model5Solid7Elastic10NeoHookeanEE5clearEv
FNDA:0,_ZN5amrex7BaseFabIN5Model5Solid7Elastic10NeoHookeanEE5clearEv
FN:2098,_ZN5amrex7BaseFabIN5Model5Solid6Affine9HexagonalEE5clearEv
FNDA:0,_ZN5amrex7BaseFabIN5Model5Solid6Affine9HexagonalEE5clearEv
FN:2098,_ZN5amrex7BaseFabIN5Model5Solid6Affine5CubicEE5clearEv
FNDA:0,_ZN5amrex7BaseFabIN5Model5Solid6Affine5CubicEE5clearEv
FN:2098,_ZN5amrex7BaseFabIN5Model5Solid6Linear5CubicEE5clearEv
FNDA:1,_ZN5amrex7BaseFabIN5Model5Solid6Linear5CubicEE5clearEv
FN:2098,_ZN5amrex7BaseFabIN5Model5Solid6Linear9IsotropicEE5clearEv
FNDA:0,_ZN5amrex7BaseFabIN5Model5Solid6Linear9IsotropicEE5clearEv
FN:2098,_ZN5amrex7BaseFabIN5Model5Solid6Affine9IsotropicEE5clearEv
FNDA:0,_ZN5amrex7BaseFabIN5Model5Solid6Affine9IsotropicEE5clearEv
FN:2098,_ZN5amrex7BaseFabIN3Set7Matrix4ILi3ELi1EEEE5clearEv
FNDA:0,_ZN5amrex7BaseFabIN3Set7Matrix4ILi3ELi1EEEE5clearEv
FN:2098,_ZN5amrex7BaseFabIN5Eigen6MatrixIdLi3ELi1ELi0ELi3ELi1EEEE5clearEv
FNDA:0,_ZN5amrex7BaseFabIN5Eigen6MatrixIdLi3ELi1ELi0ELi3ELi1EEEE5clearEv
FN:2098,_ZN5amrex7BaseFabIN5Eigen6MatrixIdLi3ELi3ELi0ELi3ELi3EEEE5clearEv
FNDA:0,_ZN5amrex7BaseFabIN5Eigen6MatrixIdLi3ELi3ELi0ELi3ELi3EEEE5clearEv
FN:2098,_ZN5amrex7BaseFabIN5Model5Solid6Linear19IsotropicDegradableEE5clearEv
FNDA:0,_ZN5amrex7BaseFabIN5Model5Solid6Linear19IsotropicDegradableEE5clearEv
FN:2098,_ZN5amrex7BaseFabIN3Set7Matrix4ILi3ELi6EEEE5clearEv
FNDA:0,_ZN5amrex7BaseFabIN3Set7Matrix4ILi3ELi6EEEE5clearEv
FN:2175,_ZN5amrex7BaseFabIN5Model5Solid6Linear19IsotropicDegradableEE11copyFromMemILNS_5RunOnE1ES4_EEmRKNS_3BoxEiiPKv
FNDA:0,_ZN5amrex7BaseFabIN5Model5Solid6Linear19IsotropicDegradableEE11copyFromMemILNS_5RunOnE1ES4_EEmRKNS_3BoxEiiPKv
FN:2175,_ZN5amrex7BaseFabIdE11copyFromMemILNS_5RunOnE1EdEEmRKNS_3BoxEiiPKv
FNDA:0,_ZN5amrex7BaseFabIdE11copyFromMemILNS_5RunOnE1EdEEmRKNS_3BoxEiiPKv
FN:2175,_ZN5amrex7BaseFabIN3Set7Matrix4ILi3ELi4EEEE11copyFromMemILNS_5RunOnE1ES3_EEmRKNS_3BoxEiiPKv
FNDA:0,_ZN5amrex7BaseFabIN3Set7Matrix4ILi3ELi4EEEE11copyFromMemILNS_5RunOnE1ES3_EEmRKNS_3BoxEiiPKv
FN:2175,_ZN5amrex7BaseFabIN3Set7Matrix4ILi3ELi1EEEE11copyFromMemILNS_5RunOnE1ES3_EEmRKNS_3BoxEiiPKv
FNDA:0,_ZN5amrex7BaseFabIN3Set7Matrix4ILi3ELi1EEEE11copyFromMemILNS_5RunOnE1ES3_EEmRKNS_3BoxEiiPKv
FN:2175,_ZN5amrex7BaseFabIN5Eigen6MatrixIdLi3ELi3ELi0ELi3ELi3EEEE11copyFromMemILNS_5RunOnE1ES3_EEmRKNS_3BoxEiiPKv
FNDA:0,_ZN5amrex7BaseFabIN5Eigen6MatrixIdLi3ELi3ELi0ELi3ELi3EEEE11copyFromMemILNS_5RunOnE1ES3_EEmRKNS_3BoxEiiPKv
FN:2175,_ZN5amrex7BaseFabIN3Set7Matrix4ILi3ELi6EEEE11copyFromMemILNS_5RunOnE1ES3_EEmRKNS_3BoxEiiPKv
FNDA:0,_ZN5amrex7BaseFabIN3Set7Matrix4ILi3ELi6EEEE11copyFromMemILNS_5RunOnE1ES3_EEmRKNS_3BoxEiiPKv
FN:2175,_ZN5amrex7BaseFabIN5Model5Solid6Affine9HexagonalEE11copyFromMemILNS_5RunOnE1ES4_EEmRKNS_3BoxEiiPKv
FNDA:0,_ZN5amrex7BaseFabIN5Model5Solid6Affine9HexagonalEE11copyFromMemILNS_5RunOnE1ES4_EEmRKNS_3BoxEiiPKv
FN:2175,_ZN5amrex7BaseFabIN5Model5Solid6Affine5CubicEE11copyFromMemILNS_5RunOnE1ES4_EEmRKNS_3BoxEiiPKv
FNDA:0,_ZN5amrex7BaseFabIN5Model5Solid6Affine5CubicEE11copyFromMemILNS_5RunOnE1ES4_EEmRKNS_3BoxEiiPKv
FN:2175,_ZN5amrex7BaseFabIN5Model5Solid6Linear9LaplacianEE11copyFromMemILNS_5RunOnE1ES4_EEmRKNS_3BoxEiiPKv
FNDA:0,_ZN5amrex7BaseFabIN5Model5Solid6Linear9LaplacianEE11copyFromMemILNS_5RunOnE1ES4_EEmRKNS_3BoxEiiPKv
FN:2175,_ZN5amrex7BaseFabIN3Set7Matrix4ILi3ELi3EEEE11copyFromMemILNS_5RunOnE1ES3_EEmRKNS_3BoxEiiPKv
FNDA:0,_ZN5amrex7BaseFabIN3Set7Matrix4ILi3ELi3EEEE11copyFromMemILNS_5RunOnE1ES3_EEmRKNS_3BoxEiiPKv
FN:2175,_ZN5amrex7BaseFabIN5Model5Solid7Elastic10NeoHookeanEE11copyFromMemILNS_5RunOnE1ES4_EEmRKNS_3BoxEiiPKv
FNDA:0,_ZN5amrex7BaseFabIN5Model5Solid7Elastic10NeoHookeanEE11copyFromMemILNS_5RunOnE1ES4_EEmRKNS_3BoxEiiPKv
FN:2175,_ZN5amrex7BaseFabIN5Eigen6MatrixIdLi3ELi1ELi0ELi3ELi1EEEE11copyFromMemILNS_5RunOnE1ES3_EEmRKNS_3BoxEiiPKv
FNDA:0,_ZN5amrex7BaseFabIN5Eigen6MatrixIdLi3ELi1ELi0ELi3ELi1EEEE11copyFromMemILNS_5RunOnE1ES3_EEmRKNS_3BoxEiiPKv
FN:2175,_ZN5amrex7BaseFabIN5Model5Solid6Linear5CubicEE11copyFromMemILNS_5RunOnE1ES4_EEmRKNS_3BoxEiiPKv
FNDA:0,_ZN5amrex7BaseFabIN5Model5Solid6Linear5CubicEE11copyFromMemILNS_5RunOnE1ES4_EEmRKNS_3BoxEiiPKv
